
curve.riscv:     file format elf32-littleriscv


Disassembly of section .text:

00010000 <_start>:
   10000:	0000cf97 	auipc	gp,0xc
   10004:	b10f8f93 	add	gp,gp,-1264 # 1bb10 <_gp>
   10008:	610090ef 	jal	19618 <_init>
   1000c:	00009917 	auipc	a0,0x9
   10010:	63490913 	add	a0,a0,1588 # 19634 <_fini>
   10014:	304010ef 	jal	11318 <atexit>
   10018:	00072903 	lw	a0,0(sp)
   1001c:	00470993 	add	a1,sp,4
   10020:	52c090ef 	jal	1954c <main>
   10024:	00080913 	mv	a0,v0
   10028:	3040106f 	j	1132c <exit>

0001002c <__do_global_dtors_aux>:
   1002c:	fe070713 	add	sp,sp,-32
   10030:	00272c23 	sw	s0,24(sp)
   10034:	968fc803 	lbu	v0,-1688(gp) # 1b478 <_fbss>
   10038:	00172e23 	sw	ra,28(sp)
   1003c:	00372a23 	sw	s1,20(sp)
   10040:	00472823 	sw	s2,16(sp)
   10044:	00572623 	sw	s3,12(sp)
   10048:	06081663 	bnez	v0,100b4 <__do_global_dtors_aux+0x88>
   1004c:	0000a297 	auipc	s3,0xa
   10050:	0000a217 	auipc	s2,0xa
   10054:	d1028293 	add	s3,s3,-752 # 19d10 <__DTOR_LIST__>
   10058:	d1420213 	add	s2,s2,-748 # 19d14 <__DTOR_END__>
   1005c:	40520233 	sub	s2,s2,s3
   10060:	96cfa803 	lw	v0,-1684(gp) # 1b47c <dtor_idx.2406>
   10064:	40225213 	sra	s2,s2,0x2
   10068:	fff20213 	add	s2,s2,-1
   1006c:	02487263 	bleu	s2,v0,10090 <__do_global_dtors_aux+0x64>
   10070:	00180813 	add	v0,v0,1
   10074:	00281893 	sll	v1,v0,0x2
   10078:	011288b3 	add	v1,s3,v1
   1007c:	0008a883 	lw	v1,0(v1)
   10080:	970fa623 	sw	v0,-1684(gp) # 1b47c <dtor_idx.2406>
   10084:	000880e7 	jalr	v1
   10088:	96cfa803 	lw	v0,-1684(gp) # 1b47c <dtor_idx.2406>
   1008c:	fe4862e3 	bltu	v0,s2,10070 <__do_global_dtors_aux+0x44>
   10090:	ffff0817 	auipc	v0,0xffff0
   10094:	00000813 	li	v0,0
   10098:	00080a63 	beqz	v0,100ac <__do_global_dtors_aux+0x80>
   1009c:	0000a917 	auipc	a0,0xa
   100a0:	d1890913 	add	a0,a0,-744 # 19d18 <__EH_FRAME_BEGIN__>
   100a4:	00000d17 	auipc	t0,0x0
   100a8:	0a4d00e7 	jalr	t0,164 # 100a4 <__do_global_dtors_aux+0x78>
   100ac:	00100813 	li	v0,1
   100b0:	970f8423 	sb	v0,-1688(gp) # 1b478 <_fbss>
   100b4:	01c72083 	lw	ra,28(sp)
   100b8:	01872103 	lw	s0,24(sp)
   100bc:	01472183 	lw	s1,20(sp)
   100c0:	01072203 	lw	s2,16(sp)
   100c4:	00c72283 	lw	s3,12(sp)
   100c8:	02070713 	add	sp,sp,32
   100cc:	00008067 	ret

000100d0 <call___do_global_dtors_aux>:
   100d0:	ff070713 	add	sp,sp,-16
   100d4:	00172623 	sw	ra,12(sp)
   100d8:	00c72083 	lw	ra,12(sp)
   100dc:	01070713 	add	sp,sp,16
   100e0:	00008067 	ret

000100e4 <frame_dummy>:
   100e4:	ffff0817 	auipc	v0,0xffff0
   100e8:	ff070713 	add	sp,sp,-16
   100ec:	00000813 	li	v0,0
   100f0:	00172623 	sw	ra,12(sp)
   100f4:	00080c63 	beqz	v0,1010c <frame_dummy+0x28>
   100f8:	0000a917 	auipc	a0,0xa
   100fc:	d1890913 	add	a0,a0,-744 # 19d18 <__EH_FRAME_BEGIN__>
   10100:	990f8993 	add	a1,gp,-1648 # 1b4a0 <object.2419>
   10104:	00000d17 	auipc	t0,0x0
   10108:	104d00e7 	jalr	t0,260 # 10104 <frame_dummy+0x20>
   1010c:	0000b917 	auipc	a0,0xb
   10110:	a9492803 	lw	v0,-1388(a0) # 1aa94 <__JCR_END__>
   10114:	02080063 	beqz	v0,10134 <frame_dummy+0x50>
   10118:	ffff0d17 	auipc	t0,0xffff0
   1011c:	00000d13 	li	t0,0
   10120:	000d0a63 	beqz	t0,10134 <frame_dummy+0x50>
   10124:	00c72083 	lw	ra,12(sp)
   10128:	a9490913 	add	a0,a0,-1388
   1012c:	01070713 	add	sp,sp,16
   10130:	000d0067 	jr	t0
   10134:	00c72083 	lw	ra,12(sp)
   10138:	01070713 	add	sp,sp,16
   1013c:	00008067 	ret

00010140 <call_frame_dummy>:
   10140:	ff070713 	add	sp,sp,-16
   10144:	00172623 	sw	ra,12(sp)
   10148:	00c72083 	lw	ra,12(sp)
   1014c:	01070713 	add	sp,sp,16
   10150:	00008067 	ret

00010154 <cos>:
   10154:	fd070713 	add	sp,sp,-48
   10158:	01273427 	fsd	fa0,8(sp)
   1015c:	00c72983 	lw	a1,12(sp)
   10160:	80000837 	lui	v0,0x80000
   10164:	fff84813 	not	v0,v0
   10168:	3fe928b7 	lui	v1,0x3fe92
   1016c:	01387833 	and	v0,v0,a1
   10170:	1fc88893 	add	v1,v1,508
   10174:	02172623 	sw	ra,44(sp)
   10178:	05184663 	blt	v0,v1,101c4 <cos+0x70>
   1017c:	7ff008b7 	lui	v1,0x7ff00
   10180:	01184a63 	blt	v0,v1,10194 <cos+0x40>
   10184:	0b297853 	fsub.d	fv0,fa0,fa0
   10188:	02c72083 	lw	ra,44(sp)
   1018c:	03070713 	add	sp,sp,48
   10190:	00008067 	ret
   10194:	01070a13 	add	a2,sp,16
   10198:	128000ef 	jal	102c0 <__ieee754_rem_pio2>
   1019c:	00387813 	and	v0,v0,3 # 3 <_ftext-0xfffd>
   101a0:	00100893 	li	v1,1
   101a4:	05180063 	beq	v0,v1,101e4 <cos+0x90>
   101a8:	00200893 	li	v1,2
   101ac:	01073907 	fld	fa0,16(sp)
   101b0:	01873a07 	fld	fa2,24(sp)
   101b4:	03180263 	beq	v0,v1,101d8 <cos+0x84>
   101b8:	04081263 	bnez	v0,101fc <cos+0xa8>
   101bc:	3fc000ef 	jal	105b8 <__kernel_cos>
   101c0:	fc9ff06f 	j	10188 <cos+0x34>
   101c4:	72000a53 	fcvt.d.w	fa2,zero
   101c8:	3f0000ef 	jal	105b8 <__kernel_cos>
   101cc:	02c72083 	lw	ra,44(sp)
   101d0:	03070713 	add	sp,sp,48
   101d4:	00008067 	ret
   101d8:	3e0000ef 	jal	105b8 <__kernel_cos>
   101dc:	33080853 	fneg.d	fv0,fv0
   101e0:	fa9ff06f 	j	10188 <cos+0x34>
   101e4:	01073907 	fld	fa0,16(sp)
   101e8:	01873a07 	fld	fa2,24(sp)
   101ec:	00100b13 	li	a4,1
   101f0:	4bd000ef 	jal	10eac <__kernel_sin>
   101f4:	33080853 	fneg.d	fv0,fv0
   101f8:	f91ff06f 	j	10188 <cos+0x34>
   101fc:	00100b13 	li	a4,1
   10200:	4ad000ef 	jal	10eac <__kernel_sin>
   10204:	f85ff06f 	j	10188 <cos+0x34>

00010208 <sin>:
   10208:	fd070713 	add	sp,sp,-48
   1020c:	01273427 	fsd	fa0,8(sp)
   10210:	00c72983 	lw	a1,12(sp)
   10214:	80000837 	lui	v0,0x80000
   10218:	fff84813 	not	v0,v0
   1021c:	3fe928b7 	lui	v1,0x3fe92
   10220:	01387833 	and	v0,v0,a1
   10224:	1fc88893 	add	v1,v1,508
   10228:	02172623 	sw	ra,44(sp)
   1022c:	05184863 	blt	v0,v1,1027c <sin+0x74>
   10230:	7ff008b7 	lui	v1,0x7ff00
   10234:	01184a63 	blt	v0,v1,10248 <sin+0x40>
   10238:	0b297853 	fsub.d	fv0,fa0,fa0
   1023c:	02c72083 	lw	ra,44(sp)
   10240:	03070713 	add	sp,sp,48
   10244:	00008067 	ret
   10248:	01070a13 	add	a2,sp,16
   1024c:	074000ef 	jal	102c0 <__ieee754_rem_pio2>
   10250:	00387813 	and	v0,v0,3
   10254:	00100893 	li	v1,1
   10258:	05180663 	beq	v0,v1,102a4 <sin+0x9c>
   1025c:	00200893 	li	v1,2
   10260:	01073907 	fld	fa0,16(sp)
   10264:	01873a07 	fld	fa2,24(sp)
   10268:	03180663 	beq	v0,v1,10294 <sin+0x8c>
   1026c:	04081463 	bnez	v0,102b4 <sin+0xac>
   10270:	00100b13 	li	a4,1
   10274:	439000ef 	jal	10eac <__kernel_sin>
   10278:	fc5ff06f 	j	1023c <sin+0x34>
   1027c:	72000a53 	fcvt.d.w	fa2,zero
   10280:	00000b13 	li	a4,0
   10284:	429000ef 	jal	10eac <__kernel_sin>
   10288:	02c72083 	lw	ra,44(sp)
   1028c:	03070713 	add	sp,sp,48
   10290:	00008067 	ret
   10294:	00100b13 	li	a4,1
   10298:	415000ef 	jal	10eac <__kernel_sin>
   1029c:	33080853 	fneg.d	fv0,fv0
   102a0:	f9dff06f 	j	1023c <sin+0x34>
   102a4:	01073907 	fld	fa0,16(sp)
   102a8:	01873a07 	fld	fa2,24(sp)
   102ac:	30c000ef 	jal	105b8 <__kernel_cos>
   102b0:	f8dff06f 	j	1023c <sin+0x34>
   102b4:	304000ef 	jal	105b8 <__kernel_cos>
   102b8:	33080853 	fneg.d	fv0,fv0
   102bc:	f81ff06f 	j	1023c <sin+0x34>

000102c0 <__ieee754_rem_pio2>:
   102c0:	fc070713 	add	sp,sp,-64
   102c4:	01273427 	fsd	fa0,8(sp)
   102c8:	00c72983 	lw	a1,12(sp)
   102cc:	02472823 	sw	s2,48(sp)
   102d0:	80000237 	lui	s2,0x80000
   102d4:	fff24213 	not	s2,s2
   102d8:	3fe92837 	lui	v0,0x3fe92
   102dc:	0049f233 	and	s2,a1,s2
   102e0:	1fc80813 	add	v0,v0,508
   102e4:	02272c23 	sw	s0,56(sp)
   102e8:	02372a23 	sw	s1,52(sp)
   102ec:	02172e23 	sw	ra,60(sp)
   102f0:	00098193 	mv	s1,a1
   102f4:	000a0113 	mv	s0,a2
   102f8:	13024263 	blt	s2,v0,1041c <__ieee754_rem_pio2+0x15c>
   102fc:	4002e837 	lui	v0,0x4002e
   10300:	97c80813 	add	v0,v0,-1668
   10304:	03025e63 	ble	v0,s2,10340 <__ieee754_rem_pio2+0x80>
   10308:	838fb887 	fld	fv1,-1992(gp) # 1b348 <__wctomb+0x20>
   1030c:	27305063 	blez	a1,1056c <__ieee754_rem_pio2+0x2ac>
   10310:	3ff92837 	lui	v0,0x3ff92
   10314:	1fb80813 	add	v0,v0,507
   10318:	0b197853 	fsub.d	fv0,fa0,fv1
   1031c:	13020e63 	beq	s2,v0,10458 <__ieee754_rem_pio2+0x198>
   10320:	840fb887 	fld	fv1,-1984(gp) # 1b350 <__wctomb+0x28>
   10324:	0b187953 	fsub.d	fa0,fv0,fv1
   10328:	00100813 	li	v0,1
   1032c:	0b287853 	fsub.d	fv0,fv0,fa0
   10330:	01213027 	fsd	fa0,0(s0)
   10334:	0b1878d3 	fsub.d	fv1,fv0,fv1
   10338:	01113427 	fsd	fv1,8(s0)
   1033c:	0f00006f 	j	1042c <__ieee754_rem_pio2+0x16c>
   10340:	41392837 	lui	v0,0x41392
   10344:	1fc80813 	add	v0,v0,508
   10348:	13024063 	blt	s2,v0,10468 <__ieee754_rem_pio2+0x1a8>
   1034c:	7ff00837 	lui	v0,0x7ff00
   10350:	0f025a63 	ble	v0,s2,10444 <__ieee754_rem_pio2+0x184>
   10354:	01273427 	fsd	fa0,8(sp)
   10358:	41425a13 	sra	a2,s2,0x14
   1035c:	00872803 	lw	v0,8(sp)
   10360:	beaa0a13 	add	a2,a2,-1046
   10364:	014a1913 	sll	a0,a2,0x14
   10368:	412208b3 	sub	v1,s2,a0
   1036c:	01072423 	sw	v0,8(sp)
   10370:	01172623 	sw	v1,12(sp)
   10374:	00873887 	fld	fv1,8(sp)
   10378:	720009d3 	fcvt.d.w	fa1,zero
   1037c:	52089853 	fcvt.w.d	v0,fv1,rtz
   10380:	72080853 	fcvt.d.w	fv0,v0
   10384:	0b08f8d3 	fsub.d	fv1,fv1,fv0
   10388:	878fb907 	fld	fa0,-1928(gp) # 1b388 <__wctomb+0x60>
   1038c:	01073c27 	fsd	fv0,24(sp)
   10390:	1328f8d3 	fmul.d	fv1,fv1,fa0
   10394:	52089853 	fcvt.w.d	v0,fv1,rtz
   10398:	72080853 	fcvt.d.w	fv0,v0
   1039c:	0b08f8d3 	fsub.d	fv1,fv1,fv0
   103a0:	03073027 	fsd	fv0,32(sp)
   103a4:	1328f8d3 	fmul.d	fv1,fv1,fa0
   103a8:	ab388853 	feq.d	v0,fv1,fa1
   103ac:	03173427 	fsd	fv1,40(sp)
   103b0:	1e080663 	beqz	v0,1059c <__ieee754_rem_pio2+0x2dc>
   103b4:	2b3988d3 	fmv.d	fv1,fa1
   103b8:	01870913 	add	a0,sp,24
   103bc:	ab1808d3 	feq.d	v1,fv0,fv1
   103c0:	00300a93 	li	a3,3
   103c4:	00090813 	mv	v0,a0
   103c8:	fffa8a93 	add	a3,a3,-1
   103cc:	00088c63 	beqz	v1,103e4 <__ieee754_rem_pio2+0x124>
   103d0:	00083807 	fld	fv0,0(v0)
   103d4:	fffa8a93 	add	a3,a3,-1
   103d8:	ff880813 	add	v0,v0,-8
   103dc:	ab1808d3 	feq.d	v1,fv0,fv1
   103e0:	fe0898e3 	bnez	v1,103d0 <__ieee754_rem_pio2+0x110>
   103e4:	00009b97 	auipc	a5,0x9
   103e8:	00010993 	mv	a1,s0
   103ec:	00200b13 	li	a4,2
   103f0:	6d0b8b93 	add	a5,a5,1744 # 196d0 <two_over_pi>
   103f4:	2e4000ef 	jal	106d8 <__kernel_rem_pio2>
   103f8:	0201da63 	bgez	s1,1042c <__ieee754_rem_pio2+0x16c>
   103fc:	00013887 	fld	fv1,0(s0)
   10400:	00813807 	fld	fv0,8(s0)
   10404:	41000833 	neg	v0,v0
   10408:	331888d3 	fneg.d	fv1,fv1
   1040c:	33080853 	fneg.d	fv0,fv0
   10410:	01113027 	fsd	fv1,0(s0)
   10414:	01013427 	fsd	fv0,8(s0)
   10418:	0140006f 	j	1042c <__ieee754_rem_pio2+0x16c>
   1041c:	01213027 	fsd	fa0,0(s0)
   10420:	00000813 	li	v0,0
   10424:	000a2423 	sw	zero,8(a2)
   10428:	000a2623 	sw	zero,12(a2)
   1042c:	03c72083 	lw	ra,60(sp)
   10430:	03872103 	lw	s0,56(sp)
   10434:	03472183 	lw	s1,52(sp)
   10438:	03072203 	lw	s2,48(sp)
   1043c:	04070713 	add	sp,sp,64
   10440:	00008067 	ret
   10444:	0b297853 	fsub.d	fv0,fa0,fa0
   10448:	00000813 	li	v0,0
   1044c:	010a3427 	fsd	fv0,8(a2)
   10450:	010a3027 	fsd	fv0,0(a2)
   10454:	fd9ff06f 	j	1042c <__ieee754_rem_pio2+0x16c>
   10458:	850fb887 	fld	fv1,-1968(gp) # 1b360 <__wctomb+0x38>
   1045c:	848fb907 	fld	fa0,-1976(gp) # 1b358 <__wctomb+0x30>
   10460:	0b287853 	fsub.d	fv0,fv0,fa0
   10464:	ec1ff06f 	j	10324 <__ieee754_rem_pio2+0x64>
   10468:	2d9000ef 	jal	10f40 <fabs>
   1046c:	860fb887 	fld	fv1,-1952(gp) # 1b370 <__wctomb+0x48>
   10470:	858fb907 	fld	fa0,-1960(gp) # 1b368 <__wctomb+0x40>
   10474:	8b2878c3 	fmadd.d	fv1,fv0,fa0,fv1
   10478:	52089853 	fcvt.w.d	v0,fv1,rtz
   1047c:	838fb887 	fld	fv1,-1992(gp) # 1b348 <__wctomb+0x20>
   10480:	720809d3 	fcvt.d.w	fa1,v0
   10484:	840fb907 	fld	fa0,-1984(gp) # 1b350 <__wctomb+0x28>
   10488:	33398a53 	fneg.d	fa2,fa1
   1048c:	02082893 	slt	v1,v0,32
   10490:	831a7843 	fmadd.d	fv0,fa2,fv1,fv0
   10494:	1329f953 	fmul.d	fa0,fa1,fa0
   10498:	04088863 	beqz	v1,104e8 <__ieee754_rem_pio2+0x228>
   1049c:	fff80913 	add	a0,v0,-1
   104a0:	00009897 	auipc	v1,0x9
   104a4:	00291913 	sll	a0,a0,0x2
   104a8:	65088893 	add	v1,v1,1616 # 19650 <npio2_hw>
   104ac:	012888b3 	add	v1,v1,a0
   104b0:	0008a883 	lw	v1,0(v1)
   104b4:	02488a63 	beq	v1,s2,104e8 <__ieee754_rem_pio2+0x228>
   104b8:	0b2878d3 	fsub.d	fv1,fv0,fa0
   104bc:	01113027 	fsd	fv1,0(s0)
   104c0:	0b187853 	fsub.d	fv0,fv0,fv1
   104c4:	0b287953 	fsub.d	fa0,fv0,fa0
   104c8:	01213427 	fsd	fa0,8(s0)
   104cc:	f601d0e3 	bgez	s1,1042c <__ieee754_rem_pio2+0x16c>
   104d0:	331888d3 	fneg.d	fv1,fv1
   104d4:	33290953 	fneg.d	fa0,fa0
   104d8:	01113027 	fsd	fv1,0(s0)
   104dc:	01213427 	fsd	fa0,8(s0)
   104e0:	41000833 	neg	v0,v0
   104e4:	f49ff06f 	j	1042c <__ieee754_rem_pio2+0x16c>
   104e8:	0b2878d3 	fsub.d	fv1,fv0,fa0
   104ec:	41425213 	sra	s2,s2,0x14
   104f0:	01173427 	fsd	fv1,8(sp)
   104f4:	00c72a83 	lw	a3,12(sp)
   104f8:	01113027 	fsd	fv1,0(s0)
   104fc:	014ad893 	srl	v1,a3,0x14
   10500:	7ff8f893 	and	v1,v1,2047
   10504:	411208b3 	sub	v1,s2,v1
   10508:	0118a893 	slt	v1,v1,17
   1050c:	fa089ae3 	bnez	v1,104c0 <__ieee754_rem_pio2+0x200>
   10510:	848fb887 	fld	fv1,-1976(gp) # 1b358 <__wctomb+0x30>
   10514:	831a7ac3 	fmadd.d	fa3,fa2,fv1,fv0
   10518:	0b587953 	fsub.d	fa0,fv0,fa3
   1051c:	2b5a8853 	fmv.d	fv0,fa3
   10520:	931a78c3 	fmadd.d	fv1,fa2,fv1,fa0
   10524:	850fb907 	fld	fa0,-1968(gp) # 1b360 <__wctomb+0x38>
   10528:	8b29f947 	fmsub.d	fa0,fa1,fa0,fv1
   1052c:	0b2af8d3 	fsub.d	fv1,fa3,fa0
   10530:	01173427 	fsd	fv1,8(sp)
   10534:	00c72a83 	lw	a3,12(sp)
   10538:	01113027 	fsd	fv1,0(s0)
   1053c:	014ad893 	srl	v1,a3,0x14
   10540:	7ff8f893 	and	v1,v1,2047
   10544:	411208b3 	sub	v1,s2,v1
   10548:	0328a893 	slt	v1,v1,50
   1054c:	f6089ae3 	bnez	v1,104c0 <__ieee754_rem_pio2+0x200>
   10550:	868fb887 	fld	fv1,-1944(gp) # 1b378 <__wctomb+0x50>
   10554:	870fb907 	fld	fa0,-1936(gp) # 1b380 <__wctomb+0x58>
   10558:	ab1a7843 	fmadd.d	fv0,fa2,fv1,fa3
   1055c:	0b0afad3 	fsub.d	fa3,fa3,fv0
   10560:	ab1a78c3 	fmadd.d	fv1,fa2,fv1,fa3
   10564:	8b29f947 	fmsub.d	fa0,fa1,fa0,fv1
   10568:	f51ff06f 	j	104b8 <__ieee754_rem_pio2+0x1f8>
   1056c:	3ff92837 	lui	v0,0x3ff92
   10570:	1fb80813 	add	v0,v0,507
   10574:	03197853 	fadd.d	fv0,fa0,fv1
   10578:	03020863 	beq	s2,v0,105a8 <__ieee754_rem_pio2+0x2e8>
   1057c:	840fb887 	fld	fv1,-1984(gp) # 1b350 <__wctomb+0x28>
   10580:	03187953 	fadd.d	fa0,fv0,fv1
   10584:	fff00813 	li	v0,-1
   10588:	0b287853 	fsub.d	fv0,fv0,fa0
   1058c:	01213027 	fsd	fa0,0(s0)
   10590:	031878d3 	fadd.d	fv1,fv0,fv1
   10594:	01113427 	fsd	fv1,8(s0)
   10598:	e95ff06f 	j	1042c <__ieee754_rem_pio2+0x16c>
   1059c:	00300a93 	li	a3,3
   105a0:	01870913 	add	a0,sp,24
   105a4:	e41ff06f 	j	103e4 <__ieee754_rem_pio2+0x124>
   105a8:	850fb887 	fld	fv1,-1968(gp) # 1b360 <__wctomb+0x38>
   105ac:	848fb907 	fld	fa0,-1976(gp) # 1b358 <__wctomb+0x30>
   105b0:	03287853 	fadd.d	fv0,fv0,fa0
   105b4:	fcdff06f 	j	10580 <__ieee754_rem_pio2+0x2c0>

000105b8 <__kernel_cos>:
   105b8:	ff070713 	add	sp,sp,-16
   105bc:	01273427 	fsd	fa0,8(sp)
   105c0:	00c72983 	lw	a1,12(sp)
   105c4:	80000937 	lui	a0,0x80000
   105c8:	fff94913 	not	a0,a0
   105cc:	01397933 	and	a0,a0,a1
   105d0:	3e400837 	lui	v0,0x3e400
   105d4:	07095063 	ble	v0,a0,10634 <__kernel_cos+0x7c>
   105d8:	52091853 	fcvt.w.d	v0,fa0,rtz
   105dc:	0e080863 	beqz	v0,106cc <__kernel_cos+0x114>
   105e0:	132978d3 	fmul.d	fv1,fa0,fa0
   105e4:	8a0fb807 	fld	fv0,-1888(gp) # 1b3b0 <__wctomb+0x88>
   105e8:	898fb987 	fld	fa1,-1896(gp) # 1b3a8 <__wctomb+0x80>
   105ec:	8338f9c3 	fmadd.d	fa1,fv1,fa1,fv0
   105f0:	8a8fb807 	fld	fv0,-1880(gp) # 1b3b8 <__wctomb+0x90>
   105f4:	8319f9c7 	fmsub.d	fa1,fa1,fv1,fv0
   105f8:	8b0fb807 	fld	fv0,-1872(gp) # 1b3c0 <__wctomb+0x98>
   105fc:	8319f9c3 	fmadd.d	fa1,fa1,fv1,fv0
   10600:	8b8fb807 	fld	fv0,-1864(gp) # 1b3c8 <__wctomb+0xa0>
   10604:	8319f9c7 	fmsub.d	fa1,fa1,fv1,fv0
   10608:	8c0fb807 	fld	fv0,-1856(gp) # 1b3d0 <__wctomb+0xa8>
   1060c:	8319f9c3 	fmadd.d	fa1,fa1,fv1,fv0
   10610:	1319f9d3 	fmul.d	fa1,fa1,fv1
   10614:	13497953 	fmul.d	fa0,fa0,fa2
   10618:	860fb807 	fld	fv0,-1952(gp) # 1b370 <__wctomb+0x48>
   1061c:	01070713 	add	sp,sp,16
   10620:	9338f9c7 	fmsub.d	fa1,fv1,fa1,fa0
   10624:	9b08f8c7 	fmsub.d	fv1,fv1,fv0,fa1
   10628:	890fb807 	fld	fv0,-1904(gp) # 1b3a0 <__wctomb+0x78>
   1062c:	0b187853 	fsub.d	fv0,fv0,fv1
   10630:	00008067 	ret
   10634:	132978d3 	fmul.d	fv1,fa0,fa0
   10638:	8a0fb807 	fld	fv0,-1888(gp) # 1b3b0 <__wctomb+0x88>
   1063c:	898fb987 	fld	fa1,-1896(gp) # 1b3a8 <__wctomb+0x80>
   10640:	8338f9c3 	fmadd.d	fa1,fv1,fa1,fv0
   10644:	8a8fb807 	fld	fv0,-1880(gp) # 1b3b8 <__wctomb+0x90>
   10648:	8319f9c7 	fmsub.d	fa1,fa1,fv1,fv0
   1064c:	8b0fb807 	fld	fv0,-1872(gp) # 1b3c0 <__wctomb+0x98>
   10650:	8319f9c3 	fmadd.d	fa1,fa1,fv1,fv0
   10654:	8b8fb807 	fld	fv0,-1864(gp) # 1b3c8 <__wctomb+0xa0>
   10658:	8319f9c7 	fmsub.d	fa1,fa1,fv1,fv0
   1065c:	8c0fb807 	fld	fv0,-1856(gp) # 1b3d0 <__wctomb+0xa8>
   10660:	3fd33837 	lui	v0,0x3fd33
   10664:	33380813 	add	v0,v0,819
   10668:	8319f9c3 	fmadd.d	fa1,fa1,fv1,fv0
   1066c:	1319f9d3 	fmul.d	fa1,fa1,fv1
   10670:	fb0942e3 	blt	a0,v0,10614 <__kernel_cos+0x5c>
   10674:	3fe90837 	lui	v0,0x3fe90
   10678:	00180813 	add	v0,v0,1
   1067c:	05095263 	ble	v0,a0,106c0 <__kernel_cos+0x108>
   10680:	ffe009b7 	lui	a1,0xffe00
   10684:	00000813 	li	v0,0
   10688:	013908b3 	add	v1,a0,a1
   1068c:	01072423 	sw	v0,8(sp)
   10690:	01172623 	sw	v1,12(sp)
   10694:	00873a87 	fld	fa3,8(sp)
   10698:	890fb807 	fld	fv0,-1904(gp) # 1b3a0 <__wctomb+0x78>
   1069c:	0b587853 	fsub.d	fv0,fv0,fa3
   106a0:	13497953 	fmul.d	fa0,fa0,fa2
   106a4:	860fba07 	fld	fa2,-1952(gp) # 1b370 <__wctomb+0x48>
   106a8:	01070713 	add	sp,sp,16
   106ac:	ab48fac7 	fmsub.d	fa3,fv1,fa2,fa3
   106b0:	9338f8c7 	fmsub.d	fv1,fv1,fa1,fa0
   106b4:	0b1af8d3 	fsub.d	fv1,fa3,fv1
   106b8:	0b187853 	fsub.d	fv0,fv0,fv1
   106bc:	00008067 	ret
   106c0:	880fb807 	fld	fv0,-1920(gp) # 1b390 <__wctomb+0x68>
   106c4:	888fba87 	fld	fa3,-1912(gp) # 1b398 <__wctomb+0x70>
   106c8:	fd9ff06f 	j	106a0 <__kernel_cos+0xe8>
   106cc:	890fb807 	fld	fv0,-1904(gp) # 1b3a0 <__wctomb+0x78>
   106d0:	01070713 	add	sp,sp,16
   106d4:	00008067 	ret

000106d8 <__kernel_rem_pio2>:
   106d8:	d4070713 	add	sp,sp,-704
   106dc:	01800813 	li	v0,24
   106e0:	2a272c23 	sw	s0,696(sp)
   106e4:	ffda0113 	add	s0,a2,-3
   106e8:	03014133 	div	s0,s0,v0
   106ec:	2a572623 	sw	s3,684(sp)
   106f0:	00009297 	auipc	s3,0x9
   106f4:	7d828293 	add	s3,s3,2008 # 197d8 <init_jk>
   106f8:	002b1813 	sll	v0,a4,0x2
   106fc:	01028833 	add	v0,s3,v0
   10700:	2a372a23 	sw	s1,692(sp)
   10704:	00082183 	lw	s1,0(v0)
   10708:	2a672423 	sw	s4,680(sp)
   1070c:	2a872023 	sw	s6,672(sp)
   10710:	fffa8313 	add	s4,a3,-1
   10714:	00090413 	mv	s6,a0
   10718:	28b72a23 	sw	s9,660(sp)
   1071c:	00330833 	add	v0,s4,s1
   10720:	2a472823 	sw	s2,688(sp)
   10724:	2a772223 	sw	s5,676(sp)
   10728:	28972e23 	sw	s7,668(sp)
   1072c:	2a172e23 	sw	ra,700(sp)
   10730:	28a72c23 	sw	s8,664(sp)
   10734:	28c72823 	sw	s10,656(sp)
   10738:	28d72623 	sw	s11,652(sp)
   1073c:	26073c27 	fsd	fs0,632(sp)
   10740:	26173827 	fsd	fs1,624(sp)
   10744:	26273427 	fsd	fs2,616(sp)
   10748:	26373027 	fsd	fs3,608(sp)
   1074c:	24473c27 	fsd	fs4,600(sp)
   10750:	24573827 	fsd	fs5,592(sp)
   10754:	24673427 	fsd	fs6,584(sp)
   10758:	000b0213 	mv	s2,a4
   1075c:	000a8393 	mv	s5,a3
   10760:	00098493 	mv	s7,a1
   10764:	01772423 	sw	a5,8(sp)
   10768:	fff14893 	not	v1,s0
   1076c:	41f8d893 	sra	v1,v1,0x1f
   10770:	01117133 	and	s0,s0,v1
   10774:	fff14893 	not	v1,s0
   10778:	00389913 	sll	a0,v1,0x3
   1077c:	00589893 	sll	v1,v1,0x5
   10780:	412885b3 	sub	s9,v1,a0
   10784:	014585b3 	add	s9,s9,a2
   10788:	04084263 	bltz	v0,107cc <__kernel_rem_pio2+0xf4>
   1078c:	40610933 	sub	a0,s0,s4
   10790:	00291993 	sll	a1,a0,0x2
   10794:	00381813 	sll	v0,v0,0x3
   10798:	01870a93 	add	a3,sp,24
   1079c:	01070893 	add	v1,sp,16
   107a0:	013b89b3 	add	a1,a5,a1
   107a4:	010a8a33 	add	a2,a3,v0
   107a8:	72000853 	fcvt.d.w	fv0,zero
   107ac:	00094663 	bltz	a0,107b8 <__kernel_rem_pio2+0xe0>
   107b0:	0009a803 	lw	v0,0(a1)
   107b4:	72080853 	fcvt.d.w	fv0,v0
   107b8:	0108b027 	fsd	fv0,0(v1)
   107bc:	00888893 	add	v1,v1,8
   107c0:	00190913 	add	a0,a0,1
   107c4:	00498993 	add	a1,a1,4
   107c8:	ff4890e3 	bne	v1,a2,107a8 <__kernel_rem_pio2+0xd0>
   107cc:	0401cc63 	bltz	s1,10824 <__kernel_rem_pio2+0x14c>
   107d0:	15070a93 	add	a3,sp,336
   107d4:	00030a13 	mv	a2,s4
   107d8:	00718b33 	add	a4,s1,s5
   107dc:	00339993 	sll	a1,s5,0x3
   107e0:	72000853 	fcvt.d.w	fv0,zero
   107e4:	02034863 	bltz	s4,10814 <__kernel_rem_pio2+0x13c>
   107e8:	003a1893 	sll	v1,a2,0x3
   107ec:	01070913 	add	a0,sp,16
   107f0:	011908b3 	add	v1,a0,v1
   107f4:	00000813 	li	v0,0
   107f8:	01040933 	add	a0,s6,v0
   107fc:	0008b887 	fld	fv1,0(v1)
   10800:	00093907 	fld	fa0,0(a0)
   10804:	00880813 	add	v0,v0,8
   10808:	ff888893 	add	v1,v1,-8
   1080c:	83197843 	fmadd.d	fv0,fa0,fv1,fv0
   10810:	ff3814e3 	bne	v0,a1,107f8 <__kernel_rem_pio2+0x120>
   10814:	001a0a13 	add	a2,a2,1
   10818:	010ab027 	fsd	fv0,0(a3)
   1081c:	008a8a93 	add	a3,a3,8
   10820:	fd6a10e3 	bne	a2,a4,107e0 <__kernel_rem_pio2+0x108>
   10824:	8c8fb087 	fld	fs1,-1848(gp) # 1b3d8 <__wctomb+0xb0>
   10828:	878fb007 	fld	fs0,-1928(gp) # 1b388 <__wctomb+0x60>
   1082c:	8d0fb287 	fld	fs5,-1840(gp) # 1b3e0 <__wctomb+0xb8>
   10830:	8d8fb207 	fld	fs4,-1832(gp) # 1b3e8 <__wctomb+0xc0>
   10834:	890fb187 	fld	fs3,-1904(gp) # 1b3a0 <__wctomb+0x78>
   10838:	fff18813 	add	v0,s1,-1
   1083c:	860fb307 	fld	fs6,-1952(gp) # 1b370 <__wctomb+0x48>
   10840:	00281813 	sll	v0,v0,0x2
   10844:	00018513 	mv	s8,s1
   10848:	01072623 	sw	v0,12(sp)
   1084c:	00351813 	sll	v0,s8,0x3
   10850:	24070a13 	add	a2,sp,576
   10854:	010a0833 	add	v0,a2,v0
   10858:	f1083907 	fld	fa0,-240(v0)
   1085c:	04a05863 	blez	s8,108ac <__kernel_rem_pio2+0x1d4>
   10860:	fff50893 	add	v1,s8,-1
   10864:	1f070813 	add	v0,sp,496
   10868:	00389893 	sll	v1,v1,0x3
   1086c:	00251993 	sll	a1,s8,0x2
   10870:	15070a93 	add	a3,sp,336
   10874:	011a88b3 	add	v1,a3,v1
   10878:	010989b3 	add	a1,a1,v0
   1087c:	12197853 	fmul.d	fv0,fa0,fs1
   10880:	0008b987 	fld	fa1,0(v1)
   10884:	ff888893 	add	v1,v1,-8
   10888:	52081953 	fcvt.w.d	a0,fv0,rtz
   1088c:	72090853 	fcvt.d.w	fv0,a0
   10890:	330808d3 	fneg.d	fv1,fv0
   10894:	9208f8c3 	fmadd.d	fv1,fv1,fs0,fa0
   10898:	03387953 	fadd.d	fa0,fv0,fa1
   1089c:	52089953 	fcvt.w.d	a0,fv1,rtz
   108a0:	01282023 	sw	a0,0(v0)
   108a4:	00480813 	add	v0,v0,4
   108a8:	fd381ae3 	bne	v0,a1,1087c <__kernel_rem_pio2+0x1a4>
   108ac:	00058a13 	mv	a2,s9
   108b0:	041000ef 	jal	110f0 <scalbn>
   108b4:	12587953 	fmul.d	fa0,fv0,fs5
   108b8:	2b080153 	fmv.d	fs2,fv0
   108bc:	6b4000ef 	jal	10f70 <floor>
   108c0:	33080853 	fneg.d	fv0,fv0
   108c4:	12487143 	fmadd.d	fs2,fv0,fs4,fs2
   108c8:	520116d3 	fcvt.w.d	s11,fs2,rtz
   108cc:	72068853 	fcvt.d.w	fv0,s11
   108d0:	0b017153 	fsub.d	fs2,fs2,fv0
   108d4:	3ab05663 	blez	s9,10c80 <__kernel_rem_pio2+0x5a8>
   108d8:	fff50893 	add	v1,s8,-1
   108dc:	24070813 	add	v0,sp,576
   108e0:	00289893 	sll	v1,v1,0x2
   108e4:	011808b3 	add	v1,v0,v1
   108e8:	fb08a803 	lw	v0,-80(v1)
   108ec:	01800993 	li	a1,24
   108f0:	40b989b3 	sub	a1,a1,s9
   108f4:	41385933 	sra	a0,v0,a1
   108f8:	013919b3 	sll	a1,a0,a1
   108fc:	01700613 	li	s10,23
   10900:	41380833 	sub	v0,v0,a1
   10904:	40b60633 	sub	s10,s10,s9
   10908:	012686b3 	add	s11,s11,a0
   1090c:	fb08a823 	sw	v0,-80(v1)
   10910:	40c85633 	sra	s10,v0,s10
   10914:	08c05e63 	blez	s10,109b0 <__kernel_rem_pio2+0x2d8>
   10918:	00168693 	add	s11,s11,1
   1091c:	00000913 	li	a0,0
   10920:	04a05863 	blez	s8,10970 <__kernel_rem_pio2+0x298>
   10924:	1f070813 	add	v0,sp,496
   10928:	00251993 	sll	a1,s8,0x2
   1092c:	01000ab7 	lui	a3,0x1000
   10930:	010989b3 	add	a1,a1,v0
   10934:	fffa8b13 	add	a4,a3,-1
   10938:	01c0006f 	j	10954 <__kernel_rem_pio2+0x27c>
   1093c:	411a8a33 	sub	a2,a3,v1
   10940:	00088663 	beqz	v1,1094c <__kernel_rem_pio2+0x274>
   10944:	01482023 	sw	a2,0(v0)
   10948:	00100913 	li	a0,1
   1094c:	00480813 	add	v0,v0,4
   10950:	03380063 	beq	v0,a1,10970 <__kernel_rem_pio2+0x298>
   10954:	00082883 	lw	v1,0(v0)
   10958:	fe0902e3 	beqz	a0,1093c <__kernel_rem_pio2+0x264>
   1095c:	411b08b3 	sub	v1,a4,v1
   10960:	01182023 	sw	v1,0(v0)
   10964:	00480813 	add	v0,v0,4
   10968:	00100913 	li	a0,1
   1096c:	ff3814e3 	bne	v0,a1,10954 <__kernel_rem_pio2+0x27c>
   10970:	02b05c63 	blez	s9,109a8 <__kernel_rem_pio2+0x2d0>
   10974:	00100813 	li	v0,1
   10978:	33058463 	beq	s9,v0,10ca0 <__kernel_rem_pio2+0x5c8>
   1097c:	00200813 	li	v0,2
   10980:	03059463 	bne	s9,v0,109a8 <__kernel_rem_pio2+0x2d0>
   10984:	fff50813 	add	v0,s8,-1
   10988:	00281813 	sll	v0,v0,0x2
   1098c:	24070a93 	add	a3,sp,576
   10990:	010a8833 	add	v0,a3,v0
   10994:	fb082983 	lw	a1,-80(v0)
   10998:	004008b7 	lui	v1,0x400
   1099c:	fff88893 	add	v1,v1,-1
   109a0:	0119f8b3 	and	v1,a1,v1
   109a4:	fb182823 	sw	v1,-80(v0)
   109a8:	00200813 	li	v0,2
   109ac:	11060c63 	beq	s10,v0,10ac4 <__kernel_rem_pio2+0x3ec>
   109b0:	72000853 	fcvt.d.w	fv0,zero
   109b4:	ab010853 	feq.d	v0,fs2,fv0
   109b8:	12080863 	beqz	v0,10ae8 <__kernel_rem_pio2+0x410>
   109bc:	fff50a13 	add	a2,s8,-1
   109c0:	023a4863 	blt	a2,s1,109f0 <__kernel_rem_pio2+0x318>
   109c4:	1f070893 	add	v1,sp,496
   109c8:	00251813 	sll	v0,s8,0x2
   109cc:	00219993 	sll	a1,s1,0x2
   109d0:	01088833 	add	v0,v1,v0
   109d4:	013889b3 	add	a1,v1,a1
   109d8:	00000893 	li	v1,0
   109dc:	ffc82903 	lw	a0,-4(v0)
   109e0:	ffc80813 	add	v0,v0,-4
   109e4:	0128e8b3 	or	v1,v1,a0
   109e8:	ff381ae3 	bne	v0,a1,109dc <__kernel_rem_pio2+0x304>
   109ec:	2e089863 	bnez	v1,10cdc <__kernel_rem_pio2+0x604>
   109f0:	00c72a83 	lw	a3,12(sp)
   109f4:	24070913 	add	a0,sp,576
   109f8:	00100893 	li	v1,1
   109fc:	01590833 	add	v0,a0,a3
   10a00:	fb082803 	lw	v0,-80(v0)
   10a04:	02081263 	bnez	v0,10a28 <__kernel_rem_pio2+0x350>
   10a08:	ffe18813 	add	v0,s1,-2
   10a0c:	00281813 	sll	v0,v0,0x2
   10a10:	1f070913 	add	a0,sp,496
   10a14:	01090833 	add	v0,a0,v0
   10a18:	ffc80813 	add	v0,v0,-4
   10a1c:	00482903 	lw	a0,4(v0)
   10a20:	00188893 	add	v1,v1,1
   10a24:	fe090ae3 	beqz	a0,10a18 <__kernel_rem_pio2+0x340>
   10a28:	00150813 	add	v0,s8,1
   10a2c:	01150533 	add	s8,s8,v1
   10a30:	e1054ee3 	blt	s8,v0,1084c <__kernel_rem_pio2+0x174>
   10a34:	00872a83 	lw	a3,8(sp)
   10a38:	01030a33 	add	a2,s4,v0
   10a3c:	00280bb3 	add	a5,v0,s0
   10a40:	002b9b93 	sll	a5,a5,0x2
   10a44:	003a1b13 	sll	a4,a2,0x3
   10a48:	00381813 	sll	v0,v0,0x3
   10a4c:	01070893 	add	v1,sp,16
   10a50:	15070913 	add	a0,sp,336
   10a54:	017a8bb3 	add	a5,a3,a5
   10a58:	01688b33 	add	a4,v1,a4
   10a5c:	01090ab3 	add	a3,a0,v0
   10a60:	00750c33 	add	a6,s8,s5
   10a64:	00339993 	sll	a1,s5,0x3
   10a68:	000ba803 	lw	v0,0(a5)
   10a6c:	72000853 	fcvt.d.w	fv0,zero
   10a70:	720808d3 	fcvt.d.w	fv1,v0
   10a74:	011b3027 	fsd	fv1,0(a4)
   10a78:	02034863 	bltz	s4,10aa8 <__kernel_rem_pio2+0x3d0>
   10a7c:	01070813 	add	v0,sp,16
   10a80:	003a1893 	sll	v1,a2,0x3
   10a84:	011808b3 	add	v1,v0,v1
   10a88:	00000813 	li	v0,0
   10a8c:	01040933 	add	a0,s6,v0
   10a90:	0008b887 	fld	fv1,0(v1)
   10a94:	00093907 	fld	fa0,0(a0)
   10a98:	00880813 	add	v0,v0,8
   10a9c:	ff888893 	add	v1,v1,-8
   10aa0:	83197843 	fmadd.d	fv0,fa0,fv1,fv0
   10aa4:	ff3814e3 	bne	v0,a1,10a8c <__kernel_rem_pio2+0x3b4>
   10aa8:	001a0a13 	add	a2,a2,1
   10aac:	010ab027 	fsd	fv0,0(a3)
   10ab0:	004b8b93 	add	a5,a5,4
   10ab4:	008b0b13 	add	a4,a4,8
   10ab8:	008a8a93 	add	a3,a3,8
   10abc:	fb8a16e3 	bne	a2,a6,10a68 <__kernel_rem_pio2+0x390>
   10ac0:	d8dff06f 	j	1084c <__kernel_rem_pio2+0x174>
   10ac4:	0a21f153 	fsub.d	fs2,fs3,fs2
   10ac8:	ee0904e3 	beqz	a0,109b0 <__kernel_rem_pio2+0x2d8>
   10acc:	2a318953 	fmv.d	fa0,fs3
   10ad0:	00058a13 	mv	a2,s9
   10ad4:	61c000ef 	jal	110f0 <scalbn>
   10ad8:	0b017153 	fsub.d	fs2,fs2,fv0
   10adc:	72000853 	fcvt.d.w	fv0,zero
   10ae0:	ab010853 	feq.d	v0,fs2,fv0
   10ae4:	ec081ce3 	bnez	v0,109bc <__kernel_rem_pio2+0x2e4>
   10ae8:	2a210953 	fmv.d	fa0,fs2
   10aec:	40b00a33 	neg	a2,s9
   10af0:	600000ef 	jal	110f0 <scalbn>
   10af4:	878fb887 	fld	fv1,-1928(gp) # 1b388 <__wctomb+0x60>
   10af8:	bb088853 	fle.d	v0,fv1,fv0
   10afc:	38080063 	beqz	v0,10e7c <__kernel_rem_pio2+0x7a4>
   10b00:	8c8fb907 	fld	fa0,-1848(gp) # 1b3d8 <__wctomb+0xb0>
   10b04:	00251913 	sll	a0,s8,0x2
   10b08:	00150513 	add	s8,s8,1
   10b0c:	13287953 	fmul.d	fa0,fv0,fa0
   10b10:	24070a13 	add	a2,sp,576
   10b14:	00251813 	sll	v0,s8,0x2
   10b18:	012a0933 	add	a0,a2,a0
   10b1c:	010a0833 	add	v0,a2,v0
   10b20:	01858593 	add	s9,s9,24
   10b24:	520918d3 	fcvt.w.d	v1,fa0,rtz
   10b28:	72088953 	fcvt.d.w	fa0,v1
   10b2c:	332909d3 	fneg.d	fa1,fa0
   10b30:	520918d3 	fcvt.w.d	v1,fa0,rtz
   10b34:	8319f843 	fmadd.d	fv0,fa1,fv1,fv0
   10b38:	520819d3 	fcvt.w.d	a1,fv0,rtz
   10b3c:	fb392823 	sw	a1,-80(a0)
   10b40:	fb182823 	sw	v1,-80(v0)
   10b44:	890fb907 	fld	fa0,-1904(gp) # 1b3a0 <__wctomb+0x78>
   10b48:	00058a13 	mv	a2,s9
   10b4c:	5a4000ef 	jal	110f0 <scalbn>
   10b50:	0a054863 	bltz	s8,10c00 <__kernel_rem_pio2+0x528>
   10b54:	8c8fb907 	fld	fa0,-1848(gp) # 1b3d8 <__wctomb+0xb0>
   10b58:	00251893 	sll	v1,s8,0x2
   10b5c:	00351813 	sll	v0,s8,0x3
   10b60:	1f070913 	add	a0,sp,496
   10b64:	15070a13 	add	a2,sp,336
   10b68:	011908b3 	add	v1,a0,v1
   10b6c:	010a0833 	add	v0,a2,v0
   10b70:	14870993 	add	a1,sp,328
   10b74:	0008a903 	lw	a0,0(v1)
   10b78:	ffc88893 	add	v1,v1,-4
   10b7c:	720908d3 	fcvt.d.w	fv1,a0
   10b80:	1308f8d3 	fmul.d	fv1,fv1,fv0
   10b84:	13287853 	fmul.d	fv0,fv0,fa0
   10b88:	01183027 	fsd	fv1,0(v0)
   10b8c:	ff880813 	add	v0,v0,-8
   10b90:	ff3812e3 	bne	v0,a1,10b74 <__kernel_rem_pio2+0x49c>
   10b94:	00050a13 	mv	a2,s8
   10b98:	00000993 	li	a1,0
   10b9c:	fff00a93 	li	a3,-1
   10ba0:	72000853 	fcvt.d.w	fv0,zero
   10ba4:	0401c063 	bltz	s1,10be4 <__kernel_rem_pio2+0x50c>
   10ba8:	15070813 	add	v0,sp,336
   10bac:	003a1913 	sll	a0,a2,0x3
   10bb0:	01280933 	add	a0,v0,a0
   10bb4:	01028893 	add	v1,s3,16
   10bb8:	72000853 	fcvt.d.w	fv0,zero
   10bbc:	00000813 	li	v0,0
   10bc0:	00c0006f 	j	10bcc <__kernel_rem_pio2+0x4f4>
   10bc4:	00890913 	add	a0,a0,8
   10bc8:	0109ce63 	blt	a1,v0,10be4 <__kernel_rem_pio2+0x50c>
   10bcc:	0008b907 	fld	fa0,0(v1)
   10bd0:	00093887 	fld	fv1,0(a0)
   10bd4:	00180813 	add	v0,v0,1
   10bd8:	00888893 	add	v1,v1,8
   10bdc:	83197843 	fmadd.d	fv0,fa0,fv1,fv0
   10be0:	ff01d2e3 	ble	v0,s1,10bc4 <__kernel_rem_pio2+0x4ec>
   10be4:	00399813 	sll	v0,a1,0x3
   10be8:	24070893 	add	v1,sp,576
   10bec:	01088833 	add	v0,v1,v0
   10bf0:	fffa0a13 	add	a2,a2,-1
   10bf4:	e7083827 	fsd	fv0,-400(v0)
   10bf8:	00198993 	add	a1,a1,1
   10bfc:	fb5a12e3 	bne	a2,a3,10ba0 <__kernel_rem_pio2+0x4c8>
   10c00:	00322813 	slt	v0,s2,3
   10c04:	10080e63 	beqz	v0,10d20 <__kernel_rem_pio2+0x648>
   10c08:	22405c63 	blez	s2,10e40 <__kernel_rem_pio2+0x768>
   10c0c:	72000853 	fcvt.d.w	fv0,zero
   10c10:	02054463 	bltz	s8,10c38 <__kernel_rem_pio2+0x560>
   10c14:	00351813 	sll	v0,s8,0x3
   10c18:	0b070913 	add	a0,sp,176
   10c1c:	72000853 	fcvt.d.w	fv0,zero
   10c20:	01090833 	add	v0,a0,v0
   10c24:	0a870893 	add	v1,sp,168
   10c28:	00083887 	fld	fv1,0(v0)
   10c2c:	ff880813 	add	v0,v0,-8
   10c30:	03187853 	fadd.d	fv0,fv0,fv1
   10c34:	ff181ae3 	bne	v0,v1,10c28 <__kernel_rem_pio2+0x550>
   10c38:	2b0808d3 	fmv.d	fv1,fv0
   10c3c:	00060463 	beqz	s10,10c44 <__kernel_rem_pio2+0x56c>
   10c40:	330808d3 	fneg.d	fv1,fv0
   10c44:	0114b027 	fsd	fv1,0(s7)
   10c48:	0b073887 	fld	fv1,176(sp)
   10c4c:	0b08f853 	fsub.d	fv0,fv1,fv0
   10c50:	02a05063 	blez	s8,10c70 <__kernel_rem_pio2+0x598>
   10c54:	0b070813 	add	v0,sp,176
   10c58:	00351893 	sll	v1,s8,0x3
   10c5c:	011808b3 	add	v1,v0,v1
   10c60:	00883887 	fld	fv1,8(v0)
   10c64:	00880813 	add	v0,v0,8
   10c68:	03187853 	fadd.d	fv0,fv0,fv1
   10c6c:	ff181ae3 	bne	v0,v1,10c60 <__kernel_rem_pio2+0x588>
   10c70:	00060463 	beqz	s10,10c78 <__kernel_rem_pio2+0x5a0>
   10c74:	33080853 	fneg.d	fv0,fv0
   10c78:	0104b427 	fsd	fv0,8(s7)
   10c7c:	0ac0006f 	j	10d28 <__kernel_rem_pio2+0x650>
   10c80:	04059463 	bnez	s9,10cc8 <__kernel_rem_pio2+0x5f0>
   10c84:	fff50813 	add	v0,s8,-1
   10c88:	00281813 	sll	v0,v0,0x2
   10c8c:	24070893 	add	v1,sp,576
   10c90:	01088833 	add	v0,v1,v0
   10c94:	fb082603 	lw	s10,-80(v0)
   10c98:	41765613 	sra	s10,s10,0x17
   10c9c:	c79ff06f 	j	10914 <__kernel_rem_pio2+0x23c>
   10ca0:	fff50813 	add	v0,s8,-1
   10ca4:	00281813 	sll	v0,v0,0x2
   10ca8:	24070a13 	add	a2,sp,576
   10cac:	010a0833 	add	v0,a2,v0
   10cb0:	fb082983 	lw	a1,-80(v0)
   10cb4:	008008b7 	lui	v1,0x800
   10cb8:	fff88893 	add	v1,v1,-1
   10cbc:	0119f8b3 	and	v1,a1,v1
   10cc0:	fb182823 	sw	v1,-80(v0)
   10cc4:	ce5ff06f 	j	109a8 <__kernel_rem_pio2+0x2d0>
   10cc8:	ba230853 	fle.d	v0,fs6,fs2
   10ccc:	00200613 	li	s10,2
   10cd0:	c40814e3 	bnez	v0,10918 <__kernel_rem_pio2+0x240>
   10cd4:	00000613 	li	s10,0
   10cd8:	cd9ff06f 	j	109b0 <__kernel_rem_pio2+0x2d8>
   10cdc:	002a1813 	sll	v0,a2,0x2
   10ce0:	24070893 	add	v1,sp,576
   10ce4:	01088833 	add	v0,v1,v0
   10ce8:	fb082803 	lw	v0,-80(v0)
   10cec:	fe858593 	add	s9,s9,-24
   10cf0:	000a0513 	mv	s8,a2
   10cf4:	e40818e3 	bnez	v0,10b44 <__kernel_rem_pio2+0x46c>
   10cf8:	fffa0813 	add	v0,a2,-1
   10cfc:	00281813 	sll	v0,v0,0x2
   10d00:	1f070913 	add	a0,sp,496
   10d04:	01090833 	add	v0,a0,v0
   10d08:	ffc80813 	add	v0,v0,-4
   10d0c:	00482883 	lw	v1,4(v0)
   10d10:	fff50513 	add	s8,s8,-1
   10d14:	fe858593 	add	s9,s9,-24
   10d18:	fe0888e3 	beqz	v1,10d08 <__kernel_rem_pio2+0x630>
   10d1c:	e29ff06f 	j	10b44 <__kernel_rem_pio2+0x46c>
   10d20:	00300813 	li	v0,3
   10d24:	07020063 	beq	s2,v0,10d84 <__kernel_rem_pio2+0x6ac>
   10d28:	2bc72083 	lw	ra,700(sp)
   10d2c:	0076f813 	and	v0,s11,7
   10d30:	2b872103 	lw	s0,696(sp)
   10d34:	2b472183 	lw	s1,692(sp)
   10d38:	2b072203 	lw	s2,688(sp)
   10d3c:	2ac72283 	lw	s3,684(sp)
   10d40:	2a872303 	lw	s4,680(sp)
   10d44:	2a472383 	lw	s5,676(sp)
   10d48:	2a072403 	lw	s6,672(sp)
   10d4c:	29c72483 	lw	s7,668(sp)
   10d50:	29872503 	lw	s8,664(sp)
   10d54:	29472583 	lw	s9,660(sp)
   10d58:	29072603 	lw	s10,656(sp)
   10d5c:	28c72683 	lw	s11,652(sp)
   10d60:	27873007 	fld	fs0,632(sp)
   10d64:	27073087 	fld	fs1,624(sp)
   10d68:	26873107 	fld	fs2,616(sp)
   10d6c:	26073187 	fld	fs3,608(sp)
   10d70:	25873207 	fld	fs4,600(sp)
   10d74:	25073287 	fld	fs5,592(sp)
   10d78:	24873307 	fld	fs6,584(sp)
   10d7c:	2c070713 	add	sp,sp,704
   10d80:	00008067 	ret
   10d84:	72000853 	fcvt.d.w	fv0,zero
   10d88:	08a05863 	blez	s8,10e18 <__kernel_rem_pio2+0x740>
   10d8c:	fff50813 	add	v0,s8,-1
   10d90:	0b070913 	add	a0,sp,176
   10d94:	00381813 	sll	v0,v0,0x3
   10d98:	01090833 	add	v0,a0,v0
   10d9c:	0a870993 	add	a1,sp,168
   10da0:	00080893 	mv	v1,v0
   10da4:	0008b907 	fld	fa0,0(v1)
   10da8:	0088b807 	fld	fv0,8(v1)
   10dac:	030978d3 	fadd.d	fv1,fa0,fv0
   10db0:	0b197953 	fsub.d	fa0,fa0,fv1
   10db4:	0118b027 	fsd	fv1,0(v1)
   10db8:	03287853 	fadd.d	fv0,fv0,fa0
   10dbc:	0108b427 	fsd	fv0,8(v1)
   10dc0:	ff888893 	add	v1,v1,-8
   10dc4:	ff3890e3 	bne	v1,a1,10da4 <__kernel_rem_pio2+0x6cc>
   10dc8:	00252893 	slt	v1,s8,2
   10dcc:	72000853 	fcvt.d.w	fv0,zero
   10dd0:	04089463 	bnez	v1,10e18 <__kernel_rem_pio2+0x740>
   10dd4:	00083907 	fld	fa0,0(v0)
   10dd8:	00883807 	fld	fv0,8(v0)
   10ddc:	030978d3 	fadd.d	fv1,fa0,fv0
   10de0:	0b197953 	fsub.d	fa0,fa0,fv1
   10de4:	01183027 	fsd	fv1,0(v0)
   10de8:	03287853 	fadd.d	fv0,fv0,fa0
   10dec:	01083427 	fsd	fv0,8(v0)
   10df0:	ff880813 	add	v0,v0,-8
   10df4:	ff0910e3 	bne	a0,v0,10dd4 <__kernel_rem_pio2+0x6fc>
   10df8:	00351813 	sll	v0,s8,0x3
   10dfc:	72000853 	fcvt.d.w	fv0,zero
   10e00:	01090833 	add	v0,a0,v0
   10e04:	00890913 	add	a0,a0,8
   10e08:	00083887 	fld	fv1,0(v0)
   10e0c:	ff880813 	add	v0,v0,-8
   10e10:	03187853 	fadd.d	fv0,fv0,fv1
   10e14:	ff281ae3 	bne	v0,a0,10e08 <__kernel_rem_pio2+0x730>
   10e18:	06060e63 	beqz	s10,10e94 <__kernel_rem_pio2+0x7bc>
   10e1c:	0b073907 	fld	fa0,176(sp)
   10e20:	0b873887 	fld	fv1,184(sp)
   10e24:	33080853 	fneg.d	fv0,fv0
   10e28:	33290953 	fneg.d	fa0,fa0
   10e2c:	331888d3 	fneg.d	fv1,fv1
   10e30:	0124b027 	fsd	fa0,0(s7)
   10e34:	0114b427 	fsd	fv1,8(s7)
   10e38:	0104b827 	fsd	fv0,16(s7)
   10e3c:	eedff06f 	j	10d28 <__kernel_rem_pio2+0x650>
   10e40:	ee0214e3 	bnez	s2,10d28 <__kernel_rem_pio2+0x650>
   10e44:	72000853 	fcvt.d.w	fv0,zero
   10e48:	02054263 	bltz	s8,10e6c <__kernel_rem_pio2+0x794>
   10e4c:	0b070893 	add	v1,sp,176
   10e50:	00351813 	sll	v0,s8,0x3
   10e54:	01088833 	add	v0,v1,v0
   10e58:	0a870893 	add	v1,sp,168
   10e5c:	00083887 	fld	fv1,0(v0)
   10e60:	ff880813 	add	v0,v0,-8
   10e64:	03187853 	fadd.d	fv0,fv0,fv1
   10e68:	ff181ae3 	bne	v0,v1,10e5c <__kernel_rem_pio2+0x784>
   10e6c:	00060463 	beqz	s10,10e74 <__kernel_rem_pio2+0x79c>
   10e70:	33080853 	fneg.d	fv0,fv0
   10e74:	0104b027 	fsd	fv0,0(s7)
   10e78:	eb1ff06f 	j	10d28 <__kernel_rem_pio2+0x650>
   10e7c:	00251813 	sll	v0,s8,0x2
   10e80:	24070a93 	add	a3,sp,576
   10e84:	010a8833 	add	v0,a3,v0
   10e88:	520818d3 	fcvt.w.d	v1,fv0,rtz
   10e8c:	fb182823 	sw	v1,-80(v0)
   10e90:	cb5ff06f 	j	10b44 <__kernel_rem_pio2+0x46c>
   10e94:	0104b827 	fsd	fv0,16(s7)
   10e98:	0b073807 	fld	fv0,176(sp)
   10e9c:	0104b027 	fsd	fv0,0(s7)
   10ea0:	0b873807 	fld	fv0,184(sp)
   10ea4:	0104b427 	fsd	fv0,8(s7)
   10ea8:	e81ff06f 	j	10d28 <__kernel_rem_pio2+0x650>

00010eac <__kernel_sin>:
   10eac:	ff070713 	add	sp,sp,-16
   10eb0:	01273427 	fsd	fa0,8(sp)
   10eb4:	00c72983 	lw	a1,12(sp)
   10eb8:	80000837 	lui	v0,0x80000
   10ebc:	fff84813 	not	v0,v0
   10ec0:	01387833 	and	v0,v0,a1
   10ec4:	3e4008b7 	lui	v1,0x3e400
   10ec8:	2b290853 	fmv.d	fv0,fa0
   10ecc:	01185663 	ble	v1,v0,10ed8 <__kernel_sin+0x2c>
   10ed0:	52091853 	fcvt.w.d	v0,fa0,rtz
   10ed4:	04080863 	beqz	v0,10f24 <__kernel_sin+0x78>
   10ed8:	130878d3 	fmul.d	fv1,fv0,fv0
   10edc:	8e8fb907 	fld	fa0,-1816(gp) # 1b3f8 <__wctomb+0xd0>
   10ee0:	8e0fba87 	fld	fa3,-1824(gp) # 1b3f0 <__wctomb+0xc8>
   10ee4:	8f0fb987 	fld	fa1,-1808(gp) # 1b400 <__wctomb+0xd8>
   10ee8:	9358fac7 	fmsub.d	fa3,fv1,fa3,fa0
   10eec:	1308f953 	fmul.d	fa0,fv1,fv0
   10ef0:	9b1afac3 	fmadd.d	fa3,fa3,fv1,fa1
   10ef4:	8f8fb987 	fld	fa1,-1800(gp) # 1b408 <__wctomb+0xe0>
   10ef8:	9b1afac7 	fmsub.d	fa3,fa3,fv1,fa1
   10efc:	900fb987 	fld	fa1,-1792(gp) # 1b410 <__wctomb+0xe8>
   10f00:	9b1af9c3 	fmadd.d	fa1,fa3,fv1,fa1
   10f04:	020b0463 	beqz	a4,10f2c <__kernel_sin+0x80>
   10f08:	133979d3 	fmul.d	fa1,fa0,fa1
   10f0c:	860fba87 	fld	fa3,-1952(gp) # 1b370 <__wctomb+0x48>
   10f10:	9b5a79c7 	fmsub.d	fa1,fa2,fa3,fa1
   10f14:	a319f8c7 	fmsub.d	fv1,fa1,fv1,fa2
   10f18:	908fba07 	fld	fa2,-1784(gp) # 1b418 <__wctomb+0xf0>
   10f1c:	8b497943 	fmadd.d	fa0,fa0,fa2,fv1
   10f20:	0b287853 	fsub.d	fv0,fv0,fa0
   10f24:	01070713 	add	sp,sp,16
   10f28:	00008067 	ret
   10f2c:	908fba87 	fld	fa3,-1784(gp) # 1b418 <__wctomb+0xf0>
   10f30:	01070713 	add	sp,sp,16
   10f34:	ab38f9c7 	fmsub.d	fa1,fv1,fa1,fa3
   10f38:	8329f843 	fmadd.d	fv0,fa1,fa0,fv0
   10f3c:	00008067 	ret

00010f40 <fabs>:
   10f40:	ff070713 	add	sp,sp,-16
   10f44:	01273427 	fsd	fa0,8(sp)
   10f48:	00c72883 	lw	v1,12(sp)
   10f4c:	00872803 	lw	v0,8(sp)
   10f50:	80000937 	lui	a0,0x80000
   10f54:	fff94913 	not	a0,a0
   10f58:	011978b3 	and	v1,a0,v1
   10f5c:	01072423 	sw	v0,8(sp)
   10f60:	01172623 	sw	v1,12(sp)
   10f64:	00873807 	fld	fv0,8(sp)
   10f68:	01070713 	add	sp,sp,16
   10f6c:	00008067 	ret

00010f70 <floor>:
   10f70:	ff070713 	add	sp,sp,-16
   10f74:	01273427 	fsd	fa0,8(sp)
   10f78:	00c72983 	lw	a1,12(sp)
   10f7c:	00872903 	lw	a0,8(sp)
   10f80:	2b290853 	fmv.d	fv0,fa0
   10f84:	4149da13 	sra	a2,a1,0x14
   10f88:	7ffa7a13 	and	a2,a2,2047
   10f8c:	00090813 	mv	v0,a0
   10f90:	c01a0913 	add	a0,a2,-1023
   10f94:	00098893 	mv	v1,a1
   10f98:	01492a93 	slt	a3,a0,20
   10f9c:	00088b93 	mv	a5,v1
   10fa0:	00080b13 	mv	a4,v0
   10fa4:	040a8c63 	beqz	a3,10ffc <floor+0x8c>
   10fa8:	0a094a63 	bltz	a0,1105c <floor+0xec>
   10fac:	00100ab7 	lui	a3,0x100
   10fb0:	fffa8a13 	add	a2,a3,-1
   10fb4:	412a5a33 	sra	a2,a2,a0
   10fb8:	013a79b3 	and	a1,a2,a1
   10fbc:	0109eb33 	or	a4,a1,v0
   10fc0:	020b0a63 	beqz	a4,10ff4 <floor+0x84>
   10fc4:	910fb887 	fld	fv1,-1776(gp) # 1b420 <__wctomb+0xf8>
   10fc8:	03197853 	fadd.d	fv0,fa0,fv1
   10fcc:	720008d3 	fcvt.d.w	fv1,zero
   10fd0:	b30889d3 	flt.d	a1,fv1,fv0
   10fd4:	0a098663 	beqz	a1,11080 <floor+0x110>
   10fd8:	0c08c863 	bltz	v1,110a8 <floor+0x138>
   10fdc:	fffa4a13 	not	a2,a2
   10fe0:	014bfbb3 	and	a5,a5,a2
   10fe4:	00000813 	li	v0,0
   10fe8:	01072423 	sw	v0,8(sp)
   10fec:	01772623 	sw	a5,12(sp)
   10ff0:	00873807 	fld	fv0,8(sp)
   10ff4:	01070713 	add	sp,sp,16
   10ff8:	00008067 	ret
   10ffc:	03492993 	slt	a1,a0,52
   11000:	00099a63 	bnez	a1,11014 <floor+0xa4>
   11004:	40000813 	li	v0,1024
   11008:	ff0916e3 	bne	a0,v0,10ff4 <floor+0x84>
   1100c:	03297853 	fadd.d	fv0,fa0,fa0
   11010:	fe5ff06f 	j	10ff4 <floor+0x84>
   11014:	fff00a93 	li	a3,-1
   11018:	beda0993 	add	a1,a2,-1043
   1101c:	013ad9b3 	srl	a1,a3,a1
   11020:	0109fab3 	and	a3,a1,v0
   11024:	fc0a88e3 	beqz	a3,10ff4 <floor+0x84>
   11028:	910fb887 	fld	fv1,-1776(gp) # 1b420 <__wctomb+0xf8>
   1102c:	03197853 	fadd.d	fv0,fa0,fv1
   11030:	720008d3 	fcvt.d.w	fv1,zero
   11034:	b3088ad3 	flt.d	a3,fv1,fv0
   11038:	040a8463 	beqz	a3,11080 <floor+0x110>
   1103c:	0608cc63 	bltz	v1,110b4 <floor+0x144>
   11040:	fff9c993 	not	a1,a1
   11044:	01387833 	and	v0,v0,a1
   11048:	01072423 	sw	v0,8(sp)
   1104c:	01772623 	sw	a5,12(sp)
   11050:	00873807 	fld	fv0,8(sp)
   11054:	01070713 	add	sp,sp,16
   11058:	00008067 	ret
   1105c:	910fb887 	fld	fv1,-1776(gp) # 1b420 <__wctomb+0xf8>
   11060:	03197853 	fadd.d	fv0,fa0,fv1
   11064:	720008d3 	fcvt.d.w	fv1,zero
   11068:	b3088953 	flt.d	a0,fv1,fv0
   1106c:	fc090ee3 	beqz	a0,11048 <floor+0xd8>
   11070:	0009cc63 	bltz	a1,11088 <floor+0x118>
   11074:	00000813 	li	v0,0
   11078:	00000b93 	li	a5,0
   1107c:	fcdff06f 	j	11048 <floor+0xd8>
   11080:	00088b93 	mv	a5,v1
   11084:	fc5ff06f 	j	11048 <floor+0xd8>
   11088:	80000937 	lui	a0,0x80000
   1108c:	fff94913 	not	a0,a0
   11090:	0129f9b3 	and	a1,a1,a0
   11094:	0109eb33 	or	a4,a1,v0
   11098:	040b1263 	bnez	a4,110dc <floor+0x16c>
   1109c:	00088b93 	mv	a5,v1
   110a0:	00000813 	li	v0,0
   110a4:	fa5ff06f 	j	11048 <floor+0xd8>
   110a8:	412ad933 	sra	a0,a3,a0
   110ac:	01288bb3 	add	a5,v1,a0
   110b0:	f2dff06f 	j	10fdc <floor+0x6c>
   110b4:	01400a93 	li	a3,20
   110b8:	03590863 	beq	a0,a3,110e8 <floor+0x178>
   110bc:	43300813 	li	v0,1075
   110c0:	41480a33 	sub	a2,v0,a2
   110c4:	00100813 	li	v0,1
   110c8:	01481833 	sll	v0,v0,a2
   110cc:	01680833 	add	v0,v0,a4
   110d0:	01683b33 	sltu	a4,v0,a4
   110d4:	01688bb3 	add	a5,v1,a4
   110d8:	f69ff06f 	j	11040 <floor+0xd0>
   110dc:	00000813 	li	v0,0
   110e0:	bff00bb7 	lui	a5,0xbff00
   110e4:	f65ff06f 	j	11048 <floor+0xd8>
   110e8:	00188b93 	add	a5,v1,1
   110ec:	f55ff06f 	j	11040 <floor+0xd0>

000110f0 <scalbn>:
   110f0:	fd070713 	add	sp,sp,-48
   110f4:	01273427 	fsd	fa0,8(sp)
   110f8:	00c72b83 	lw	a5,12(sp)
   110fc:	7ff00937 	lui	a0,0x7ff00
   11100:	02172623 	sw	ra,44(sp)
   11104:	012bf8b3 	and	v1,a5,a0
   11108:	4148d893 	sra	v1,v1,0x14
   1110c:	00073c27 	fsd	fs0,24(sp)
   11110:	2b290853 	fmv.d	fv0,fa0
   11114:	00872b03 	lw	a4,8(sp)
   11118:	000b8993 	mv	a1,a5
   1111c:	06089a63 	bnez	v1,11190 <scalbn+0xa0>
   11120:	800008b7 	lui	v1,0x80000
   11124:	fff8c893 	not	v1,v1
   11128:	011bf9b3 	and	a1,a5,v1
   1112c:	0169e833 	or	v0,a1,a4
   11130:	04080863 	beqz	v0,11180 <scalbn+0x90>
   11134:	918fb887 	fld	fv1,-1768(gp) # 1b428 <__wctomb+0x100>
   11138:	ffff49b7 	lui	a1,0xffff4
   1113c:	cb098993 	add	a1,a1,-848
   11140:	13197853 	fmul.d	fv0,fa0,fv1
   11144:	01073427 	fsd	fv0,8(sp)
   11148:	00c72b83 	lw	a5,12(sp)
   1114c:	093a4c63 	blt	a2,a1,111e4 <scalbn+0xf4>
   11150:	012bf8b3 	and	v1,a5,a0
   11154:	4148d893 	sra	v1,v1,0x14
   11158:	fca88893 	add	v1,v1,-54
   1115c:	01488933 	add	a0,v1,a2
   11160:	7ff92813 	slt	v0,a0,2047
   11164:	000b8993 	mv	a1,a5
   11168:	02081e63 	bnez	v0,111a4 <scalbn+0xb4>
   1116c:	910fb007 	fld	fs0,-1776(gp) # 1b420 <__wctomb+0xf8>
   11170:	2b080a53 	fmv.d	fa2,fv0
   11174:	2a000953 	fmv.d	fa0,fs0
   11178:	0fc000ef 	jal	11274 <copysign>
   1117c:	12087853 	fmul.d	fv0,fv0,fs0
   11180:	02c72083 	lw	ra,44(sp)
   11184:	01873007 	fld	fs0,24(sp)
   11188:	03070713 	add	sp,sp,48
   1118c:	00008067 	ret
   11190:	7ff00813 	li	v0,2047
   11194:	09088a63 	beq	v1,v0,11228 <scalbn+0x138>
   11198:	01488933 	add	a0,v1,a2
   1119c:	7ff92813 	slt	v0,a0,2047
   111a0:	fc0806e3 	beqz	v0,1116c <scalbn+0x7c>
   111a4:	05205c63 	blez	a0,111fc <scalbn+0x10c>
   111a8:	01073427 	fsd	fv0,8(sp)
   111ac:	00872a03 	lw	a2,8(sp)
   111b0:	01491913 	sll	a0,a0,0x14
   111b4:	02c72083 	lw	ra,44(sp)
   111b8:	000a0813 	mv	v0,a2
   111bc:	80100a37 	lui	a2,0x80100
   111c0:	fffa0a13 	add	a2,a2,-1
   111c4:	0149f9b3 	and	a1,a1,a2
   111c8:	013968b3 	or	v1,a0,a1
   111cc:	01072423 	sw	v0,8(sp)
   111d0:	01172623 	sw	v1,12(sp)
   111d4:	00873807 	fld	fv0,8(sp)
   111d8:	01873007 	fld	fs0,24(sp)
   111dc:	03070713 	add	sp,sp,48
   111e0:	00008067 	ret
   111e4:	920fb887 	fld	fv1,-1760(gp) # 1b430 <__wctomb+0x108>
   111e8:	02c72083 	lw	ra,44(sp)
   111ec:	01873007 	fld	fs0,24(sp)
   111f0:	13187853 	fmul.d	fv0,fv0,fv1
   111f4:	03070713 	add	sp,sp,48
   111f8:	00008067 	ret
   111fc:	fcb92813 	slt	v0,a0,-53
   11200:	02080e63 	beqz	v0,1123c <scalbn+0x14c>
   11204:	0000c837 	lui	v0,0xc
   11208:	35180813 	add	v0,v0,849
   1120c:	f70a50e3 	ble	v0,a2,1116c <scalbn+0x7c>
   11210:	920fb007 	fld	fs0,-1760(gp) # 1b430 <__wctomb+0x108>
   11214:	2b080a53 	fmv.d	fa2,fv0
   11218:	2a000953 	fmv.d	fa0,fs0
   1121c:	058000ef 	jal	11274 <copysign>
   11220:	12087853 	fmul.d	fv0,fv0,fs0
   11224:	f5dff06f 	j	11180 <scalbn+0x90>
   11228:	02c72083 	lw	ra,44(sp)
   1122c:	03297853 	fadd.d	fv0,fa0,fa0
   11230:	01873007 	fld	fs0,24(sp)
   11234:	03070713 	add	sp,sp,48
   11238:	00008067 	ret
   1123c:	01073427 	fsd	fv0,8(sp)
   11240:	80100a37 	lui	a2,0x80100
   11244:	00872b03 	lw	a4,8(sp)
   11248:	03690913 	add	a0,a0,54
   1124c:	fffa0a13 	add	a2,a2,-1
   11250:	01491913 	sll	a0,a0,0x14
   11254:	0149f9b3 	and	a1,a1,a2
   11258:	013968b3 	or	v1,a0,a1
   1125c:	01672423 	sw	a4,8(sp)
   11260:	01172623 	sw	v1,12(sp)
   11264:	00873887 	fld	fv1,8(sp)
   11268:	928fb807 	fld	fv0,-1752(gp) # 1b438 <__wctomb+0x110>
   1126c:	1308f853 	fmul.d	fv0,fv1,fv0
   11270:	f11ff06f 	j	11180 <scalbn+0x90>

00011274 <copysign>:
   11274:	ff070713 	add	sp,sp,-16
   11278:	01273427 	fsd	fa0,8(sp)
   1127c:	00c72883 	lw	v1,12(sp)
   11280:	00872803 	lw	v0,8(sp)
   11284:	01473427 	fsd	fa2,8(sp)
   11288:	00c72c83 	lw	a7,12(sp)
   1128c:	80000b37 	lui	a4,0x80000
   11290:	fffb4913 	not	a0,a4
   11294:	01197933 	and	a0,a0,v1
   11298:	019b7b33 	and	a4,a4,a7
   1129c:	012b68b3 	or	v1,a4,a0
   112a0:	01072423 	sw	v0,8(sp)
   112a4:	01172623 	sw	v1,12(sp)
   112a8:	00873807 	fld	fv0,8(sp)
   112ac:	01070713 	add	sp,sp,16
   112b0:	00008067 	ret

000112b4 <__do_global_ctors_aux>:
   112b4:	00009817 	auipc	v0,0x9
   112b8:	d0882803 	lw	v0,-760(v0) # 19d08 <_etext>
   112bc:	ff070713 	add	sp,sp,-16
   112c0:	fff00893 	li	v1,-1
   112c4:	00172623 	sw	ra,12(sp)
   112c8:	00272423 	sw	s0,8(sp)
   112cc:	00372223 	sw	s1,4(sp)
   112d0:	03180063 	beq	v0,v1,112f0 <__do_global_ctors_aux+0x3c>
   112d4:	00009117 	auipc	s0,0x9
   112d8:	d0810113 	add	s0,s0,-760 # 19d08 <_etext>
   112dc:	fff00193 	li	s1,-1
   112e0:	ffc10113 	add	s0,s0,-4
   112e4:	000800e7 	jalr	v0
   112e8:	00012803 	lw	v0,0(s0)
   112ec:	fe381ae3 	bne	v0,s1,112e0 <__do_global_ctors_aux+0x2c>
   112f0:	00c72083 	lw	ra,12(sp)
   112f4:	00872103 	lw	s0,8(sp)
   112f8:	00472183 	lw	s1,4(sp)
   112fc:	01070713 	add	sp,sp,16
   11300:	00008067 	ret

00011304 <call___do_global_ctors_aux>:
   11304:	ff070713 	add	sp,sp,-16
   11308:	00172623 	sw	ra,12(sp)
   1130c:	00c72083 	lw	ra,12(sp)
   11310:	01070713 	add	sp,sp,16
   11314:	00008067 	ret

00011318 <atexit>:
   11318:	00090993 	mv	a1,a0
   1131c:	00000a13 	li	a2,0
   11320:	00000913 	li	a0,0
   11324:	00000a93 	li	a3,0
   11328:	4510106f 	j	12f78 <__register_exitproc>

0001132c <exit>:
   1132c:	ff070713 	add	sp,sp,-16
   11330:	00000993 	li	a1,0
   11334:	00272423 	sw	s0,8(sp)
   11338:	00172623 	sw	ra,12(sp)
   1133c:	00090113 	mv	s0,a0
   11340:	555010ef 	jal	13094 <__call_exitprocs>
   11344:	804fa903 	lw	a0,-2044(gp) # 1b314 <_global_impure_ptr>
   11348:	03c92803 	lw	v0,60(a0)
   1134c:	00080463 	beqz	v0,11354 <exit+0x28>
   11350:	000800e7 	jalr	v0
   11354:	00010913 	mv	a0,s0
   11358:	1b0080ef 	jal	19508 <_exit>

0001135c <_printf_r>:
   1135c:	fc070713 	add	sp,sp,-64
   11360:	03472423 	sw	a2,40(sp)
   11364:	03572623 	sw	a3,44(sp)
   11368:	03672823 	sw	a4,48(sp)
   1136c:	03772a23 	sw	a5,52(sp)
   11370:	03872c23 	sw	a6,56(sp)
   11374:	03972e23 	sw	a7,60(sp)
   11378:	00098a13 	mv	a2,a1
   1137c:	00892983 	lw	a1,8(a0)
   11380:	02870813 	add	v0,sp,40
   11384:	00080a93 	mv	a3,v0
   11388:	00172e23 	sw	ra,28(sp)
   1138c:	01072623 	sw	v0,12(sp)
   11390:	060000ef 	jal	113f0 <_vfprintf_r>
   11394:	01c72083 	lw	ra,28(sp)
   11398:	04070713 	add	sp,sp,64
   1139c:	00008067 	ret

000113a0 <printf>:
   113a0:	808fa803 	lw	v0,-2040(gp) # 1b318 <_impure_ptr>
   113a4:	fc070713 	add	sp,sp,-64
   113a8:	03472423 	sw	a2,40(sp)
   113ac:	03572623 	sw	a3,44(sp)
   113b0:	03372223 	sw	a1,36(sp)
   113b4:	03672823 	sw	a4,48(sp)
   113b8:	03772a23 	sw	a5,52(sp)
   113bc:	03872c23 	sw	a6,56(sp)
   113c0:	03972e23 	sw	a7,60(sp)
   113c4:	00882983 	lw	a1,8(v0)
   113c8:	00090a13 	mv	a2,a0
   113cc:	00080913 	mv	a0,v0
   113d0:	02470813 	add	v0,sp,36
   113d4:	00080a93 	mv	a3,v0
   113d8:	00172e23 	sw	ra,28(sp)
   113dc:	01072623 	sw	v0,12(sp)
   113e0:	010000ef 	jal	113f0 <_vfprintf_r>
   113e4:	01c72083 	lw	ra,28(sp)
   113e8:	04070713 	add	sp,sp,64
   113ec:	00008067 	ret

000113f0 <_vfprintf_r>:
   113f0:	a6070713 	add	sp,sp,-1440
   113f4:	58172e23 	sw	ra,1436(sp)
   113f8:	58272c23 	sw	s0,1432(sp)
   113fc:	58372a23 	sw	s1,1428(sp)
   11400:	58672423 	sw	s4,1416(sp)
   11404:	56d72623 	sw	s11,1388(sp)
   11408:	00090193 	mv	s1,a0
   1140c:	00098113 	mv	s0,a1
   11410:	000a0313 	mv	s4,a2
   11414:	000a8693 	mv	s11,a3
   11418:	58472823 	sw	s2,1424(sp)
   1141c:	58572623 	sw	s3,1420(sp)
   11420:	58772223 	sw	s5,1412(sp)
   11424:	58872023 	sw	s6,1408(sp)
   11428:	56972e23 	sw	s7,1404(sp)
   1142c:	56a72c23 	sw	s8,1400(sp)
   11430:	56b72a23 	sw	s9,1396(sp)
   11434:	56c72823 	sw	s10,1392(sp)
   11438:	54073c27 	fsd	fs0,1368(sp)
   1143c:	54173827 	fsd	fs1,1360(sp)
   11440:	34d030ef 	jal	14f8c <_localeconv_r>
   11444:	00082803 	lw	v0,0(v0)
   11448:	00080913 	mv	a0,v0
   1144c:	03072c23 	sw	v0,56(sp)
   11450:	1a5050ef 	jal	16df4 <strlen>
   11454:	05072223 	sw	v0,68(sp)
   11458:	00018863 	beqz	s1,11468 <_vfprintf_r+0x78>
   1145c:	0381a803 	lw	v0,56(s1)
   11460:	00081463 	bnez	v0,11468 <_vfprintf_r+0x78>
   11464:	3b90006f 	j	1201c <_vfprintf_r+0xc2c>
   11468:	00c11c83 	lh	a7,12(s0)
   1146c:	000028b7 	lui	v1,0x2
   11470:	010c9813 	sll	v0,a7,0x10
   11474:	01085813 	srl	v0,v0,0x10
   11478:	011878b3 	and	v1,v0,v1
   1147c:	02089a63 	bnez	v1,114b0 <_vfprintf_r+0xc0>
   11480:	06412903 	lw	a0,100(s0)
   11484:	00002837 	lui	v0,0x2
   11488:	ffffe8b7 	lui	v1,0xffffe
   1148c:	010ce833 	or	v0,a7,v0
   11490:	fff88893 	add	v1,v1,-1
   11494:	01081c93 	sll	a7,v0,0x10
   11498:	011978b3 	and	v1,a0,v1
   1149c:	01011623 	sh	v0,12(s0)
   114a0:	01081813 	sll	v0,v0,0x10
   114a4:	410cdc93 	sra	a7,a7,0x10
   114a8:	07112223 	sw	v1,100(s0)
   114ac:	01085813 	srl	v0,v0,0x10
   114b0:	00887893 	and	v1,v0,8
   114b4:	1c088ae3 	beqz	v1,11e88 <_vfprintf_r+0xa98>
   114b8:	01012883 	lw	v1,16(s0)
   114bc:	1c0886e3 	beqz	v1,11e88 <_vfprintf_r+0xa98>
   114c0:	01a87813 	and	v0,v0,26
   114c4:	00a00893 	li	v1,10
   114c8:	1f1806e3 	beq	v0,v1,11eb4 <_vfprintf_r+0xac4>
   114cc:	4c470413 	add	s6,sp,1220
   114d0:	00009397 	auipc	s5,0x9
   114d4:	00009297 	auipc	s3,0x9
   114d8:	72000053 	fcvt.d.w	fs0,zero
   114dc:	52872623 	sw	s6,1324(sp)
   114e0:	52072a23 	sw	zero,1332(sp)
   114e4:	52072823 	sw	zero,1328(sp)
   114e8:	02072e23 	sw	zero,60(sp)
   114ec:	04072623 	sw	zero,76(sp)
   114f0:	04072423 	sw	zero,72(sp)
   114f4:	00000613 	li	s10,0
   114f8:	00040213 	mv	s2,s6
   114fc:	98c38393 	add	s5,s5,-1652 # 1998c <blanks.3813>
   11500:	99c28293 	add	s3,s3,-1636 # 1999c <zeroes.3814>
   11504:	00034803 	lbu	v0,0(s4)
   11508:	50080c63 	beqz	v0,11a20 <_vfprintf_r+0x630>
   1150c:	02500893 	li	v1,37
   11510:	00030493 	mv	s7,s4
   11514:	01181663 	bne	v0,v1,11520 <_vfprintf_r+0x130>
   11518:	04c0006f 	j	11564 <_vfprintf_r+0x174>
   1151c:	01180863 	beq	v0,v1,1152c <_vfprintf_r+0x13c>
   11520:	00148493 	add	s7,s7,1
   11524:	0004c803 	lbu	v0,0(s7)
   11528:	fe081ae3 	bnez	v0,1151c <_vfprintf_r+0x12c>
   1152c:	40648533 	sub	s8,s7,s4
   11530:	02050a63 	beqz	s8,11564 <_vfprintf_r+0x174>
   11534:	53072803 	lw	v0,1328(sp)
   11538:	53472903 	lw	a0,1332(sp)
   1153c:	00622023 	sw	s4,0(s2)
   11540:	00180813 	add	v0,v0,1
   11544:	00a90933 	add	a0,a0,s8
   11548:	00882893 	slt	v1,v0,8
   1154c:	00a22223 	sw	s8,4(s2)
   11550:	53272a23 	sw	a0,1332(sp)
   11554:	53072823 	sw	v0,1328(sp)
   11558:	00820213 	add	s2,s2,8
   1155c:	08088263 	beqz	v1,115e0 <_vfprintf_r+0x1f0>
   11560:	00a60633 	add	s10,s10,s8
   11564:	0004c803 	lbu	v0,0(s7)
   11568:	5c080e63 	beqz	v0,11b44 <_vfprintf_r+0x754>
   1156c:	00148313 	add	s4,s7,1
   11570:	540707a3 	sb	zero,1359(sp)
   11574:	00000913 	li	a0,0
   11578:	fff00593 	li	s9,-1
   1157c:	02072423 	sw	zero,40(sp)
   11580:	00000493 	li	s7,0
   11584:	02a00993 	li	a1,42
   11588:	00034503 	lbu	s8,0(s4)
   1158c:	00130313 	add	s4,s4,1
   11590:	fe050813 	add	v0,s8,-32
   11594:	05983893 	sltu	v1,v0,89
   11598:	02089863 	bnez	v1,115c8 <_vfprintf_r+0x1d8>
   1159c:	552707a3 	sb	a0,1359(sp)
   115a0:	5a050263 	beqz	s8,11b44 <_vfprintf_r+0x754>
   115a4:	50a70223 	sb	s8,1284(sp)
   115a8:	540707a3 	sb	zero,1359(sp)
   115ac:	00100893 	li	v1,1
   115b0:	01172e23 	sw	v1,28(sp)
   115b4:	03172223 	sw	v1,36(sp)
   115b8:	50470893 	add	v1,sp,1284
   115bc:	03172823 	sw	v1,48(sp)
   115c0:	02072a23 	sw	zero,52(sp)
   115c4:	0a40006f 	j	11668 <_vfprintf_r+0x278>
   115c8:	00009897 	auipc	v1,0x9
   115cc:	00281813 	sll	v0,v0,0x2
   115d0:	82888893 	add	v1,v1,-2008 # 19828 <PIo2+0x40>
   115d4:	01180833 	add	v0,v0,v1
   115d8:	00082803 	lw	v0,0(v0)
   115dc:	00080067 	jr	v0
   115e0:	00018913 	mv	a0,s1
   115e4:	00010993 	mv	a1,s0
   115e8:	52c70a13 	add	a2,sp,1324
   115ec:	099050ef 	jal	16e84 <__sprint_r>
   115f0:	56081663 	bnez	v0,11b5c <_vfprintf_r+0x76c>
   115f4:	00040213 	mv	s2,s6
   115f8:	f69ff06f 	j	11560 <_vfprintf_r+0x170>
   115fc:	0104e493 	or	s7,s7,16
   11600:	f89ff06f 	j	11588 <_vfprintf_r+0x198>
   11604:	0104e493 	or	s7,s7,16
   11608:	0104f813 	and	v0,s7,16
   1160c:	36080ae3 	beqz	v0,12180 <_vfprintf_r+0xd90>
   11610:	0006a803 	lw	v0,0(s11)
   11614:	00100893 	li	v1,1
   11618:	00468693 	add	s11,s11,4
   1161c:	540707a3 	sb	zero,1359(sp)
   11620:	00000913 	li	a0,0
   11624:	0005c463 	bltz	s9,1162c <_vfprintf_r+0x23c>
   11628:	f7f4f493 	and	s7,s7,-129
   1162c:	4a081a63 	bnez	v0,11ae0 <_vfprintf_r+0x6f0>
   11630:	4a059863 	bnez	s9,11ae0 <_vfprintf_r+0x6f0>
   11634:	2a0884e3 	beqz	v1,120dc <_vfprintf_r+0xcec>
   11638:	52c70893 	add	v1,sp,1324
   1163c:	02072223 	sw	zero,36(sp)
   11640:	03172823 	sw	v1,48(sp)
   11644:	02472883 	lw	v1,36(sp)
   11648:	01172e23 	sw	v1,28(sp)
   1164c:	00b8d463 	ble	s9,v1,11654 <_vfprintf_r+0x264>
   11650:	00b72e23 	sw	s9,28(sp)
   11654:	02b72a23 	sw	s9,52(sp)
   11658:	00090863 	beqz	a0,11668 <_vfprintf_r+0x278>
   1165c:	01c72883 	lw	v1,28(sp)
   11660:	00188893 	add	v1,v1,1
   11664:	01172e23 	sw	v1,28(sp)
   11668:	0024f893 	and	v1,s7,2
   1166c:	03172023 	sw	v1,32(sp)
   11670:	00088863 	beqz	v1,11680 <_vfprintf_r+0x290>
   11674:	01c72883 	lw	v1,28(sp)
   11678:	00288893 	add	v1,v1,2
   1167c:	01172e23 	sw	v1,28(sp)
   11680:	0844f893 	and	v1,s7,132
   11684:	03172623 	sw	v1,44(sp)
   11688:	12089c63 	bnez	v1,117c0 <_vfprintf_r+0x3d0>
   1168c:	02872883 	lw	v1,40(sp)
   11690:	01c72903 	lw	a0,28(sp)
   11694:	412885b3 	sub	s9,v1,a0
   11698:	12b05463 	blez	s9,117c0 <_vfprintf_r+0x3d0>
   1169c:	0115a813 	slt	v0,s9,17
   116a0:	53472903 	lw	a0,1332(sp)
   116a4:	00080463 	beqz	v0,116ac <_vfprintf_r+0x2bc>
   116a8:	3440106f 	j	129ec <_vfprintf_r+0x15fc>
   116ac:	53072803 	lw	v0,1328(sp)
   116b0:	04772023 	sw	s5,64(sp)
   116b4:	01000893 	li	v1,16
   116b8:	0100006f 	j	116c8 <_vfprintf_r+0x2d8>
   116bc:	ff058593 	add	s9,s9,-16
   116c0:	0115a993 	slt	a1,s9,17
   116c4:	04099e63 	bnez	a1,11720 <_vfprintf_r+0x330>
   116c8:	00180813 	add	v0,v0,1
   116cc:	01090913 	add	a0,a0,16
   116d0:	00882993 	slt	a1,v0,8
   116d4:	00722023 	sw	s5,0(s2)
   116d8:	01122223 	sw	v1,4(s2)
   116dc:	53272a23 	sw	a0,1332(sp)
   116e0:	53072823 	sw	v0,1328(sp)
   116e4:	00820213 	add	s2,s2,8
   116e8:	fc099ae3 	bnez	a1,116bc <_vfprintf_r+0x2cc>
   116ec:	00018913 	mv	a0,s1
   116f0:	00010993 	mv	a1,s0
   116f4:	52c70a13 	add	a2,sp,1324
   116f8:	01172c23 	sw	v1,24(sp)
   116fc:	788050ef 	jal	16e84 <__sprint_r>
   11700:	01872883 	lw	v1,24(sp)
   11704:	44081c63 	bnez	v0,11b5c <_vfprintf_r+0x76c>
   11708:	ff058593 	add	s9,s9,-16
   1170c:	0115a993 	slt	a1,s9,17
   11710:	53472903 	lw	a0,1332(sp)
   11714:	53072803 	lw	v0,1328(sp)
   11718:	00040213 	mv	s2,s6
   1171c:	fa0986e3 	beqz	a1,116c8 <_vfprintf_r+0x2d8>
   11720:	04072983 	lw	a1,64(sp)
   11724:	00180813 	add	v0,v0,1
   11728:	00b90933 	add	a0,a0,s9
   1172c:	00882893 	slt	v1,v0,8
   11730:	01322023 	sw	a1,0(s2)
   11734:	00b22223 	sw	s9,4(s2)
   11738:	53272a23 	sw	a0,1332(sp)
   1173c:	53072823 	sw	v0,1328(sp)
   11740:	00820213 	add	s2,s2,8
   11744:	08089263 	bnez	v1,117c8 <_vfprintf_r+0x3d8>
   11748:	00018913 	mv	a0,s1
   1174c:	00010993 	mv	a1,s0
   11750:	52c70a13 	add	a2,sp,1324
   11754:	730050ef 	jal	16e84 <__sprint_r>
   11758:	40081263 	bnez	v0,11b5c <_vfprintf_r+0x76c>
   1175c:	53472903 	lw	a0,1332(sp)
   11760:	53072803 	lw	v0,1328(sp)
   11764:	00040213 	mv	s2,s6
   11768:	0600006f 	j	117c8 <_vfprintf_r+0x3d8>
   1176c:	0104e493 	or	s7,s7,16
   11770:	0104f813 	and	v0,s7,16
   11774:	00081e63 	bnez	v0,11790 <_vfprintf_r+0x3a0>
   11778:	0404f813 	and	v0,s7,64
   1177c:	00080a63 	beqz	v0,11790 <_vfprintf_r+0x3a0>
   11780:	0006d803 	lhu	v0,0(s11)
   11784:	00000893 	li	v1,0
   11788:	00468693 	add	s11,s11,4
   1178c:	e91ff06f 	j	1161c <_vfprintf_r+0x22c>
   11790:	0006a803 	lw	v0,0(s11)
   11794:	00000893 	li	v1,0
   11798:	00468693 	add	s11,s11,4
   1179c:	e81ff06f 	j	1161c <_vfprintf_r+0x22c>
   117a0:	0006a883 	lw	v1,0(s11)
   117a4:	00468693 	add	s11,s11,4
   117a8:	03172423 	sw	v1,40(sp)
   117ac:	dc08dee3 	bgez	v1,11588 <_vfprintf_r+0x198>
   117b0:	411008b3 	neg	v1,v1
   117b4:	03172423 	sw	v1,40(sp)
   117b8:	0044e493 	or	s7,s7,4
   117bc:	dcdff06f 	j	11588 <_vfprintf_r+0x198>
   117c0:	53472903 	lw	a0,1332(sp)
   117c4:	53072803 	lw	v0,1328(sp)
   117c8:	54f74883 	lbu	v1,1359(sp)
   117cc:	02088863 	beqz	v1,117fc <_vfprintf_r+0x40c>
   117d0:	00180813 	add	v0,v0,1
   117d4:	54f70993 	add	a1,sp,1359
   117d8:	01322023 	sw	a1,0(s2)
   117dc:	00190913 	add	a0,a0,1
   117e0:	00100993 	li	a1,1
   117e4:	00882893 	slt	v1,v0,8
   117e8:	01322223 	sw	a1,4(s2)
   117ec:	53272a23 	sw	a0,1332(sp)
   117f0:	53072823 	sw	v0,1328(sp)
   117f4:	00820213 	add	s2,s2,8
   117f8:	74088863 	beqz	v1,11f48 <_vfprintf_r+0xb58>
   117fc:	02072883 	lw	v1,32(sp)
   11800:	02088863 	beqz	v1,11830 <_vfprintf_r+0x440>
   11804:	00180813 	add	v0,v0,1
   11808:	54c70993 	add	a1,sp,1356
   1180c:	01322023 	sw	a1,0(s2)
   11810:	00290913 	add	a0,a0,2
   11814:	00200993 	li	a1,2
   11818:	00882893 	slt	v1,v0,8
   1181c:	01322223 	sw	a1,4(s2)
   11820:	53272a23 	sw	a0,1332(sp)
   11824:	53072823 	sw	v0,1328(sp)
   11828:	00820213 	add	s2,s2,8
   1182c:	74088063 	beqz	v1,11f6c <_vfprintf_r+0xb7c>
   11830:	02c72983 	lw	a1,44(sp)
   11834:	08000893 	li	v1,128
   11838:	47198e63 	beq	a1,v1,11cb4 <_vfprintf_r+0x8c4>
   1183c:	03472883 	lw	v1,52(sp)
   11840:	02472983 	lw	a1,36(sp)
   11844:	413885b3 	sub	s9,v1,a1
   11848:	0cb05263 	blez	s9,1190c <_vfprintf_r+0x51c>
   1184c:	0115a893 	slt	v1,s9,17
   11850:	02572023 	sw	s3,32(sp)
   11854:	06089863 	bnez	v1,118c4 <_vfprintf_r+0x4d4>
   11858:	01000893 	li	v1,16
   1185c:	0100006f 	j	1186c <_vfprintf_r+0x47c>
   11860:	ff058593 	add	s9,s9,-16
   11864:	0115a993 	slt	a1,s9,17
   11868:	04099e63 	bnez	a1,118c4 <_vfprintf_r+0x4d4>
   1186c:	00180813 	add	v0,v0,1
   11870:	01090913 	add	a0,a0,16
   11874:	00882993 	slt	a1,v0,8
   11878:	00522023 	sw	s3,0(s2)
   1187c:	01122223 	sw	v1,4(s2)
   11880:	53272a23 	sw	a0,1332(sp)
   11884:	53072823 	sw	v0,1328(sp)
   11888:	00820213 	add	s2,s2,8
   1188c:	fc099ae3 	bnez	a1,11860 <_vfprintf_r+0x470>
   11890:	00018913 	mv	a0,s1
   11894:	00010993 	mv	a1,s0
   11898:	52c70a13 	add	a2,sp,1324
   1189c:	01172c23 	sw	v1,24(sp)
   118a0:	5e4050ef 	jal	16e84 <__sprint_r>
   118a4:	01872883 	lw	v1,24(sp)
   118a8:	2a081a63 	bnez	v0,11b5c <_vfprintf_r+0x76c>
   118ac:	ff058593 	add	s9,s9,-16
   118b0:	0115a993 	slt	a1,s9,17
   118b4:	53472903 	lw	a0,1332(sp)
   118b8:	53072803 	lw	v0,1328(sp)
   118bc:	00040213 	mv	s2,s6
   118c0:	fa0986e3 	beqz	a1,1186c <_vfprintf_r+0x47c>
   118c4:	02072a03 	lw	a2,32(sp)
   118c8:	00180813 	add	v0,v0,1
   118cc:	00b90933 	add	a0,a0,s9
   118d0:	00882893 	slt	v1,v0,8
   118d4:	01422023 	sw	a2,0(s2)
   118d8:	00b22223 	sw	s9,4(s2)
   118dc:	53272a23 	sw	a0,1332(sp)
   118e0:	53072823 	sw	v0,1328(sp)
   118e4:	00820213 	add	s2,s2,8
   118e8:	02089263 	bnez	v1,1190c <_vfprintf_r+0x51c>
   118ec:	00018913 	mv	a0,s1
   118f0:	00010993 	mv	a1,s0
   118f4:	52c70a13 	add	a2,sp,1324
   118f8:	58c050ef 	jal	16e84 <__sprint_r>
   118fc:	26081063 	bnez	v0,11b5c <_vfprintf_r+0x76c>
   11900:	53472903 	lw	a0,1332(sp)
   11904:	53072803 	lw	v0,1328(sp)
   11908:	00040213 	mv	s2,s6
   1190c:	1004f893 	and	v1,s7,256
   11910:	2a089263 	bnez	v1,11bb4 <_vfprintf_r+0x7c4>
   11914:	02472883 	lw	v1,36(sp)
   11918:	03072983 	lw	a1,48(sp)
   1191c:	02472a03 	lw	a2,36(sp)
   11920:	00180813 	add	v0,v0,1
   11924:	01190933 	add	a0,a0,v1
   11928:	00882893 	slt	v1,v0,8
   1192c:	01322023 	sw	a1,0(s2)
   11930:	01422223 	sw	a2,4(s2)
   11934:	53272a23 	sw	a0,1332(sp)
   11938:	53072823 	sw	v0,1328(sp)
   1193c:	18088263 	beqz	v1,11ac0 <_vfprintf_r+0x6d0>
   11940:	00820213 	add	s2,s2,8
   11944:	0044f493 	and	s7,s7,4
   11948:	0a048863 	beqz	s7,119f8 <_vfprintf_r+0x608>
   1194c:	02872883 	lw	v1,40(sp)
   11950:	01c72983 	lw	a1,28(sp)
   11954:	413884b3 	sub	s7,v1,a1
   11958:	0a905063 	blez	s7,119f8 <_vfprintf_r+0x608>
   1195c:	0114a813 	slt	v0,s7,17
   11960:	00080463 	beqz	v0,11968 <_vfprintf_r+0x578>
   11964:	0e40106f 	j	12a48 <_vfprintf_r+0x1658>
   11968:	53072803 	lw	v0,1328(sp)
   1196c:	04772023 	sw	s5,64(sp)
   11970:	01000513 	li	s8,16
   11974:	0100006f 	j	11984 <_vfprintf_r+0x594>
   11978:	ff048493 	add	s7,s7,-16
   1197c:	0114a893 	slt	v1,s7,17
   11980:	04089a63 	bnez	v1,119d4 <_vfprintf_r+0x5e4>
   11984:	00180813 	add	v0,v0,1
   11988:	01090913 	add	a0,a0,16
   1198c:	00882893 	slt	v1,v0,8
   11990:	00722023 	sw	s5,0(s2)
   11994:	00a22223 	sw	s8,4(s2)
   11998:	53272a23 	sw	a0,1332(sp)
   1199c:	53072823 	sw	v0,1328(sp)
   119a0:	00820213 	add	s2,s2,8
   119a4:	fc089ae3 	bnez	v1,11978 <_vfprintf_r+0x588>
   119a8:	00018913 	mv	a0,s1
   119ac:	00010993 	mv	a1,s0
   119b0:	52c70a13 	add	a2,sp,1324
   119b4:	4d0050ef 	jal	16e84 <__sprint_r>
   119b8:	1a081263 	bnez	v0,11b5c <_vfprintf_r+0x76c>
   119bc:	ff048493 	add	s7,s7,-16
   119c0:	0114a893 	slt	v1,s7,17
   119c4:	53472903 	lw	a0,1332(sp)
   119c8:	53072803 	lw	v0,1328(sp)
   119cc:	00040213 	mv	s2,s6
   119d0:	fa088ae3 	beqz	v1,11984 <_vfprintf_r+0x594>
   119d4:	04072a03 	lw	a2,64(sp)
   119d8:	00180813 	add	v0,v0,1
   119dc:	01248933 	add	a0,s7,a0
   119e0:	00882893 	slt	v1,v0,8
   119e4:	01422023 	sw	a2,0(s2)
   119e8:	00922223 	sw	s7,4(s2)
   119ec:	53272a23 	sw	a0,1332(sp)
   119f0:	53072823 	sw	v0,1328(sp)
   119f4:	7a088863 	beqz	v1,121a4 <_vfprintf_r+0xdb4>
   119f8:	01c72803 	lw	v0,28(sp)
   119fc:	02872883 	lw	v1,40(sp)
   11a00:	01185463 	ble	v1,v0,11a08 <_vfprintf_r+0x618>
   11a04:	00088813 	mv	v0,v1
   11a08:	01060633 	add	s10,s10,v0
   11a0c:	36091e63 	bnez	a0,11d88 <_vfprintf_r+0x998>
   11a10:	00034803 	lbu	v0,0(s4)
   11a14:	52072823 	sw	zero,1328(sp)
   11a18:	00040213 	mv	s2,s6
   11a1c:	ae0818e3 	bnez	v0,1150c <_vfprintf_r+0x11c>
   11a20:	00030493 	mv	s7,s4
   11a24:	b41ff06f 	j	11564 <_vfprintf_r+0x174>
   11a28:	03072a03 	lw	a2,48(sp)
   11a2c:	01250933 	add	a0,s8,a0
   11a30:	00882893 	slt	v1,v0,8
   11a34:	01422023 	sw	a2,0(s2)
   11a38:	00a22223 	sw	s8,4(s2)
   11a3c:	00050593 	mv	s9,s8
   11a40:	53272a23 	sw	a0,1332(sp)
   11a44:	53072823 	sw	v0,1328(sp)
   11a48:	00820213 	add	s2,s2,8
   11a4c:	00089463 	bnez	v1,11a54 <_vfprintf_r+0x664>
   11a50:	1680106f 	j	12bb8 <_vfprintf_r+0x17c8>
   11a54:	04472883 	lw	v1,68(sp)
   11a58:	03872983 	lw	a1,56(sp)
   11a5c:	04472a03 	lw	a2,68(sp)
   11a60:	00180813 	add	v0,v0,1
   11a64:	01190933 	add	a0,a0,v1
   11a68:	00882893 	slt	v1,v0,8
   11a6c:	01322023 	sw	a1,0(s2)
   11a70:	01422223 	sw	a2,4(s2)
   11a74:	53272a23 	sw	a0,1332(sp)
   11a78:	53072823 	sw	v0,1328(sp)
   11a7c:	00820213 	add	s2,s2,8
   11a80:	00089463 	bnez	v1,11a88 <_vfprintf_r+0x698>
   11a84:	1100106f 	j	12b94 <_vfprintf_r+0x17a4>
   11a88:	03c72883 	lw	v1,60(sp)
   11a8c:	53072803 	lw	v0,1328(sp)
   11a90:	53472903 	lw	a0,1332(sp)
   11a94:	40a88533 	sub	s8,v1,s8
   11a98:	03072883 	lw	v1,48(sp)
   11a9c:	00180813 	add	v0,v0,1
   11aa0:	00a90933 	add	a0,a0,s8
   11aa4:	00b885b3 	add	s9,v1,s9
   11aa8:	00882893 	slt	v1,v0,8
   11aac:	00a22223 	sw	s8,4(s2)
   11ab0:	00b22023 	sw	s9,0(s2)
   11ab4:	53272a23 	sw	a0,1332(sp)
   11ab8:	53072823 	sw	v0,1328(sp)
   11abc:	e80892e3 	bnez	v1,11940 <_vfprintf_r+0x550>
   11ac0:	00018913 	mv	a0,s1
   11ac4:	00010993 	mv	a1,s0
   11ac8:	52c70a13 	add	a2,sp,1324
   11acc:	3b8050ef 	jal	16e84 <__sprint_r>
   11ad0:	08081663 	bnez	v0,11b5c <_vfprintf_r+0x76c>
   11ad4:	00040213 	mv	s2,s6
   11ad8:	53472903 	lw	a0,1332(sp)
   11adc:	e69ff06f 	j	11944 <_vfprintf_r+0x554>
   11ae0:	00100993 	li	a1,1
   11ae4:	4f388463 	beq	v1,a1,11fcc <_vfprintf_r+0xbdc>
   11ae8:	00200993 	li	a1,2
   11aec:	4b388263 	beq	v1,a1,11f90 <_vfprintf_r+0xba0>
   11af0:	52c70a93 	add	a3,sp,1324
   11af4:	000a8893 	mv	v1,a3
   11af8:	0080006f 	j	11b00 <_vfprintf_r+0x710>
   11afc:	000a0893 	mv	v1,a2
   11b00:	00787993 	and	a1,v0,7
   11b04:	03098993 	add	a1,a1,48
   11b08:	00385813 	srl	v0,v0,0x3
   11b0c:	fff88a13 	add	a2,v1,-1
   11b10:	ff388fa3 	sb	a1,-1(v1)
   11b14:	fe0814e3 	bnez	v0,11afc <_vfprintf_r+0x70c>
   11b18:	0014f813 	and	v0,s7,1
   11b1c:	03472823 	sw	a2,48(sp)
   11b20:	66080c63 	beqz	v0,12198 <_vfprintf_r+0xda8>
   11b24:	03000813 	li	v0,48
   11b28:	4f098263 	beq	a1,v0,1200c <_vfprintf_r+0xc1c>
   11b2c:	ffe88993 	add	a1,v1,-2
   11b30:	413a8ab3 	sub	a3,a3,a1
   11b34:	03372823 	sw	a1,48(sp)
   11b38:	ff088f23 	sb	v0,-2(v1)
   11b3c:	03572223 	sw	a3,36(sp)
   11b40:	b05ff06f 	j	11644 <_vfprintf_r+0x254>
   11b44:	53472803 	lw	v0,1332(sp)
   11b48:	00080a63 	beqz	v0,11b5c <_vfprintf_r+0x76c>
   11b4c:	00018913 	mv	a0,s1
   11b50:	00010993 	mv	a1,s0
   11b54:	52c70a13 	add	a2,sp,1324
   11b58:	32c050ef 	jal	16e84 <__sprint_r>
   11b5c:	00c15803 	lhu	v0,12(s0)
   11b60:	04087813 	and	v0,v0,64
   11b64:	00080463 	beqz	v0,11b6c <_vfprintf_r+0x77c>
   11b68:	fff00613 	li	s10,-1
   11b6c:	59c72083 	lw	ra,1436(sp)
   11b70:	00060813 	mv	v0,s10
   11b74:	59872103 	lw	s0,1432(sp)
   11b78:	59472183 	lw	s1,1428(sp)
   11b7c:	59072203 	lw	s2,1424(sp)
   11b80:	58c72283 	lw	s3,1420(sp)
   11b84:	58872303 	lw	s4,1416(sp)
   11b88:	58472383 	lw	s5,1412(sp)
   11b8c:	58072403 	lw	s6,1408(sp)
   11b90:	57c72483 	lw	s7,1404(sp)
   11b94:	57872503 	lw	s8,1400(sp)
   11b98:	57472583 	lw	s9,1396(sp)
   11b9c:	57072603 	lw	s10,1392(sp)
   11ba0:	56c72683 	lw	s11,1388(sp)
   11ba4:	55873007 	fld	fs0,1368(sp)
   11ba8:	55073087 	fld	fs1,1360(sp)
   11bac:	5a070713 	add	sp,sp,1440
   11bb0:	00008067 	ret
   11bb4:	06652513 	slt	s8,s8,102
   11bb8:	1e051463 	bnez	s8,11da0 <_vfprintf_r+0x9b0>
   11bbc:	72000853 	fcvt.d.w	fv0,zero
   11bc0:	ab0008d3 	feq.d	v1,fs0,fv0
   11bc4:	46088263 	beqz	v1,12028 <_vfprintf_r+0xc38>
   11bc8:	00009997 	auipc	a1,0x9
   11bcc:	00180813 	add	v0,v0,1
   11bd0:	ce898993 	add	a1,a1,-792 # 19ce8 <zeroes.3758+0x64>
   11bd4:	01322023 	sw	a1,0(s2)
   11bd8:	00190913 	add	a0,a0,1
   11bdc:	00100993 	li	a1,1
   11be0:	00882893 	slt	v1,v0,8
   11be4:	01322223 	sw	a1,4(s2)
   11be8:	53272a23 	sw	a0,1332(sp)
   11bec:	53072823 	sw	v0,1328(sp)
   11bf0:	00820213 	add	s2,s2,8
   11bf4:	06088ee3 	beqz	v1,12470 <_vfprintf_r+0x1080>
   11bf8:	54072803 	lw	v0,1344(sp)
   11bfc:	03c72883 	lw	v1,60(sp)
   11c00:	5d185063 	ble	v1,v0,121c0 <_vfprintf_r+0xdd0>
   11c04:	04472883 	lw	v1,68(sp)
   11c08:	53072803 	lw	v0,1328(sp)
   11c0c:	04472983 	lw	a1,68(sp)
   11c10:	01190933 	add	a0,a0,v1
   11c14:	03872883 	lw	v1,56(sp)
   11c18:	00180813 	add	v0,v0,1
   11c1c:	01322223 	sw	a1,4(s2)
   11c20:	01122023 	sw	v1,0(s2)
   11c24:	00882893 	slt	v1,v0,8
   11c28:	53272a23 	sw	a0,1332(sp)
   11c2c:	53072823 	sw	v0,1328(sp)
   11c30:	00820213 	add	s2,s2,8
   11c34:	00089463 	bnez	v1,11c3c <_vfprintf_r+0x84c>
   11c38:	4d50006f 	j	1290c <_vfprintf_r+0x151c>
   11c3c:	03c72883 	lw	v1,60(sp)
   11c40:	fff88513 	add	s8,v1,-1
   11c44:	d0a050e3 	blez	s8,11944 <_vfprintf_r+0x554>
   11c48:	01152813 	slt	v0,s8,17
   11c4c:	34081ae3 	bnez	v0,127a0 <_vfprintf_r+0x13b0>
   11c50:	53072803 	lw	v0,1328(sp)
   11c54:	02572023 	sw	s3,32(sp)
   11c58:	01000593 	li	s9,16
   11c5c:	0100006f 	j	11c6c <_vfprintf_r+0x87c>
   11c60:	ff050513 	add	s8,s8,-16
   11c64:	01152893 	slt	v1,s8,17
   11c68:	340890e3 	bnez	v1,127a8 <_vfprintf_r+0x13b8>
   11c6c:	00180813 	add	v0,v0,1
   11c70:	01090913 	add	a0,a0,16
   11c74:	00882893 	slt	v1,v0,8
   11c78:	00522023 	sw	s3,0(s2)
   11c7c:	00b22223 	sw	s9,4(s2)
   11c80:	53272a23 	sw	a0,1332(sp)
   11c84:	53072823 	sw	v0,1328(sp)
   11c88:	00820213 	add	s2,s2,8
   11c8c:	fc089ae3 	bnez	v1,11c60 <_vfprintf_r+0x870>
   11c90:	00018913 	mv	a0,s1
   11c94:	00010993 	mv	a1,s0
   11c98:	52c70a13 	add	a2,sp,1324
   11c9c:	1e8050ef 	jal	16e84 <__sprint_r>
   11ca0:	ea081ee3 	bnez	v0,11b5c <_vfprintf_r+0x76c>
   11ca4:	53472903 	lw	a0,1332(sp)
   11ca8:	53072803 	lw	v0,1328(sp)
   11cac:	00040213 	mv	s2,s6
   11cb0:	fb1ff06f 	j	11c60 <_vfprintf_r+0x870>
   11cb4:	02872883 	lw	v1,40(sp)
   11cb8:	01c72983 	lw	a1,28(sp)
   11cbc:	413885b3 	sub	s9,v1,a1
   11cc0:	b6b05ee3 	blez	s9,1183c <_vfprintf_r+0x44c>
   11cc4:	0115a893 	slt	v1,s9,17
   11cc8:	02572023 	sw	s3,32(sp)
   11ccc:	06089863 	bnez	v1,11d3c <_vfprintf_r+0x94c>
   11cd0:	01000893 	li	v1,16
   11cd4:	0100006f 	j	11ce4 <_vfprintf_r+0x8f4>
   11cd8:	ff058593 	add	s9,s9,-16
   11cdc:	0115a993 	slt	a1,s9,17
   11ce0:	04099e63 	bnez	a1,11d3c <_vfprintf_r+0x94c>
   11ce4:	00180813 	add	v0,v0,1
   11ce8:	01090913 	add	a0,a0,16
   11cec:	00882993 	slt	a1,v0,8
   11cf0:	00522023 	sw	s3,0(s2)
   11cf4:	01122223 	sw	v1,4(s2)
   11cf8:	53272a23 	sw	a0,1332(sp)
   11cfc:	53072823 	sw	v0,1328(sp)
   11d00:	00820213 	add	s2,s2,8
   11d04:	fc099ae3 	bnez	a1,11cd8 <_vfprintf_r+0x8e8>
   11d08:	00018913 	mv	a0,s1
   11d0c:	00010993 	mv	a1,s0
   11d10:	52c70a13 	add	a2,sp,1324
   11d14:	01172c23 	sw	v1,24(sp)
   11d18:	16c050ef 	jal	16e84 <__sprint_r>
   11d1c:	01872883 	lw	v1,24(sp)
   11d20:	e2081ee3 	bnez	v0,11b5c <_vfprintf_r+0x76c>
   11d24:	ff058593 	add	s9,s9,-16
   11d28:	0115a993 	slt	a1,s9,17
   11d2c:	53472903 	lw	a0,1332(sp)
   11d30:	53072803 	lw	v0,1328(sp)
   11d34:	00040213 	mv	s2,s6
   11d38:	fa0986e3 	beqz	a1,11ce4 <_vfprintf_r+0x8f4>
   11d3c:	02072a03 	lw	a2,32(sp)
   11d40:	00180813 	add	v0,v0,1
   11d44:	00b90933 	add	a0,a0,s9
   11d48:	00882893 	slt	v1,v0,8
   11d4c:	01422023 	sw	a2,0(s2)
   11d50:	00b22223 	sw	s9,4(s2)
   11d54:	53272a23 	sw	a0,1332(sp)
   11d58:	53072823 	sw	v0,1328(sp)
   11d5c:	00820213 	add	s2,s2,8
   11d60:	ac089ee3 	bnez	v1,1183c <_vfprintf_r+0x44c>
   11d64:	00018913 	mv	a0,s1
   11d68:	00010993 	mv	a1,s0
   11d6c:	52c70a13 	add	a2,sp,1324
   11d70:	114050ef 	jal	16e84 <__sprint_r>
   11d74:	de0814e3 	bnez	v0,11b5c <_vfprintf_r+0x76c>
   11d78:	53472903 	lw	a0,1332(sp)
   11d7c:	53072803 	lw	v0,1328(sp)
   11d80:	00040213 	mv	s2,s6
   11d84:	ab9ff06f 	j	1183c <_vfprintf_r+0x44c>
   11d88:	00018913 	mv	a0,s1
   11d8c:	00010993 	mv	a1,s0
   11d90:	52c70a13 	add	a2,sp,1324
   11d94:	0f0050ef 	jal	16e84 <__sprint_r>
   11d98:	c6080ce3 	beqz	v0,11a10 <_vfprintf_r+0x620>
   11d9c:	dc1ff06f 	j	11b5c <_vfprintf_r+0x76c>
   11da0:	03c72983 	lw	a1,60(sp)
   11da4:	00180813 	add	v0,v0,1
   11da8:	00190913 	add	a0,a0,1
   11dac:	0029a893 	slt	v1,a1,2
   11db0:	000898e3 	bnez	v1,125c0 <_vfprintf_r+0x11d0>
   11db4:	03072a03 	lw	a2,48(sp)
   11db8:	00100993 	li	a1,1
   11dbc:	00882893 	slt	v1,v0,8
   11dc0:	01422023 	sw	a2,0(s2)
   11dc4:	01322223 	sw	a1,4(s2)
   11dc8:	53272a23 	sw	a0,1332(sp)
   11dcc:	53072823 	sw	v0,1328(sp)
   11dd0:	00820213 	add	s2,s2,8
   11dd4:	02088ce3 	beqz	v1,1260c <_vfprintf_r+0x121c>
   11dd8:	04472883 	lw	v1,68(sp)
   11ddc:	03872983 	lw	a1,56(sp)
   11de0:	04472a03 	lw	a2,68(sp)
   11de4:	00180813 	add	v0,v0,1
   11de8:	01190933 	add	a0,a0,v1
   11dec:	00882893 	slt	v1,v0,8
   11df0:	01322023 	sw	a1,0(s2)
   11df4:	01422223 	sw	a2,4(s2)
   11df8:	53272a23 	sw	a0,1332(sp)
   11dfc:	53072823 	sw	v0,1328(sp)
   11e00:	00820213 	add	s2,s2,8
   11e04:	020886e3 	beqz	v1,12630 <_vfprintf_r+0x1240>
   11e08:	72000853 	fcvt.d.w	fv0,zero
   11e0c:	ab0008d3 	feq.d	v1,fs0,fv0
   11e10:	2e088863 	beqz	v1,12100 <_vfprintf_r+0xd10>
   11e14:	03c72883 	lw	v1,60(sp)
   11e18:	fff88513 	add	s8,v1,-1
   11e1c:	30a05c63 	blez	s8,12134 <_vfprintf_r+0xd44>
   11e20:	01152893 	slt	v1,s8,17
   11e24:	02572023 	sw	s3,32(sp)
   11e28:	01000593 	li	s9,16
   11e2c:	00088a63 	beqz	v1,11e40 <_vfprintf_r+0xa50>
   11e30:	7380006f 	j	12568 <_vfprintf_r+0x1178>
   11e34:	ff050513 	add	s8,s8,-16
   11e38:	01152893 	slt	v1,s8,17
   11e3c:	72089663 	bnez	v1,12568 <_vfprintf_r+0x1178>
   11e40:	00180813 	add	v0,v0,1
   11e44:	01090913 	add	a0,a0,16
   11e48:	00882893 	slt	v1,v0,8
   11e4c:	00522023 	sw	s3,0(s2)
   11e50:	00b22223 	sw	s9,4(s2)
   11e54:	53272a23 	sw	a0,1332(sp)
   11e58:	53072823 	sw	v0,1328(sp)
   11e5c:	00820213 	add	s2,s2,8
   11e60:	fc089ae3 	bnez	v1,11e34 <_vfprintf_r+0xa44>
   11e64:	00018913 	mv	a0,s1
   11e68:	00010993 	mv	a1,s0
   11e6c:	52c70a13 	add	a2,sp,1324
   11e70:	014050ef 	jal	16e84 <__sprint_r>
   11e74:	ce0814e3 	bnez	v0,11b5c <_vfprintf_r+0x76c>
   11e78:	53472903 	lw	a0,1332(sp)
   11e7c:	53072803 	lw	v0,1328(sp)
   11e80:	00040213 	mv	s2,s6
   11e84:	fb1ff06f 	j	11e34 <_vfprintf_r+0xa44>
   11e88:	00018913 	mv	a0,s1
   11e8c:	00010993 	mv	a1,s0
   11e90:	7a5000ef 	jal	12e34 <__swsetup_r>
   11e94:	fff00613 	li	s10,-1
   11e98:	cc081ae3 	bnez	v0,11b6c <_vfprintf_r+0x77c>
   11e9c:	00c11c83 	lh	a7,12(s0)
   11ea0:	00a00893 	li	v1,10
   11ea4:	010c9813 	sll	v0,a7,0x10
   11ea8:	01085813 	srl	v0,v0,0x10
   11eac:	01a87813 	and	v0,v0,26
   11eb0:	e1181e63 	bne	v0,v1,114cc <_vfprintf_r+0xdc>
   11eb4:	00e11803 	lh	v0,14(s0)
   11eb8:	e0084a63 	bltz	v0,114cc <_vfprintf_r+0xdc>
   11ebc:	06412c03 	lw	a6,100(s0)
   11ec0:	01c12b83 	lw	a5,28(s0)
   11ec4:	02412b03 	lw	a4,36(s0)
   11ec8:	40000893 	li	v1,1024
   11ecc:	ffdcfc93 	and	a7,a7,-3
   11ed0:	47071523 	sh	v0,1130(sp)
   11ed4:	00018913 	mv	a0,s1
   11ed8:	05c70813 	add	v0,sp,92
   11edc:	45c70993 	add	a1,sp,1116
   11ee0:	00030a13 	mv	a2,s4
   11ee4:	00068a93 	mv	a3,s11
   11ee8:	47971423 	sh	a7,1128(sp)
   11eec:	4d872023 	sw	a6,1216(sp)
   11ef0:	47772c23 	sw	a5,1144(sp)
   11ef4:	49672023 	sw	a4,1152(sp)
   11ef8:	45072e23 	sw	v0,1116(sp)
   11efc:	47072623 	sw	v0,1132(sp)
   11f00:	47172223 	sw	v1,1124(sp)
   11f04:	47172823 	sw	v1,1136(sp)
   11f08:	46072a23 	sw	zero,1140(sp)
   11f0c:	ce4ff0ef 	jal	113f0 <_vfprintf_r>
   11f10:	00080613 	mv	s10,v0
   11f14:	00084c63 	bltz	v0,11f2c <_vfprintf_r+0xb3c>
   11f18:	00018913 	mv	a0,s1
   11f1c:	45c70993 	add	a1,sp,1116
   11f20:	548020ef 	jal	14468 <_fflush_r>
   11f24:	00080463 	beqz	v0,11f2c <_vfprintf_r+0xb3c>
   11f28:	67d0006f 	j	12da4 <_vfprintf_r+0x19b4>
   11f2c:	46875803 	lhu	v0,1128(sp)
   11f30:	04087813 	and	v0,v0,64
   11f34:	c2080ce3 	beqz	v0,11b6c <_vfprintf_r+0x77c>
   11f38:	00c15803 	lhu	v0,12(s0)
   11f3c:	04086813 	or	v0,v0,64
   11f40:	01011623 	sh	v0,12(s0)
   11f44:	c29ff06f 	j	11b6c <_vfprintf_r+0x77c>
   11f48:	00018913 	mv	a0,s1
   11f4c:	00010993 	mv	a1,s0
   11f50:	52c70a13 	add	a2,sp,1324
   11f54:	731040ef 	jal	16e84 <__sprint_r>
   11f58:	c00812e3 	bnez	v0,11b5c <_vfprintf_r+0x76c>
   11f5c:	53472903 	lw	a0,1332(sp)
   11f60:	53072803 	lw	v0,1328(sp)
   11f64:	00040213 	mv	s2,s6
   11f68:	895ff06f 	j	117fc <_vfprintf_r+0x40c>
   11f6c:	00018913 	mv	a0,s1
   11f70:	00010993 	mv	a1,s0
   11f74:	52c70a13 	add	a2,sp,1324
   11f78:	70d040ef 	jal	16e84 <__sprint_r>
   11f7c:	be0810e3 	bnez	v0,11b5c <_vfprintf_r+0x76c>
   11f80:	53472903 	lw	a0,1332(sp)
   11f84:	53072803 	lw	v0,1328(sp)
   11f88:	00040213 	mv	s2,s6
   11f8c:	8a5ff06f 	j	11830 <_vfprintf_r+0x440>
   11f90:	04c72a03 	lw	a2,76(sp)
   11f94:	52c70a93 	add	a3,sp,1324
   11f98:	03572823 	sw	a3,48(sp)
   11f9c:	000a8893 	mv	v1,a3
   11fa0:	00f87993 	and	a1,v0,15
   11fa4:	013a09b3 	add	a1,a2,a1
   11fa8:	0009c983 	lbu	a1,0(a1)
   11fac:	fff88893 	add	v1,v1,-1
   11fb0:	00485813 	srl	v0,v0,0x4
   11fb4:	01388023 	sb	a1,0(v1)
   11fb8:	fe0814e3 	bnez	v0,11fa0 <_vfprintf_r+0xbb0>
   11fbc:	411a8ab3 	sub	a3,a3,v1
   11fc0:	03172823 	sw	v1,48(sp)
   11fc4:	03572223 	sw	a3,36(sp)
   11fc8:	e7cff06f 	j	11644 <_vfprintf_r+0x254>
   11fcc:	00a83893 	sltu	v1,v0,10
   11fd0:	52c70a93 	add	a3,sp,1324
   11fd4:	260892e3 	bnez	v1,12a38 <_vfprintf_r+0x1648>
   11fd8:	000a8893 	mv	v1,a3
   11fdc:	00a00993 	li	a1,10
   11fe0:	03387a33 	remu	a2,v0,a1
   11fe4:	fff88893 	add	v1,v1,-1
   11fe8:	03385833 	divu	v0,v0,a1
   11fec:	030a0a13 	add	a2,a2,48
   11ff0:	01488023 	sb	a2,0(v1)
   11ff4:	00a83a13 	sltu	a2,v0,10
   11ff8:	fe0a04e3 	beqz	a2,11fe0 <_vfprintf_r+0xbf0>
   11ffc:	fff88a13 	add	a2,v1,-1
   12000:	03472823 	sw	a2,48(sp)
   12004:	03080813 	add	v0,v0,48
   12008:	ff088fa3 	sb	v0,-1(v1)
   1200c:	03072883 	lw	v1,48(sp)
   12010:	411a8ab3 	sub	a3,a3,v1
   12014:	03572223 	sw	a3,36(sp)
   12018:	e2cff06f 	j	11644 <_vfprintf_r+0x254>
   1201c:	00018913 	mv	a0,s1
   12020:	011020ef 	jal	14830 <__sinit>
   12024:	c44ff06f 	j	11468 <_vfprintf_r+0x78>
   12028:	54072503 	lw	s8,1344(sp)
   1202c:	46a05263 	blez	s8,12490 <_vfprintf_r+0x10a0>
   12030:	03c72883 	lw	v1,60(sp)
   12034:	00180813 	add	v0,v0,1
   12038:	9f1548e3 	blt	s8,v1,11a28 <_vfprintf_r+0x638>
   1203c:	03072983 	lw	a1,48(sp)
   12040:	03c72a03 	lw	a2,60(sp)
   12044:	01190933 	add	a0,a0,v1
   12048:	00882893 	slt	v1,v0,8
   1204c:	01322023 	sw	a1,0(s2)
   12050:	01422223 	sw	a2,4(s2)
   12054:	53272a23 	sw	a0,1332(sp)
   12058:	53072823 	sw	v0,1328(sp)
   1205c:	00820213 	add	s2,s2,8
   12060:	1e088ae3 	beqz	v1,12a54 <_vfprintf_r+0x1664>
   12064:	03c72883 	lw	v1,60(sp)
   12068:	41150533 	sub	s8,s8,v1
   1206c:	7aa05c63 	blez	s8,12824 <_vfprintf_r+0x1434>
   12070:	01152813 	slt	v0,s8,17
   12074:	76081063 	bnez	v0,127d4 <_vfprintf_r+0x13e4>
   12078:	53072803 	lw	v0,1328(sp)
   1207c:	02572023 	sw	s3,32(sp)
   12080:	01000593 	li	s9,16
   12084:	0100006f 	j	12094 <_vfprintf_r+0xca4>
   12088:	ff050513 	add	s8,s8,-16
   1208c:	01152893 	slt	v1,s8,17
   12090:	74089663 	bnez	v1,127dc <_vfprintf_r+0x13ec>
   12094:	00180813 	add	v0,v0,1
   12098:	01090913 	add	a0,a0,16
   1209c:	00882893 	slt	v1,v0,8
   120a0:	00522023 	sw	s3,0(s2)
   120a4:	00b22223 	sw	s9,4(s2)
   120a8:	53272a23 	sw	a0,1332(sp)
   120ac:	53072823 	sw	v0,1328(sp)
   120b0:	00820213 	add	s2,s2,8
   120b4:	fc089ae3 	bnez	v1,12088 <_vfprintf_r+0xc98>
   120b8:	00018913 	mv	a0,s1
   120bc:	00010993 	mv	a1,s0
   120c0:	52c70a13 	add	a2,sp,1324
   120c4:	5c1040ef 	jal	16e84 <__sprint_r>
   120c8:	a8081ae3 	bnez	v0,11b5c <_vfprintf_r+0x76c>
   120cc:	53472903 	lw	a0,1332(sp)
   120d0:	53072803 	lw	v0,1328(sp)
   120d4:	00040213 	mv	s2,s6
   120d8:	fb1ff06f 	j	12088 <_vfprintf_r+0xc98>
   120dc:	0014f813 	and	v0,s7,1
   120e0:	d4080c63 	beqz	v0,11638 <_vfprintf_r+0x248>
   120e4:	00100893 	li	v1,1
   120e8:	03000813 	li	v0,48
   120ec:	03172223 	sw	v1,36(sp)
   120f0:	52b70893 	add	v1,sp,1323
   120f4:	530705a3 	sb	v0,1323(sp)
   120f8:	03172823 	sw	v1,48(sp)
   120fc:	d48ff06f 	j	11644 <_vfprintf_r+0x254>
   12100:	03c72983 	lw	a1,60(sp)
   12104:	00180813 	add	v0,v0,1
   12108:	53072823 	sw	v0,1328(sp)
   1210c:	fff98893 	add	v1,a1,-1
   12110:	03072983 	lw	a1,48(sp)
   12114:	01190933 	add	a0,a0,v1
   12118:	01122223 	sw	v1,4(s2)
   1211c:	00198a13 	add	a2,a1,1
   12120:	00882993 	slt	a1,v0,8
   12124:	01422023 	sw	a2,0(s2)
   12128:	53272a23 	sw	a0,1332(sp)
   1212c:	46098063 	beqz	a1,1258c <_vfprintf_r+0x119c>
   12130:	00820213 	add	s2,s2,8
   12134:	04872883 	lw	v1,72(sp)
   12138:	53870993 	add	a1,sp,1336
   1213c:	01322023 	sw	a1,0(s2)
   12140:	04872983 	lw	a1,72(sp)
   12144:	00180813 	add	v0,v0,1
   12148:	01190933 	add	a0,a0,v1
   1214c:	00882893 	slt	v1,v0,8
   12150:	01322223 	sw	a1,4(s2)
   12154:	53272a23 	sw	a0,1332(sp)
   12158:	53072823 	sw	v0,1328(sp)
   1215c:	fe089263 	bnez	v1,11940 <_vfprintf_r+0x550>
   12160:	00018913 	mv	a0,s1
   12164:	00010993 	mv	a1,s0
   12168:	52c70a13 	add	a2,sp,1324
   1216c:	519040ef 	jal	16e84 <__sprint_r>
   12170:	9e0816e3 	bnez	v0,11b5c <_vfprintf_r+0x76c>
   12174:	53472903 	lw	a0,1332(sp)
   12178:	00040213 	mv	s2,s6
   1217c:	fc8ff06f 	j	11944 <_vfprintf_r+0x554>
   12180:	0404f813 	and	v0,s7,64
   12184:	c8080663 	beqz	v0,11610 <_vfprintf_r+0x220>
   12188:	0006d803 	lhu	v0,0(s11)
   1218c:	00100893 	li	v1,1
   12190:	00468693 	add	s11,s11,4
   12194:	c88ff06f 	j	1161c <_vfprintf_r+0x22c>
   12198:	414a8ab3 	sub	a3,a3,a2
   1219c:	03572223 	sw	a3,36(sp)
   121a0:	ca4ff06f 	j	11644 <_vfprintf_r+0x254>
   121a4:	00018913 	mv	a0,s1
   121a8:	00010993 	mv	a1,s0
   121ac:	52c70a13 	add	a2,sp,1324
   121b0:	4d5040ef 	jal	16e84 <__sprint_r>
   121b4:	9a0814e3 	bnez	v0,11b5c <_vfprintf_r+0x76c>
   121b8:	53472903 	lw	a0,1332(sp)
   121bc:	83dff06f 	j	119f8 <_vfprintf_r+0x608>
   121c0:	0014f813 	and	v0,s7,1
   121c4:	f8080063 	beqz	v0,11944 <_vfprintf_r+0x554>
   121c8:	a3dff06f 	j	11c04 <_vfprintf_r+0x814>
   121cc:	0006a883 	lw	v1,0(s11)
   121d0:	540707a3 	sb	zero,1359(sp)
   121d4:	00468693 	add	s11,s11,4
   121d8:	03172823 	sw	v1,48(sp)
   121dc:	00088ee3 	beqz	v1,129f8 <_vfprintf_r+0x1608>
   121e0:	03072903 	lw	a0,48(sp)
   121e4:	7405ce63 	bltz	s9,12940 <_vfprintf_r+0x1550>
   121e8:	00000993 	li	a1,0
   121ec:	00058a13 	mv	a2,s9
   121f0:	650030ef 	jal	15840 <memchr>
   121f4:	00080a63 	beqz	v0,12208 <_vfprintf_r+0xe18>
   121f8:	03072883 	lw	v1,48(sp)
   121fc:	41180833 	sub	v0,v0,v1
   12200:	03072223 	sw	v0,36(sp)
   12204:	6705d263 	ble	v0,s9,12868 <_vfprintf_r+0x1478>
   12208:	00b72e23 	sw	s9,28(sp)
   1220c:	54f74903 	lbu	a0,1359(sp)
   12210:	02b72223 	sw	s9,36(sp)
   12214:	02072a23 	sw	zero,52(sp)
   12218:	c40ff06f 	j	11658 <_vfprintf_r+0x268>
   1221c:	00034503 	lbu	s8,0(s4)
   12220:	00130313 	add	s4,s4,1
   12224:	393504e3 	beq	s8,a1,12dac <_vfprintf_r+0x19bc>
   12228:	fd050813 	add	v0,s8,-48
   1222c:	00a83893 	sltu	v1,v0,10
   12230:	00000593 	li	s9,0
   12234:	00089463 	bnez	v1,1223c <_vfprintf_r+0xe4c>
   12238:	b58ff06f 	j	11590 <_vfprintf_r+0x1a0>
   1223c:	00034503 	lbu	s8,0(s4)
   12240:	00159893 	sll	v1,s9,0x1
   12244:	00359593 	sll	s9,s9,0x3
   12248:	00b885b3 	add	s9,v1,s9
   1224c:	00b805b3 	add	s9,v0,s9
   12250:	fd050813 	add	v0,s8,-48
   12254:	00a83893 	sltu	v1,v0,10
   12258:	00130313 	add	s4,s4,1
   1225c:	fe0890e3 	bnez	v1,1223c <_vfprintf_r+0xe4c>
   12260:	0005c463 	bltz	s9,12268 <_vfprintf_r+0xe78>
   12264:	b2cff06f 	j	11590 <_vfprintf_r+0x1a0>
   12268:	fff00593 	li	s9,-1
   1226c:	b24ff06f 	j	11590 <_vfprintf_r+0x1a0>
   12270:	0404e493 	or	s7,s7,64
   12274:	b14ff06f 	j	11588 <_vfprintf_r+0x198>
   12278:	00008817 	auipc	v0,0x8
   1227c:	ccc80813 	add	v0,v0,-820 # 19ccc <zeroes.3758+0x48>
   12280:	05072623 	sw	v0,76(sp)
   12284:	0104f813 	and	v0,s7,16
   12288:	552707a3 	sb	a0,1359(sp)
   1228c:	16081463 	bnez	v0,123f4 <_vfprintf_r+0x1004>
   12290:	0404f813 	and	v0,s7,64
   12294:	16080063 	beqz	v0,123f4 <_vfprintf_r+0x1004>
   12298:	0006d803 	lhu	v0,0(s11)
   1229c:	00468693 	add	s11,s11,4
   122a0:	0014f913 	and	a0,s7,1
   122a4:	00200893 	li	v1,2
   122a8:	00091463 	bnez	a0,122b0 <_vfprintf_r+0xec0>
   122ac:	b70ff06f 	j	1161c <_vfprintf_r+0x22c>
   122b0:	00081463 	bnez	v0,122b8 <_vfprintf_r+0xec8>
   122b4:	b68ff06f 	j	1161c <_vfprintf_r+0x22c>
   122b8:	03000913 	li	a0,48
   122bc:	55270623 	sb	a0,1356(sp)
   122c0:	54a706a3 	sb	s8,1357(sp)
   122c4:	0024e493 	or	s7,s7,2
   122c8:	b54ff06f 	j	1161c <_vfprintf_r+0x22c>
   122cc:	03000893 	li	v1,48
   122d0:	55170623 	sb	v1,1356(sp)
   122d4:	07800893 	li	v1,120
   122d8:	551706a3 	sb	v1,1357(sp)
   122dc:	00008897 	auipc	v1,0x8
   122e0:	ccc88893 	add	v1,v1,-820 # 19ccc <zeroes.3758+0x48>
   122e4:	0006a803 	lw	v0,0(s11)
   122e8:	05172623 	sw	v1,76(sp)
   122ec:	0024e493 	or	s7,s7,2
   122f0:	00468693 	add	s11,s11,4
   122f4:	00200893 	li	v1,2
   122f8:	07800513 	li	s8,120
   122fc:	b20ff06f 	j	1161c <_vfprintf_r+0x22c>
   12300:	0804e493 	or	s7,s7,128
   12304:	a84ff06f 	j	11588 <_vfprintf_r+0x198>
   12308:	00000893 	li	v1,0
   1230c:	fd050813 	add	v0,s8,-48
   12310:	00034503 	lbu	s8,0(s4)
   12314:	00189a13 	sll	a2,v1,0x1
   12318:	00389893 	sll	v1,v1,0x3
   1231c:	011a08b3 	add	v1,a2,v1
   12320:	010888b3 	add	v1,v1,v0
   12324:	fd050813 	add	v0,s8,-48
   12328:	00a83a13 	sltu	a2,v0,10
   1232c:	00130313 	add	s4,s4,1
   12330:	fe0a10e3 	bnez	a2,12310 <_vfprintf_r+0xf20>
   12334:	03172423 	sw	v1,40(sp)
   12338:	a58ff06f 	j	11590 <_vfprintf_r+0x1a0>
   1233c:	0104e493 	or	s7,s7,16
   12340:	0104f813 	and	v0,s7,16
   12344:	552707a3 	sb	a0,1359(sp)
   12348:	0e081c63 	bnez	v0,12440 <_vfprintf_r+0x1050>
   1234c:	0404f813 	and	v0,s7,64
   12350:	0e080863 	beqz	v0,12440 <_vfprintf_r+0x1050>
   12354:	00069803 	lh	v0,0(s11)
   12358:	00468693 	add	s11,s11,4
   1235c:	2e084c63 	bltz	v0,12654 <_vfprintf_r+0x1264>
   12360:	54f74903 	lbu	a0,1359(sp)
   12364:	00100893 	li	v1,1
   12368:	abcff06f 	j	11624 <_vfprintf_r+0x234>
   1236c:	0084f813 	and	v0,s7,8
   12370:	552707a3 	sb	a0,1359(sp)
   12374:	40080c63 	beqz	v0,1278c <_vfprintf_r+0x139c>
   12378:	00768813 	add	v0,s11,7
   1237c:	ff887813 	and	v0,v0,-8
   12380:	00083007 	fld	fs0,0(v0)
   12384:	00880693 	add	s11,v0,8
   12388:	2a000953 	fmv.d	fa0,fs0
   1238c:	748040ef 	jal	16ad4 <__fpclassifyd>
   12390:	00100893 	li	v1,1
   12394:	2d181c63 	bne	v0,v1,1266c <_vfprintf_r+0x127c>
   12398:	72000853 	fcvt.d.w	fv0,zero
   1239c:	b3000853 	flt.d	v0,fs0,fv0
   123a0:	50081c63 	bnez	v0,128b8 <_vfprintf_r+0x14c8>
   123a4:	54f74903 	lbu	a0,1359(sp)
   123a8:	04852813 	slt	v0,s8,72
   123ac:	58080263 	beqz	v0,12930 <_vfprintf_r+0x1540>
   123b0:	00008817 	auipc	v0,0x8
   123b4:	ca880813 	add	v0,v0,-856 # 19ca8 <zeroes.3758+0x24>
   123b8:	03072823 	sw	v0,48(sp)
   123bc:	00300893 	li	v1,3
   123c0:	f7f4f493 	and	s7,s7,-129
   123c4:	01172e23 	sw	v1,28(sp)
   123c8:	03172223 	sw	v1,36(sp)
   123cc:	02072a23 	sw	zero,52(sp)
   123d0:	a88ff06f 	j	11658 <_vfprintf_r+0x268>
   123d4:	0084e493 	or	s7,s7,8
   123d8:	9b0ff06f 	j	11588 <_vfprintf_r+0x198>
   123dc:	00008817 	auipc	v0,0x8
   123e0:	cb880813 	add	v0,v0,-840 # 19cb8 <zeroes.3758+0x34>
   123e4:	05072623 	sw	v0,76(sp)
   123e8:	0104f813 	and	v0,s7,16
   123ec:	552707a3 	sb	a0,1359(sp)
   123f0:	ea0800e3 	beqz	v0,12290 <_vfprintf_r+0xea0>
   123f4:	0006a803 	lw	v0,0(s11)
   123f8:	00468693 	add	s11,s11,4
   123fc:	ea5ff06f 	j	122a0 <_vfprintf_r+0xeb0>
   12400:	00090463 	beqz	a0,12408 <_vfprintf_r+0x1018>
   12404:	984ff06f 	j	11588 <_vfprintf_r+0x198>
   12408:	02000913 	li	a0,32
   1240c:	97cff06f 	j	11588 <_vfprintf_r+0x198>
   12410:	0014e493 	or	s7,s7,1
   12414:	974ff06f 	j	11588 <_vfprintf_r+0x198>
   12418:	02b00913 	li	a0,43
   1241c:	96cff06f 	j	11588 <_vfprintf_r+0x198>
   12420:	0006a803 	lw	v0,0(s11)
   12424:	540707a3 	sb	zero,1359(sp)
   12428:	00468693 	add	s11,s11,4
   1242c:	51070223 	sb	v0,1284(sp)
   12430:	97cff06f 	j	115ac <_vfprintf_r+0x1bc>
   12434:	0104f813 	and	v0,s7,16
   12438:	552707a3 	sb	a0,1359(sp)
   1243c:	f00808e3 	beqz	v0,1234c <_vfprintf_r+0xf5c>
   12440:	0006a803 	lw	v0,0(s11)
   12444:	00468693 	add	s11,s11,4
   12448:	f15ff06f 	j	1235c <_vfprintf_r+0xf6c>
   1244c:	0104f813 	and	v0,s7,16
   12450:	552707a3 	sb	a0,1359(sp)
   12454:	14081e63 	bnez	v0,125b0 <_vfprintf_r+0x11c0>
   12458:	0404f493 	and	s7,s7,64
   1245c:	14048a63 	beqz	s7,125b0 <_vfprintf_r+0x11c0>
   12460:	0006a803 	lw	v0,0(s11)
   12464:	00468693 	add	s11,s11,4
   12468:	00c81023 	sh	s10,0(v0)
   1246c:	898ff06f 	j	11504 <_vfprintf_r+0x114>
   12470:	00018913 	mv	a0,s1
   12474:	00010993 	mv	a1,s0
   12478:	52c70a13 	add	a2,sp,1324
   1247c:	209040ef 	jal	16e84 <__sprint_r>
   12480:	ec081e63 	bnez	v0,11b5c <_vfprintf_r+0x76c>
   12484:	53472903 	lw	a0,1332(sp)
   12488:	00040213 	mv	s2,s6
   1248c:	f6cff06f 	j	11bf8 <_vfprintf_r+0x808>
   12490:	00180813 	add	v0,v0,1
   12494:	00008a17 	auipc	a2,0x8
   12498:	00190913 	add	a0,a0,1
   1249c:	ce8a0a13 	add	a2,a2,-792 # 19ce8 <zeroes.3758+0x64>
   124a0:	00100993 	li	a1,1
   124a4:	00882893 	slt	v1,v0,8
   124a8:	01422023 	sw	a2,0(s2)
   124ac:	01322223 	sw	a1,4(s2)
   124b0:	53272a23 	sw	a0,1332(sp)
   124b4:	53072823 	sw	v0,1328(sp)
   124b8:	00820213 	add	s2,s2,8
   124bc:	42088263 	beqz	v1,128e0 <_vfprintf_r+0x14f0>
   124c0:	40050463 	beqz	s8,128c8 <_vfprintf_r+0x14d8>
   124c4:	04472883 	lw	v1,68(sp)
   124c8:	53072803 	lw	v0,1328(sp)
   124cc:	04472983 	lw	a1,68(sp)
   124d0:	01190933 	add	a0,a0,v1
   124d4:	03872883 	lw	v1,56(sp)
   124d8:	00180813 	add	v0,v0,1
   124dc:	01322223 	sw	a1,4(s2)
   124e0:	01122023 	sw	v1,0(s2)
   124e4:	00882893 	slt	v1,v0,8
   124e8:	53272a23 	sw	a0,1332(sp)
   124ec:	53072823 	sw	v0,1328(sp)
   124f0:	78088063 	beqz	v1,12c70 <_vfprintf_r+0x1880>
   124f4:	00820893 	add	v1,s2,8
   124f8:	40a00233 	neg	s2,s8
   124fc:	4a405c63 	blez	s2,129b4 <_vfprintf_r+0x15c4>
   12500:	01122993 	slt	a1,s2,17
   12504:	02572023 	sw	s3,32(sp)
   12508:	01000513 	li	s8,16
   1250c:	00098a63 	beqz	a1,12520 <_vfprintf_r+0x1130>
   12510:	4580006f 	j	12968 <_vfprintf_r+0x1578>
   12514:	ff020213 	add	s2,s2,-16
   12518:	01122993 	slt	a1,s2,17
   1251c:	44099663 	bnez	a1,12968 <_vfprintf_r+0x1578>
   12520:	00180813 	add	v0,v0,1
   12524:	01090913 	add	a0,a0,16
   12528:	00882993 	slt	a1,v0,8
   1252c:	0058a023 	sw	s3,0(v1)
   12530:	00a8a223 	sw	s8,4(v1)
   12534:	53272a23 	sw	a0,1332(sp)
   12538:	53072823 	sw	v0,1328(sp)
   1253c:	00888893 	add	v1,v1,8
   12540:	fc099ae3 	bnez	a1,12514 <_vfprintf_r+0x1124>
   12544:	00018913 	mv	a0,s1
   12548:	00010993 	mv	a1,s0
   1254c:	52c70a13 	add	a2,sp,1324
   12550:	135040ef 	jal	16e84 <__sprint_r>
   12554:	e0081463 	bnez	v0,11b5c <_vfprintf_r+0x76c>
   12558:	53472903 	lw	a0,1332(sp)
   1255c:	53072803 	lw	v0,1328(sp)
   12560:	00040893 	mv	v1,s6
   12564:	fb1ff06f 	j	12514 <_vfprintf_r+0x1124>
   12568:	02072983 	lw	a1,32(sp)
   1256c:	00180813 	add	v0,v0,1
   12570:	00a90933 	add	a0,a0,s8
   12574:	00882893 	slt	v1,v0,8
   12578:	01322023 	sw	a1,0(s2)
   1257c:	00a22223 	sw	s8,4(s2)
   12580:	53272a23 	sw	a0,1332(sp)
   12584:	53072823 	sw	v0,1328(sp)
   12588:	ba0894e3 	bnez	v1,12130 <_vfprintf_r+0xd40>
   1258c:	00018913 	mv	a0,s1
   12590:	00010993 	mv	a1,s0
   12594:	52c70a13 	add	a2,sp,1324
   12598:	0ed040ef 	jal	16e84 <__sprint_r>
   1259c:	dc081063 	bnez	v0,11b5c <_vfprintf_r+0x76c>
   125a0:	00040213 	mv	s2,s6
   125a4:	53472903 	lw	a0,1332(sp)
   125a8:	53072803 	lw	v0,1328(sp)
   125ac:	b89ff06f 	j	12134 <_vfprintf_r+0xd44>
   125b0:	0006a803 	lw	v0,0(s11)
   125b4:	00468693 	add	s11,s11,4
   125b8:	00c82023 	sw	s10,0(v0)
   125bc:	f49fe06f 	j	11504 <_vfprintf_r+0x114>
   125c0:	0014f893 	and	v1,s7,1
   125c4:	fe089863 	bnez	v1,11db4 <_vfprintf_r+0x9c4>
   125c8:	03072a03 	lw	a2,48(sp)
   125cc:	00100993 	li	a1,1
   125d0:	00882893 	slt	v1,v0,8
   125d4:	01422023 	sw	a2,0(s2)
   125d8:	01322223 	sw	a1,4(s2)
   125dc:	53272a23 	sw	a0,1332(sp)
   125e0:	53072823 	sw	v0,1328(sp)
   125e4:	b40896e3 	bnez	v1,12130 <_vfprintf_r+0xd40>
   125e8:	00018913 	mv	a0,s1
   125ec:	00010993 	mv	a1,s0
   125f0:	52c70a13 	add	a2,sp,1324
   125f4:	091040ef 	jal	16e84 <__sprint_r>
   125f8:	d6081263 	bnez	v0,11b5c <_vfprintf_r+0x76c>
   125fc:	53472903 	lw	a0,1332(sp)
   12600:	53072803 	lw	v0,1328(sp)
   12604:	00040213 	mv	s2,s6
   12608:	b2dff06f 	j	12134 <_vfprintf_r+0xd44>
   1260c:	00018913 	mv	a0,s1
   12610:	00010993 	mv	a1,s0
   12614:	52c70a13 	add	a2,sp,1324
   12618:	06d040ef 	jal	16e84 <__sprint_r>
   1261c:	d4081063 	bnez	v0,11b5c <_vfprintf_r+0x76c>
   12620:	53472903 	lw	a0,1332(sp)
   12624:	53072803 	lw	v0,1328(sp)
   12628:	00040213 	mv	s2,s6
   1262c:	facff06f 	j	11dd8 <_vfprintf_r+0x9e8>
   12630:	00018913 	mv	a0,s1
   12634:	00010993 	mv	a1,s0
   12638:	52c70a13 	add	a2,sp,1324
   1263c:	049040ef 	jal	16e84 <__sprint_r>
   12640:	d0081e63 	bnez	v0,11b5c <_vfprintf_r+0x76c>
   12644:	53472903 	lw	a0,1332(sp)
   12648:	53072803 	lw	v0,1328(sp)
   1264c:	00040213 	mv	s2,s6
   12650:	fb8ff06f 	j	11e08 <_vfprintf_r+0xa18>
   12654:	02d00893 	li	v1,45
   12658:	551707a3 	sb	v1,1359(sp)
   1265c:	41000833 	neg	v0,v0
   12660:	02d00913 	li	a0,45
   12664:	00100893 	li	v1,1
   12668:	fbdfe06f 	j	11624 <_vfprintf_r+0x234>
   1266c:	2a000953 	fmv.d	fa0,fs0
   12670:	464040ef 	jal	16ad4 <__fpclassifyd>
   12674:	20080a63 	beqz	v0,12888 <_vfprintf_r+0x1498>
   12678:	fff00813 	li	v0,-1
   1267c:	63058663 	beq	s9,v0,12ca8 <_vfprintf_r+0x18b8>
   12680:	06700813 	li	v0,103
   12684:	61050c63 	beq	s8,v0,12c9c <_vfprintf_r+0x18ac>
   12688:	04700813 	li	v0,71
   1268c:	61050863 	beq	s8,v0,12c9c <_vfprintf_r+0x18ac>
   12690:	00073827 	fsd	fs0,16(sp)
   12694:	01472983 	lw	a1,20(sp)
   12698:	1004e493 	or	s7,s7,256
   1269c:	6209ca63 	bltz	a1,12cd0 <_vfprintf_r+0x18e0>
   126a0:	2a0000d3 	fmv.d	fs1,fs0
   126a4:	02072023 	sw	zero,32(sp)
   126a8:	06600813 	li	v0,102
   126ac:	57050c63 	beq	s8,v0,12c24 <_vfprintf_r+0x1834>
   126b0:	04600813 	li	v0,70
   126b4:	63050663 	beq	s8,v0,12ce0 <_vfprintf_r+0x18f0>
   126b8:	06500813 	li	v0,101
   126bc:	61050663 	beq	s8,v0,12cc8 <_vfprintf_r+0x18d8>
   126c0:	04500813 	li	v0,69
   126c4:	00058893 	mv	v1,s9
   126c8:	61050063 	beq	s8,v0,12cc8 <_vfprintf_r+0x18d8>
   126cc:	2a108a53 	fmv.d	fa2,fs1
   126d0:	00088b93 	mv	a5,v1
   126d4:	54870813 	add	v0,sp,1352
   126d8:	00018913 	mv	a0,s1
   126dc:	00200b13 	li	a4,2
   126e0:	54070c13 	add	a6,sp,1344
   126e4:	54470c93 	add	a7,sp,1348
   126e8:	01172c23 	sw	v1,24(sp)
   126ec:	01072023 	sw	v0,0(sp)
   126f0:	525000ef 	jal	13414 <_dtoa_r>
   126f4:	03072823 	sw	v0,48(sp)
   126f8:	06700813 	li	v0,103
   126fc:	01872883 	lw	v1,24(sp)
   12700:	01050663 	beq	s8,v0,1270c <_vfprintf_r+0x131c>
   12704:	04700813 	li	v0,71
   12708:	01051663 	bne	s8,v0,12714 <_vfprintf_r+0x1324>
   1270c:	0014f813 	and	v0,s7,1
   12710:	64080063 	beqz	v0,12d50 <_vfprintf_r+0x1960>
   12714:	03072a03 	lw	a2,48(sp)
   12718:	011a0933 	add	a0,a2,v1
   1271c:	04600813 	li	v0,70
   12720:	53050a63 	beq	s8,v0,12c54 <_vfprintf_r+0x1864>
   12724:	72000853 	fcvt.d.w	fv0,zero
   12728:	ab008853 	feq.d	v0,fs1,fv0
   1272c:	4c080c63 	beqz	v0,12c04 <_vfprintf_r+0x1814>
   12730:	55272423 	sw	a0,1352(sp)
   12734:	03072883 	lw	v1,48(sp)
   12738:	06700813 	li	v0,103
   1273c:	41190933 	sub	a0,a0,v1
   12740:	03272e23 	sw	a0,60(sp)
   12744:	33050c63 	beq	s8,v0,12a7c <_vfprintf_r+0x168c>
   12748:	04700813 	li	v0,71
   1274c:	33050863 	beq	s8,v0,12a7c <_vfprintf_r+0x168c>
   12750:	54072883 	lw	v1,1344(sp)
   12754:	06600813 	li	v0,102
   12758:	03172223 	sw	v1,36(sp)
   1275c:	33051c63 	bne	s8,v0,12a94 <_vfprintf_r+0x16a4>
   12760:	67105c63 	blez	v1,12dd8 <_vfprintf_r+0x19e8>
   12764:	66059063 	bnez	s9,12dc4 <_vfprintf_r+0x19d4>
   12768:	0014f813 	and	v0,s7,1
   1276c:	64081c63 	bnez	v0,12dc4 <_vfprintf_r+0x19d4>
   12770:	01172e23 	sw	v1,28(sp)
   12774:	02072983 	lw	a1,32(sp)
   12778:	48098063 	beqz	a1,12bf8 <_vfprintf_r+0x1808>
   1277c:	02d00813 	li	v0,45
   12780:	550707a3 	sb	v0,1359(sp)
   12784:	02072a23 	sw	zero,52(sp)
   12788:	ed5fe06f 	j	1165c <_vfprintf_r+0x26c>
   1278c:	00768693 	add	s11,s11,7
   12790:	ff86f693 	and	s11,s11,-8
   12794:	0006b007 	fld	fs0,0(s11)
   12798:	00868693 	add	s11,s11,8
   1279c:	bedff06f 	j	12388 <_vfprintf_r+0xf98>
   127a0:	53072803 	lw	v0,1328(sp)
   127a4:	02572023 	sw	s3,32(sp)
   127a8:	02072983 	lw	a1,32(sp)
   127ac:	00180813 	add	v0,v0,1
   127b0:	00a90933 	add	a0,a0,s8
   127b4:	00882893 	slt	v1,v0,8
   127b8:	00a22223 	sw	s8,4(s2)
   127bc:	01322023 	sw	a1,0(s2)
   127c0:	53272a23 	sw	a0,1332(sp)
   127c4:	53072823 	sw	v0,1328(sp)
   127c8:	00088463 	beqz	v1,127d0 <_vfprintf_r+0x13e0>
   127cc:	974ff06f 	j	11940 <_vfprintf_r+0x550>
   127d0:	af0ff06f 	j	11ac0 <_vfprintf_r+0x6d0>
   127d4:	53072803 	lw	v0,1328(sp)
   127d8:	02572023 	sw	s3,32(sp)
   127dc:	02072983 	lw	a1,32(sp)
   127e0:	00180813 	add	v0,v0,1
   127e4:	00a90933 	add	a0,a0,s8
   127e8:	00882893 	slt	v1,v0,8
   127ec:	01322023 	sw	a1,0(s2)
   127f0:	00a22223 	sw	s8,4(s2)
   127f4:	53272a23 	sw	a0,1332(sp)
   127f8:	53072823 	sw	v0,1328(sp)
   127fc:	00820213 	add	s2,s2,8
   12800:	02089263 	bnez	v1,12824 <_vfprintf_r+0x1434>
   12804:	00018913 	mv	a0,s1
   12808:	00010993 	mv	a1,s0
   1280c:	52c70a13 	add	a2,sp,1324
   12810:	674040ef 	jal	16e84 <__sprint_r>
   12814:	00080463 	beqz	v0,1281c <_vfprintf_r+0x142c>
   12818:	b44ff06f 	j	11b5c <_vfprintf_r+0x76c>
   1281c:	53472903 	lw	a0,1332(sp)
   12820:	00040213 	mv	s2,s6
   12824:	0014f813 	and	v0,s7,1
   12828:	00081463 	bnez	v0,12830 <_vfprintf_r+0x1440>
   1282c:	918ff06f 	j	11944 <_vfprintf_r+0x554>
   12830:	04472883 	lw	v1,68(sp)
   12834:	53072803 	lw	v0,1328(sp)
   12838:	04472983 	lw	a1,68(sp)
   1283c:	01190933 	add	a0,a0,v1
   12840:	03872883 	lw	v1,56(sp)
   12844:	00180813 	add	v0,v0,1
   12848:	01322223 	sw	a1,4(s2)
   1284c:	01122023 	sw	v1,0(s2)
   12850:	00882893 	slt	v1,v0,8
   12854:	53272a23 	sw	a0,1332(sp)
   12858:	53072823 	sw	v0,1328(sp)
   1285c:	00088463 	beqz	v1,12864 <_vfprintf_r+0x1474>
   12860:	8e0ff06f 	j	11940 <_vfprintf_r+0x550>
   12864:	a5cff06f 	j	11ac0 <_vfprintf_r+0x6d0>
   12868:	02472883 	lw	v1,36(sp)
   1286c:	54f74903 	lbu	a0,1359(sp)
   12870:	02072a23 	sw	zero,52(sp)
   12874:	fff8c813 	not	v0,v1
   12878:	41f85813 	sra	v0,v0,0x1f
   1287c:	0108f833 	and	v0,v1,v0
   12880:	01072e23 	sw	v0,28(sp)
   12884:	dd5fe06f 	j	11658 <_vfprintf_r+0x268>
   12888:	04852813 	slt	v0,s8,72
   1288c:	34080e63 	beqz	v0,12be8 <_vfprintf_r+0x17f8>
   12890:	00008817 	auipc	v0,0x8
   12894:	cb080813 	add	v0,v0,-848 # 19cb0 <zeroes.3758+0x2c>
   12898:	03072823 	sw	v0,48(sp)
   1289c:	00300893 	li	v1,3
   128a0:	f7f4f493 	and	s7,s7,-129
   128a4:	54f74903 	lbu	a0,1359(sp)
   128a8:	01172e23 	sw	v1,28(sp)
   128ac:	03172223 	sw	v1,36(sp)
   128b0:	02072a23 	sw	zero,52(sp)
   128b4:	da5fe06f 	j	11658 <_vfprintf_r+0x268>
   128b8:	02d00813 	li	v0,45
   128bc:	550707a3 	sb	v0,1359(sp)
   128c0:	02d00913 	li	a0,45
   128c4:	ae5ff06f 	j	123a8 <_vfprintf_r+0xfb8>
   128c8:	03c72883 	lw	v1,60(sp)
   128cc:	be089ce3 	bnez	v1,124c4 <_vfprintf_r+0x10d4>
   128d0:	0014f813 	and	v0,s7,1
   128d4:	00081463 	bnez	v0,128dc <_vfprintf_r+0x14ec>
   128d8:	86cff06f 	j	11944 <_vfprintf_r+0x554>
   128dc:	be9ff06f 	j	124c4 <_vfprintf_r+0x10d4>
   128e0:	00018913 	mv	a0,s1
   128e4:	00010993 	mv	a1,s0
   128e8:	52c70a13 	add	a2,sp,1324
   128ec:	598040ef 	jal	16e84 <__sprint_r>
   128f0:	00080463 	beqz	v0,128f8 <_vfprintf_r+0x1508>
   128f4:	a68ff06f 	j	11b5c <_vfprintf_r+0x76c>
   128f8:	54072503 	lw	s8,1344(sp)
   128fc:	53472903 	lw	a0,1332(sp)
   12900:	00040213 	mv	s2,s6
   12904:	bc0510e3 	bnez	s8,124c4 <_vfprintf_r+0x10d4>
   12908:	fc1ff06f 	j	128c8 <_vfprintf_r+0x14d8>
   1290c:	00018913 	mv	a0,s1
   12910:	00010993 	mv	a1,s0
   12914:	52c70a13 	add	a2,sp,1324
   12918:	56c040ef 	jal	16e84 <__sprint_r>
   1291c:	00080463 	beqz	v0,12924 <_vfprintf_r+0x1534>
   12920:	a3cff06f 	j	11b5c <_vfprintf_r+0x76c>
   12924:	53472903 	lw	a0,1332(sp)
   12928:	00040213 	mv	s2,s6
   1292c:	b10ff06f 	j	11c3c <_vfprintf_r+0x84c>
   12930:	00008817 	auipc	v0,0x8
   12934:	cac80813 	add	v0,v0,-852 # 19cac <zeroes.3758+0x28>
   12938:	03072823 	sw	v0,48(sp)
   1293c:	a81ff06f 	j	123bc <_vfprintf_r+0xfcc>
   12940:	4b4040ef 	jal	16df4 <strlen>
   12944:	03072223 	sw	v0,36(sp)
   12948:	02472883 	lw	v1,36(sp)
   1294c:	fff84813 	not	v0,v0
   12950:	41f85813 	sra	v0,v0,0x1f
   12954:	0108f833 	and	v0,v1,v0
   12958:	01072e23 	sw	v0,28(sp)
   1295c:	54f74903 	lbu	a0,1359(sp)
   12960:	02072a23 	sw	zero,52(sp)
   12964:	cf5fe06f 	j	11658 <_vfprintf_r+0x268>
   12968:	02072a03 	lw	a2,32(sp)
   1296c:	00180813 	add	v0,v0,1
   12970:	00490933 	add	a0,a0,s2
   12974:	00882993 	slt	a1,v0,8
   12978:	0148a023 	sw	a2,0(v1)
   1297c:	0048a223 	sw	s2,4(v1)
   12980:	53272a23 	sw	a0,1332(sp)
   12984:	53072823 	sw	v0,1328(sp)
   12988:	00888893 	add	v1,v1,8
   1298c:	02099463 	bnez	a1,129b4 <_vfprintf_r+0x15c4>
   12990:	00018913 	mv	a0,s1
   12994:	00010993 	mv	a1,s0
   12998:	52c70a13 	add	a2,sp,1324
   1299c:	4e8040ef 	jal	16e84 <__sprint_r>
   129a0:	00080463 	beqz	v0,129a8 <_vfprintf_r+0x15b8>
   129a4:	9b8ff06f 	j	11b5c <_vfprintf_r+0x76c>
   129a8:	53472903 	lw	a0,1332(sp)
   129ac:	53072803 	lw	v0,1328(sp)
   129b0:	00040893 	mv	v1,s6
   129b4:	03072a03 	lw	a2,48(sp)
   129b8:	03c72983 	lw	a1,60(sp)
   129bc:	00180813 	add	v0,v0,1
   129c0:	0148a023 	sw	a2,0(v1)
   129c4:	03c72a03 	lw	a2,60(sp)
   129c8:	01390933 	add	a0,a0,a1
   129cc:	00882993 	slt	a1,v0,8
   129d0:	0148a223 	sw	a2,4(v1)
   129d4:	53272a23 	sw	a0,1332(sp)
   129d8:	53072823 	sw	v0,1328(sp)
   129dc:	00888213 	add	s2,v1,8
   129e0:	00098463 	beqz	a1,129e8 <_vfprintf_r+0x15f8>
   129e4:	f61fe06f 	j	11944 <_vfprintf_r+0x554>
   129e8:	8d8ff06f 	j	11ac0 <_vfprintf_r+0x6d0>
   129ec:	53072803 	lw	v0,1328(sp)
   129f0:	04772023 	sw	s5,64(sp)
   129f4:	d2dfe06f 	j	11720 <_vfprintf_r+0x330>
   129f8:	0075b813 	sltu	v0,s9,7
   129fc:	02b72223 	sw	s9,36(sp)
   12a00:	02081063 	bnez	v0,12a20 <_vfprintf_r+0x1630>
   12a04:	00600893 	li	v1,6
   12a08:	03172223 	sw	v1,36(sp)
   12a0c:	01172e23 	sw	v1,28(sp)
   12a10:	00008817 	auipc	v0,0x8
   12a14:	ce080813 	add	v0,v0,-800 # 19ce0 <zeroes.3758+0x5c>
   12a18:	03072823 	sw	v0,48(sp)
   12a1c:	ba5fe06f 	j	115c0 <_vfprintf_r+0x1d0>
   12a20:	02472883 	lw	v1,36(sp)
   12a24:	fff8c813 	not	v0,v1
   12a28:	41f85813 	sra	v0,v0,0x1f
   12a2c:	0108f833 	and	v0,v1,v0
   12a30:	01072e23 	sw	v0,28(sp)
   12a34:	fddff06f 	j	12a10 <_vfprintf_r+0x1620>
   12a38:	52b70893 	add	v1,sp,1323
   12a3c:	03172823 	sw	v1,48(sp)
   12a40:	000a8893 	mv	v1,a3
   12a44:	dc0ff06f 	j	12004 <_vfprintf_r+0xc14>
   12a48:	53072803 	lw	v0,1328(sp)
   12a4c:	04772023 	sw	s5,64(sp)
   12a50:	f85fe06f 	j	119d4 <_vfprintf_r+0x5e4>
   12a54:	00018913 	mv	a0,s1
   12a58:	00010993 	mv	a1,s0
   12a5c:	52c70a13 	add	a2,sp,1324
   12a60:	424040ef 	jal	16e84 <__sprint_r>
   12a64:	00080463 	beqz	v0,12a6c <_vfprintf_r+0x167c>
   12a68:	8f4ff06f 	j	11b5c <_vfprintf_r+0x76c>
   12a6c:	54072503 	lw	s8,1344(sp)
   12a70:	53472903 	lw	a0,1332(sp)
   12a74:	00040213 	mv	s2,s6
   12a78:	decff06f 	j	12064 <_vfprintf_r+0xc74>
   12a7c:	54072883 	lw	v1,1344(sp)
   12a80:	ffd8a813 	slt	v0,v1,-3
   12a84:	03172223 	sw	v1,36(sp)
   12a88:	00081463 	bnez	v0,12a90 <_vfprintf_r+0x16a0>
   12a8c:	0d15d863 	ble	v1,s9,12b5c <_vfprintf_r+0x176c>
   12a90:	ffe50513 	add	s8,s8,-2
   12a94:	02472883 	lw	v1,36(sp)
   12a98:	52a70c23 	sb	s8,1336(sp)
   12a9c:	fff88813 	add	v0,v1,-1
   12aa0:	55072023 	sw	v0,1344(sp)
   12aa4:	2a084a63 	bltz	v0,12d58 <_vfprintf_r+0x1968>
   12aa8:	02b00893 	li	v1,43
   12aac:	53170ca3 	sb	v1,1337(sp)
   12ab0:	00a82893 	slt	v1,v0,10
   12ab4:	1e089e63 	bnez	v1,12cb0 <_vfprintf_r+0x18c0>
   12ab8:	46370993 	add	a1,sp,1123
   12abc:	00098893 	mv	v1,a1
   12ac0:	00a00913 	li	a0,10
   12ac4:	0080006f 	j	12acc <_vfprintf_r+0x16dc>
   12ac8:	000a8893 	mv	v1,a3
   12acc:	03286a33 	rem	a2,v0,a0
   12ad0:	fff88a93 	add	a3,v1,-1
   12ad4:	03284833 	div	v0,v0,a0
   12ad8:	030a0a13 	add	a2,a2,48
   12adc:	ff488fa3 	sb	a2,-1(v1)
   12ae0:	00a82a13 	slt	a2,v0,10
   12ae4:	fe0a02e3 	beqz	a2,12ac8 <_vfprintf_r+0x16d8>
   12ae8:	03080813 	add	v0,v0,48
   12aec:	0ff87913 	and	a0,v0,255
   12af0:	ffe88813 	add	v0,v1,-2
   12af4:	ff288f23 	sb	a0,-2(v1)
   12af8:	53a70893 	add	v1,sp,1338
   12afc:	01386663 	bltu	v0,a1,12b08 <_vfprintf_r+0x1718>
   12b00:	0180006f 	j	12b18 <_vfprintf_r+0x1728>
   12b04:	00084903 	lbu	a0,0(v0)
   12b08:	00180813 	add	v0,v0,1
   12b0c:	01288023 	sb	a0,0(v1)
   12b10:	00188893 	add	v1,v1,1
   12b14:	ff3868e3 	bltu	v0,a1,12b04 <_vfprintf_r+0x1714>
   12b18:	53870813 	add	v0,sp,1336
   12b1c:	41088833 	sub	v0,v1,v0
   12b20:	05072423 	sw	v0,72(sp)
   12b24:	03c72883 	lw	v1,60(sp)
   12b28:	04872903 	lw	a0,72(sp)
   12b2c:	0028a813 	slt	v0,v1,2
   12b30:	011908b3 	add	v1,a0,v1
   12b34:	03172223 	sw	v1,36(sp)
   12b38:	22081863 	bnez	v0,12d68 <_vfprintf_r+0x1978>
   12b3c:	02472883 	lw	v1,36(sp)
   12b40:	00188893 	add	v1,v1,1
   12b44:	fff8c813 	not	v0,v1
   12b48:	41f85813 	sra	v0,v0,0x1f
   12b4c:	0108f833 	and	v0,v1,v0
   12b50:	03172223 	sw	v1,36(sp)
   12b54:	01072e23 	sw	v0,28(sp)
   12b58:	c1dff06f 	j	12774 <_vfprintf_r+0x1384>
   12b5c:	02472883 	lw	v1,36(sp)
   12b60:	03c72903 	lw	a0,60(sp)
   12b64:	1b28c863 	blt	v1,a0,12d14 <_vfprintf_r+0x1924>
   12b68:	0014f813 	and	v0,s7,1
   12b6c:	00080863 	beqz	v0,12b7c <_vfprintf_r+0x178c>
   12b70:	02472883 	lw	v1,36(sp)
   12b74:	00188893 	add	v1,v1,1
   12b78:	03172223 	sw	v1,36(sp)
   12b7c:	fff8c813 	not	v0,v1
   12b80:	41f85813 	sra	v0,v0,0x1f
   12b84:	0108f833 	and	v0,v1,v0
   12b88:	01072e23 	sw	v0,28(sp)
   12b8c:	06700513 	li	s8,103
   12b90:	be5ff06f 	j	12774 <_vfprintf_r+0x1384>
   12b94:	00018913 	mv	a0,s1
   12b98:	00010993 	mv	a1,s0
   12b9c:	52c70a13 	add	a2,sp,1324
   12ba0:	2e4040ef 	jal	16e84 <__sprint_r>
   12ba4:	00080463 	beqz	v0,12bac <_vfprintf_r+0x17bc>
   12ba8:	fb5fe06f 	j	11b5c <_vfprintf_r+0x76c>
   12bac:	54072503 	lw	s8,1344(sp)
   12bb0:	00040213 	mv	s2,s6
   12bb4:	ed5fe06f 	j	11a88 <_vfprintf_r+0x698>
   12bb8:	00018913 	mv	a0,s1
   12bbc:	00010993 	mv	a1,s0
   12bc0:	52c70a13 	add	a2,sp,1324
   12bc4:	2c0040ef 	jal	16e84 <__sprint_r>
   12bc8:	00080463 	beqz	v0,12bd0 <_vfprintf_r+0x17e0>
   12bcc:	f91fe06f 	j	11b5c <_vfprintf_r+0x76c>
   12bd0:	54072503 	lw	s8,1344(sp)
   12bd4:	53472903 	lw	a0,1332(sp)
   12bd8:	53072803 	lw	v0,1328(sp)
   12bdc:	00050593 	mv	s9,s8
   12be0:	00040213 	mv	s2,s6
   12be4:	e71fe06f 	j	11a54 <_vfprintf_r+0x664>
   12be8:	00008817 	auipc	v0,0x8
   12bec:	cb480813 	add	v0,v0,-844 # 19cb4 <zeroes.3758+0x30>
   12bf0:	03072823 	sw	v0,48(sp)
   12bf4:	ca9ff06f 	j	1289c <_vfprintf_r+0x14ac>
   12bf8:	54f74903 	lbu	a0,1359(sp)
   12bfc:	02072a23 	sw	zero,52(sp)
   12c00:	a59fe06f 	j	11658 <_vfprintf_r+0x268>
   12c04:	54872803 	lw	v0,1352(sp)
   12c08:	1f287c63 	bleu	a0,v0,12e00 <_vfprintf_r+0x1a10>
   12c0c:	03000893 	li	v1,48
   12c10:	01180023 	sb	v1,0(v0)
   12c14:	00180813 	add	v0,v0,1
   12c18:	55072423 	sw	v0,1352(sp)
   12c1c:	ff281ae3 	bne	v0,a0,12c10 <_vfprintf_r+0x1820>
   12c20:	b15ff06f 	j	12734 <_vfprintf_r+0x1344>
   12c24:	2a108a53 	fmv.d	fa2,fs1
   12c28:	00018913 	mv	a0,s1
   12c2c:	54870813 	add	v0,sp,1352
   12c30:	00300b13 	li	a4,3
   12c34:	00058b93 	mv	a5,s9
   12c38:	54070c13 	add	a6,sp,1344
   12c3c:	54470c93 	add	a7,sp,1348
   12c40:	01072023 	sw	v0,0(sp)
   12c44:	7d0000ef 	jal	13414 <_dtoa_r>
   12c48:	03072823 	sw	v0,48(sp)
   12c4c:	00b80933 	add	a0,v0,s9
   12c50:	00058893 	mv	v1,s9
   12c54:	03072803 	lw	v0,48(sp)
   12c58:	00084983 	lbu	a1,0(v0)
   12c5c:	03000813 	li	v0,48
   12c60:	13098263 	beq	a1,v0,12d84 <_vfprintf_r+0x1994>
   12c64:	54072883 	lw	v1,1344(sp)
   12c68:	01190933 	add	a0,a0,v1
   12c6c:	ab9ff06f 	j	12724 <_vfprintf_r+0x1334>
   12c70:	00018913 	mv	a0,s1
   12c74:	00010993 	mv	a1,s0
   12c78:	52c70a13 	add	a2,sp,1324
   12c7c:	208040ef 	jal	16e84 <__sprint_r>
   12c80:	00080463 	beqz	v0,12c88 <_vfprintf_r+0x1898>
   12c84:	ed9fe06f 	j	11b5c <_vfprintf_r+0x76c>
   12c88:	54072503 	lw	s8,1344(sp)
   12c8c:	53472903 	lw	a0,1332(sp)
   12c90:	53072803 	lw	v0,1328(sp)
   12c94:	00040893 	mv	v1,s6
   12c98:	861ff06f 	j	124f8 <_vfprintf_r+0x1108>
   12c9c:	9e059ae3 	bnez	s9,12690 <_vfprintf_r+0x12a0>
   12ca0:	00100593 	li	s9,1
   12ca4:	9edff06f 	j	12690 <_vfprintf_r+0x12a0>
   12ca8:	00600593 	li	s9,6
   12cac:	9e5ff06f 	j	12690 <_vfprintf_r+0x12a0>
   12cb0:	03000893 	li	v1,48
   12cb4:	03080813 	add	v0,v0,48
   12cb8:	53170d23 	sb	v1,1338(sp)
   12cbc:	53070da3 	sb	v0,1339(sp)
   12cc0:	53c70893 	add	v1,sp,1340
   12cc4:	e55ff06f 	j	12b18 <_vfprintf_r+0x1728>
   12cc8:	00158893 	add	v1,s9,1
   12ccc:	a01ff06f 	j	126cc <_vfprintf_r+0x12dc>
   12cd0:	02d00993 	li	a1,45
   12cd4:	320000d3 	fneg.d	fs1,fs0
   12cd8:	03372023 	sw	a1,32(sp)
   12cdc:	9cdff06f 	j	126a8 <_vfprintf_r+0x12b8>
   12ce0:	2a108a53 	fmv.d	fa2,fs1
   12ce4:	00018913 	mv	a0,s1
   12ce8:	54870813 	add	v0,sp,1352
   12cec:	00300b13 	li	a4,3
   12cf0:	00058b93 	mv	a5,s9
   12cf4:	54070c13 	add	a6,sp,1344
   12cf8:	54470c93 	add	a7,sp,1348
   12cfc:	01072023 	sw	v0,0(sp)
   12d00:	714000ef 	jal	13414 <_dtoa_r>
   12d04:	03072823 	sw	v0,48(sp)
   12d08:	00b80933 	add	a0,v0,s9
   12d0c:	00058893 	mv	v1,s9
   12d10:	a0dff06f 	j	1271c <_vfprintf_r+0x132c>
   12d14:	02472883 	lw	v1,36(sp)
   12d18:	00100813 	li	v0,1
   12d1c:	01104663 	bgtz	v1,12d28 <_vfprintf_r+0x1938>
   12d20:	00200813 	li	v0,2
   12d24:	41180833 	sub	v0,v0,v1
   12d28:	03c72883 	lw	v1,60(sp)
   12d2c:	06700513 	li	s8,103
   12d30:	01180833 	add	v0,v0,v1
   12d34:	03072223 	sw	v0,36(sp)
   12d38:	02472883 	lw	v1,36(sp)
   12d3c:	fff84813 	not	v0,v0
   12d40:	41f85813 	sra	v0,v0,0x1f
   12d44:	0108f833 	and	v0,v1,v0
   12d48:	01072e23 	sw	v0,28(sp)
   12d4c:	a29ff06f 	j	12774 <_vfprintf_r+0x1384>
   12d50:	54872903 	lw	a0,1352(sp)
   12d54:	9e1ff06f 	j	12734 <_vfprintf_r+0x1344>
   12d58:	02d00893 	li	v1,45
   12d5c:	41000833 	neg	v0,v0
   12d60:	53170ca3 	sb	v1,1337(sp)
   12d64:	d4dff06f 	j	12ab0 <_vfprintf_r+0x16c0>
   12d68:	0014f813 	and	v0,s7,1
   12d6c:	dc0818e3 	bnez	v0,12b3c <_vfprintf_r+0x174c>
   12d70:	fff8c813 	not	v0,v1
   12d74:	41f85813 	sra	v0,v0,0x1f
   12d78:	0108f833 	and	v0,v1,v0
   12d7c:	01072e23 	sw	v0,28(sp)
   12d80:	9f5ff06f 	j	12774 <_vfprintf_r+0x1384>
   12d84:	72000853 	fcvt.d.w	fv0,zero
   12d88:	ab008853 	feq.d	v0,fs1,fv0
   12d8c:	ec081ce3 	bnez	v0,12c64 <_vfprintf_r+0x1874>
   12d90:	00100813 	li	v0,1
   12d94:	411808b3 	sub	v1,v0,v1
   12d98:	55172023 	sw	v1,1344(sp)
   12d9c:	01190933 	add	a0,a0,v1
   12da0:	985ff06f 	j	12724 <_vfprintf_r+0x1334>
   12da4:	fff00613 	li	s10,-1
   12da8:	984ff06f 	j	11f2c <_vfprintf_r+0xb3c>
   12dac:	0006a583 	lw	s9,0(s11)
   12db0:	00468693 	add	s11,s11,4
   12db4:	0005c463 	bltz	s9,12dbc <_vfprintf_r+0x19cc>
   12db8:	fd0fe06f 	j	11588 <_vfprintf_r+0x198>
   12dbc:	fff00593 	li	s9,-1
   12dc0:	fc8fe06f 	j	11588 <_vfprintf_r+0x198>
   12dc4:	02472883 	lw	v1,36(sp)
   12dc8:	00158593 	add	s9,s9,1
   12dcc:	00b888b3 	add	v1,v1,s9
   12dd0:	03172223 	sw	v1,36(sp)
   12dd4:	f9dff06f 	j	12d70 <_vfprintf_r+0x1980>
   12dd8:	00059663 	bnez	s9,12de4 <_vfprintf_r+0x19f4>
   12ddc:	0014f813 	and	v0,s7,1
   12de0:	02080463 	beqz	v0,12e08 <_vfprintf_r+0x1a18>
   12de4:	00258593 	add	s9,s9,2
   12de8:	fff5c813 	not	v0,s9
   12dec:	41f85813 	sra	v0,v0,0x1f
   12df0:	0105f833 	and	v0,s9,v0
   12df4:	02b72223 	sw	s9,36(sp)
   12df8:	01072e23 	sw	v0,28(sp)
   12dfc:	979ff06f 	j	12774 <_vfprintf_r+0x1384>
   12e00:	00080913 	mv	a0,v0
   12e04:	931ff06f 	j	12734 <_vfprintf_r+0x1344>
   12e08:	00100893 	li	v1,1
   12e0c:	01172e23 	sw	v1,28(sp)
   12e10:	03172223 	sw	v1,36(sp)
   12e14:	961ff06f 	j	12774 <_vfprintf_r+0x1384>

00012e18 <vfprintf>:
   12e18:	00090893 	mv	v1,a0
   12e1c:	808fa903 	lw	a0,-2040(gp) # 1b318 <_impure_ptr>
   12e20:	00098813 	mv	v0,a1
   12e24:	000a0a93 	mv	a3,a2
   12e28:	00088993 	mv	a1,v1
   12e2c:	00080a13 	mv	a2,v0
   12e30:	dc0fe06f 	j	113f0 <_vfprintf_r>

00012e34 <__swsetup_r>:
   12e34:	808fa803 	lw	v0,-2040(gp) # 1b318 <_impure_ptr>
   12e38:	ff070713 	add	sp,sp,-16
   12e3c:	00272423 	sw	s0,8(sp)
   12e40:	00372223 	sw	s1,4(sp)
   12e44:	00172623 	sw	ra,12(sp)
   12e48:	00090193 	mv	s1,a0
   12e4c:	00098113 	mv	s0,a1
   12e50:	00080663 	beqz	v0,12e5c <__swsetup_r+0x28>
   12e54:	03882883 	lw	v1,56(v0)
   12e58:	0e088063 	beqz	v1,12f38 <__swsetup_r+0x104>
   12e5c:	00c11a03 	lh	a2,12(s0)
   12e60:	010a1893 	sll	v1,a2,0x10
   12e64:	0108d893 	srl	v1,v1,0x10
   12e68:	0088f813 	and	v0,v1,8
   12e6c:	04080263 	beqz	v0,12eb0 <__swsetup_r+0x7c>
   12e70:	01012903 	lw	a0,16(s0)
   12e74:	06090463 	beqz	a0,12edc <__swsetup_r+0xa8>
   12e78:	0018f813 	and	v0,v1,1
   12e7c:	08081263 	bnez	v0,12f00 <__swsetup_r+0xcc>
   12e80:	0028f893 	and	v1,v1,2
   12e84:	00000813 	li	v0,0
   12e88:	00089463 	bnez	v1,12e90 <__swsetup_r+0x5c>
   12e8c:	01412803 	lw	v0,20(s0)
   12e90:	01012423 	sw	v0,8(s0)
   12e94:	00000813 	li	v0,0
   12e98:	08090063 	beqz	a0,12f18 <__swsetup_r+0xe4>
   12e9c:	00c72083 	lw	ra,12(sp)
   12ea0:	00872103 	lw	s0,8(sp)
   12ea4:	00472183 	lw	s1,4(sp)
   12ea8:	01070713 	add	sp,sp,16
   12eac:	00008067 	ret
   12eb0:	0108f913 	and	a0,v1,16
   12eb4:	fff00813 	li	v0,-1
   12eb8:	fe0902e3 	beqz	a0,12e9c <__swsetup_r+0x68>
   12ebc:	0048f893 	and	v1,v1,4
   12ec0:	08089263 	bnez	v1,12f44 <__swsetup_r+0x110>
   12ec4:	01012903 	lw	a0,16(s0)
   12ec8:	008a6893 	or	v1,a2,8
   12ecc:	01111623 	sh	v1,12(s0)
   12ed0:	01089893 	sll	v1,v1,0x10
   12ed4:	0108d893 	srl	v1,v1,0x10
   12ed8:	fa0910e3 	bnez	a0,12e78 <__swsetup_r+0x44>
   12edc:	2808f993 	and	a1,v1,640
   12ee0:	20000813 	li	v0,512
   12ee4:	f9098ae3 	beq	a1,v0,12e78 <__swsetup_r+0x44>
   12ee8:	00018913 	mv	a0,s1
   12eec:	00010993 	mv	a1,s0
   12ef0:	0c8020ef 	jal	14fb8 <__smakebuf_r>
   12ef4:	00c15883 	lhu	v1,12(s0)
   12ef8:	01012903 	lw	a0,16(s0)
   12efc:	f7dff06f 	j	12e78 <__swsetup_r+0x44>
   12f00:	01412803 	lw	v0,20(s0)
   12f04:	00012423 	sw	zero,8(s0)
   12f08:	41000833 	neg	v0,v0
   12f0c:	01012c23 	sw	v0,24(s0)
   12f10:	00000813 	li	v0,0
   12f14:	f80914e3 	bnez	a0,12e9c <__swsetup_r+0x68>
   12f18:	00c15803 	lhu	v0,12(s0)
   12f1c:	00c72083 	lw	ra,12(sp)
   12f20:	00872103 	lw	s0,8(sp)
   12f24:	01881813 	sll	v0,v0,0x18
   12f28:	41f85813 	sra	v0,v0,0x1f
   12f2c:	00472183 	lw	s1,4(sp)
   12f30:	01070713 	add	sp,sp,16
   12f34:	00008067 	ret
   12f38:	00080913 	mv	a0,v0
   12f3c:	0f5010ef 	jal	14830 <__sinit>
   12f40:	f1dff06f 	j	12e5c <__swsetup_r+0x28>
   12f44:	03012983 	lw	a1,48(s0)
   12f48:	00098e63 	beqz	a1,12f64 <__swsetup_r+0x130>
   12f4c:	04010813 	add	v0,s0,64
   12f50:	01098863 	beq	a1,v0,12f60 <__swsetup_r+0x12c>
   12f54:	00018913 	mv	a0,s1
   12f58:	3b1010ef 	jal	14b08 <_free_r>
   12f5c:	00c11a03 	lh	a2,12(s0)
   12f60:	02012823 	sw	zero,48(s0)
   12f64:	01012903 	lw	a0,16(s0)
   12f68:	fdba7a13 	and	a2,a2,-37
   12f6c:	00012223 	sw	zero,4(s0)
   12f70:	01212023 	sw	a0,0(s0)
   12f74:	f55ff06f 	j	12ec8 <__swsetup_r+0x94>

00012f78 <__register_exitproc>:
   12f78:	fe070713 	add	sp,sp,-32
   12f7c:	00272c23 	sw	s0,24(sp)
   12f80:	804fa103 	lw	s0,-2044(gp) # 1b314 <_global_impure_ptr>
   12f84:	00372a23 	sw	s1,20(sp)
   12f88:	00172e23 	sw	ra,28(sp)
   12f8c:	14812883 	lw	v1,328(s0)
   12f90:	00472823 	sw	s2,16(sp)
   12f94:	00090193 	mv	s1,a0
   12f98:	0e088863 	beqz	v1,13088 <__register_exitproc+0x110>
   12f9c:	0048a803 	lw	v0,4(v1)
   12fa0:	02082913 	slt	a0,v0,32
   12fa4:	06091c63 	bnez	a0,1301c <__register_exitproc+0xa4>
   12fa8:	fffee817 	auipc	v0,0xfffee
   12fac:	00000813 	li	v0,0
   12fb0:	fff00213 	li	s2,-1
   12fb4:	02081063 	bnez	v0,12fd4 <__register_exitproc+0x5c>
   12fb8:	01c72083 	lw	ra,28(sp)
   12fbc:	00020813 	mv	v0,s2
   12fc0:	01872103 	lw	s0,24(sp)
   12fc4:	01472183 	lw	s1,20(sp)
   12fc8:	01072203 	lw	s2,16(sp)
   12fcc:	02070713 	add	sp,sp,32
   12fd0:	00008067 	ret
   12fd4:	19000913 	li	a0,400
   12fd8:	01372623 	sw	a1,12(sp)
   12fdc:	01472423 	sw	a2,8(sp)
   12fe0:	01572223 	sw	a3,4(sp)
   12fe4:	00001d17 	auipc	t0,0x1
   12fe8:	fe4d00e7 	jalr	t0,-28 # 12fe4 <__register_exitproc+0x6c>
   12fec:	00080893 	mv	v1,v0
   12ff0:	00c72983 	lw	a1,12(sp)
   12ff4:	00872a03 	lw	a2,8(sp)
   12ff8:	00472a83 	lw	a3,4(sp)
   12ffc:	fa080ee3 	beqz	v0,12fb8 <__register_exitproc+0x40>
   13000:	14812903 	lw	a0,328(s0)
   13004:	00082223 	sw	zero,4(v0) # 4 <_ftext-0xfffc>
   13008:	00000813 	li	v0,0
   1300c:	0128a023 	sw	a0,0(v1)
   13010:	15112423 	sw	v1,328(s0)
   13014:	1808a423 	sw	zero,392(v1)
   13018:	1808a623 	sw	zero,396(v1)
   1301c:	02018e63 	beqz	s1,13058 <__register_exitproc+0xe0>
   13020:	1888ab83 	lw	a5,392(v1)
   13024:	02080b13 	add	a4,v0,32
   13028:	00281c13 	sll	a6,v0,0x2
   1302c:	00100913 	li	a0,1
   13030:	01091933 	sll	a0,a0,v0
   13034:	002b1b13 	sll	a4,a4,0x2
   13038:	01888c33 	add	a6,v1,a6
   1303c:	012bebb3 	or	a5,a5,a0
   13040:	01688b33 	add	a4,v1,a4
   13044:	094c2423 	sw	a2,136(a6)
   13048:	00200a13 	li	a2,2
   1304c:	1978a423 	sw	a5,392(v1)
   13050:	095b2423 	sw	a3,136(a4)
   13054:	03418263 	beq	s1,a2,13078 <__register_exitproc+0x100>
   13058:	00280913 	add	a0,v0,2
   1305c:	00291913 	sll	a0,a0,0x2
   13060:	01288933 	add	a0,v1,a0
   13064:	00180813 	add	v0,v0,1
   13068:	01392023 	sw	a1,0(a0)
   1306c:	0108a223 	sw	v0,4(v1)
   13070:	00000213 	li	s2,0
   13074:	f45ff06f 	j	12fb8 <__register_exitproc+0x40>
   13078:	18c8aa03 	lw	a2,396(v1)
   1307c:	012a6933 	or	a0,a2,a0
   13080:	1928a623 	sw	a0,396(v1)
   13084:	fd5ff06f 	j	13058 <__register_exitproc+0xe0>
   13088:	14c10893 	add	v1,s0,332
   1308c:	15112423 	sw	v1,328(s0)
   13090:	f0dff06f 	j	12f9c <__register_exitproc+0x24>

00013094 <__call_exitprocs>:
   13094:	fc070713 	add	sp,sp,-64
   13098:	00b72a23 	sw	s9,20(sp)
   1309c:	804fa583 	lw	s9,-2044(gp) # 1b314 <_global_impure_ptr>
   130a0:	00d72623 	sw	s11,12(sp)
   130a4:	fffed697 	auipc	s11,0xfffed
   130a8:	02572623 	sw	s3,44(sp)
   130ac:	02772223 	sw	s5,36(sp)
   130b0:	00a72c23 	sw	s8,24(sp)
   130b4:	00c72823 	sw	s10,16(sp)
   130b8:	02172e23 	sw	ra,60(sp)
   130bc:	02272c23 	sw	s0,56(sp)
   130c0:	02372a23 	sw	s1,52(sp)
   130c4:	02472823 	sw	s2,48(sp)
   130c8:	02672423 	sw	s4,40(sp)
   130cc:	02872023 	sw	s6,32(sp)
   130d0:	00972e23 	sw	s7,28(sp)
   130d4:	00090613 	mv	s10,a0
   130d8:	00098293 	mv	s3,a1
   130dc:	00100513 	li	s8,1
   130e0:	fff00393 	li	s5,-1
   130e4:	00000693 	li	s11,0
   130e8:	1485a303 	lw	s4,328(s9)
   130ec:	04030663 	beqz	s4,13138 <__call_exitprocs+0xa4>
   130f0:	14858493 	add	s7,s9,328
   130f4:	00432803 	lw	v0,4(s4)
   130f8:	fff80113 	add	s0,v0,-1
   130fc:	02014c63 	bltz	s0,13134 <__call_exitprocs+0xa0>
   13100:	00180213 	add	s2,v0,1
   13104:	08830193 	add	s1,s4,136
   13108:	00211893 	sll	v1,s0,0x2
   1310c:	00221213 	sll	s2,s2,0x2
   13110:	011181b3 	add	s1,s1,v1
   13114:	00430233 	add	s2,s4,s2
   13118:	04028e63 	beqz	s3,13174 <__call_exitprocs+0xe0>
   1311c:	0801a803 	lw	v0,128(s1)
   13120:	04580a63 	beq	v0,s3,13174 <__call_exitprocs+0xe0>
   13124:	fff10113 	add	s0,s0,-1
   13128:	ffc18193 	add	s1,s1,-4
   1312c:	ffc20213 	add	s2,s2,-4
   13130:	fe7114e3 	bne	s0,s5,13118 <__call_exitprocs+0x84>
   13134:	0a069a63 	bnez	s11,131e8 <__call_exitprocs+0x154>
   13138:	03c72083 	lw	ra,60(sp)
   1313c:	03872103 	lw	s0,56(sp)
   13140:	03472183 	lw	s1,52(sp)
   13144:	03072203 	lw	s2,48(sp)
   13148:	02c72283 	lw	s3,44(sp)
   1314c:	02872303 	lw	s4,40(sp)
   13150:	02472383 	lw	s5,36(sp)
   13154:	02072403 	lw	s6,32(sp)
   13158:	01c72483 	lw	s7,28(sp)
   1315c:	01872503 	lw	s8,24(sp)
   13160:	01472583 	lw	s9,20(sp)
   13164:	01072603 	lw	s10,16(sp)
   13168:	00c72683 	lw	s11,12(sp)
   1316c:	04070713 	add	sp,sp,64
   13170:	00008067 	ret
   13174:	00432883 	lw	v1,4(s4)
   13178:	00022803 	lw	v0,0(s2)
   1317c:	fff88893 	add	v1,v1,-1
   13180:	04288a63 	beq	v1,s0,131d4 <__call_exitprocs+0x140>
   13184:	00022023 	sw	zero,0(s2)
   13188:	f8080ee3 	beqz	v0,13124 <__call_exitprocs+0x90>
   1318c:	18832903 	lw	a0,392(s4)
   13190:	002518b3 	sll	v1,s8,s0
   13194:	00432403 	lw	s6,4(s4)
   13198:	0128f933 	and	a0,v1,a0
   1319c:	02090863 	beqz	a0,131cc <__call_exitprocs+0x138>
   131a0:	18c32903 	lw	a0,396(s4)
   131a4:	0128f8b3 	and	v1,v1,a0
   131a8:	02089a63 	bnez	v1,131dc <__call_exitprocs+0x148>
   131ac:	0001a983 	lw	a1,0(s1)
   131b0:	00060913 	mv	a0,s10
   131b4:	000800e7 	jalr	v0
   131b8:	00432803 	lw	v0,4(s4)
   131bc:	f28816e3 	bne	v0,s6,130e8 <__call_exitprocs+0x54>
   131c0:	0004a803 	lw	v0,0(s7)
   131c4:	f66800e3 	beq	v0,s4,13124 <__call_exitprocs+0x90>
   131c8:	f21ff06f 	j	130e8 <__call_exitprocs+0x54>
   131cc:	000800e7 	jalr	v0
   131d0:	fe9ff06f 	j	131b8 <__call_exitprocs+0x124>
   131d4:	00232223 	sw	s0,4(s4)
   131d8:	fb1ff06f 	j	13188 <__call_exitprocs+0xf4>
   131dc:	0001a903 	lw	a0,0(s1)
   131e0:	000800e7 	jalr	v0
   131e4:	fd5ff06f 	j	131b8 <__call_exitprocs+0x124>
   131e8:	00432803 	lw	v0,4(s4)
   131ec:	02081463 	bnez	v0,13214 <__call_exitprocs+0x180>
   131f0:	00032803 	lw	v0,0(s4)
   131f4:	02080863 	beqz	v0,13224 <__call_exitprocs+0x190>
   131f8:	00030913 	mv	a0,s4
   131fc:	0104a023 	sw	v0,0(s7)
   13200:	00000d17 	auipc	t0,0x0
   13204:	200d00e7 	jalr	t0,512 # 13200 <__call_exitprocs+0x16c>
   13208:	0004a303 	lw	s4,0(s7)
   1320c:	ee0314e3 	bnez	s4,130f4 <__call_exitprocs+0x60>
   13210:	f29ff06f 	j	13138 <__call_exitprocs+0xa4>
   13214:	00032803 	lw	v0,0(s4)
   13218:	00030493 	mv	s7,s4
   1321c:	00080313 	mv	s4,v0
   13220:	fedff06f 	j	1320c <__call_exitprocs+0x178>
   13224:	00000813 	li	v0,0
   13228:	ff1ff06f 	j	13218 <__call_exitprocs+0x184>

0001322c <quorem>:
   1322c:	fe070713 	add	sp,sp,-32
   13230:	00372a23 	sw	s1,20(sp)
   13234:	01092883 	lw	v1,16(a0)
   13238:	0109a183 	lw	s1,16(a1)
   1323c:	00772223 	sw	s5,4(sp)
   13240:	00172e23 	sw	ra,28(sp)
   13244:	00272c23 	sw	s0,24(sp)
   13248:	00472823 	sw	s2,16(sp)
   1324c:	00572623 	sw	s3,12(sp)
   13250:	00672423 	sw	s4,8(sp)
   13254:	00090393 	mv	s5,a0
   13258:	00000813 	li	v0,0
   1325c:	1838ca63 	blt	v1,s1,133f0 <quorem+0x1c4>
   13260:	00318813 	add	v0,s1,3
   13264:	00281813 	sll	v0,v0,0x2
   13268:	010982b3 	add	s3,a1,v0
   1326c:	0042a203 	lw	s2,4(s3)
   13270:	01090833 	add	v0,a0,v0
   13274:	00482803 	lw	v0,4(v0)
   13278:	00120213 	add	s2,s2,1
   1327c:	01498113 	add	s0,a1,20
   13280:	02485233 	divu	s2,v0,s2
   13284:	fff18193 	add	s1,s1,-1
   13288:	00428293 	add	s3,s3,4
   1328c:	01490313 	add	s4,a0,20
   13290:	0a020e63 	beqz	s2,1334c <quorem+0x120>
   13294:	00010837 	lui	v0,0x10
   13298:	00010913 	mv	a0,s0
   1329c:	00030893 	mv	v1,s4
   132a0:	00000d13 	li	t0,0
   132a4:	00000a13 	li	a2,0
   132a8:	fff80813 	add	v0,v0,-1
   132ac:	00092c83 	lw	a7,0(a0)
   132b0:	0008ac03 	lw	a6,0(v1)
   132b4:	00490913 	add	a0,a0,4
   132b8:	010cfbb3 	and	a5,a7,v0
   132bc:	024b8bb3 	mul	a5,a5,s2
   132c0:	010cdc93 	srl	a7,a7,0x10
   132c4:	010c7b33 	and	a4,a6,v0
   132c8:	014b0a33 	add	a2,a4,a2
   132cc:	010c5c13 	srl	a6,a6,0x10
   132d0:	024c8cb3 	mul	a7,a7,s2
   132d4:	01ab8bb3 	add	a5,a5,t0
   132d8:	010bda93 	srl	a3,a5,0x10
   132dc:	010bfbb3 	and	a5,a5,v0
   132e0:	417a0b33 	sub	a4,a2,a5
   132e4:	410b5b93 	sra	a5,a4,0x10
   132e8:	010b7b33 	and	a4,a4,v0
   132ec:	019a8ab3 	add	a3,a3,a7
   132f0:	010afcb3 	and	a7,a3,v0
   132f4:	419c0a33 	sub	a2,a6,a7
   132f8:	017a0a33 	add	a2,a2,a5
   132fc:	010a1b93 	sll	a5,a2,0x10
   13300:	016beb33 	or	a4,a5,a4
   13304:	0168a023 	sw	a4,0(v1)
   13308:	010add13 	srl	t0,a3,0x10
   1330c:	410a5a13 	sra	a2,a2,0x10
   13310:	00488893 	add	v1,v1,4
   13314:	f922fce3 	bleu	a0,s3,132ac <quorem+0x80>
   13318:	00418813 	add	v0,s1,4
   1331c:	00281813 	sll	v0,v0,0x2
   13320:	01038833 	add	v0,s5,v0
   13324:	00482883 	lw	v1,4(v0)
   13328:	02089263 	bnez	v1,1334c <quorem+0x120>
   1332c:	01036a63 	bltu	s4,v0,13340 <quorem+0x114>
   13330:	0180006f 	j	13348 <quorem+0x11c>
   13334:	ffc80813 	add	v0,v0,-4
   13338:	fff18193 	add	s1,s1,-1
   1333c:	01037663 	bleu	v0,s4,13348 <quorem+0x11c>
   13340:	00082883 	lw	v1,0(v0)
   13344:	fe0888e3 	beqz	v1,13334 <quorem+0x108>
   13348:	0033a823 	sw	s1,16(s5)
   1334c:	00038913 	mv	a0,s5
   13350:	084030ef 	jal	163d4 <__mcmp>
   13354:	08084c63 	bltz	v0,133ec <quorem+0x1c0>
   13358:	000108b7 	lui	v1,0x10
   1335c:	00120213 	add	s2,s2,1
   13360:	00030813 	mv	v0,s4
   13364:	00000913 	li	a0,0
   13368:	fff88893 	add	v1,v1,-1
   1336c:	00082a83 	lw	a3,0(v0)
   13370:	00012a03 	lw	a2,0(s0)
   13374:	00410113 	add	s0,s0,4
   13378:	011af9b3 	and	a1,a3,v1
   1337c:	011a7b33 	and	a4,a2,v1
   13380:	01298933 	add	a0,a1,a0
   13384:	416909b3 	sub	a1,a0,a4
   13388:	010a5a13 	srl	a2,a2,0x10
   1338c:	010ad913 	srl	a0,a3,0x10
   13390:	41490933 	sub	a0,a0,a2
   13394:	4109db13 	sra	a4,a1,0x10
   13398:	01690933 	add	a0,a0,a4
   1339c:	01091a13 	sll	a2,a0,0x10
   133a0:	0119f9b3 	and	a1,a1,v1
   133a4:	013a69b3 	or	a1,a2,a1
   133a8:	01382023 	sw	a1,0(v0)
   133ac:	41095913 	sra	a0,a0,0x10
   133b0:	00480813 	add	v0,v0,4
   133b4:	fa22fce3 	bleu	s0,s3,1336c <quorem+0x140>
   133b8:	00418813 	add	v0,s1,4
   133bc:	00281813 	sll	v0,v0,0x2
   133c0:	01038833 	add	v0,s5,v0
   133c4:	00482883 	lw	v1,4(v0)
   133c8:	02089263 	bnez	v1,133ec <quorem+0x1c0>
   133cc:	01036a63 	bltu	s4,v0,133e0 <quorem+0x1b4>
   133d0:	0180006f 	j	133e8 <quorem+0x1bc>
   133d4:	ffc80813 	add	v0,v0,-4
   133d8:	fff18193 	add	s1,s1,-1
   133dc:	01037663 	bleu	v0,s4,133e8 <quorem+0x1bc>
   133e0:	00082883 	lw	v1,0(v0)
   133e4:	fe0888e3 	beqz	v1,133d4 <quorem+0x1a8>
   133e8:	0033a823 	sw	s1,16(s5)
   133ec:	00020813 	mv	v0,s2
   133f0:	01c72083 	lw	ra,28(sp)
   133f4:	01872103 	lw	s0,24(sp)
   133f8:	01472183 	lw	s1,20(sp)
   133fc:	01072203 	lw	s2,16(sp)
   13400:	00c72283 	lw	s3,12(sp)
   13404:	00872303 	lw	s4,8(sp)
   13408:	00472383 	lw	s5,4(sp)
   1340c:	02070713 	add	sp,sp,32
   13410:	00008067 	ret

00013414 <_dtoa_r>:
   13414:	f6070713 	add	sp,sp,-160
   13418:	04092803 	lw	v0,64(a0)
   1341c:	01473427 	fsd	fa2,8(sp)
   13420:	00872a03 	lw	a2,8(sp)
   13424:	00c72a83 	lw	a3,12(sp)
   13428:	08272c23 	sw	s0,152(sp)
   1342c:	08372a23 	sw	s1,148(sp)
   13430:	08472823 	sw	s2,144(sp)
   13434:	08572623 	sw	s3,140(sp)
   13438:	08672423 	sw	s4,136(sp)
   1343c:	08772223 	sw	s5,132(sp)
   13440:	06c72823 	sw	s10,112(sp)
   13444:	06d72623 	sw	s11,108(sp)
   13448:	08172e23 	sw	ra,156(sp)
   1344c:	08872023 	sw	s6,128(sp)
   13450:	06972e23 	sw	s7,124(sp)
   13454:	06a72c23 	sw	s8,120(sp)
   13458:	06b72a23 	sw	s9,116(sp)
   1345c:	04073c27 	fsd	fs0,88(sp)
   13460:	00090113 	mv	s0,a0
   13464:	000b0193 	mv	s1,a4
   13468:	000b8213 	mv	s2,a5
   1346c:	000c0293 	mv	s3,a6
   13470:	000c8393 	mv	s5,a7
   13474:	0a072303 	lw	s4,160(sp)
   13478:	000a0613 	mv	s10,a2
   1347c:	000a8693 	mv	s11,a3
   13480:	02080263 	beqz	v0,134a4 <_dtoa_r+0x90>
   13484:	04492883 	lw	v1,68(a0)
   13488:	00100a13 	li	a2,1
   1348c:	00080993 	mv	a1,v0
   13490:	011a1a33 	sll	a2,a2,v1
   13494:	01182223 	sw	v1,4(v0)
   13498:	01482423 	sw	a2,8(v0)
   1349c:	710020ef 	jal	15bac <_Bfree>
   134a0:	04012023 	sw	zero,64(s0)
   134a4:	00068413 	mv	s6,s11
   134a8:	0e06c063 	bltz	s11,13588 <_dtoa_r+0x174>
   134ac:	0003a023 	sw	zero,0(s5)
   134b0:	7ff00837 	lui	v0,0x7ff00
   134b4:	010478b3 	and	v1,s6,v0
   134b8:	09088063 	beq	v1,v0,13538 <_dtoa_r+0x124>
   134bc:	00c72423 	sw	s10,8(sp)
   134c0:	00d72623 	sw	s11,12(sp)
   134c4:	00873007 	fld	fs0,8(sp)
   134c8:	72000853 	fcvt.d.w	fv0,zero
   134cc:	ab000853 	feq.d	v0,fs0,fv0
   134d0:	0c080a63 	beqz	v0,135a4 <_dtoa_r+0x190>
   134d4:	00100813 	li	v0,1
   134d8:	0102a023 	sw	v0,0(s3)
   134dc:	48030a63 	beqz	s4,13970 <_dtoa_r+0x55c>
   134e0:	00007817 	auipc	v0,0x7
   134e4:	ce980813 	add	v0,v0,-791 # 19ce9 <zeroes.3758+0x65>
   134e8:	00007417 	auipc	s6,0x7
   134ec:	01032023 	sw	v0,0(s4)
   134f0:	ce840413 	add	s6,s6,-792 # 19ce8 <zeroes.3758+0x64>
   134f4:	09c72083 	lw	ra,156(sp)
   134f8:	00040813 	mv	v0,s6
   134fc:	09872103 	lw	s0,152(sp)
   13500:	09472183 	lw	s1,148(sp)
   13504:	09072203 	lw	s2,144(sp)
   13508:	08c72283 	lw	s3,140(sp)
   1350c:	08872303 	lw	s4,136(sp)
   13510:	08472383 	lw	s5,132(sp)
   13514:	08072403 	lw	s6,128(sp)
   13518:	07c72483 	lw	s7,124(sp)
   1351c:	07872503 	lw	s8,120(sp)
   13520:	07472583 	lw	s9,116(sp)
   13524:	07072603 	lw	s10,112(sp)
   13528:	06c72683 	lw	s11,108(sp)
   1352c:	05873007 	fld	fs0,88(sp)
   13530:	0a070713 	add	sp,sp,160
   13534:	00008067 	ret
   13538:	00002837 	lui	v0,0x2
   1353c:	70f80813 	add	v0,v0,1807
   13540:	0102a023 	sw	v0,0(s3)
   13544:	02061c63 	bnez	s10,1357c <_dtoa_r+0x168>
   13548:	00100837 	lui	v0,0x100
   1354c:	fff80813 	add	v0,v0,-1
   13550:	01047433 	and	s6,s6,v0
   13554:	02041463 	bnez	s6,1357c <_dtoa_r+0x168>
   13558:	00007417 	auipc	s6,0x7
   1355c:	cec40413 	add	s6,s6,-788 # 19cec <zeroes.3758+0x68>
   13560:	f8030ae3 	beqz	s4,134f4 <_dtoa_r+0xe0>
   13564:	00344883 	lbu	v1,3(s6)
   13568:	00340813 	add	v0,s6,3
   1356c:	00088463 	beqz	v1,13574 <_dtoa_r+0x160>
   13570:	00840813 	add	v0,s6,8
   13574:	01032023 	sw	v0,0(s4)
   13578:	f7dff06f 	j	134f4 <_dtoa_r+0xe0>
   1357c:	00007417 	auipc	s6,0x7
   13580:	cf840413 	add	s6,s6,-776 # 19cf8 <zeroes.3758+0x74>
   13584:	fddff06f 	j	13560 <_dtoa_r+0x14c>
   13588:	80000837 	lui	v0,0x80000
   1358c:	fff84813 	not	v0,v0
   13590:	0106f433 	and	s6,s11,v0
   13594:	00100813 	li	v0,1
   13598:	0103a023 	sw	v0,0(s5)
   1359c:	00040693 	mv	s11,s6
   135a0:	f11ff06f 	j	134b0 <_dtoa_r+0x9c>
   135a4:	2a000a53 	fmv.d	fa2,fs0
   135a8:	00010913 	mv	a0,s0
   135ac:	04c70b13 	add	a4,sp,76
   135b0:	04870b93 	add	a5,sp,72
   135b4:	1cc030ef 	jal	16780 <__d2b>
   135b8:	01445913 	srl	a0,s6,0x14
   135bc:	7ff97913 	and	a0,a0,2047
   135c0:	00080393 	mv	s5,v0
   135c4:	34090c63 	beqz	a0,1391c <_dtoa_r+0x508>
   135c8:	00073427 	fsd	fs0,8(sp)
   135cc:	00872a03 	lw	a2,8(sp)
   135d0:	00c72a83 	lw	a3,12(sp)
   135d4:	04872583 	lw	s9,72(sp)
   135d8:	000a0813 	mv	v0,a2
   135dc:	00100a37 	lui	a2,0x100
   135e0:	fffa0a13 	add	a2,a2,-1
   135e4:	014afa33 	and	a2,a3,a2
   135e8:	3ff009b7 	lui	a1,0x3ff00
   135ec:	013a68b3 	or	v1,a2,a1
   135f0:	c0190913 	add	a0,a0,-1023
   135f4:	02072023 	sw	zero,32(sp)
   135f8:	01072423 	sw	v0,8(sp)
   135fc:	01172623 	sw	v1,12(sp)
   13600:	00873807 	fld	fv0,8(sp)
   13604:	930fb887 	fld	fv1,-1744(gp) # 1b440 <__wctomb+0x118>
   13608:	940fb907 	fld	fa0,-1728(gp) # 1b450 <__wctomb+0x128>
   1360c:	0b1878d3 	fsub.d	fv1,fv0,fv1
   13610:	938fb807 	fld	fv0,-1736(gp) # 1b448 <__wctomb+0x120>
   13614:	9308f8c3 	fmadd.d	fv1,fv1,fv0,fa0
   13618:	948fb807 	fld	fv0,-1720(gp) # 1b458 <__wctomb+0x130>
   1361c:	72090953 	fcvt.d.w	fa0,a0
   13620:	8b097843 	fmadd.d	fv0,fa0,fv0,fv1
   13624:	720008d3 	fcvt.d.w	fv1,zero
   13628:	b3180853 	flt.d	v0,fv0,fv1
   1362c:	520814d3 	fcvt.w.d	s7,fv0,rtz
   13630:	00080a63 	beqz	v0,13644 <_dtoa_r+0x230>
   13634:	720488d3 	fcvt.d.w	fv1,s7
   13638:	ab088853 	feq.d	v0,fv1,fv0
   1363c:	00183813 	seqz	v0,v0
   13640:	410484b3 	sub	s7,s7,v0
   13644:	00100893 	li	v1,1
   13648:	0174b813 	sltu	v0,s7,23
   1364c:	03172823 	sw	v1,48(sp)
   13650:	02080a63 	beqz	v0,13684 <_dtoa_r+0x270>
   13654:	00007817 	auipc	v0,0x7
   13658:	00349893 	sll	v1,s7,0x3
   1365c:	9f880813 	add	v0,v0,-1544 # 199f8 <__mprec_tens>
   13660:	01088833 	add	v0,v1,v0
   13664:	00c72423 	sw	s10,8(sp)
   13668:	00d72623 	sw	s11,12(sp)
   1366c:	00083807 	fld	fv0,0(v0)
   13670:	00873887 	fld	fv1,8(sp)
   13674:	b3088853 	flt.d	v0,fv1,fv0
   13678:	78080a63 	beqz	v0,13e0c <_dtoa_r+0x9f8>
   1367c:	fff48493 	add	s7,s7,-1
   13680:	02072823 	sw	zero,48(sp)
   13684:	412585b3 	sub	s9,s9,a0
   13688:	fff58593 	add	s9,s9,-1
   1368c:	4a05c263 	bltz	s9,13b30 <_dtoa_r+0x71c>
   13690:	00072e23 	sw	zero,28(sp)
   13694:	4804c063 	bltz	s7,13b14 <_dtoa_r+0x700>
   13698:	009585b3 	add	s9,s9,s7
   1369c:	02972423 	sw	s7,40(sp)
   136a0:	00072c23 	sw	zero,24(sp)
   136a4:	00a1b813 	sltu	v0,s1,10
   136a8:	2c080a63 	beqz	v0,1397c <_dtoa_r+0x568>
   136ac:	0061a813 	slt	v0,s1,6
   136b0:	00100a13 	li	a2,1
   136b4:	00081663 	bnez	v0,136c0 <_dtoa_r+0x2ac>
   136b8:	ffc18193 	add	s1,s1,-4
   136bc:	00000a13 	li	a2,0
   136c0:	00300813 	li	v0,3
   136c4:	2f0182e3 	beq	s1,v0,141a8 <_dtoa_r+0xd94>
   136c8:	0041a813 	slt	v0,s1,4
   136cc:	020818e3 	bnez	v0,13efc <_dtoa_r+0xae8>
   136d0:	00400813 	li	v0,4
   136d4:	2d018ee3 	beq	s1,v0,141b0 <_dtoa_r+0xd9c>
   136d8:	00500813 	li	v0,5
   136dc:	2b019263 	bne	s1,v0,13980 <_dtoa_r+0x56c>
   136e0:	00100893 	li	v1,1
   136e4:	03172623 	sw	v1,44(sp)
   136e8:	00920b33 	add	a4,s2,s7
   136ec:	001b0893 	add	v1,a4,1
   136f0:	03672a23 	sw	a4,52(sp)
   136f4:	00088513 	mv	s8,v1
   136f8:	1d105ee3 	blez	v1,140d4 <_dtoa_r+0xcc0>
   136fc:	00088b13 	mv	a4,v1
   13700:	00088513 	mv	s8,v1
   13704:	018b3813 	sltu	v0,a4,24
   13708:	04012223 	sw	zero,68(s0)
   1370c:	00000993 	li	a1,0
   13710:	02081263 	bnez	v0,13734 <_dtoa_r+0x320>
   13714:	00100913 	li	a0,1
   13718:	00400813 	li	v0,4
   1371c:	00181813 	sll	v0,v0,0x1
   13720:	01480a93 	add	a3,v0,20
   13724:	00090993 	mv	a1,a0
   13728:	00190913 	add	a0,a0,1
   1372c:	ff5b78e3 	bleu	a3,a4,1371c <_dtoa_r+0x308>
   13730:	05312223 	sw	a1,68(s0)
   13734:	00010913 	mv	a0,s0
   13738:	01172823 	sw	v1,16(sp)
   1373c:	01472a23 	sw	a2,20(sp)
   13740:	3c4020ef 	jal	15b04 <_Balloc>
   13744:	01072883 	lw	v1,16(sp)
   13748:	00080413 	mv	s6,v0
   1374c:	05012023 	sw	v0,64(s0)
   13750:	00f8b893 	sltu	v1,v1,15
   13754:	01472a03 	lw	a2,20(sp)
   13758:	24088c63 	beqz	v1,139b0 <_dtoa_r+0x59c>
   1375c:	240a0a63 	beqz	a2,139b0 <_dtoa_r+0x59c>
   13760:	00c72423 	sw	s10,8(sp)
   13764:	00d72623 	sw	s11,12(sp)
   13768:	00873807 	fld	fv0,8(sp)
   1376c:	00060813 	mv	v0,s10
   13770:	00068893 	mv	v1,s11
   13774:	2a9054e3 	blez	s7,1421c <_dtoa_r+0xe08>
   13778:	00f4fa13 	and	a2,s7,15
   1377c:	00007997 	auipc	a1,0x7
   13780:	9f898993 	add	a1,a1,-1544 # 199f8 <__mprec_tens>
   13784:	003a1a13 	sll	a2,a2,0x3
   13788:	4044d913 	sra	a0,s7,0x4
   1378c:	013a0a33 	add	a2,a2,a1
   13790:	01097993 	and	a1,a0,16
   13794:	000a3887 	fld	fv1,0(a2)
   13798:	00200a93 	li	a3,2
   1379c:	00098c63 	beqz	a1,137b4 <_dtoa_r+0x3a0>
   137a0:	00007997 	auipc	a1,0x7
   137a4:	b089b907 	fld	fa0,-1272(a1) # 19b08 <__mprec_bigtens+0x20>
   137a8:	00f97913 	and	a0,a0,15
   137ac:	00300a93 	li	a3,3
   137b0:	1b287853 	fdiv.d	fv0,fv0,fa0
   137b4:	02090663 	beqz	a0,137e0 <_dtoa_r+0x3cc>
   137b8:	00007997 	auipc	a1,0x7
   137bc:	ae898993 	add	a1,a1,-1304 # 19ae8 <__mprec_bigtens>
   137c0:	00197a13 	and	a2,a0,1
   137c4:	40195913 	sra	a0,a0,0x1
   137c8:	000a0863 	beqz	a2,137d8 <_dtoa_r+0x3c4>
   137cc:	0009b907 	fld	fa0,0(a1)
   137d0:	001a8a93 	add	a3,a3,1
   137d4:	1328f8d3 	fmul.d	fv1,fv1,fa0
   137d8:	00898993 	add	a1,a1,8
   137dc:	fe0912e3 	bnez	a0,137c0 <_dtoa_r+0x3ac>
   137e0:	1b187853 	fdiv.d	fv0,fv0,fv1
   137e4:	03072b03 	lw	a4,48(sp)
   137e8:	080b00e3 	beqz	a4,14068 <_dtoa_r+0xc54>
   137ec:	890fb887 	fld	fv1,-1904(gp) # 1b3a0 <__wctomb+0x78>
   137f0:	b3180953 	flt.d	a0,fv0,fv1
   137f4:	06090ae3 	beqz	a0,14068 <_dtoa_r+0xc54>
   137f8:	420504e3 	beqz	s8,14420 <_dtoa_r+0x100c>
   137fc:	03472b03 	lw	a4,52(sp)
   13800:	216058e3 	blez	a4,14210 <_dtoa_r+0xdfc>
   13804:	950fb887 	fld	fv1,-1712(gp) # 1b460 <__wctomb+0x138>
   13808:	001a8a93 	add	a3,a3,1
   1380c:	13187853 	fmul.d	fv0,fv0,fv1
   13810:	958fb887 	fld	fv1,-1704(gp) # 1b468 <__wctomb+0x140>
   13814:	720a8953 	fcvt.d.w	fa0,a3
   13818:	000b0a13 	mv	a2,a4
   1381c:	fcc00b37 	lui	a4,0xfcc00
   13820:	fff48a93 	add	a3,s7,-1
   13824:	8b2878c3 	fmadd.d	fv1,fv0,fa0,fv1
   13828:	01173427 	fsd	fv1,8(sp)
   1382c:	00c72983 	lw	a1,12(sp)
   13830:	00872903 	lw	a0,8(sp)
   13834:	013b09b3 	add	a1,a4,a1
   13838:	02c72b03 	lw	a4,44(sp)
   1383c:	fffa0b93 	add	a5,a2,-1
   13840:	280b0ae3 	beqz	a4,142d4 <_dtoa_r+0xec0>
   13844:	00007b17 	auipc	a4,0x7
   13848:	003b9b93 	sll	a5,a5,0x3
   1384c:	9f8b0b13 	add	a4,a4,-1544 # 199f8 <__mprec_tens>
   13850:	01272423 	sw	a0,8(sp)
   13854:	016b8b33 	add	a4,a5,a4
   13858:	860fb987 	fld	fa1,-1952(gp) # 1b370 <__wctomb+0x48>
   1385c:	000b3907 	fld	fa0,0(a4)
   13860:	01372623 	sw	a1,12(sp)
   13864:	00873887 	fld	fv1,8(sp)
   13868:	1b29f953 	fdiv.d	fa0,fa1,fa0
   1386c:	52081b53 	fcvt.w.d	a4,fv0,rtz
   13870:	720b09d3 	fcvt.d.w	fa1,a4
   13874:	0b387853 	fsub.d	fv0,fv0,fa1
   13878:	030b0913 	add	a0,a4,48
   1387c:	0ff97913 	and	a0,a0,255
   13880:	01240023 	sb	a0,0(s6)
   13884:	00140693 	add	s11,s6,1
   13888:	0b1978d3 	fsub.d	fv1,fa0,fv1
   1388c:	b31809d3 	flt.d	a1,fv0,fv1
   13890:	06099263 	bnez	a1,138f4 <_dtoa_r+0x4e0>
   13894:	890fba07 	fld	fa2,-1904(gp) # 1b3a0 <__wctomb+0x78>
   13898:	0b0a7953 	fsub.d	fa0,fa2,fv0
   1389c:	b31909d3 	flt.d	a1,fa0,fv1
   138a0:	36099ce3 	bnez	a1,14418 <_dtoa_r+0x1004>
   138a4:	002a2913 	slt	a0,a2,2
   138a8:	160914e3 	bnez	a0,14210 <_dtoa_r+0xdfc>
   138ac:	01440a33 	add	a2,s6,a2
   138b0:	950fb907 	fld	fa0,-1712(gp) # 1b460 <__wctomb+0x138>
   138b4:	0140006f 	j	138c8 <_dtoa_r+0x4b4>
   138b8:	0b0a79d3 	fsub.d	fa1,fa2,fv0
   138bc:	b31989d3 	flt.d	a1,fa1,fv1
   138c0:	34099ce3 	bnez	a1,14418 <_dtoa_r+0x1004>
   138c4:	154686e3 	beq	s11,a2,14210 <_dtoa_r+0xdfc>
   138c8:	13287853 	fmul.d	fv0,fv0,fa0
   138cc:	1328f8d3 	fmul.d	fv1,fv1,fa0
   138d0:	52081953 	fcvt.w.d	a0,fv0,rtz
   138d4:	720909d3 	fcvt.d.w	fa1,a0
   138d8:	0b387853 	fsub.d	fv0,fv0,fa1
   138dc:	03090913 	add	a0,a0,48
   138e0:	0ff97913 	and	a0,a0,255
   138e4:	01268023 	sb	a0,0(s11) # 0 <_ftext-0x10000>
   138e8:	b31809d3 	flt.d	a1,fv0,fv1
   138ec:	00168693 	add	s11,s11,1
   138f0:	fc0984e3 	beqz	a1,138b8 <_dtoa_r+0x4a4>
   138f4:	000a8493 	mv	s7,a3
   138f8:	00010913 	mv	a0,s0
   138fc:	00038993 	mv	a1,s5
   13900:	00148493 	add	s7,s7,1
   13904:	2a8020ef 	jal	15bac <_Bfree>
   13908:	00068023 	sb	zero,0(s11)
   1390c:	0092a023 	sw	s7,0(s3)
   13910:	be0302e3 	beqz	s4,134f4 <_dtoa_r+0xe0>
   13914:	00d32023 	sw	s11,0(s4)
   13918:	bddff06f 	j	134f4 <_dtoa_r+0xe0>
   1391c:	04872583 	lw	s9,72(sp)
   13920:	04c72903 	lw	a0,76(sp)
   13924:	01258933 	add	a0,s9,a0
   13928:	bef92813 	slt	v0,a0,-1041
   1392c:	4e081463 	bnez	v0,13e14 <_dtoa_r+0xa00>
   13930:	c0e00893 	li	v1,-1010
   13934:	412888b3 	sub	v1,v1,a0
   13938:	41290813 	add	v0,a0,1042
   1393c:	01141433 	sll	s6,s6,v1
   13940:	01065833 	srl	v0,s10,v0
   13944:	01046833 	or	v0,s6,v0
   13948:	7a080853 	fcvt.d.wu	fv0,v0
   1394c:	01073427 	fsd	fv0,8(sp)
   13950:	00c72883 	lw	v1,12(sp)
   13954:	fe1009b7 	lui	a1,0xfe100
   13958:	00100a13 	li	a2,1
   1395c:	00872803 	lw	v0,8(sp)
   13960:	011988b3 	add	v1,a1,v1
   13964:	fff90913 	add	a0,a0,-1
   13968:	03472023 	sw	a2,32(sp)
   1396c:	c8dff06f 	j	135f8 <_dtoa_r+0x1e4>
   13970:	00007417 	auipc	s6,0x7
   13974:	ce840413 	add	s6,s6,-792 # 19ce8 <zeroes.3758+0x64>
   13978:	b7dff06f 	j	134f4 <_dtoa_r+0xe0>
   1397c:	00000193 	li	s1,0
   13980:	04012223 	sw	zero,68(s0)
   13984:	00010913 	mv	a0,s0
   13988:	00000993 	li	a1,0
   1398c:	178020ef 	jal	15b04 <_Balloc>
   13990:	fff00893 	li	v1,-1
   13994:	00100b13 	li	a4,1
   13998:	00080413 	mv	s6,v0
   1399c:	05012023 	sw	v0,64(s0)
   139a0:	fff00513 	li	s8,-1
   139a4:	03172a23 	sw	v1,52(sp)
   139a8:	03672623 	sw	a4,44(sp)
   139ac:	00000213 	li	s2,0
   139b0:	04c72803 	lw	v0,76(sp)
   139b4:	10084063 	bltz	v0,13ab4 <_dtoa_r+0x6a0>
   139b8:	00f4a893 	slt	v1,s7,15
   139bc:	0e088c63 	beqz	v1,13ab4 <_dtoa_r+0x6a0>
   139c0:	00007817 	auipc	v0,0x7
   139c4:	00349893 	sll	v1,s7,0x3
   139c8:	9f880813 	add	v0,v0,-1544 # 199f8 <__mprec_tens>
   139cc:	01088833 	add	v0,v1,v0
   139d0:	00083887 	fld	fv1,0(v0)
   139d4:	5a024463 	bltz	s2,13f7c <_dtoa_r+0xb68>
   139d8:	00d72623 	sw	s11,12(sp)
   139dc:	00c72423 	sw	s10,8(sp)
   139e0:	00873807 	fld	fv0,8(sp)
   139e4:	00140693 	add	s11,s6,1
   139e8:	1b187953 	fdiv.d	fa0,fv0,fv1
   139ec:	520918d3 	fcvt.w.d	v1,fa0,rtz
   139f0:	72088953 	fcvt.d.w	fa0,v1
   139f4:	03088813 	add	v0,v1,48
   139f8:	33290953 	fneg.d	fa0,fa0
   139fc:	01040023 	sb	v0,0(s6)
   13a00:	00100813 	li	v0,1
   13a04:	83197843 	fmadd.d	fv0,fa0,fv1,fv0
   13a08:	05050c63 	beq	s8,v0,13a60 <_dtoa_r+0x64c>
   13a0c:	950fba07 	fld	fa2,-1712(gp) # 1b460 <__wctomb+0x138>
   13a10:	720009d3 	fcvt.d.w	fa1,zero
   13a14:	13487853 	fmul.d	fv0,fv0,fa2
   13a18:	ab380853 	feq.d	v0,fv0,fa1
   13a1c:	ec081ee3 	bnez	v0,138f8 <_dtoa_r+0x4e4>
   13a20:	00240813 	add	v0,s6,2
   13a24:	00a40533 	add	s8,s6,s8
   13a28:	0140006f 	j	13a3c <_dtoa_r+0x628>
   13a2c:	13487853 	fmul.d	fv0,fv0,fa2
   13a30:	00180813 	add	v0,v0,1
   13a34:	ab3808d3 	feq.d	v1,fv0,fa1
   13a38:	ec0890e3 	bnez	v1,138f8 <_dtoa_r+0x4e4>
   13a3c:	1b187953 	fdiv.d	fa0,fv0,fv1
   13a40:	00080693 	mv	s11,v0
   13a44:	520918d3 	fcvt.w.d	v1,fa0,rtz
   13a48:	72088953 	fcvt.d.w	fa0,v1
   13a4c:	33290953 	fneg.d	fa0,fa0
   13a50:	03088913 	add	a0,v1,48
   13a54:	ff280fa3 	sb	a0,-1(v0)
   13a58:	83197843 	fmadd.d	fv0,fa0,fv1,fv0
   13a5c:	fca818e3 	bne	v0,s8,13a2c <_dtoa_r+0x618>
   13a60:	03087853 	fadd.d	fv0,fv0,fv0
   13a64:	b3088853 	flt.d	v0,fv1,fv0
   13a68:	00081a63 	bnez	v0,13a7c <_dtoa_r+0x668>
   13a6c:	ab088853 	feq.d	v0,fv1,fv0
   13a70:	e80804e3 	beqz	v0,138f8 <_dtoa_r+0x4e4>
   13a74:	0018f893 	and	v1,v1,1
   13a78:	e80880e3 	beqz	v1,138f8 <_dtoa_r+0x4e4>
   13a7c:	fff6c903 	lbu	a0,-1(s11)
   13a80:	03900893 	li	v1,57
   13a84:	00c0006f 	j	13a90 <_dtoa_r+0x67c>
   13a88:	fff84903 	lbu	a0,-1(v0)
   13a8c:	00080693 	mv	s11,v0
   13a90:	fff68813 	add	v0,s11,-1
   13a94:	131910e3 	bne	a0,v1,143b4 <_dtoa_r+0xfa0>
   13a98:	ff0418e3 	bne	s6,v0,13a88 <_dtoa_r+0x674>
   13a9c:	03000813 	li	v0,48
   13aa0:	ff068fa3 	sb	v0,-1(s11)
   13aa4:	00148493 	add	s7,s7,1
   13aa8:	03100813 	li	v0,49
   13aac:	ff068fa3 	sb	v0,-1(s11)
   13ab0:	e49ff06f 	j	138f8 <_dtoa_r+0x4e4>
   13ab4:	02c72883 	lw	v1,44(sp)
   13ab8:	08088463 	beqz	v1,13b40 <_dtoa_r+0x72c>
   13abc:	0021aa93 	slt	a3,s1,2
   13ac0:	03572c23 	sw	a3,56(sp)
   13ac4:	500a9463 	bnez	a3,13fcc <_dtoa_r+0xbb8>
   13ac8:	01872a83 	lw	a3,24(sp)
   13acc:	fff50893 	add	v1,s8,-1
   13ad0:	6f1ac663 	blt	a3,v1,141bc <_dtoa_r+0xda8>
   13ad4:	411a88b3 	sub	v1,a3,v1
   13ad8:	0a0542e3 	bltz	s8,1437c <_dtoa_r+0xf68>
   13adc:	01c72a83 	lw	a3,28(sp)
   13ae0:	00050813 	mv	v0,s8
   13ae4:	03572223 	sw	a3,36(sp)
   13ae8:	01c72b03 	lw	a4,28(sp)
   13aec:	00010913 	mv	a0,s0
   13af0:	00100993 	li	a1,1
   13af4:	010b0b33 	add	a4,a4,v0
   13af8:	01172823 	sw	v1,16(sp)
   13afc:	01672e23 	sw	a4,28(sp)
   13b00:	010585b3 	add	s9,s9,v0
   13b04:	408020ef 	jal	15f0c <__i2b>
   13b08:	03072023 	sw	v0,32(sp)
   13b0c:	01072883 	lw	v1,16(sp)
   13b10:	0480006f 	j	13b58 <_dtoa_r+0x744>
   13b14:	01c72883 	lw	v1,28(sp)
   13b18:	40900ab3 	neg	a3,s7
   13b1c:	01572c23 	sw	a3,24(sp)
   13b20:	409888b3 	sub	v1,v1,s7
   13b24:	01172e23 	sw	v1,28(sp)
   13b28:	02072423 	sw	zero,40(sp)
   13b2c:	b79ff06f 	j	136a4 <_dtoa_r+0x290>
   13b30:	40b005b3 	neg	s9,s9
   13b34:	00b72e23 	sw	s9,28(sp)
   13b38:	00000593 	li	s9,0
   13b3c:	b59ff06f 	j	13694 <_dtoa_r+0x280>
   13b40:	01c72a83 	lw	a3,28(sp)
   13b44:	01872883 	lw	v1,24(sp)
   13b48:	0021ab13 	slt	a4,s1,2
   13b4c:	03572223 	sw	a3,36(sp)
   13b50:	02072023 	sw	zero,32(sp)
   13b54:	03672c23 	sw	a4,56(sp)
   13b58:	02472b03 	lw	a4,36(sp)
   13b5c:	020b0663 	beqz	a4,13b88 <_dtoa_r+0x774>
   13b60:	02b05463 	blez	s9,13b88 <_dtoa_r+0x774>
   13b64:	00058813 	mv	v0,s9
   13b68:	40bb4663 	blt	a4,s9,13f74 <_dtoa_r+0xb60>
   13b6c:	01c72a83 	lw	a3,28(sp)
   13b70:	02472b03 	lw	a4,36(sp)
   13b74:	410585b3 	sub	s9,s9,v0
   13b78:	410a8ab3 	sub	a3,a3,v0
   13b7c:	410b0b33 	sub	a4,a4,v0
   13b80:	01572e23 	sw	a3,28(sp)
   13b84:	03672223 	sw	a4,36(sp)
   13b88:	01872a83 	lw	a3,24(sp)
   13b8c:	07505063 	blez	a3,13bec <_dtoa_r+0x7d8>
   13b90:	02c72b03 	lw	a4,44(sp)
   13b94:	5e0b0e63 	beqz	a4,14190 <_dtoa_r+0xd7c>
   13b98:	05105463 	blez	v1,13be0 <_dtoa_r+0x7cc>
   13b9c:	02072983 	lw	a1,32(sp)
   13ba0:	00088a13 	mv	a2,v1
   13ba4:	00010913 	mv	a0,s0
   13ba8:	01172823 	sw	v1,16(sp)
   13bac:	5a4020ef 	jal	16150 <__pow5mult>
   13bb0:	00080993 	mv	a1,v0
   13bb4:	00038a13 	mv	a2,s5
   13bb8:	00010913 	mv	a0,s0
   13bbc:	03072023 	sw	v0,32(sp)
   13bc0:	380020ef 	jal	15f40 <__multiply>
   13bc4:	00038993 	mv	a1,s5
   13bc8:	00010913 	mv	a0,s0
   13bcc:	01072a23 	sw	v0,20(sp)
   13bd0:	7dd010ef 	jal	15bac <_Bfree>
   13bd4:	01472803 	lw	v0,20(sp)
   13bd8:	01072883 	lw	v1,16(sp)
   13bdc:	00080393 	mv	s5,v0
   13be0:	01872a83 	lw	a3,24(sp)
   13be4:	411a8a33 	sub	a2,a3,v1
   13be8:	3c0a1863 	bnez	a2,13fb8 <_dtoa_r+0xba4>
   13bec:	00010913 	mv	a0,s0
   13bf0:	00100993 	li	a1,1
   13bf4:	318020ef 	jal	15f0c <__i2b>
   13bf8:	02872b03 	lw	a4,40(sp)
   13bfc:	01072c23 	sw	v0,24(sp)
   13c00:	01605c63 	blez	a4,13c18 <_dtoa_r+0x804>
   13c04:	00010913 	mv	a0,s0
   13c08:	00080993 	mv	a1,v0
   13c0c:	000b0a13 	mv	a2,a4
   13c10:	540020ef 	jal	16150 <__pow5mult>
   13c14:	01072c23 	sw	v0,24(sp)
   13c18:	03872883 	lw	v1,56(sp)
   13c1c:	02072e23 	sw	zero,60(sp)
   13c20:	4e089463 	bnez	v1,14108 <_dtoa_r+0xcf4>
   13c24:	02872883 	lw	v1,40(sp)
   13c28:	00100813 	li	v0,1
   13c2c:	4a089a63 	bnez	v1,140e0 <_dtoa_r+0xccc>
   13c30:	00b80833 	add	v0,v0,s9
   13c34:	01f87813 	and	v0,v0,31
   13c38:	01c00893 	li	v1,28
   13c3c:	18081e63 	bnez	v0,13dd8 <_dtoa_r+0x9c4>
   13c40:	01c72a83 	lw	a3,28(sp)
   13c44:	02472b03 	lw	a4,36(sp)
   13c48:	011585b3 	add	s9,s9,v1
   13c4c:	011a8ab3 	add	a3,a3,v1
   13c50:	011b0b33 	add	a4,a4,v1
   13c54:	01572e23 	sw	a3,28(sp)
   13c58:	03672223 	sw	a4,36(sp)
   13c5c:	01c72883 	lw	v1,28(sp)
   13c60:	01105c63 	blez	v1,13c78 <_dtoa_r+0x864>
   13c64:	00038993 	mv	a1,s5
   13c68:	00010913 	mv	a0,s0
   13c6c:	00088a13 	mv	a2,v1
   13c70:	604020ef 	jal	16274 <__lshift>
   13c74:	00080393 	mv	s5,v0
   13c78:	00b05c63 	blez	s9,13c90 <_dtoa_r+0x87c>
   13c7c:	01872983 	lw	a1,24(sp)
   13c80:	00010913 	mv	a0,s0
   13c84:	00058a13 	mv	a2,s9
   13c88:	5ec020ef 	jal	16274 <__lshift>
   13c8c:	01072c23 	sw	v0,24(sp)
   13c90:	03072a83 	lw	a3,48(sp)
   13c94:	280a9663 	bnez	a3,13f20 <_dtoa_r+0xb0c>
   13c98:	4aa05663 	blez	s8,14144 <_dtoa_r+0xd30>
   13c9c:	02c72883 	lw	v1,44(sp)
   13ca0:	18088263 	beqz	v1,13e24 <_dtoa_r+0xa10>
   13ca4:	02472b03 	lw	a4,36(sp)
   13ca8:	01605c63 	blez	a4,13cc0 <_dtoa_r+0x8ac>
   13cac:	02072983 	lw	a1,32(sp)
   13cb0:	00010913 	mv	a0,s0
   13cb4:	000b0a13 	mv	a2,a4
   13cb8:	5bc020ef 	jal	16274 <__lshift>
   13cbc:	03072023 	sw	v0,32(sp)
   13cc0:	03c72883 	lw	v1,60(sp)
   13cc4:	02072203 	lw	s2,32(sp)
   13cc8:	5a089863 	bnez	v1,14278 <_dtoa_r+0xe64>
   13ccc:	00100893 	li	v1,1
   13cd0:	00167b13 	and	a4,s10,1
   13cd4:	02072583 	lw	s9,32(sp)
   13cd8:	00040693 	mv	s11,s6
   13cdc:	03172023 	sw	v1,32(sp)
   13ce0:	03672423 	sw	a4,40(sp)
   13ce4:	01872983 	lw	a1,24(sp)
   13ce8:	00038913 	mv	a0,s5
   13cec:	d40ff0ef 	jal	1322c <quorem>
   13cf0:	00038913 	mv	a0,s5
   13cf4:	00058993 	mv	a1,s9
   13cf8:	03072223 	sw	v0,36(sp)
   13cfc:	6d8020ef 	jal	163d4 <__mcmp>
   13d00:	01872983 	lw	a1,24(sp)
   13d04:	00010913 	mv	a0,s0
   13d08:	00020a13 	mv	a2,s2
   13d0c:	01072e23 	sw	v0,28(sp)
   13d10:	71c020ef 	jal	1642c <__mdiff>
   13d14:	00c82903 	lw	a0,12(v0)
   13d18:	02472a83 	lw	a3,36(sp)
   13d1c:	00080893 	mv	v1,v0
   13d20:	00100813 	li	v0,1
   13d24:	030a8613 	add	s10,a3,48
   13d28:	30090463 	beqz	a0,14030 <_dtoa_r+0xc1c>
   13d2c:	00088993 	mv	a1,v1
   13d30:	00010913 	mv	a0,s0
   13d34:	01072a23 	sw	v0,20(sp)
   13d38:	675010ef 	jal	15bac <_Bfree>
   13d3c:	01472803 	lw	v0,20(sp)
   13d40:	003868b3 	or	v1,v0,s1
   13d44:	00089663 	bnez	v1,13d50 <_dtoa_r+0x93c>
   13d48:	02872b03 	lw	a4,40(sp)
   13d4c:	6a0b0c63 	beqz	a4,14404 <_dtoa_r+0xff0>
   13d50:	01c72b03 	lw	a4,28(sp)
   13d54:	280b4a63 	bltz	a4,13fe8 <_dtoa_r+0xbd4>
   13d58:	003b68b3 	or	v1,a4,s1
   13d5c:	00089663 	bnez	v1,13d68 <_dtoa_r+0x954>
   13d60:	02872883 	lw	v1,40(sp)
   13d64:	28088263 	beqz	v1,13fe8 <_dtoa_r+0xbd4>
   13d68:	5f004e63 	bgtz	v0,14364 <_dtoa_r+0xf50>
   13d6c:	02072b03 	lw	a4,32(sp)
   13d70:	00c68023 	sb	s10,0(s11)
   13d74:	00168693 	add	s11,s11,1
   13d78:	5eab0e63 	beq	a4,s8,14374 <_dtoa_r+0xf60>
   13d7c:	00038993 	mv	a1,s5
   13d80:	00010913 	mv	a0,s0
   13d84:	00a00a13 	li	a2,10
   13d88:	00000a93 	li	a3,0
   13d8c:	645010ef 	jal	15bd0 <__multadd>
   13d90:	00080393 	mv	s5,v0
   13d94:	2a458a63 	beq	s9,s2,14048 <_dtoa_r+0xc34>
   13d98:	00058993 	mv	a1,s9
   13d9c:	00a00a13 	li	a2,10
   13da0:	00000a93 	li	a3,0
   13da4:	00010913 	mv	a0,s0
   13da8:	629010ef 	jal	15bd0 <__multadd>
   13dac:	00020993 	mv	a1,s2
   13db0:	00010913 	mv	a0,s0
   13db4:	00a00a13 	li	a2,10
   13db8:	00000a93 	li	a3,0
   13dbc:	00080593 	mv	s9,v0
   13dc0:	611010ef 	jal	15bd0 <__multadd>
   13dc4:	00080213 	mv	s2,v0
   13dc8:	02072883 	lw	v1,32(sp)
   13dcc:	00188893 	add	v1,v1,1
   13dd0:	03172023 	sw	v1,32(sp)
   13dd4:	f11ff06f 	j	13ce4 <_dtoa_r+0x8d0>
   13dd8:	02000913 	li	a0,32
   13ddc:	41090933 	sub	a0,a0,v0
   13de0:	00592993 	slt	a1,a0,5
   13de4:	66099863 	bnez	a1,14454 <_dtoa_r+0x1040>
   13de8:	41088833 	sub	v0,v1,v0
   13dec:	02472b03 	lw	a4,36(sp)
   13df0:	01c72883 	lw	v1,28(sp)
   13df4:	010585b3 	add	s9,s9,v0
   13df8:	010b0b33 	add	a4,a4,v0
   13dfc:	010888b3 	add	v1,v1,v0
   13e00:	01172e23 	sw	v1,28(sp)
   13e04:	03672223 	sw	a4,36(sp)
   13e08:	e55ff06f 	j	13c5c <_dtoa_r+0x848>
   13e0c:	02072823 	sw	zero,48(sp)
   13e10:	875ff06f 	j	13684 <_dtoa_r+0x270>
   13e14:	bee00813 	li	v0,-1042
   13e18:	41280833 	sub	v0,v0,a0
   13e1c:	01061833 	sll	v0,s10,v0
   13e20:	b29ff06f 	j	13948 <_dtoa_r+0x534>
   13e24:	00040193 	mv	s1,s6
   13e28:	00100213 	li	s2,1
   13e2c:	0100006f 	j	13e3c <_dtoa_r+0xa28>
   13e30:	5a1010ef 	jal	15bd0 <__multadd>
   13e34:	00080393 	mv	s5,v0
   13e38:	00120213 	add	s2,s2,1
   13e3c:	01872983 	lw	a1,24(sp)
   13e40:	00038913 	mv	a0,s5
   13e44:	be8ff0ef 	jal	1322c <quorem>
   13e48:	03080613 	add	s10,v0,48
   13e4c:	00c18023 	sb	s10,0(s1)
   13e50:	00010913 	mv	a0,s0
   13e54:	00038993 	mv	a1,s5
   13e58:	00a00a13 	li	a2,10
   13e5c:	00000a93 	li	a3,0
   13e60:	00118193 	add	s1,s1,1
   13e64:	fca246e3 	blt	s2,s8,13e30 <_dtoa_r+0xa1c>
   13e68:	52a05463 	blez	s8,14390 <_dtoa_r+0xf7c>
   13e6c:	00a406b3 	add	s11,s6,s8
   13e70:	00000593 	li	s9,0
   13e74:	00038993 	mv	a1,s5
   13e78:	00010913 	mv	a0,s0
   13e7c:	00100a13 	li	a2,1
   13e80:	3f4020ef 	jal	16274 <__lshift>
   13e84:	01872983 	lw	a1,24(sp)
   13e88:	00080913 	mv	a0,v0
   13e8c:	00080393 	mv	s5,v0
   13e90:	544020ef 	jal	163d4 <__mcmp>
   13e94:	35005a63 	blez	v0,141e8 <_dtoa_r+0xdd4>
   13e98:	fff6c883 	lbu	v1,-1(s11)
   13e9c:	03900913 	li	a0,57
   13ea0:	00c0006f 	j	13eac <_dtoa_r+0xa98>
   13ea4:	fff84883 	lbu	v1,-1(v0)
   13ea8:	00080693 	mv	s11,v0
   13eac:	fff68813 	add	v0,s11,-1
   13eb0:	41289663 	bne	v1,a0,142bc <_dtoa_r+0xea8>
   13eb4:	ff0418e3 	bne	s6,v0,13ea4 <_dtoa_r+0xa90>
   13eb8:	03100813 	li	v0,49
   13ebc:	00148493 	add	s7,s7,1
   13ec0:	ff068fa3 	sb	v0,-1(s11)
   13ec4:	01872983 	lw	a1,24(sp)
   13ec8:	00010913 	mv	a0,s0
   13ecc:	4e1010ef 	jal	15bac <_Bfree>
   13ed0:	02072b03 	lw	a4,32(sp)
   13ed4:	a20b02e3 	beqz	a4,138f8 <_dtoa_r+0x4e4>
   13ed8:	00058a63 	beqz	s9,13eec <_dtoa_r+0xad8>
   13edc:	01658863 	beq	s9,a4,13eec <_dtoa_r+0xad8>
   13ee0:	00010913 	mv	a0,s0
   13ee4:	00058993 	mv	a1,s9
   13ee8:	4c5010ef 	jal	15bac <_Bfree>
   13eec:	02072983 	lw	a1,32(sp)
   13ef0:	00010913 	mv	a0,s0
   13ef4:	4b9010ef 	jal	15bac <_Bfree>
   13ef8:	a01ff06f 	j	138f8 <_dtoa_r+0x4e4>
   13efc:	00200813 	li	v0,2
   13f00:	a90190e3 	bne	s1,v0,13980 <_dtoa_r+0x56c>
   13f04:	02072623 	sw	zero,44(sp)
   13f08:	1a405c63 	blez	s2,140c0 <_dtoa_r+0xcac>
   13f0c:	00020893 	mv	v1,s2
   13f10:	00020b13 	mv	a4,s2
   13f14:	02472a23 	sw	s2,52(sp)
   13f18:	00020513 	mv	s8,s2
   13f1c:	fe8ff06f 	j	13704 <_dtoa_r+0x2f0>
   13f20:	01872983 	lw	a1,24(sp)
   13f24:	00038913 	mv	a0,s5
   13f28:	4ac020ef 	jal	163d4 <__mcmp>
   13f2c:	d60856e3 	bgez	v0,13c98 <_dtoa_r+0x884>
   13f30:	00038993 	mv	a1,s5
   13f34:	00010913 	mv	a0,s0
   13f38:	00a00a13 	li	a2,10
   13f3c:	00000a93 	li	a3,0
   13f40:	491010ef 	jal	15bd0 <__multadd>
   13f44:	02c72b03 	lw	a4,44(sp)
   13f48:	00080393 	mv	s5,v0
   13f4c:	fff48493 	add	s7,s7,-1
   13f50:	03472503 	lw	s8,52(sp)
   13f54:	d40b02e3 	beqz	a4,13c98 <_dtoa_r+0x884>
   13f58:	02072983 	lw	a1,32(sp)
   13f5c:	00010913 	mv	a0,s0
   13f60:	00a00a13 	li	a2,10
   13f64:	00000a93 	li	a3,0
   13f68:	469010ef 	jal	15bd0 <__multadd>
   13f6c:	03072023 	sw	v0,32(sp)
   13f70:	d29ff06f 	j	13c98 <_dtoa_r+0x884>
   13f74:	000b0813 	mv	v0,a4
   13f78:	bf5ff06f 	j	13b6c <_dtoa_r+0x758>
   13f7c:	a4a04ee3 	bgtz	s8,139d8 <_dtoa_r+0x5c4>
   13f80:	12051a63 	bnez	s8,140b4 <_dtoa_r+0xca0>
   13f84:	960fb807 	fld	fv0,-1696(gp) # 1b470 <__wctomb+0x148>
   13f88:	00c72423 	sw	s10,8(sp)
   13f8c:	00d72623 	sw	s11,12(sp)
   13f90:	1308f8d3 	fmul.d	fv1,fv1,fv0
   13f94:	00873807 	fld	fv0,8(sp)
   13f98:	00072c23 	sw	zero,24(sp)
   13f9c:	02072023 	sw	zero,32(sp)
   13fa0:	bb180653 	fle.d	s10,fv0,fv1
   13fa4:	1c060a63 	beqz	s10,14178 <_dtoa_r+0xd64>
   13fa8:	fff24493 	not	s7,s2
   13fac:	00040693 	mv	s11,s6
   13fb0:	00000593 	li	s9,0
   13fb4:	f11ff06f 	j	13ec4 <_dtoa_r+0xab0>
   13fb8:	00038993 	mv	a1,s5
   13fbc:	00010913 	mv	a0,s0
   13fc0:	190020ef 	jal	16150 <__pow5mult>
   13fc4:	00080393 	mv	s5,v0
   13fc8:	c25ff06f 	j	13bec <_dtoa_r+0x7d8>
   13fcc:	02072b03 	lw	a4,32(sp)
   13fd0:	3c0b0463 	beqz	a4,14398 <_dtoa_r+0xf84>
   13fd4:	01c72a83 	lw	a3,28(sp)
   13fd8:	43380813 	add	v0,v0,1075
   13fdc:	01872883 	lw	v1,24(sp)
   13fe0:	03572223 	sw	a3,36(sp)
   13fe4:	b05ff06f 	j	13ae8 <_dtoa_r+0x6d4>
   13fe8:	03005c63 	blez	v0,14020 <_dtoa_r+0xc0c>
   13fec:	00038993 	mv	a1,s5
   13ff0:	00010913 	mv	a0,s0
   13ff4:	00100a13 	li	a2,1
   13ff8:	27c020ef 	jal	16274 <__lshift>
   13ffc:	01872983 	lw	a1,24(sp)
   14000:	00080913 	mv	a0,v0
   14004:	00080393 	mv	s5,v0
   14008:	3cc020ef 	jal	163d4 <__mcmp>
   1400c:	43005c63 	blez	v0,14444 <_dtoa_r+0x1030>
   14010:	03900813 	li	v0,57
   14014:	3b060663 	beq	s10,v0,143c0 <_dtoa_r+0xfac>
   14018:	02472a83 	lw	a3,36(sp)
   1401c:	031a8613 	add	s10,a3,49
   14020:	00c68023 	sb	s10,0(s11)
   14024:	02472023 	sw	s2,32(sp)
   14028:	00168693 	add	s11,s11,1
   1402c:	e99ff06f 	j	13ec4 <_dtoa_r+0xab0>
   14030:	00088993 	mv	a1,v1
   14034:	00038913 	mv	a0,s5
   14038:	01172823 	sw	v1,16(sp)
   1403c:	398020ef 	jal	163d4 <__mcmp>
   14040:	01072883 	lw	v1,16(sp)
   14044:	ce9ff06f 	j	13d2c <_dtoa_r+0x918>
   14048:	00058993 	mv	a1,s9
   1404c:	00010913 	mv	a0,s0
   14050:	00a00a13 	li	a2,10
   14054:	00000a93 	li	a3,0
   14058:	379010ef 	jal	15bd0 <__multadd>
   1405c:	00080593 	mv	s9,v0
   14060:	00080213 	mv	s2,v0
   14064:	d65ff06f 	j	13dc8 <_dtoa_r+0x9b4>
   14068:	958fb887 	fld	fv1,-1704(gp) # 1b468 <__wctomb+0x140>
   1406c:	720a8953 	fcvt.d.w	fa0,a3
   14070:	fcc00a37 	lui	a2,0xfcc00
   14074:	8b0978c3 	fmadd.d	fv1,fa0,fv0,fv1
   14078:	01173427 	fsd	fv1,8(sp)
   1407c:	00c72983 	lw	a1,12(sp)
   14080:	00872903 	lw	a0,8(sp)
   14084:	013a09b3 	add	a1,a2,a1
   14088:	14051a63 	bnez	s8,141dc <_dtoa_r+0xdc8>
   1408c:	01272423 	sw	a0,8(sp)
   14090:	960fb907 	fld	fa0,-1696(gp) # 1b470 <__wctomb+0x148>
   14094:	01372623 	sw	a1,12(sp)
   14098:	00873887 	fld	fv1,8(sp)
   1409c:	0b287853 	fsub.d	fv0,fv0,fa0
   140a0:	b3088953 	flt.d	a0,fv1,fv0
   140a4:	22091263 	bnez	a0,142c8 <_dtoa_r+0xeb4>
   140a8:	331888d3 	fneg.d	fv1,fv1
   140ac:	b3180953 	flt.d	a0,fv0,fv1
   140b0:	16090063 	beqz	a0,14210 <_dtoa_r+0xdfc>
   140b4:	00072c23 	sw	zero,24(sp)
   140b8:	02072023 	sw	zero,32(sp)
   140bc:	eedff06f 	j	13fa8 <_dtoa_r+0xb94>
   140c0:	00100b13 	li	a4,1
   140c4:	00100893 	li	v1,1
   140c8:	03672a23 	sw	a4,52(sp)
   140cc:	00100513 	li	s8,1
   140d0:	00100213 	li	s2,1
   140d4:	04012223 	sw	zero,68(s0)
   140d8:	00000993 	li	a1,0
   140dc:	e58ff06f 	j	13734 <_dtoa_r+0x320>
   140e0:	01872b03 	lw	a4,24(sp)
   140e4:	010b2803 	lw	v0,16(a4)
   140e8:	00380813 	add	v0,v0,3
   140ec:	00281813 	sll	v0,v0,0x2
   140f0:	010b0833 	add	v0,a4,v0
   140f4:	00482903 	lw	a0,4(v0)
   140f8:	4f5010ef 	jal	15dec <__hi0bits>
   140fc:	02000893 	li	v1,32
   14100:	41088833 	sub	v0,v1,v0
   14104:	b2dff06f 	j	13c30 <_dtoa_r+0x81c>
   14108:	b0061ee3 	bnez	s10,13c24 <_dtoa_r+0x810>
   1410c:	001008b7 	lui	v1,0x100
   14110:	fff88893 	add	v1,v1,-1
   14114:	0116f8b3 	and	v1,s11,v1
   14118:	b00896e3 	bnez	v1,13c24 <_dtoa_r+0x810>
   1411c:	7ff008b7 	lui	v1,0x7ff00
   14120:	0116f833 	and	v0,s11,v1
   14124:	b00800e3 	beqz	v0,13c24 <_dtoa_r+0x810>
   14128:	01c72a83 	lw	a3,28(sp)
   1412c:	00100b13 	li	a4,1
   14130:	00158593 	add	s9,s9,1
   14134:	001a8a93 	add	a3,a3,1
   14138:	01572e23 	sw	a3,28(sp)
   1413c:	03672e23 	sw	a4,60(sp)
   14140:	ae5ff06f 	j	13c24 <_dtoa_r+0x810>
   14144:	0031a813 	slt	v0,s1,3
   14148:	b4081ae3 	bnez	v0,13c9c <_dtoa_r+0x888>
   1414c:	e4051ee3 	bnez	s8,13fa8 <_dtoa_r+0xb94>
   14150:	01872983 	lw	a1,24(sp)
   14154:	00010913 	mv	a0,s0
   14158:	00500a13 	li	a2,5
   1415c:	00000a93 	li	a3,0
   14160:	271010ef 	jal	15bd0 <__multadd>
   14164:	00080993 	mv	a1,v0
   14168:	00038913 	mv	a0,s5
   1416c:	01072c23 	sw	v0,24(sp)
   14170:	264020ef 	jal	163d4 <__mcmp>
   14174:	e3005ae3 	blez	v0,13fa8 <_dtoa_r+0xb94>
   14178:	03100813 	li	v0,49
   1417c:	01040023 	sb	v0,0(s6)
   14180:	00140693 	add	s11,s6,1
   14184:	00148493 	add	s7,s7,1
   14188:	00000593 	li	s9,0
   1418c:	d39ff06f 	j	13ec4 <_dtoa_r+0xab0>
   14190:	01872a03 	lw	a2,24(sp)
   14194:	00038993 	mv	a1,s5
   14198:	00010913 	mv	a0,s0
   1419c:	7b5010ef 	jal	16150 <__pow5mult>
   141a0:	00080393 	mv	s5,v0
   141a4:	a49ff06f 	j	13bec <_dtoa_r+0x7d8>
   141a8:	02072623 	sw	zero,44(sp)
   141ac:	d3cff06f 	j	136e8 <_dtoa_r+0x2d4>
   141b0:	00100b13 	li	a4,1
   141b4:	03672623 	sw	a4,44(sp)
   141b8:	d51ff06f 	j	13f08 <_dtoa_r+0xaf4>
   141bc:	01872b03 	lw	a4,24(sp)
   141c0:	02872a83 	lw	a3,40(sp)
   141c4:	01172c23 	sw	v1,24(sp)
   141c8:	41688833 	sub	v0,v1,a4
   141cc:	010a8ab3 	add	a3,a3,v0
   141d0:	03572423 	sw	a3,40(sp)
   141d4:	00000893 	li	v1,0
   141d8:	901ff06f 	j	13ad8 <_dtoa_r+0x6c4>
   141dc:	00048a93 	mv	a3,s7
   141e0:	00050a13 	mv	a2,s8
   141e4:	e54ff06f 	j	13838 <_dtoa_r+0x424>
   141e8:	00081663 	bnez	v0,141f4 <_dtoa_r+0xde0>
   141ec:	00167613 	and	s10,s10,1
   141f0:	ca0614e3 	bnez	s10,13e98 <_dtoa_r+0xa84>
   141f4:	03000913 	li	a0,48
   141f8:	0080006f 	j	14200 <_dtoa_r+0xdec>
   141fc:	00088693 	mv	s11,v1
   14200:	fff6c803 	lbu	v0,-1(s11)
   14204:	fff68893 	add	v1,s11,-1
   14208:	ff280ae3 	beq	v0,a0,141fc <_dtoa_r+0xde8>
   1420c:	cb9ff06f 	j	13ec4 <_dtoa_r+0xab0>
   14210:	00080613 	mv	s10,v0
   14214:	00088693 	mv	s11,v1
   14218:	f98ff06f 	j	139b0 <_dtoa_r+0x59c>
   1421c:	40900933 	neg	a0,s7
   14220:	00200a93 	li	a3,2
   14224:	dc090063 	beqz	a0,137e4 <_dtoa_r+0x3d0>
   14228:	00f97a13 	and	a2,a0,15
   1422c:	00006997 	auipc	a1,0x6
   14230:	003a1a13 	sll	a2,a2,0x3
   14234:	9f898993 	add	a1,a1,-1544 # 199f8 <__mprec_tens>
   14238:	013a09b3 	add	a1,a2,a1
   1423c:	0009b887 	fld	fv1,0(a1)
   14240:	40495913 	sra	a0,a0,0x4
   14244:	13187853 	fmul.d	fv0,fv0,fv1
   14248:	d8090e63 	beqz	a0,137e4 <_dtoa_r+0x3d0>
   1424c:	00006997 	auipc	a1,0x6
   14250:	ae898993 	add	a1,a1,-1304 # 19ae8 <__mprec_bigtens>
   14254:	00197a13 	and	a2,a0,1
   14258:	40195913 	sra	a0,a0,0x1
   1425c:	000a0863 	beqz	a2,1426c <_dtoa_r+0xe58>
   14260:	0009b887 	fld	fv1,0(a1)
   14264:	001a8a93 	add	a3,a3,1
   14268:	13187853 	fmul.d	fv0,fv0,fv1
   1426c:	00898993 	add	a1,a1,8
   14270:	fe0912e3 	bnez	a0,14254 <_dtoa_r+0xe40>
   14274:	d70ff06f 	j	137e4 <_dtoa_r+0x3d0>
   14278:	00422983 	lw	a1,4(s2)
   1427c:	00010913 	mv	a0,s0
   14280:	085010ef 	jal	15b04 <_Balloc>
   14284:	02072b03 	lw	a4,32(sp)
   14288:	00080213 	mv	s2,v0
   1428c:	00c80913 	add	a0,v0,12
   14290:	010b2a03 	lw	a2,16(a4)
   14294:	00cb0993 	add	a1,a4,12
   14298:	002a0a13 	add	a2,a2,2
   1429c:	002a1a13 	sll	a2,a2,0x2
   142a0:	678010ef 	jal	15918 <memcpy>
   142a4:	00020993 	mv	a1,s2
   142a8:	00010913 	mv	a0,s0
   142ac:	00100a13 	li	a2,1
   142b0:	7c5010ef 	jal	16274 <__lshift>
   142b4:	00080213 	mv	s2,v0
   142b8:	a15ff06f 	j	13ccc <_dtoa_r+0x8b8>
   142bc:	00188893 	add	v1,v1,1
   142c0:	ff168fa3 	sb	v1,-1(s11)
   142c4:	c01ff06f 	j	13ec4 <_dtoa_r+0xab0>
   142c8:	00072c23 	sw	zero,24(sp)
   142cc:	02072023 	sw	zero,32(sp)
   142d0:	ea9ff06f 	j	14178 <_dtoa_r+0xd64>
   142d4:	00006b17 	auipc	a4,0x6
   142d8:	003b9c13 	sll	a6,a5,0x3
   142dc:	9f8b0b13 	add	a4,a4,-1544 # 199f8 <__mprec_tens>
   142e0:	01272423 	sw	a0,8(sp)
   142e4:	016c0b33 	add	a4,a6,a4
   142e8:	01372623 	sw	a1,12(sp)
   142ec:	000b3987 	fld	fa1,0(a4)
   142f0:	00873907 	fld	fa0,8(sp)
   142f4:	52081b53 	fcvt.w.d	a4,fv0,rtz
   142f8:	720b08d3 	fcvt.d.w	fv1,a4
   142fc:	00100913 	li	a0,1
   14300:	030b0b13 	add	a4,a4,48
   14304:	1329f9d3 	fmul.d	fa1,fa1,fa0
   14308:	0b187853 	fsub.d	fv0,fv0,fv1
   1430c:	01640023 	sb	a4,0(s6)
   14310:	00140693 	add	s11,s6,1
   14314:	032a0a63 	beq	a2,a0,14348 <_dtoa_r+0xf34>
   14318:	950fb907 	fld	fa0,-1712(gp) # 1b460 <__wctomb+0x138>
   1431c:	01440a33 	add	a2,s6,a2
   14320:	00068913 	mv	a0,s11
   14324:	13287853 	fmul.d	fv0,fv0,fa0
   14328:	520819d3 	fcvt.w.d	a1,fv0,rtz
   1432c:	03098b13 	add	a4,a1,48
   14330:	720988d3 	fcvt.d.w	fv1,a1
   14334:	01690023 	sb	a4,0(a0)
   14338:	00190913 	add	a0,a0,1
   1433c:	0b187853 	fsub.d	fv0,fv0,fv1
   14340:	ff4912e3 	bne	a0,a2,14324 <_dtoa_r+0xf10>
   14344:	017686b3 	add	s11,s11,a5
   14348:	860fb887 	fld	fv1,-1952(gp) # 1b370 <__wctomb+0x48>
   1434c:	0319f953 	fadd.d	fa0,fa1,fv1
   14350:	b3090953 	flt.d	a0,fa0,fv0
   14354:	08090263 	beqz	a0,143d8 <_dtoa_r+0xfc4>
   14358:	fff6c903 	lbu	a0,-1(s11)
   1435c:	000a8493 	mv	s7,a3
   14360:	f20ff06f 	j	13a80 <_dtoa_r+0x66c>
   14364:	03900813 	li	v0,57
   14368:	05060c63 	beq	s10,v0,143c0 <_dtoa_r+0xfac>
   1436c:	00160613 	add	s10,s10,1
   14370:	cb1ff06f 	j	14020 <_dtoa_r+0xc0c>
   14374:	02472023 	sw	s2,32(sp)
   14378:	afdff06f 	j	13e74 <_dtoa_r+0xa60>
   1437c:	01c72b03 	lw	a4,28(sp)
   14380:	00000813 	li	v0,0
   14384:	40ab0b33 	sub	a4,a4,s8
   14388:	03672223 	sw	a4,36(sp)
   1438c:	f5cff06f 	j	13ae8 <_dtoa_r+0x6d4>
   14390:	00100513 	li	s8,1
   14394:	ad9ff06f 	j	13e6c <_dtoa_r+0xa58>
   14398:	04872803 	lw	v0,72(sp)
   1439c:	01c72b03 	lw	a4,28(sp)
   143a0:	03600913 	li	a0,54
   143a4:	01872883 	lw	v1,24(sp)
   143a8:	41090833 	sub	v0,a0,v0
   143ac:	03672223 	sw	a4,36(sp)
   143b0:	f38ff06f 	j	13ae8 <_dtoa_r+0x6d4>
   143b4:	00190813 	add	v0,a0,1
   143b8:	0ff87813 	and	v0,v0,255
   143bc:	ef0ff06f 	j	13aac <_dtoa_r+0x698>
   143c0:	03900813 	li	v0,57
   143c4:	01068023 	sb	v0,0(s11)
   143c8:	02472023 	sw	s2,32(sp)
   143cc:	00168693 	add	s11,s11,1
   143d0:	03900893 	li	v1,57
   143d4:	ac9ff06f 	j	13e9c <_dtoa_r+0xa88>
   143d8:	0b38f8d3 	fsub.d	fv1,fv1,fa1
   143dc:	03000913 	li	a0,48
   143e0:	b31809d3 	flt.d	a1,fv0,fv1
   143e4:	00099663 	bnez	a1,143f0 <_dtoa_r+0xfdc>
   143e8:	e29ff06f 	j	14210 <_dtoa_r+0xdfc>
   143ec:	00088693 	mv	s11,v1
   143f0:	fff6c803 	lbu	v0,-1(s11)
   143f4:	fff68893 	add	v1,s11,-1
   143f8:	ff280ae3 	beq	v0,a0,143ec <_dtoa_r+0xfd8>
   143fc:	000a8493 	mv	s7,a3
   14400:	cf8ff06f 	j	138f8 <_dtoa_r+0x4e4>
   14404:	03900813 	li	v0,57
   14408:	fb060ce3 	beq	s10,v0,143c0 <_dtoa_r+0xfac>
   1440c:	01c72883 	lw	v1,28(sp)
   14410:	c11044e3 	bgtz	v1,14018 <_dtoa_r+0xc04>
   14414:	c0dff06f 	j	14020 <_dtoa_r+0xc0c>
   14418:	000a8493 	mv	s7,a3
   1441c:	e64ff06f 	j	13a80 <_dtoa_r+0x66c>
   14420:	958fb887 	fld	fv1,-1704(gp) # 1b468 <__wctomb+0x140>
   14424:	720a8953 	fcvt.d.w	fa0,a3
   14428:	fcc00a37 	lui	a2,0xfcc00
   1442c:	8b2878c3 	fmadd.d	fv1,fv0,fa0,fv1
   14430:	01173427 	fsd	fv1,8(sp)
   14434:	00c72983 	lw	a1,12(sp)
   14438:	00872903 	lw	a0,8(sp)
   1443c:	013a09b3 	add	a1,a2,a1
   14440:	c4dff06f 	j	1408c <_dtoa_r+0xc78>
   14444:	bc081ee3 	bnez	v0,14020 <_dtoa_r+0xc0c>
   14448:	00167813 	and	v0,s10,1
   1444c:	bc080ae3 	beqz	v0,14020 <_dtoa_r+0xc0c>
   14450:	bc1ff06f 	j	14010 <_dtoa_r+0xbfc>
   14454:	00400893 	li	v1,4
   14458:	811902e3 	beq	a0,v1,13c5c <_dtoa_r+0x848>
   1445c:	03c00893 	li	v1,60
   14460:	410888b3 	sub	v1,v1,v0
   14464:	fdcff06f 	j	13c40 <_dtoa_r+0x82c>

00014468 <_fflush_r>:
   14468:	fe070713 	add	sp,sp,-32
   1446c:	00272c23 	sw	s0,24(sp)
   14470:	00372a23 	sw	s1,20(sp)
   14474:	00172e23 	sw	ra,28(sp)
   14478:	00472823 	sw	s2,16(sp)
   1447c:	00572623 	sw	s3,12(sp)
   14480:	00090193 	mv	s1,a0
   14484:	00098113 	mv	s0,a1
   14488:	00090663 	beqz	a0,14494 <_fflush_r+0x2c>
   1448c:	03892803 	lw	v0,56(a0)
   14490:	1a080863 	beqz	v0,14640 <_fflush_r+0x1d8>
   14494:	00c11883 	lh	v1,12(s0)
   14498:	00000813 	li	v0,0
   1449c:	10088e63 	beqz	v1,145b8 <_fflush_r+0x150>
   144a0:	0088f913 	and	a0,v1,8
   144a4:	12091863 	bnez	a0,145d4 <_fflush_r+0x16c>
   144a8:	000019b7 	lui	a1,0x1
   144ac:	00412903 	lw	a0,4(s0)
   144b0:	80098993 	add	a1,a1,-2048
   144b4:	0138e8b3 	or	v1,v1,a1
   144b8:	01111623 	sh	v1,12(s0)
   144bc:	1d205863 	blez	a0,1468c <_fflush_r+0x224>
   144c0:	02812b83 	lw	a5,40(s0)
   144c4:	00000813 	li	v0,0
   144c8:	0e0b8863 	beqz	a5,145b8 <_fflush_r+0x150>
   144cc:	01089893 	sll	v1,v1,0x10
   144d0:	0108d893 	srl	v1,v1,0x10
   144d4:	00001837 	lui	v0,0x1
   144d8:	0108f833 	and	v0,v1,v0
   144dc:	0001a203 	lw	s2,0(s1)
   144e0:	0001a023 	sw	zero,0(s1)
   144e4:	16080663 	beqz	v0,14650 <_fflush_r+0x1e8>
   144e8:	05012a03 	lw	a2,80(s0)
   144ec:	41fa5a93 	sra	a3,a2,0x1f
   144f0:	0048f893 	and	v1,v1,4
   144f4:	04088263 	beqz	v1,14538 <_fflush_r+0xd0>
   144f8:	00412883 	lw	v1,4(s0)
   144fc:	03012903 	lw	a0,48(s0)
   14500:	411a0833 	sub	v0,a2,v1
   14504:	41f8d893 	sra	v1,v1,0x1f
   14508:	010a39b3 	sltu	a1,a2,v0
   1450c:	411a8ab3 	sub	a3,a3,v1
   14510:	00080a13 	mv	a2,v0
   14514:	413a8ab3 	sub	a3,a3,a1
   14518:	02090063 	beqz	a0,14538 <_fflush_r+0xd0>
   1451c:	03c12883 	lw	v1,60(s0)
   14520:	41180833 	sub	v0,v0,v1
   14524:	41f8d893 	sra	v1,v1,0x1f
   14528:	010a3933 	sltu	a0,a2,v0
   1452c:	411a8ab3 	sub	a3,a3,v1
   14530:	00080a13 	mv	a2,v0
   14534:	412a8ab3 	sub	a3,a3,a0
   14538:	01c12983 	lw	a1,28(s0)
   1453c:	00018913 	mv	a0,s1
   14540:	00000b13 	li	a4,0
   14544:	000b80e7 	jalr	a5
   14548:	fff00913 	li	a0,-1
   1454c:	15280663 	beq	v0,a0,14698 <_fflush_r+0x230>
   14550:	00c15983 	lhu	a1,12(s0)
   14554:	fffff937 	lui	a0,0xfffff
   14558:	7ff90913 	add	a0,a0,2047
   1455c:	0129f933 	and	a0,a1,a0
   14560:	01012a03 	lw	a2,16(s0)
   14564:	01091913 	sll	a0,a0,0x10
   14568:	41095913 	sra	a0,a0,0x10
   1456c:	000019b7 	lui	a1,0x1
   14570:	013979b3 	and	a1,a0,a1
   14574:	01211623 	sh	a0,12(s0)
   14578:	00012223 	sw	zero,4(s0)
   1457c:	01412023 	sw	a2,0(s0)
   14580:	00098863 	beqz	a1,14590 <_fflush_r+0x128>
   14584:	fff00913 	li	a0,-1
   14588:	13280863 	beq	v0,a0,146b8 <_fflush_r+0x250>
   1458c:	05012823 	sw	v0,80(s0)
   14590:	03012983 	lw	a1,48(s0)
   14594:	00000813 	li	v0,0
   14598:	0041a023 	sw	s2,0(s1)
   1459c:	00098e63 	beqz	a1,145b8 <_fflush_r+0x150>
   145a0:	04010813 	add	v0,s0,64
   145a4:	01098663 	beq	a1,v0,145b0 <_fflush_r+0x148>
   145a8:	00018913 	mv	a0,s1
   145ac:	55c000ef 	jal	14b08 <_free_r>
   145b0:	02012823 	sw	zero,48(s0)
   145b4:	00000813 	li	v0,0
   145b8:	01c72083 	lw	ra,28(sp)
   145bc:	01872103 	lw	s0,24(sp)
   145c0:	01472183 	lw	s1,20(sp)
   145c4:	01072203 	lw	s2,16(sp)
   145c8:	00c72283 	lw	s3,12(sp)
   145cc:	02070713 	add	sp,sp,32
   145d0:	00008067 	ret
   145d4:	01012283 	lw	s3,16(s0)
   145d8:	fe0280e3 	beqz	s3,145b8 <_fflush_r+0x150>
   145dc:	00012203 	lw	s2,0(s0)
   145e0:	0038f893 	and	v1,v1,3
   145e4:	00512023 	sw	s3,0(s0)
   145e8:	40520233 	sub	s2,s2,s3
   145ec:	00000813 	li	v0,0
   145f0:	04088c63 	beqz	v1,14648 <_fflush_r+0x1e0>
   145f4:	01012423 	sw	v0,8(s0)
   145f8:	00000813 	li	v0,0
   145fc:	00404863 	bgtz	s2,1460c <_fflush_r+0x1a4>
   14600:	fb9ff06f 	j	145b8 <_fflush_r+0x150>
   14604:	010282b3 	add	s3,s3,v0
   14608:	06405e63 	blez	s2,14684 <_fflush_r+0x21c>
   1460c:	02412803 	lw	v0,36(s0)
   14610:	01c12983 	lw	a1,28(s0)
   14614:	00020a93 	mv	a3,s2
   14618:	00028a13 	mv	a2,s3
   1461c:	00018913 	mv	a0,s1
   14620:	000800e7 	jalr	v0
   14624:	41020233 	sub	s2,s2,v0
   14628:	fd004ee3 	bgtz	v0,14604 <_fflush_r+0x19c>
   1462c:	00c15883 	lhu	v1,12(s0)
   14630:	fff00813 	li	v0,-1
   14634:	0408e893 	or	v1,v1,64
   14638:	01111623 	sh	v1,12(s0)
   1463c:	f7dff06f 	j	145b8 <_fflush_r+0x150>
   14640:	1f0000ef 	jal	14830 <__sinit>
   14644:	e51ff06f 	j	14494 <_fflush_r+0x2c>
   14648:	01412803 	lw	v0,20(s0)
   1464c:	fa9ff06f 	j	145f4 <_fflush_r+0x18c>
   14650:	01c12983 	lw	a1,28(s0)
   14654:	00000a13 	li	a2,0
   14658:	00000a93 	li	a3,0
   1465c:	00018913 	mv	a0,s1
   14660:	00100b13 	li	a4,1
   14664:	000b80e7 	jalr	a5
   14668:	00080a13 	mv	a2,v0
   1466c:	fff00813 	li	v0,-1
   14670:	00088a93 	mv	a3,v1
   14674:	050a0a63 	beq	a2,v0,146c8 <_fflush_r+0x260>
   14678:	00c15883 	lhu	v1,12(s0)
   1467c:	02812b83 	lw	a5,40(s0)
   14680:	e71ff06f 	j	144f0 <_fflush_r+0x88>
   14684:	00000813 	li	v0,0
   14688:	f31ff06f 	j	145b8 <_fflush_r+0x150>
   1468c:	03c12903 	lw	a0,60(s0)
   14690:	e32048e3 	bgtz	a0,144c0 <_fflush_r+0x58>
   14694:	f25ff06f 	j	145b8 <_fflush_r+0x150>
   14698:	eb089ce3 	bne	v1,v0,14550 <_fflush_r+0xe8>
   1469c:	0001a903 	lw	a0,0(s1)
   146a0:	ea0908e3 	beqz	a0,14550 <_fflush_r+0xe8>
   146a4:	01d00993 	li	a1,29
   146a8:	eb3904e3 	beq	a0,a1,14550 <_fflush_r+0xe8>
   146ac:	01600993 	li	a1,22
   146b0:	eb3900e3 	beq	a0,a1,14550 <_fflush_r+0xe8>
   146b4:	f79ff06f 	j	1462c <_fflush_r+0x1c4>
   146b8:	ed089ae3 	bne	v1,v0,1458c <_fflush_r+0x124>
   146bc:	0001a883 	lw	v1,0(s1)
   146c0:	ec0898e3 	bnez	v1,14590 <_fflush_r+0x128>
   146c4:	ec9ff06f 	j	1458c <_fflush_r+0x124>
   146c8:	fb4898e3 	bne	v1,a2,14678 <_fflush_r+0x210>
   146cc:	0001a803 	lw	v0,0(s1)
   146d0:	fa0804e3 	beqz	v0,14678 <_fflush_r+0x210>
   146d4:	01d00893 	li	v1,29
   146d8:	01180663 	beq	v0,v1,146e4 <_fflush_r+0x27c>
   146dc:	01600893 	li	v1,22
   146e0:	f51816e3 	bne	v0,v1,1462c <_fflush_r+0x1c4>
   146e4:	0041a023 	sw	s2,0(s1)
   146e8:	00000813 	li	v0,0
   146ec:	ecdff06f 	j	145b8 <_fflush_r+0x150>

000146f0 <fflush>:
   146f0:	00090993 	mv	a1,a0
   146f4:	00090663 	beqz	a0,14700 <fflush+0x10>
   146f8:	808fa903 	lw	a0,-2040(gp) # 1b318 <_impure_ptr>
   146fc:	d6dff06f 	j	14468 <_fflush_r>
   14700:	804fa903 	lw	a0,-2044(gp) # 1b314 <_global_impure_ptr>
   14704:	00000997 	auipc	a1,0x0
   14708:	46898993 	add	a1,a1,1128 # 14468 <_fflush_r>
   1470c:	7240006f 	j	14e30 <_fwalk_reent>

00014710 <__fp_lock>:
   14710:	00000813 	li	v0,0
   14714:	00008067 	ret

00014718 <__fp_unlock>:
   14718:	00000813 	li	v0,0
   1471c:	00008067 	ret

00014720 <_cleanup_r>:
   14720:	00004997 	auipc	a1,0x4
   14724:	e4098993 	add	a1,a1,-448 # 17e40 <fclose>
   14728:	6640006f 	j	14d8c <_fwalk>

0001472c <std.isra.0>:
   1472c:	ff070713 	add	sp,sp,-16
   14730:	00172623 	sw	ra,12(sp)
   14734:	00272423 	sw	s0,8(sp)
   14738:	00090113 	mv	s0,a0
   1473c:	01391623 	sh	a1,12(a0)
   14740:	01491723 	sh	a2,14(a0)
   14744:	00092023 	sw	zero,0(a0)
   14748:	00092223 	sw	zero,4(a0)
   1474c:	00092423 	sw	zero,8(a0)
   14750:	06092223 	sw	zero,100(a0)
   14754:	00092823 	sw	zero,16(a0)
   14758:	00092a23 	sw	zero,20(a0)
   1475c:	00092c23 	sw	zero,24(a0)
   14760:	00000993 	li	a1,0
   14764:	05c90913 	add	a0,a0,92
   14768:	00800a13 	li	a2,8
   1476c:	29c010ef 	jal	15a08 <memset>
   14770:	00003817 	auipc	v0,0x3
   14774:	b6080813 	add	v0,v0,-1184 # 16b60 <__sread>
   14778:	03012023 	sw	v0,32(s0)
   1477c:	00003817 	auipc	v0,0x3
   14780:	bcc80813 	add	v0,v0,-1076 # 16bcc <__swrite>
   14784:	03012223 	sw	v0,36(s0)
   14788:	00003817 	auipc	v0,0x3
   1478c:	c4480813 	add	v0,v0,-956 # 16c44 <__sseek>
   14790:	00c72083 	lw	ra,12(sp)
   14794:	03012423 	sw	v0,40(s0)
   14798:	00003817 	auipc	v0,0x3
   1479c:	cac80813 	add	v0,v0,-852 # 16cac <__sclose>
   147a0:	00212e23 	sw	s0,28(s0)
   147a4:	03012623 	sw	v0,44(s0)
   147a8:	00872103 	lw	s0,8(sp)
   147ac:	01070713 	add	sp,sp,16
   147b0:	00008067 	ret

000147b4 <__sfmoreglue>:
   147b4:	ff070713 	add	sp,sp,-16
   147b8:	00299813 	sll	v0,a1,0x2
   147bc:	00472023 	sw	s2,0(sp)
   147c0:	00499213 	sll	s2,a1,0x4
   147c4:	41020233 	sub	s2,s2,v0
   147c8:	01320233 	add	s2,s2,a1
   147cc:	00321213 	sll	s2,s2,0x3
   147d0:	00372223 	sw	s1,4(sp)
   147d4:	00098193 	mv	s1,a1
   147d8:	00c20993 	add	a1,s2,12
   147dc:	00272423 	sw	s0,8(sp)
   147e0:	00172623 	sw	ra,12(sp)
   147e4:	16d000ef 	jal	15150 <_malloc_r>
   147e8:	00080113 	mv	s0,v0
   147ec:	02080063 	beqz	v0,1480c <__sfmoreglue+0x58>
   147f0:	00c80913 	add	a0,v0,12
   147f4:	00082023 	sw	zero,0(v0)
   147f8:	00382223 	sw	s1,4(v0)
   147fc:	01282423 	sw	a0,8(v0)
   14800:	00000993 	li	a1,0
   14804:	00020a13 	mv	a2,s2
   14808:	200010ef 	jal	15a08 <memset>
   1480c:	00c72083 	lw	ra,12(sp)
   14810:	00010813 	mv	v0,s0
   14814:	00472183 	lw	s1,4(sp)
   14818:	00872103 	lw	s0,8(sp)
   1481c:	00072203 	lw	s2,0(sp)
   14820:	01070713 	add	sp,sp,16
   14824:	00008067 	ret

00014828 <_cleanup>:
   14828:	804fa903 	lw	a0,-2044(gp) # 1b314 <_global_impure_ptr>
   1482c:	ef5ff06f 	j	14720 <_cleanup_r>

00014830 <__sinit>:
   14830:	03892803 	lw	v0,56(a0)
   14834:	ff070713 	add	sp,sp,-16
   14838:	00272423 	sw	s0,8(sp)
   1483c:	00172623 	sw	ra,12(sp)
   14840:	00090113 	mv	s0,a0
   14844:	00080a63 	beqz	v0,14858 <__sinit+0x28>
   14848:	00c72083 	lw	ra,12(sp)
   1484c:	00872103 	lw	s0,8(sp)
   14850:	01070713 	add	sp,sp,16
   14854:	00008067 	ret
   14858:	00000897 	auipc	v1,0x0
   1485c:	72088893 	add	v1,v1,1824 # 14720 <_cleanup_r>
   14860:	03112e23 	sw	v1,60(s0)
   14864:	00492903 	lw	a0,4(a0)
   14868:	00100893 	li	v1,1
   1486c:	2ec10813 	add	v0,s0,748
   14870:	03112c23 	sw	v1,56(s0)
   14874:	00300893 	li	v1,3
   14878:	2f112223 	sw	v1,740(s0)
   1487c:	2f012423 	sw	v0,744(s0)
   14880:	00400993 	li	a1,4
   14884:	00000a13 	li	a2,0
   14888:	2e012023 	sw	zero,736(s0)
   1488c:	ea1ff0ef 	jal	1472c <std.isra.0>
   14890:	00812903 	lw	a0,8(s0)
   14894:	00900993 	li	a1,9
   14898:	00100a13 	li	a2,1
   1489c:	e91ff0ef 	jal	1472c <std.isra.0>
   148a0:	00c12903 	lw	a0,12(s0)
   148a4:	00c72083 	lw	ra,12(sp)
   148a8:	00872103 	lw	s0,8(sp)
   148ac:	01200993 	li	a1,18
   148b0:	00200a13 	li	a2,2
   148b4:	01070713 	add	sp,sp,16
   148b8:	e75ff06f 	j	1472c <std.isra.0>

000148bc <__sfp>:
   148bc:	fe070713 	add	sp,sp,-32
   148c0:	00472823 	sw	s2,16(sp)
   148c4:	804fa203 	lw	s2,-2044(gp) # 1b314 <_global_impure_ptr>
   148c8:	00572623 	sw	s3,12(sp)
   148cc:	00172e23 	sw	ra,28(sp)
   148d0:	03822803 	lw	v0,56(s2)
   148d4:	00272c23 	sw	s0,24(sp)
   148d8:	00372a23 	sw	s1,20(sp)
   148dc:	00090293 	mv	s3,a0
   148e0:	0c080463 	beqz	v0,149a8 <__sfp+0xec>
   148e4:	2e020213 	add	s2,s2,736
   148e8:	fff00193 	li	s1,-1
   148ec:	00422803 	lw	v0,4(s2)
   148f0:	00822903 	lw	a0,8(s2)
   148f4:	fff80813 	add	v0,v0,-1
   148f8:	02084a63 	bltz	v0,1492c <__sfp+0x70>
   148fc:	00c91883 	lh	v1,12(a0)
   14900:	00090113 	mv	s0,a0
   14904:	02088c63 	beqz	v1,1493c <__sfp+0x80>
   14908:	06890993 	add	a1,a0,104
   1490c:	00c0006f 	j	14918 <__sfp+0x5c>
   14910:	fa489883 	lh	v1,-92(v1)
   14914:	02088463 	beqz	v1,1493c <__sfp+0x80>
   14918:	06810113 	add	s0,s0,104
   1491c:	412108b3 	sub	v1,s0,a0
   14920:	fff80813 	add	v0,v0,-1
   14924:	013888b3 	add	v1,v1,a1
   14928:	fe3814e3 	bne	v0,s1,14910 <__sfp+0x54>
   1492c:	00022803 	lw	v0,0(s2)
   14930:	08080263 	beqz	v0,149b4 <__sfp+0xf8>
   14934:	00080213 	mv	s2,v0
   14938:	fb5ff06f 	j	148ec <__sfp+0x30>
   1493c:	fff00813 	li	v0,-1
   14940:	01011723 	sh	v0,14(s0)
   14944:	00100813 	li	v0,1
   14948:	01011623 	sh	v0,12(s0)
   1494c:	06012223 	sw	zero,100(s0)
   14950:	00012023 	sw	zero,0(s0)
   14954:	00012423 	sw	zero,8(s0)
   14958:	00012223 	sw	zero,4(s0)
   1495c:	00012823 	sw	zero,16(s0)
   14960:	00012a23 	sw	zero,20(s0)
   14964:	00012c23 	sw	zero,24(s0)
   14968:	05c10913 	add	a0,s0,92
   1496c:	00000993 	li	a1,0
   14970:	00800a13 	li	a2,8
   14974:	094010ef 	jal	15a08 <memset>
   14978:	02012823 	sw	zero,48(s0)
   1497c:	02012a23 	sw	zero,52(s0)
   14980:	04012223 	sw	zero,68(s0)
   14984:	04012423 	sw	zero,72(s0)
   14988:	01c72083 	lw	ra,28(sp)
   1498c:	00010813 	mv	v0,s0
   14990:	01472183 	lw	s1,20(sp)
   14994:	01872103 	lw	s0,24(sp)
   14998:	01072203 	lw	s2,16(sp)
   1499c:	00c72283 	lw	s3,12(sp)
   149a0:	02070713 	add	sp,sp,32
   149a4:	00008067 	ret
   149a8:	00020913 	mv	a0,s2
   149ac:	e85ff0ef 	jal	14830 <__sinit>
   149b0:	f35ff06f 	j	148e4 <__sfp+0x28>
   149b4:	00028913 	mv	a0,s3
   149b8:	00400993 	li	a1,4
   149bc:	df9ff0ef 	jal	147b4 <__sfmoreglue>
   149c0:	01022023 	sw	v0,0(s2)
   149c4:	f60818e3 	bnez	v0,14934 <__sfp+0x78>
   149c8:	00c00813 	li	v0,12
   149cc:	0102a023 	sw	v0,0(s3)
   149d0:	00000113 	li	s0,0
   149d4:	fb5ff06f 	j	14988 <__sfp+0xcc>

000149d8 <__sfp_lock_acquire>:
   149d8:	00008067 	ret

000149dc <__sfp_lock_release>:
   149dc:	00008067 	ret

000149e0 <__sinit_lock_acquire>:
   149e0:	00008067 	ret

000149e4 <__sinit_lock_release>:
   149e4:	00008067 	ret

000149e8 <__fp_lock_all>:
   149e8:	808fa903 	lw	a0,-2040(gp) # 1b318 <_impure_ptr>
   149ec:	00000997 	auipc	a1,0x0
   149f0:	71098993 	add	a1,a1,1808 # 14710 <__fp_lock>
   149f4:	3980006f 	j	14d8c <_fwalk>

000149f8 <__fp_unlock_all>:
   149f8:	808fa903 	lw	a0,-2040(gp) # 1b318 <_impure_ptr>
   149fc:	00000997 	auipc	a1,0x0
   14a00:	71898993 	add	a1,a1,1816 # 14718 <__fp_unlock>
   14a04:	3880006f 	j	14d8c <_fwalk>

00014a08 <_malloc_trim_r>:
   14a08:	fe070713 	add	sp,sp,-32
   14a0c:	00272c23 	sw	s0,24(sp)
   14a10:	00007117 	auipc	s0,0x7
   14a14:	f0810113 	add	s0,s0,-248 # 1af08 <__malloc_av_>
   14a18:	00372a23 	sw	s1,20(sp)
   14a1c:	00472823 	sw	s2,16(sp)
   14a20:	00572623 	sw	s3,12(sp)
   14a24:	00098213 	mv	s2,a1
   14a28:	00090293 	mv	s3,a0
   14a2c:	00172e23 	sw	ra,28(sp)
   14a30:	0cc010ef 	jal	15afc <__malloc_lock>
   14a34:	00812903 	lw	a0,8(s0)
   14a38:	00001837 	lui	v0,0x1
   14a3c:	fef80893 	add	v1,v0,-17
   14a40:	00492183 	lw	s1,4(a0)
   14a44:	ffc1f193 	and	s1,s1,-4
   14a48:	011188b3 	add	v1,s1,v1
   14a4c:	40488233 	sub	s2,v1,s2
   14a50:	00c25213 	srl	s2,s2,0xc
   14a54:	fff20213 	add	s2,s2,-1
   14a58:	00c21213 	sll	s2,s2,0xc
   14a5c:	01024c63 	blt	s2,v0,14a74 <_malloc_trim_r+0x6c>
   14a60:	00000913 	li	a0,0
   14a64:	21d040ef 	jal	19480 <sbrk>
   14a68:	00812883 	lw	v1,8(s0)
   14a6c:	003888b3 	add	v1,v1,s1
   14a70:	03180663 	beq	v0,v1,14a9c <_malloc_trim_r+0x94>
   14a74:	00028913 	mv	a0,s3
   14a78:	088010ef 	jal	15b00 <__malloc_unlock>
   14a7c:	00000813 	li	v0,0
   14a80:	01c72083 	lw	ra,28(sp)
   14a84:	01872103 	lw	s0,24(sp)
   14a88:	01472183 	lw	s1,20(sp)
   14a8c:	01072203 	lw	s2,16(sp)
   14a90:	00c72283 	lw	s3,12(sp)
   14a94:	02070713 	add	sp,sp,32
   14a98:	00008067 	ret
   14a9c:	40400933 	neg	a0,s2
   14aa0:	1e1040ef 	jal	19480 <sbrk>
   14aa4:	fff00893 	li	v1,-1
   14aa8:	03180863 	beq	v0,v1,14ad8 <_malloc_trim_r+0xd0>
   14aac:	9a8fa903 	lw	a0,-1624(gp) # 1b4b8 <__malloc_current_mallinfo>
   14ab0:	00812883 	lw	v1,8(s0)
   14ab4:	404181b3 	sub	s1,s1,s2
   14ab8:	0011e193 	or	s1,s1,1
   14abc:	40490233 	sub	s2,a0,s2
   14ac0:	0038a223 	sw	s1,4(v1)
   14ac4:	00028913 	mv	a0,s3
   14ac8:	9a4fa423 	sw	s2,-1624(gp) # 1b4b8 <__malloc_current_mallinfo>
   14acc:	034010ef 	jal	15b00 <__malloc_unlock>
   14ad0:	00100813 	li	v0,1
   14ad4:	fadff06f 	j	14a80 <_malloc_trim_r+0x78>
   14ad8:	00000913 	li	a0,0
   14adc:	1a5040ef 	jal	19480 <sbrk>
   14ae0:	00812883 	lw	v1,8(s0)
   14ae4:	41180933 	sub	a0,v0,v1
   14ae8:	01092993 	slt	a1,a0,16
   14aec:	f80994e3 	bnez	a1,14a74 <_malloc_trim_r+0x6c>
   14af0:	810fa983 	lw	a1,-2032(gp) # 1b320 <__malloc_sbrk_base>
   14af4:	00196913 	or	a0,a0,1
   14af8:	0128a223 	sw	a0,4(v1)
   14afc:	41380833 	sub	v0,v0,a1
   14b00:	9b0fa423 	sw	v0,-1624(gp) # 1b4b8 <__malloc_current_mallinfo>
   14b04:	f71ff06f 	j	14a74 <_malloc_trim_r+0x6c>

00014b08 <_free_r>:
   14b08:	ff070713 	add	sp,sp,-16
   14b0c:	00272423 	sw	s0,8(sp)
   14b10:	00372223 	sw	s1,4(sp)
   14b14:	00172623 	sw	ra,12(sp)
   14b18:	00098193 	mv	s1,a1
   14b1c:	00090113 	mv	s0,a0
   14b20:	12098463 	beqz	a1,14c48 <_free_r+0x140>
   14b24:	7d9000ef 	jal	15afc <__malloc_lock>
   14b28:	ffc1aa83 	lw	a3,-4(s1)
   14b2c:	ff818913 	add	a0,s1,-8
   14b30:	00007a17 	auipc	a2,0x7
   14b34:	ffeaf813 	and	v0,a3,-2
   14b38:	010908b3 	add	v1,a0,v0
   14b3c:	f08a0a13 	add	a2,a2,-248 # 1af08 <__malloc_av_>
   14b40:	0048a983 	lw	a1,4(v1)
   14b44:	008a2b03 	lw	a4,8(a2)
   14b48:	001afa93 	and	a3,a3,1
   14b4c:	ffc9f993 	and	a1,a1,-4
   14b50:	151b0463 	beq	a4,v1,14c98 <_free_r+0x190>
   14b54:	0138a223 	sw	a1,4(v1)
   14b58:	00000b13 	li	a4,0
   14b5c:	020a9a63 	bnez	a3,14b90 <_free_r+0x88>
   14b60:	ff81ab03 	lw	a4,-8(s1)
   14b64:	00007b97 	auipc	a5,0x7
   14b68:	f10b8b93 	add	a5,a5,-240 # 1af10 <__malloc_av_+0x8>
   14b6c:	41690933 	sub	a0,a0,a4
   14b70:	00892a83 	lw	a3,8(a0)
   14b74:	01680833 	add	v0,v0,a4
   14b78:	00100b13 	li	a4,1
   14b7c:	017a8a63 	beq	a3,a5,14b90 <_free_r+0x88>
   14b80:	00c92b83 	lw	a5,12(a0)
   14b84:	00000b13 	li	a4,0
   14b88:	017aa623 	sw	a5,12(a3)
   14b8c:	015ba423 	sw	a3,8(a5)
   14b90:	01388ab3 	add	a3,v1,a1
   14b94:	004aaa83 	lw	a3,4(a3)
   14b98:	001afa93 	and	a3,a3,1
   14b9c:	020a9463 	bnez	a3,14bc4 <_free_r+0xbc>
   14ba0:	01380833 	add	v0,v0,a1
   14ba4:	0088a983 	lw	a1,8(v1)
   14ba8:	000b1863 	bnez	a4,14bb8 <_free_r+0xb0>
   14bac:	00007a97 	auipc	a3,0x7
   14bb0:	f10a8a93 	add	a3,a3,-240 # 1af10 <__malloc_av_+0x8>
   14bb4:	13598663 	beq	a1,a3,14ce0 <_free_r+0x1d8>
   14bb8:	00c8a883 	lw	v1,12(v1)
   14bbc:	0119a623 	sw	v1,12(a1)
   14bc0:	0138a423 	sw	a1,8(v1)
   14bc4:	00186993 	or	a1,v0,1
   14bc8:	010908b3 	add	v1,a0,v0
   14bcc:	01392223 	sw	a1,4(a0)
   14bd0:	0108a023 	sw	v0,0(v1)
   14bd4:	040b1e63 	bnez	a4,14c30 <_free_r+0x128>
   14bd8:	20083893 	sltu	v1,v0,512
   14bdc:	08089063 	bnez	v1,14c5c <_free_r+0x154>
   14be0:	00985893 	srl	v1,v0,0x9
   14be4:	0058b993 	sltu	a1,v1,5
   14be8:	10098e63 	beqz	a1,14d04 <_free_r+0x1fc>
   14bec:	00685993 	srl	a1,v0,0x6
   14bf0:	03898993 	add	a1,a1,56
   14bf4:	00399a93 	sll	a3,a1,0x3
   14bf8:	015a0ab3 	add	a3,a2,a3
   14bfc:	008aa883 	lw	v1,8(a3)
   14c00:	01589863 	bne	v1,a3,14c10 <_free_r+0x108>
   14c04:	1140006f 	j	14d18 <_free_r+0x210>
   14c08:	0088a883 	lw	v1,8(v1)
   14c0c:	011a8863 	beq	a3,v1,14c1c <_free_r+0x114>
   14c10:	0048a983 	lw	a1,4(v1)
   14c14:	ffc9f993 	and	a1,a1,-4
   14c18:	ff3868e3 	bltu	v0,a1,14c08 <_free_r+0x100>
   14c1c:	00c8a803 	lw	v0,12(v1)
   14c20:	01092623 	sw	v0,12(a0)
   14c24:	01192423 	sw	v1,8(a0)
   14c28:	0128a623 	sw	a0,12(v1)
   14c2c:	01282423 	sw	a0,8(v0)
   14c30:	00010913 	mv	a0,s0
   14c34:	00c72083 	lw	ra,12(sp)
   14c38:	00872103 	lw	s0,8(sp)
   14c3c:	00472183 	lw	s1,4(sp)
   14c40:	01070713 	add	sp,sp,16
   14c44:	6bd0006f 	j	15b00 <__malloc_unlock>
   14c48:	00c72083 	lw	ra,12(sp)
   14c4c:	00872103 	lw	s0,8(sp)
   14c50:	00472183 	lw	s1,4(sp)
   14c54:	01070713 	add	sp,sp,16
   14c58:	00008067 	ret
   14c5c:	00385813 	srl	v0,v0,0x3
   14c60:	00381893 	sll	v1,v0,0x3
   14c64:	011a08b3 	add	v1,a2,v1
   14c68:	004a2a83 	lw	a3,4(a2)
   14c6c:	0088a983 	lw	a1,8(v1)
   14c70:	40285813 	sra	v0,v0,0x2
   14c74:	00100b13 	li	a4,1
   14c78:	010b1833 	sll	v0,a4,v0
   14c7c:	01586833 	or	v0,v0,a3
   14c80:	01192623 	sw	v1,12(a0)
   14c84:	01392423 	sw	a1,8(a0)
   14c88:	010a2223 	sw	v0,4(a2)
   14c8c:	0128a423 	sw	a0,8(v1)
   14c90:	0129a623 	sw	a0,12(a1)
   14c94:	f9dff06f 	j	14c30 <_free_r+0x128>
   14c98:	01098833 	add	v0,a1,v0
   14c9c:	020a9063 	bnez	a3,14cbc <_free_r+0x1b4>
   14ca0:	ff81aa83 	lw	a3,-8(s1)
   14ca4:	41590933 	sub	a0,a0,a3
   14ca8:	00c92883 	lw	v1,12(a0)
   14cac:	00892983 	lw	a1,8(a0)
   14cb0:	01580833 	add	v0,v0,a3
   14cb4:	0119a623 	sw	v1,12(a1)
   14cb8:	0138a423 	sw	a1,8(v1)
   14cbc:	814fa883 	lw	v1,-2028(gp) # 1b324 <__malloc_trim_threshold>
   14cc0:	00186993 	or	a1,v0,1
   14cc4:	01392223 	sw	a1,4(a0)
   14cc8:	012a2423 	sw	a0,8(a2)
   14ccc:	f71862e3 	bltu	v0,v1,14c30 <_free_r+0x128>
   14cd0:	984fa983 	lw	a1,-1660(gp) # 1b494 <__malloc_top_pad>
   14cd4:	00010913 	mv	a0,s0
   14cd8:	d31ff0ef 	jal	14a08 <_malloc_trim_r>
   14cdc:	f55ff06f 	j	14c30 <_free_r+0x128>
   14ce0:	00186a93 	or	a3,v0,1
   14ce4:	010908b3 	add	v1,a0,v0
   14ce8:	012a2a23 	sw	a0,20(a2)
   14cec:	012a2823 	sw	a0,16(a2)
   14cf0:	01392623 	sw	a1,12(a0)
   14cf4:	01392423 	sw	a1,8(a0)
   14cf8:	01592223 	sw	a3,4(a0)
   14cfc:	0108a023 	sw	v0,0(v1)
   14d00:	f31ff06f 	j	14c30 <_free_r+0x128>
   14d04:	0158b993 	sltu	a1,v1,21
   14d08:	02098863 	beqz	a1,14d38 <_free_r+0x230>
   14d0c:	05b88993 	add	a1,v1,91
   14d10:	00399a93 	sll	a3,a1,0x3
   14d14:	ee5ff06f 	j	14bf8 <_free_r+0xf0>
   14d18:	004a2803 	lw	v0,4(a2)
   14d1c:	4029d993 	sra	a1,a1,0x2
   14d20:	00100a93 	li	a3,1
   14d24:	013a99b3 	sll	a1,a3,a1
   14d28:	0109e833 	or	v0,a1,v0
   14d2c:	010a2223 	sw	v0,4(a2)
   14d30:	00088813 	mv	v0,v1
   14d34:	eedff06f 	j	14c20 <_free_r+0x118>
   14d38:	0558b993 	sltu	a1,v1,85
   14d3c:	00098a63 	beqz	a1,14d50 <_free_r+0x248>
   14d40:	00c85993 	srl	a1,v0,0xc
   14d44:	06e98993 	add	a1,a1,110
   14d48:	00399a93 	sll	a3,a1,0x3
   14d4c:	eadff06f 	j	14bf8 <_free_r+0xf0>
   14d50:	1558b993 	sltu	a1,v1,341
   14d54:	00098a63 	beqz	a1,14d68 <_free_r+0x260>
   14d58:	00f85993 	srl	a1,v0,0xf
   14d5c:	07798993 	add	a1,a1,119
   14d60:	00399a93 	sll	a3,a1,0x3
   14d64:	e95ff06f 	j	14bf8 <_free_r+0xf0>
   14d68:	5558b893 	sltu	v1,v1,1365
   14d6c:	00088a63 	beqz	v1,14d80 <_free_r+0x278>
   14d70:	01285993 	srl	a1,v0,0x12
   14d74:	07c98993 	add	a1,a1,124
   14d78:	00399a93 	sll	a3,a1,0x3
   14d7c:	e7dff06f 	j	14bf8 <_free_r+0xf0>
   14d80:	3f000a93 	li	a3,1008
   14d84:	07e00993 	li	a1,126
   14d88:	e71ff06f 	j	14bf8 <_free_r+0xf0>

00014d8c <_fwalk>:
   14d8c:	fe070713 	add	sp,sp,-32
   14d90:	00272c23 	sw	s0,24(sp)
   14d94:	2e090113 	add	s0,a0,736
   14d98:	00672423 	sw	s4,8(sp)
   14d9c:	00772223 	sw	s5,4(sp)
   14da0:	00172e23 	sw	ra,28(sp)
   14da4:	00372a23 	sw	s1,20(sp)
   14da8:	00472823 	sw	s2,16(sp)
   14dac:	00572623 	sw	s3,12(sp)
   14db0:	00098393 	mv	s5,a1
   14db4:	00000313 	li	s4,0
   14db8:	c21ff0ef 	jal	149d8 <__sfp_lock_acquire>
   14dbc:	04010463 	beqz	s0,14e04 <_fwalk+0x78>
   14dc0:	fff00293 	li	s3,-1
   14dc4:	00412203 	lw	s2,4(s0)
   14dc8:	00812183 	lw	s1,8(s0)
   14dcc:	fff20213 	add	s2,s2,-1
   14dd0:	02024663 	bltz	s2,14dfc <_fwalk+0x70>
   14dd4:	00c19803 	lh	v0,12(s1)
   14dd8:	fff20213 	add	s2,s2,-1
   14ddc:	00080c63 	beqz	v0,14df4 <_fwalk+0x68>
   14de0:	00e19803 	lh	v0,14(s1)
   14de4:	00018913 	mv	a0,s1
   14de8:	00580663 	beq	v0,s3,14df4 <_fwalk+0x68>
   14dec:	000380e7 	jalr	s5
   14df0:	01036333 	or	s4,s4,v0
   14df4:	06818193 	add	s1,s1,104
   14df8:	fc521ee3 	bne	s2,s3,14dd4 <_fwalk+0x48>
   14dfc:	00012103 	lw	s0,0(s0)
   14e00:	fc0112e3 	bnez	s0,14dc4 <_fwalk+0x38>
   14e04:	bd9ff0ef 	jal	149dc <__sfp_lock_release>
   14e08:	01c72083 	lw	ra,28(sp)
   14e0c:	00030813 	mv	v0,s4
   14e10:	01872103 	lw	s0,24(sp)
   14e14:	01472183 	lw	s1,20(sp)
   14e18:	01072203 	lw	s2,16(sp)
   14e1c:	00c72283 	lw	s3,12(sp)
   14e20:	00872303 	lw	s4,8(sp)
   14e24:	00472383 	lw	s5,4(sp)
   14e28:	02070713 	add	sp,sp,32
   14e2c:	00008067 	ret

00014e30 <_fwalk_reent>:
   14e30:	fe070713 	add	sp,sp,-32
   14e34:	00572623 	sw	s3,12(sp)
   14e38:	2e090293 	add	s3,a0,736
   14e3c:	00672423 	sw	s4,8(sp)
   14e40:	00772223 	sw	s5,4(sp)
   14e44:	00872023 	sw	s6,0(sp)
   14e48:	00172e23 	sw	ra,28(sp)
   14e4c:	00272c23 	sw	s0,24(sp)
   14e50:	00372a23 	sw	s1,20(sp)
   14e54:	00472823 	sw	s2,16(sp)
   14e58:	00090393 	mv	s5,a0
   14e5c:	00098413 	mv	s6,a1
   14e60:	00000313 	li	s4,0
   14e64:	b75ff0ef 	jal	149d8 <__sfp_lock_acquire>
   14e68:	04028663 	beqz	s3,14eb4 <_fwalk_reent+0x84>
   14e6c:	fff00213 	li	s2,-1
   14e70:	0042a183 	lw	s1,4(s3)
   14e74:	0082a103 	lw	s0,8(s3)
   14e78:	fff18193 	add	s1,s1,-1
   14e7c:	0201c863 	bltz	s1,14eac <_fwalk_reent+0x7c>
   14e80:	00c11803 	lh	v0,12(s0)
   14e84:	fff18193 	add	s1,s1,-1
   14e88:	00080e63 	beqz	v0,14ea4 <_fwalk_reent+0x74>
   14e8c:	00e11803 	lh	v0,14(s0)
   14e90:	00010993 	mv	a1,s0
   14e94:	00038913 	mv	a0,s5
   14e98:	00480663 	beq	v0,s2,14ea4 <_fwalk_reent+0x74>
   14e9c:	000400e7 	jalr	s6
   14ea0:	01036333 	or	s4,s4,v0
   14ea4:	06810113 	add	s0,s0,104
   14ea8:	fc419ce3 	bne	s1,s2,14e80 <_fwalk_reent+0x50>
   14eac:	0002a283 	lw	s3,0(s3)
   14eb0:	fc0290e3 	bnez	s3,14e70 <_fwalk_reent+0x40>
   14eb4:	b29ff0ef 	jal	149dc <__sfp_lock_release>
   14eb8:	01c72083 	lw	ra,28(sp)
   14ebc:	00030813 	mv	v0,s4
   14ec0:	01872103 	lw	s0,24(sp)
   14ec4:	01472183 	lw	s1,20(sp)
   14ec8:	01072203 	lw	s2,16(sp)
   14ecc:	00c72283 	lw	s3,12(sp)
   14ed0:	00872303 	lw	s4,8(sp)
   14ed4:	00472383 	lw	s5,4(sp)
   14ed8:	00072403 	lw	s6,0(sp)
   14edc:	02070713 	add	sp,sp,32
   14ee0:	00008067 	ret

00014ee4 <_setlocale_r>:
   14ee4:	ff070713 	add	sp,sp,-16
   14ee8:	00272423 	sw	s0,8(sp)
   14eec:	00172623 	sw	ra,12(sp)
   14ef0:	00372223 	sw	s1,4(sp)
   14ef4:	000a0113 	mv	s0,a2
   14ef8:	000a0c63 	beqz	a2,14f10 <_setlocale_r+0x2c>
   14efc:	00006997 	auipc	a1,0x6
   14f00:	000a0913 	mv	a0,a2
   14f04:	cfc98993 	add	a1,a1,-772 # 19cfc <zeroes.3758+0x78>
   14f08:	5ad010ef 	jal	16cb4 <strcmp>
   14f0c:	02081263 	bnez	v0,14f30 <_setlocale_r+0x4c>
   14f10:	00006897 	auipc	v1,0x6
   14f14:	ca488893 	add	v1,v1,-860 # 19ca4 <zeroes.3758+0x20>
   14f18:	00c72083 	lw	ra,12(sp)
   14f1c:	00088813 	mv	v0,v1
   14f20:	00872103 	lw	s0,8(sp)
   14f24:	00472183 	lw	s1,4(sp)
   14f28:	01070713 	add	sp,sp,16
   14f2c:	00008067 	ret
   14f30:	00006197 	auipc	s1,0x6
   14f34:	ca418193 	add	s1,s1,-860 # 19ca4 <zeroes.3758+0x20>
   14f38:	00010913 	mv	a0,s0
   14f3c:	00018993 	mv	a1,s1
   14f40:	575010ef 	jal	16cb4 <strcmp>
   14f44:	00018893 	mv	v1,s1
   14f48:	fc0808e3 	beqz	v0,14f18 <_setlocale_r+0x34>
   14f4c:	00006997 	auipc	a1,0x6
   14f50:	00010913 	mv	a0,s0
   14f54:	cc898993 	add	a1,a1,-824 # 19cc8 <zeroes.3758+0x44>
   14f58:	55d010ef 	jal	16cb4 <strcmp>
   14f5c:	00000893 	li	v1,0
   14f60:	fa081ce3 	bnez	v0,14f18 <_setlocale_r+0x34>
   14f64:	00018893 	mv	v1,s1
   14f68:	fb1ff06f 	j	14f18 <_setlocale_r+0x34>

00014f6c <__locale_charset>:
   14f6c:	00007817 	auipc	v0,0x7
   14f70:	ec880813 	add	v0,v0,-312 # 1aec8 <lc_ctype_charset>
   14f74:	00008067 	ret

00014f78 <__locale_msgcharset>:
   14f78:	00007817 	auipc	v0,0x7
   14f7c:	ee880813 	add	v0,v0,-280 # 1aee8 <lc_message_charset>
   14f80:	00008067 	ret

00014f84 <__locale_cjk_lang>:
   14f84:	00000813 	li	v0,0
   14f88:	00008067 	ret

00014f8c <_localeconv_r>:
   14f8c:	00006817 	auipc	v0,0x6
   14f90:	9ac80813 	add	v0,v0,-1620 # 199ac <lconv>
   14f94:	00008067 	ret

00014f98 <setlocale>:
   14f98:	00090813 	mv	v0,a0
   14f9c:	808fa903 	lw	a0,-2040(gp) # 1b318 <_impure_ptr>
   14fa0:	00098a13 	mv	a2,a1
   14fa4:	00080993 	mv	a1,v0
   14fa8:	f3dff06f 	j	14ee4 <_setlocale_r>

00014fac <localeconv>:
   14fac:	00006817 	auipc	v0,0x6
   14fb0:	9ac80813 	add	v0,v0,-1620 # 199ac <lconv>
   14fb4:	00008067 	ret

00014fb8 <__smakebuf_r>:
   14fb8:	00c99803 	lh	v0,12(a1)
   14fbc:	f6070713 	add	sp,sp,-160
   14fc0:	08372a23 	sw	s1,148(sp)
   14fc4:	01081893 	sll	v1,v0,0x10
   14fc8:	0108d893 	srl	v1,v1,0x10
   14fcc:	00090193 	mv	s1,a0
   14fd0:	0028f913 	and	a0,v1,2
   14fd4:	08272c23 	sw	s0,152(sp)
   14fd8:	08172e23 	sw	ra,156(sp)
   14fdc:	08472823 	sw	s2,144(sp)
   14fe0:	08572623 	sw	s3,140(sp)
   14fe4:	00098113 	mv	s0,a1
   14fe8:	0c091a63 	bnez	a0,150bc <__smakebuf_r+0x104>
   14fec:	00e99903 	lh	a0,14(a1)
   14ff0:	04094c63 	bltz	a0,15048 <__smakebuf_r+0x90>
   14ff4:	00070993 	mv	a1,sp
   14ff8:	0c0040ef 	jal	190b8 <fstat>
   14ffc:	04084063 	bltz	v0,1503c <__smakebuf_r+0x84>
   15000:	01072883 	lw	v1,16(sp)
   15004:	0000f837 	lui	v0,0xf
   15008:	ffffe2b7 	lui	s3,0xffffe
   1500c:	0108f833 	and	v0,v1,v0
   15010:	005802b3 	add	s3,v0,s3
   15014:	000088b7 	lui	v1,0x8
   15018:	0012b293 	seqz	s3,s3
   1501c:	0d180e63 	beq	v0,v1,150f8 <__smakebuf_r+0x140>
   15020:	00c15883 	lhu	v1,12(s0)
   15024:	00001837 	lui	v0,0x1
   15028:	80080813 	add	v0,v0,-2048
   1502c:	0108e833 	or	v0,v1,v0
   15030:	01011623 	sh	v0,12(s0)
   15034:	40000213 	li	s2,1024
   15038:	0300006f 	j	15068 <__smakebuf_r+0xb0>
   1503c:	00c11803 	lh	v0,12(s0)
   15040:	01081893 	sll	v1,v0,0x10
   15044:	0108d893 	srl	v1,v1,0x10
   15048:	0808f893 	and	v1,v1,128
   1504c:	04000213 	li	s2,64
   15050:	0a088063 	beqz	v1,150f0 <__smakebuf_r+0x138>
   15054:	000018b7 	lui	v1,0x1
   15058:	80088893 	add	v1,v1,-2048
   1505c:	01186833 	or	v0,v0,v1
   15060:	01011623 	sh	v0,12(s0)
   15064:	00000293 	li	s3,0
   15068:	00018913 	mv	a0,s1
   1506c:	00020993 	mv	a1,s2
   15070:	0e0000ef 	jal	15150 <_malloc_r>
   15074:	0a080863 	beqz	v0,15124 <__smakebuf_r+0x16c>
   15078:	00c15883 	lhu	v1,12(s0)
   1507c:	fffff917 	auipc	a0,0xfffff
   15080:	72090913 	add	a0,a0,1824 # 14720 <_cleanup_r>
   15084:	0808e893 	or	v1,v1,128
   15088:	0321ae23 	sw	a0,60(s1)
   1508c:	01111623 	sh	v1,12(s0)
   15090:	01012023 	sw	v0,0(s0)
   15094:	01012823 	sw	v0,16(s0)
   15098:	00412a23 	sw	s2,20(s0)
   1509c:	02029c63 	bnez	s3,150d4 <__smakebuf_r+0x11c>
   150a0:	09c72083 	lw	ra,156(sp)
   150a4:	09872103 	lw	s0,152(sp)
   150a8:	09472183 	lw	s1,148(sp)
   150ac:	09072203 	lw	s2,144(sp)
   150b0:	08c72283 	lw	s3,140(sp)
   150b4:	0a070713 	add	sp,sp,160
   150b8:	00008067 	ret
   150bc:	04398813 	add	v0,a1,67
   150c0:	0109a023 	sw	v0,0(a1)
   150c4:	0109a823 	sw	v0,16(a1)
   150c8:	00100813 	li	v0,1
   150cc:	0109aa23 	sw	v0,20(a1)
   150d0:	fd1ff06f 	j	150a0 <__smakebuf_r+0xe8>
   150d4:	00e11903 	lh	a0,14(s0)
   150d8:	230040ef 	jal	19308 <isatty>
   150dc:	fc0802e3 	beqz	v0,150a0 <__smakebuf_r+0xe8>
   150e0:	00c15803 	lhu	v0,12(s0)
   150e4:	00186813 	or	v0,v0,1
   150e8:	01011623 	sh	v0,12(s0)
   150ec:	fb5ff06f 	j	150a0 <__smakebuf_r+0xe8>
   150f0:	40000213 	li	s2,1024
   150f4:	f61ff06f 	j	15054 <__smakebuf_r+0x9c>
   150f8:	02812883 	lw	v1,40(s0)
   150fc:	00002817 	auipc	v0,0x2
   15100:	c4480813 	add	v0,v0,-956 # 16c44 <__sseek>
   15104:	f1089ee3 	bne	v1,v0,15020 <__smakebuf_r+0x68>
   15108:	00c15803 	lhu	v0,12(s0)
   1510c:	40000893 	li	v1,1024
   15110:	05112623 	sw	v1,76(s0)
   15114:	40086813 	or	v0,v0,1024
   15118:	01011623 	sh	v0,12(s0)
   1511c:	40000213 	li	s2,1024
   15120:	f49ff06f 	j	15068 <__smakebuf_r+0xb0>
   15124:	00c11803 	lh	v0,12(s0)
   15128:	20087893 	and	v1,v0,512
   1512c:	f6089ae3 	bnez	v1,150a0 <__smakebuf_r+0xe8>
   15130:	00286813 	or	v0,v0,2
   15134:	04310893 	add	v1,s0,67
   15138:	01011623 	sh	v0,12(s0)
   1513c:	00100813 	li	v0,1
   15140:	01112023 	sw	v1,0(s0)
   15144:	01112823 	sw	v1,16(s0)
   15148:	01012a23 	sw	v0,20(s0)
   1514c:	f55ff06f 	j	150a0 <__smakebuf_r+0xe8>

00015150 <_malloc_r>:
   15150:	00b98813 	add	v0,a1,11
   15154:	fd070713 	add	sp,sp,-48
   15158:	01783893 	sltu	v1,v0,23
   1515c:	02272423 	sw	s0,40(sp)
   15160:	02472023 	sw	s2,32(sp)
   15164:	02172623 	sw	ra,44(sp)
   15168:	02372223 	sw	s1,36(sp)
   1516c:	00572e23 	sw	s3,28(sp)
   15170:	00672c23 	sw	s4,24(sp)
   15174:	00772a23 	sw	s5,20(sp)
   15178:	00872823 	sw	s6,16(sp)
   1517c:	00972623 	sw	s7,12(sp)
   15180:	00a72423 	sw	s8,8(sp)
   15184:	00090213 	mv	s2,a0
   15188:	01000113 	li	s0,16
   1518c:	00089663 	bnez	v1,15198 <_malloc_r+0x48>
   15190:	ff887113 	and	s0,v0,-8
   15194:	22014063 	bltz	s0,153b4 <_malloc_r+0x264>
   15198:	21316e63 	bltu	s0,a1,153b4 <_malloc_r+0x264>
   1519c:	00020913 	mv	a0,s2
   151a0:	15d000ef 	jal	15afc <__malloc_lock>
   151a4:	1f813813 	sltu	v0,s0,504
   151a8:	08080063 	beqz	v0,15228 <_malloc_r+0xd8>
   151ac:	00006197 	auipc	s1,0x6
   151b0:	f0818193 	add	s1,s1,-248 # 1af08 <__malloc_av_>
   151b4:	00218833 	add	v0,s1,s0
   151b8:	00c82283 	lw	s3,12(v0)
   151bc:	00315a93 	srl	a3,s0,0x3
   151c0:	4f028c63 	beq	s3,v0,156b8 <_malloc_r+0x568>
   151c4:	0042a803 	lw	v0,4(s3)
   151c8:	00c2a883 	lw	v1,12(s3)
   151cc:	0082a903 	lw	a0,8(s3)
   151d0:	ffc87813 	and	v0,v0,-4
   151d4:	01028833 	add	v0,s3,v0
   151d8:	00482983 	lw	a1,4(v0)
   151dc:	01192623 	sw	v1,12(a0)
   151e0:	0128a423 	sw	a0,8(v1)
   151e4:	0019e893 	or	v1,a1,1
   151e8:	01182223 	sw	v1,4(v0)
   151ec:	00020913 	mv	a0,s2
   151f0:	111000ef 	jal	15b00 <__malloc_unlock>
   151f4:	00828813 	add	v0,s3,8
   151f8:	02c72083 	lw	ra,44(sp)
   151fc:	02872103 	lw	s0,40(sp)
   15200:	02472183 	lw	s1,36(sp)
   15204:	02072203 	lw	s2,32(sp)
   15208:	01c72283 	lw	s3,28(sp)
   1520c:	01872303 	lw	s4,24(sp)
   15210:	01472383 	lw	s5,20(sp)
   15214:	01072403 	lw	s6,16(sp)
   15218:	00c72483 	lw	s7,12(sp)
   1521c:	00872503 	lw	s8,8(sp)
   15220:	03070713 	add	sp,sp,48
   15224:	00008067 	ret
   15228:	00915a93 	srl	a3,s0,0x9
   1522c:	180a8c63 	beqz	a3,153c4 <_malloc_r+0x274>
   15230:	005ab813 	sltu	v0,a3,5
   15234:	36080e63 	beqz	v0,155b0 <_malloc_r+0x460>
   15238:	00615a93 	srl	a3,s0,0x6
   1523c:	038a8a93 	add	a3,a3,56
   15240:	003a9993 	sll	a1,a3,0x3
   15244:	00006197 	auipc	s1,0x6
   15248:	f0818193 	add	s1,s1,-248 # 1af08 <__malloc_av_>
   1524c:	013189b3 	add	a1,s1,a1
   15250:	00c9a283 	lw	s3,12(a1)
   15254:	00599a63 	bne	a1,s3,15268 <_malloc_r+0x118>
   15258:	0280006f 	j	15280 <_malloc_r+0x130>
   1525c:	16085a63 	bgez	v0,153d0 <_malloc_r+0x280>
   15260:	00c2a283 	lw	s3,12(s3)
   15264:	00598e63 	beq	a1,s3,15280 <_malloc_r+0x130>
   15268:	0042a883 	lw	v1,4(s3)
   1526c:	ffc8f893 	and	v1,v1,-4
   15270:	40288833 	sub	v0,v1,s0
   15274:	01082913 	slt	a0,v0,16
   15278:	fe0912e3 	bnez	a0,1525c <_malloc_r+0x10c>
   1527c:	fffa8a93 	add	a3,a3,-1
   15280:	001a8a93 	add	a3,a3,1
   15284:	0101a283 	lw	s3,16(s1)
   15288:	00818b13 	add	a4,s1,8
   1528c:	3d628e63 	beq	s3,a4,15668 <_malloc_r+0x518>
   15290:	0042a803 	lw	v0,4(s3)
   15294:	ffc87813 	and	v0,v0,-4
   15298:	402808b3 	sub	v1,v0,s0
   1529c:	0108a913 	slt	a0,v1,16
   152a0:	38090663 	beqz	a0,1562c <_malloc_r+0x4dc>
   152a4:	0161aa23 	sw	a4,20(s1)
   152a8:	0161a823 	sw	a4,16(s1)
   152ac:	1408da63 	bgez	v1,15400 <_malloc_r+0x2b0>
   152b0:	20083893 	sltu	v1,v0,512
   152b4:	30088e63 	beqz	v1,155d0 <_malloc_r+0x480>
   152b8:	00385813 	srl	v0,v0,0x3
   152bc:	00381893 	sll	v1,v0,0x3
   152c0:	011188b3 	add	v1,s1,v1
   152c4:	0041a983 	lw	a1,4(s1)
   152c8:	0088a903 	lw	a0,8(v1)
   152cc:	40285813 	sra	v0,v0,0x2
   152d0:	00100a13 	li	a2,1
   152d4:	010a1833 	sll	v0,a2,v0
   152d8:	01386833 	or	v0,v0,a1
   152dc:	0112a623 	sw	v1,12(s3)
   152e0:	0122a423 	sw	a0,8(s3)
   152e4:	0101a223 	sw	v0,4(s1)
   152e8:	0058a423 	sw	s3,8(v1)
   152ec:	00592623 	sw	s3,12(a0)
   152f0:	402ad893 	sra	v1,a3,0x2
   152f4:	00100993 	li	a1,1
   152f8:	011999b3 	sll	a1,a1,v1
   152fc:	13386263 	bltu	v0,a1,15420 <_malloc_r+0x2d0>
   15300:	013878b3 	and	v1,v0,a1
   15304:	02089463 	bnez	v1,1532c <_malloc_r+0x1dc>
   15308:	00199993 	sll	a1,a1,0x1
   1530c:	ffcafa93 	and	a3,a3,-4
   15310:	013878b3 	and	v1,v0,a1
   15314:	004a8a93 	add	a3,a3,4
   15318:	00089a63 	bnez	v1,1532c <_malloc_r+0x1dc>
   1531c:	00199993 	sll	a1,a1,0x1
   15320:	0109f8b3 	and	v1,a1,v0
   15324:	004a8a93 	add	a3,a3,4
   15328:	fe088ae3 	beqz	v1,1531c <_malloc_r+0x1cc>
   1532c:	003a9c13 	sll	a6,a3,0x3
   15330:	01818c33 	add	a6,s1,a6
   15334:	000c0a13 	mv	a2,a6
   15338:	000a8b93 	mv	a5,a3
   1533c:	00ca2283 	lw	s3,12(a2)
   15340:	005a1a63 	bne	a2,s3,15354 <_malloc_r+0x204>
   15344:	32c0006f 	j	15670 <_malloc_r+0x520>
   15348:	08085463 	bgez	v0,153d0 <_malloc_r+0x280>
   1534c:	00c2a283 	lw	s3,12(s3)
   15350:	325a0063 	beq	a2,s3,15670 <_malloc_r+0x520>
   15354:	0042a883 	lw	v1,4(s3)
   15358:	ffc8f893 	and	v1,v1,-4
   1535c:	40288833 	sub	v0,v1,s0
   15360:	01082913 	slt	a0,v0,16
   15364:	fe0912e3 	bnez	a0,15348 <_malloc_r+0x1f8>
   15368:	00c2a903 	lw	a0,12(s3)
   1536c:	0082a983 	lw	a1,8(s3)
   15370:	002288b3 	add	v1,s3,s0
   15374:	00186a93 	or	a3,v0,1
   15378:	01088a33 	add	a2,v1,v0
   1537c:	00116113 	or	s0,s0,1
   15380:	0129a623 	sw	a0,12(a1)
   15384:	01392423 	sw	a1,8(a0)
   15388:	0022a223 	sw	s0,4(s3)
   1538c:	0111aa23 	sw	v1,20(s1)
   15390:	0111a823 	sw	v1,16(s1)
   15394:	010a2023 	sw	v0,0(a2)
   15398:	0168a623 	sw	a4,12(v1)
   1539c:	0168a423 	sw	a4,8(v1)
   153a0:	0158a223 	sw	a3,4(v1)
   153a4:	00020913 	mv	a0,s2
   153a8:	758000ef 	jal	15b00 <__malloc_unlock>
   153ac:	00828813 	add	v0,s3,8
   153b0:	e49ff06f 	j	151f8 <_malloc_r+0xa8>
   153b4:	00c00813 	li	v0,12
   153b8:	01022023 	sw	v0,0(s2)
   153bc:	00000813 	li	v0,0
   153c0:	e39ff06f 	j	151f8 <_malloc_r+0xa8>
   153c4:	00315a93 	srl	a3,s0,0x3
   153c8:	003a9993 	sll	a1,a3,0x3
   153cc:	e79ff06f 	j	15244 <_malloc_r+0xf4>
   153d0:	011288b3 	add	v1,s3,v1
   153d4:	0048a983 	lw	a1,4(v1)
   153d8:	00c2a803 	lw	v0,12(s3)
   153dc:	0082a903 	lw	a0,8(s3)
   153e0:	0019e993 	or	a1,a1,1
   153e4:	0138a223 	sw	a1,4(v1)
   153e8:	01092623 	sw	v0,12(a0)
   153ec:	01282423 	sw	a0,8(v0)
   153f0:	00020913 	mv	a0,s2
   153f4:	70c000ef 	jal	15b00 <__malloc_unlock>
   153f8:	00828813 	add	v0,s3,8
   153fc:	dfdff06f 	j	151f8 <_malloc_r+0xa8>
   15400:	01028833 	add	v0,s3,v0
   15404:	00482883 	lw	v1,4(v0)
   15408:	00020913 	mv	a0,s2
   1540c:	0018e893 	or	v1,v1,1
   15410:	01182223 	sw	v1,4(v0)
   15414:	6ec000ef 	jal	15b00 <__malloc_unlock>
   15418:	00828813 	add	v0,s3,8
   1541c:	dddff06f 	j	151f8 <_malloc_r+0xa8>
   15420:	0081a283 	lw	s3,8(s1)
   15424:	0042a383 	lw	s5,4(s3)
   15428:	ffc3f393 	and	s5,s5,-4
   1542c:	0023e863 	bltu	s5,s0,1543c <_malloc_r+0x2ec>
   15430:	402388b3 	sub	v1,s5,s0
   15434:	0108a813 	slt	v0,v1,16
   15438:	14080863 	beqz	v0,15588 <_malloc_r+0x438>
   1543c:	984fa483 	lw	s7,-1660(gp) # 1b494 <__malloc_top_pad>
   15440:	810fa883 	lw	v1,-2032(gp) # 1b320 <__malloc_sbrk_base>
   15444:	fff00813 	li	v0,-1
   15448:	009104b3 	add	s7,s0,s7
   1544c:	33088663 	beq	v1,v0,15778 <_malloc_r+0x628>
   15450:	00001837 	lui	v0,0x1
   15454:	00f80813 	add	v0,v0,15
   15458:	010484b3 	add	s7,s7,v0
   1545c:	fffff837 	lui	v0,0xfffff
   15460:	0104f4b3 	and	s7,s7,v0
   15464:	00048913 	mv	a0,s7
   15468:	018040ef 	jal	19480 <sbrk>
   1546c:	00080313 	mv	s4,v0
   15470:	fff00813 	li	v0,-1
   15474:	27030c63 	beq	s4,v0,156ec <_malloc_r+0x59c>
   15478:	007288b3 	add	v1,s3,s5
   1547c:	27136663 	bltu	s4,v1,156e8 <_malloc_r+0x598>
   15480:	9a8fa803 	lw	v0,-1624(gp) # 1b4b8 <__malloc_current_mallinfo>
   15484:	01048833 	add	v0,s7,v0
   15488:	9b0fa423 	sw	v0,-1624(gp) # 1b4b8 <__malloc_current_mallinfo>
   1548c:	30688663 	beq	v1,s4,15798 <_malloc_r+0x648>
   15490:	810fa983 	lw	a1,-2032(gp) # 1b320 <__malloc_sbrk_base>
   15494:	fff00913 	li	a0,-1
   15498:	35298863 	beq	a1,a0,157e8 <_malloc_r+0x698>
   1549c:	411308b3 	sub	v1,s4,v1
   154a0:	01180833 	add	v0,v0,v1
   154a4:	9b0fa423 	sw	v0,-1624(gp) # 1b4b8 <__malloc_current_mallinfo>
   154a8:	00737893 	and	v1,s4,7
   154ac:	00001837 	lui	v0,0x1
   154b0:	00088a63 	beqz	v1,154c4 <_malloc_r+0x374>
   154b4:	41130333 	sub	s4,s4,v1
   154b8:	00880813 	add	v0,v0,8
   154bc:	00830313 	add	s4,s4,8
   154c0:	41180833 	sub	v0,v0,v1
   154c4:	000018b7 	lui	v1,0x1
   154c8:	fff88893 	add	v1,v1,-1
   154cc:	009304b3 	add	s7,s4,s7
   154d0:	0114f4b3 	and	s7,s7,v1
   154d4:	409804b3 	sub	s7,v0,s7
   154d8:	00048913 	mv	a0,s7
   154dc:	7a5030ef 	jal	19480 <sbrk>
   154e0:	fff00893 	li	v1,-1
   154e4:	2f180c63 	beq	v0,v1,157dc <_malloc_r+0x68c>
   154e8:	40680833 	sub	v0,v0,s4
   154ec:	009808b3 	add	v1,v0,s7
   154f0:	0018e893 	or	v1,v1,1
   154f4:	9a8fa803 	lw	v0,-1624(gp) # 1b4b8 <__malloc_current_mallinfo>
   154f8:	0061a423 	sw	s4,8(s1)
   154fc:	01132223 	sw	v1,4(s4)
   15500:	01048833 	add	v0,s7,v0
   15504:	9b0fa423 	sw	v0,-1624(gp) # 1b4b8 <__malloc_current_mallinfo>
   15508:	02328e63 	beq	s3,s1,15544 <_malloc_r+0x3f4>
   1550c:	0103b893 	sltu	v1,s5,16
   15510:	22089e63 	bnez	v1,1574c <_malloc_r+0x5fc>
   15514:	ff438893 	add	v1,s5,-12
   15518:	ff88f893 	and	v1,v1,-8
   1551c:	01128933 	add	a0,s3,v1
   15520:	00500993 	li	a1,5
   15524:	01392223 	sw	a1,4(a0)
   15528:	01392423 	sw	a1,8(a0)
   1552c:	0042a983 	lw	a1,4(s3)
   15530:	0108b913 	sltu	a0,v1,16
   15534:	0019f993 	and	a1,a1,1
   15538:	0138e8b3 	or	v1,v1,a1
   1553c:	0112a223 	sw	v1,4(s3)
   15540:	28090463 	beqz	a0,157c8 <_malloc_r+0x678>
   15544:	980fa903 	lw	a0,-1664(gp) # 1b490 <__malloc_max_sbrked_mem>
   15548:	01097463 	bleu	v0,a0,15550 <_malloc_r+0x400>
   1554c:	990fa023 	sw	v0,-1664(gp) # 1b490 <__malloc_max_sbrked_mem>
   15550:	97cfa903 	lw	a0,-1668(gp) # 1b48c <__malloc_max_total_mem>
   15554:	0081a283 	lw	s3,8(s1)
   15558:	01097463 	bleu	v0,a0,15560 <_malloc_r+0x410>
   1555c:	970fae23 	sw	v0,-1668(gp) # 1b48c <__malloc_max_total_mem>
   15560:	0042a883 	lw	v1,4(s3)
   15564:	ffc8f893 	and	v1,v1,-4
   15568:	0028e863 	bltu	v1,s0,15578 <_malloc_r+0x428>
   1556c:	402888b3 	sub	v1,v1,s0
   15570:	0108a813 	slt	v0,v1,16
   15574:	00080a63 	beqz	v0,15588 <_malloc_r+0x438>
   15578:	00020913 	mv	a0,s2
   1557c:	584000ef 	jal	15b00 <__malloc_unlock>
   15580:	00000813 	li	v0,0
   15584:	c75ff06f 	j	151f8 <_malloc_r+0xa8>
   15588:	00228833 	add	v0,s3,s0
   1558c:	0018e893 	or	v1,v1,1
   15590:	00116113 	or	s0,s0,1
   15594:	0022a223 	sw	s0,4(s3)
   15598:	00020913 	mv	a0,s2
   1559c:	01182223 	sw	v1,4(v0)
   155a0:	0101a423 	sw	v0,8(s1)
   155a4:	55c000ef 	jal	15b00 <__malloc_unlock>
   155a8:	00828813 	add	v0,s3,8
   155ac:	c4dff06f 	j	151f8 <_malloc_r+0xa8>
   155b0:	015ab813 	sltu	v0,a3,21
   155b4:	10081c63 	bnez	v0,156cc <_malloc_r+0x57c>
   155b8:	055ab813 	sltu	v0,a3,85
   155bc:	14080c63 	beqz	v0,15714 <_malloc_r+0x5c4>
   155c0:	00c15a93 	srl	a3,s0,0xc
   155c4:	06ea8a93 	add	a3,a3,110
   155c8:	003a9993 	sll	a1,a3,0x3
   155cc:	c79ff06f 	j	15244 <_malloc_r+0xf4>
   155d0:	00985893 	srl	v1,v0,0x9
   155d4:	0058b913 	sltu	a0,v1,5
   155d8:	10091063 	bnez	a0,156d8 <_malloc_r+0x588>
   155dc:	0158b913 	sltu	a0,v1,21
   155e0:	1a090063 	beqz	a0,15780 <_malloc_r+0x630>
   155e4:	05b88913 	add	a0,v1,91
   155e8:	00391993 	sll	a1,a0,0x3
   155ec:	013189b3 	add	a1,s1,a1
   155f0:	0089a883 	lw	v1,8(a1)
   155f4:	01389863 	bne	v1,a1,15604 <_malloc_r+0x4b4>
   155f8:	1340006f 	j	1572c <_malloc_r+0x5dc>
   155fc:	0088a883 	lw	v1,8(v1)
   15600:	01198863 	beq	a1,v1,15610 <_malloc_r+0x4c0>
   15604:	0048a903 	lw	a0,4(v1)
   15608:	ffc97913 	and	a0,a0,-4
   1560c:	ff2868e3 	bltu	v0,a0,155fc <_malloc_r+0x4ac>
   15610:	00c8a903 	lw	a0,12(v1)
   15614:	0041a803 	lw	v0,4(s1)
   15618:	0122a623 	sw	a0,12(s3)
   1561c:	0112a423 	sw	v1,8(s3)
   15620:	0058a623 	sw	s3,12(v1)
   15624:	00592423 	sw	s3,8(a0)
   15628:	cc9ff06f 	j	152f0 <_malloc_r+0x1a0>
   1562c:	00228833 	add	v0,s3,s0
   15630:	01180933 	add	a0,v0,v1
   15634:	0018e993 	or	a1,v1,1
   15638:	00116113 	or	s0,s0,1
   1563c:	0101aa23 	sw	v0,20(s1)
   15640:	0101a823 	sw	v0,16(s1)
   15644:	0022a223 	sw	s0,4(s3)
   15648:	01682623 	sw	a4,12(v0)
   1564c:	01682423 	sw	a4,8(v0)
   15650:	01382223 	sw	a1,4(v0)
   15654:	01192023 	sw	v1,0(a0)
   15658:	00020913 	mv	a0,s2
   1565c:	4a4000ef 	jal	15b00 <__malloc_unlock>
   15660:	00828813 	add	v0,s3,8
   15664:	b95ff06f 	j	151f8 <_malloc_r+0xa8>
   15668:	0041a803 	lw	v0,4(s1)
   1566c:	c85ff06f 	j	152f0 <_malloc_r+0x1a0>
   15670:	001b8b93 	add	a5,a5,1
   15674:	003bf813 	and	v0,a5,3
   15678:	008a0a13 	add	a2,a2,8
   1567c:	cc0810e3 	bnez	v0,1533c <_malloc_r+0x1ec>
   15680:	003af893 	and	v1,a3,3
   15684:	ff8c0813 	add	v0,a6,-8
   15688:	18088c63 	beqz	v1,15820 <_malloc_r+0x6d0>
   1568c:	000c2c03 	lw	a6,0(a6)
   15690:	fffa8a93 	add	a3,a3,-1
   15694:	ff0c06e3 	beq	a6,v0,15680 <_malloc_r+0x530>
   15698:	0041a803 	lw	v0,4(s1)
   1569c:	00199993 	sll	a1,a1,0x1
   156a0:	d93860e3 	bltu	v0,a1,15420 <_malloc_r+0x2d0>
   156a4:	d6098ee3 	beqz	a1,15420 <_malloc_r+0x2d0>
   156a8:	013878b3 	and	v1,v0,a1
   156ac:	04088863 	beqz	v1,156fc <_malloc_r+0x5ac>
   156b0:	000b8a93 	mv	a3,a5
   156b4:	c79ff06f 	j	1532c <_malloc_r+0x1dc>
   156b8:	00828813 	add	v0,s3,8
   156bc:	0142a283 	lw	s3,20(s3)
   156c0:	002a8a93 	add	a3,a3,2
   156c4:	bc5800e3 	beq	v0,s3,15284 <_malloc_r+0x134>
   156c8:	afdff06f 	j	151c4 <_malloc_r+0x74>
   156cc:	05ba8a93 	add	a3,a3,91
   156d0:	003a9993 	sll	a1,a3,0x3
   156d4:	b71ff06f 	j	15244 <_malloc_r+0xf4>
   156d8:	00685913 	srl	a0,v0,0x6
   156dc:	03890913 	add	a0,a0,56
   156e0:	00391993 	sll	a1,a0,0x3
   156e4:	f09ff06f 	j	155ec <_malloc_r+0x49c>
   156e8:	d8328ce3 	beq	s3,s1,15480 <_malloc_r+0x330>
   156ec:	0081a283 	lw	s3,8(s1)
   156f0:	0042a883 	lw	v1,4(s3)
   156f4:	ffc8f893 	and	v1,v1,-4
   156f8:	e71ff06f 	j	15568 <_malloc_r+0x418>
   156fc:	00199993 	sll	a1,a1,0x1
   15700:	0109f8b3 	and	v1,a1,v0
   15704:	004b8b93 	add	a5,a5,4
   15708:	fe088ae3 	beqz	v1,156fc <_malloc_r+0x5ac>
   1570c:	000b8a93 	mv	a3,a5
   15710:	c1dff06f 	j	1532c <_malloc_r+0x1dc>
   15714:	155ab813 	sltu	v0,a3,341
   15718:	04080463 	beqz	v0,15760 <_malloc_r+0x610>
   1571c:	00f15a93 	srl	a3,s0,0xf
   15720:	077a8a93 	add	a3,a3,119
   15724:	003a9993 	sll	a1,a3,0x3
   15728:	b1dff06f 	j	15244 <_malloc_r+0xf4>
   1572c:	0041a803 	lw	v0,4(s1)
   15730:	40295913 	sra	a0,a0,0x2
   15734:	00100993 	li	a1,1
   15738:	01299933 	sll	a0,a1,a0
   1573c:	01096833 	or	v0,a0,v0
   15740:	0101a223 	sw	v0,4(s1)
   15744:	00088913 	mv	a0,v1
   15748:	ed1ff06f 	j	15618 <_malloc_r+0x4c8>
   1574c:	00100813 	li	v0,1
   15750:	01032223 	sw	v0,4(s4)
   15754:	00030293 	mv	s3,s4
   15758:	00000893 	li	v1,0
   1575c:	e0dff06f 	j	15568 <_malloc_r+0x418>
   15760:	555aba93 	sltu	a3,a3,1365
   15764:	040a8c63 	beqz	a3,157bc <_malloc_r+0x66c>
   15768:	01215a93 	srl	a3,s0,0x12
   1576c:	07ca8a93 	add	a3,a3,124
   15770:	003a9993 	sll	a1,a3,0x3
   15774:	ad1ff06f 	j	15244 <_malloc_r+0xf4>
   15778:	01048493 	add	s7,s7,16
   1577c:	ce9ff06f 	j	15464 <_malloc_r+0x314>
   15780:	0558b913 	sltu	a0,v1,85
   15784:	06090663 	beqz	a0,157f0 <_malloc_r+0x6a0>
   15788:	00c85913 	srl	a0,v0,0xc
   1578c:	06e90913 	add	a0,a0,110
   15790:	00391993 	sll	a1,a0,0x3
   15794:	e59ff06f 	j	155ec <_malloc_r+0x49c>
   15798:	00001937 	lui	a0,0x1
   1579c:	fff90913 	add	a0,a0,-1
   157a0:	0128f933 	and	a0,v1,a0
   157a4:	ce0916e3 	bnez	a0,15490 <_malloc_r+0x340>
   157a8:	0081a883 	lw	v1,8(s1)
   157ac:	00748933 	add	a0,s7,s5
   157b0:	00196913 	or	a0,a0,1
   157b4:	0128a223 	sw	a0,4(v1)
   157b8:	d8dff06f 	j	15544 <_malloc_r+0x3f4>
   157bc:	3f000993 	li	a1,1008
   157c0:	07e00a93 	li	a3,126
   157c4:	a81ff06f 	j	15244 <_malloc_r+0xf4>
   157c8:	00020913 	mv	a0,s2
   157cc:	00828993 	add	a1,s3,8
   157d0:	b38ff0ef 	jal	14b08 <_free_r>
   157d4:	9a8fa803 	lw	v0,-1624(gp) # 1b4b8 <__malloc_current_mallinfo>
   157d8:	d6dff06f 	j	15544 <_malloc_r+0x3f4>
   157dc:	00100893 	li	v1,1
   157e0:	00000493 	li	s7,0
   157e4:	d11ff06f 	j	154f4 <_malloc_r+0x3a4>
   157e8:	806fa823 	sw	s4,-2032(gp) # 1b320 <__malloc_sbrk_base>
   157ec:	cbdff06f 	j	154a8 <_malloc_r+0x358>
   157f0:	1558b913 	sltu	a0,v1,341
   157f4:	00090a63 	beqz	a0,15808 <_malloc_r+0x6b8>
   157f8:	00f85913 	srl	a0,v0,0xf
   157fc:	07790913 	add	a0,a0,119
   15800:	00391993 	sll	a1,a0,0x3
   15804:	de9ff06f 	j	155ec <_malloc_r+0x49c>
   15808:	5558b893 	sltu	v1,v1,1365
   1580c:	02088463 	beqz	v1,15834 <_malloc_r+0x6e4>
   15810:	01285913 	srl	a0,v0,0x12
   15814:	07c90913 	add	a0,a0,124
   15818:	00391993 	sll	a1,a0,0x3
   1581c:	dd1ff06f 	j	155ec <_malloc_r+0x49c>
   15820:	0041a803 	lw	v0,4(s1)
   15824:	fff9c893 	not	v1,a1
   15828:	0108f833 	and	v0,v1,v0
   1582c:	0101a223 	sw	v0,4(s1)
   15830:	e6dff06f 	j	1569c <_malloc_r+0x54c>
   15834:	3f000993 	li	a1,1008
   15838:	07e00913 	li	a0,126
   1583c:	db1ff06f 	j	155ec <_malloc_r+0x49c>

00015840 <memchr>:
   15840:	00397813 	and	v0,a0,3
   15844:	0ff9f993 	and	a1,a1,255
   15848:	0c080063 	beqz	v0,15908 <memchr+0xc8>
   1584c:	00000813 	li	v0,0
   15850:	0a0a0663 	beqz	a2,158fc <memchr+0xbc>
   15854:	00094883 	lbu	v1,0(a0)
   15858:	00090813 	mv	v0,a0
   1585c:	fffa0a13 	add	a2,a2,-1
   15860:	01389c63 	bne	v1,a1,15878 <memchr+0x38>
   15864:	0980006f 	j	158fc <memchr+0xbc>
   15868:	080a0c63 	beqz	a2,15900 <memchr+0xc0>
   1586c:	00084883 	lbu	v1,0(v0)
   15870:	fffa0a13 	add	a2,a2,-1
   15874:	09388463 	beq	v1,a1,158fc <memchr+0xbc>
   15878:	00180813 	add	v0,v0,1
   1587c:	00387893 	and	v1,v0,3
   15880:	fe0894e3 	bnez	v1,15868 <memchr+0x28>
   15884:	004a3893 	sltu	v1,a2,4
   15888:	04089863 	bnez	v1,158d8 <memchr+0x98>
   1588c:	00899893 	sll	v1,a1,0x8
   15890:	0138e8b3 	or	v1,v1,a1
   15894:	01089b93 	sll	a5,v1,0x10
   15898:	feff0b37 	lui	a4,0xfeff0
   1589c:	80808ab7 	lui	a3,0x80808
   158a0:	011bebb3 	or	a5,a5,v1
   158a4:	effb0b13 	add	a4,a4,-257
   158a8:	080a8a93 	add	a3,a3,128
   158ac:	00082883 	lw	v1,0(v0)
   158b0:	011bc8b3 	xor	v1,a5,v1
   158b4:	01688933 	add	a0,v1,a4
   158b8:	fff8c893 	not	v1,v1
   158bc:	011978b3 	and	v1,a0,v1
   158c0:	0158f8b3 	and	v1,v1,a3
   158c4:	00089a63 	bnez	v1,158d8 <memchr+0x98>
   158c8:	ffca0a13 	add	a2,a2,-4
   158cc:	004a3893 	sltu	v1,a2,4
   158d0:	00480813 	add	v0,v0,4
   158d4:	fc088ce3 	beqz	v1,158ac <memchr+0x6c>
   158d8:	020a0c63 	beqz	a2,15910 <memchr+0xd0>
   158dc:	00084883 	lbu	v1,0(v0)
   158e0:	01388e63 	beq	v1,a1,158fc <memchr+0xbc>
   158e4:	fffa0913 	add	a0,a2,-1
   158e8:	01280933 	add	a0,v0,a0
   158ec:	01280a63 	beq	v0,a0,15900 <memchr+0xc0>
   158f0:	00180813 	add	v0,v0,1
   158f4:	00084883 	lbu	v1,0(v0)
   158f8:	ff389ae3 	bne	v1,a1,158ec <memchr+0xac>
   158fc:	00008067 	ret
   15900:	00000813 	li	v0,0
   15904:	00008067 	ret
   15908:	00090813 	mv	v0,a0
   1590c:	f79ff06f 	j	15884 <memchr+0x44>
   15910:	00000813 	li	v0,0
   15914:	00008067 	ret

00015918 <memcpy>:
   15918:	0129c8b3 	xor	v1,a1,a0
   1591c:	0038f893 	and	v1,v1,3
   15920:	00090813 	mv	v0,a0
   15924:	01490ab3 	add	a3,a0,a2
   15928:	04089063 	bnez	v1,15968 <memcpy+0x50>
   1592c:	004a3a13 	sltu	a2,a2,4
   15930:	020a1c63 	bnez	a2,15968 <memcpy+0x50>
   15934:	00397893 	and	v1,a0,3
   15938:	0a089863 	bnez	v1,159e8 <memcpy+0xd0>
   1593c:	00090893 	mv	v1,a0
   15940:	ffcafa13 	and	a2,a3,-4
   15944:	fe0a0913 	add	a0,a2,-32
   15948:	0528e063 	bltu	v1,a0,15988 <memcpy+0x70>
   1594c:	0009a903 	lw	a0,0(a1)
   15950:	00488893 	add	v1,v1,4
   15954:	00498993 	add	a1,a1,4
   15958:	ff28ae23 	sw	a0,-4(v1)
   1595c:	ff48e8e3 	bltu	v1,a2,1594c <memcpy+0x34>
   15960:	0158e863 	bltu	v1,a3,15970 <memcpy+0x58>
   15964:	00008067 	ret
   15968:	ff587ee3 	bleu	a3,v0,15964 <memcpy+0x4c>
   1596c:	00080893 	mv	v1,v0
   15970:	0009c903 	lbu	a0,0(a1)
   15974:	00188893 	add	v1,v1,1
   15978:	00198993 	add	a1,a1,1
   1597c:	ff288fa3 	sb	a0,-1(v1)
   15980:	ff58e8e3 	bltu	v1,a3,15970 <memcpy+0x58>
   15984:	00008067 	ret
   15988:	0009af03 	lw	t4,0(a1)
   1598c:	0049ae83 	lw	t3,4(a1)
   15990:	0089ae03 	lw	t2,8(a1)
   15994:	00c9ad83 	lw	t1,12(a1)
   15998:	0109ad03 	lw	t0,16(a1)
   1599c:	0149ac83 	lw	a7,20(a1)
   159a0:	0189ac03 	lw	a6,24(a1)
   159a4:	01c9ab83 	lw	a5,28(a1)
   159a8:	0209ab03 	lw	a4,32(a1)
   159ac:	01e8a023 	sw	t4,0(v1)
   159b0:	01d8a223 	sw	t3,4(v1)
   159b4:	01c8a423 	sw	t2,8(v1)
   159b8:	01b8a623 	sw	t1,12(v1)
   159bc:	01a8a823 	sw	t0,16(v1)
   159c0:	0198aa23 	sw	a7,20(v1)
   159c4:	0188ac23 	sw	a6,24(v1)
   159c8:	0178ae23 	sw	a5,28(v1)
   159cc:	0368a023 	sw	a4,32(v1)
   159d0:	02488893 	add	v1,v1,36
   159d4:	02498993 	add	a1,a1,36
   159d8:	fb28e8e3 	bltu	v1,a0,15988 <memcpy+0x70>
   159dc:	f74898e3 	bne	v1,a2,1594c <memcpy+0x34>
   159e0:	f958f2e3 	bleu	a3,v1,15964 <memcpy+0x4c>
   159e4:	f8dff06f 	j	15970 <memcpy+0x58>
   159e8:	00090893 	mv	v1,a0
   159ec:	0009ca03 	lbu	a2,0(a1)
   159f0:	00188893 	add	v1,v1,1
   159f4:	0038f913 	and	a0,v1,3
   159f8:	00198993 	add	a1,a1,1
   159fc:	ff488fa3 	sb	a2,-1(v1)
   15a00:	fe0916e3 	bnez	a0,159ec <memcpy+0xd4>
   15a04:	f3dff06f 	j	15940 <memcpy+0x28>

00015a08 <memset>:
   15a08:	00700c13 	li	a6,7
   15a0c:	00090813 	mv	v0,a0
   15a10:	074c7063 	bleu	a2,a6,15a70 <.tiny>
   15a14:	00797b93 	and	a5,a0,7
   15a18:	0a0b9263 	bnez	a5,15abc <.misaligned>

00015a1c <.aligned>:
   15a1c:	08099463 	bnez	a1,15aa4 <.wordify>

00015a20 <.wordified>:
   15a20:	ff0a0a93 	add	a3,a2,-16
   15a24:	014aee63 	bltu	a3,a2,15a40 <.block16>

00015a28 <.8to15>:
   15a28:	01392023 	sw	a1,0(a0)
   15a2c:	01392223 	sw	a1,4(a0)
   15a30:	00890913 	add	a0,a0,8
   15a34:	ff8a0a13 	add	a2,a2,-8
   15a38:	020a1c63 	bnez	a2,15a70 <.tiny>
   15a3c:	00008067 	ret

00015a40 <.block16>:
   15a40:	01490bb3 	add	a5,a0,a2
   15a44:	012a8ab3 	add	a3,a3,a0
   15a48:	01392023 	sw	a1,0(a0)
   15a4c:	01392223 	sw	a1,4(a0)
   15a50:	01392423 	sw	a1,8(a0)
   15a54:	01392623 	sw	a1,12(a0)
   15a58:	01090913 	add	a0,a0,16
   15a5c:	ff2af6e3 	bleu	a0,a3,15a48 <.block16+0x8>
   15a60:	01791463 	bne	a0,a5,15a68 <.more>
   15a64:	00008067 	ret

00015a68 <.more>:
   15a68:	412b8a33 	sub	a2,a5,a0
   15a6c:	fb4c6ee3 	bltu	a6,a2,15a28 <.8to15>

00015a70 <.tiny>:
   15a70:	414c0ab3 	sub	a3,a6,a2
   15a74:	002a9a93 	sll	a3,a3,0x2
   15a78:	00001b17 	auipc	a4,0x1
   15a7c:	016a8ab3 	add	a3,a3,a4
   15a80:	a84a8067 	jr	a3,-1404
   15a84:	01390323 	sb	a1,6(a0)
   15a88:	013902a3 	sb	a1,5(a0)
   15a8c:	01390223 	sb	a1,4(a0)
   15a90:	013901a3 	sb	a1,3(a0)
   15a94:	01390123 	sb	a1,2(a0)
   15a98:	013900a3 	sb	a1,1(a0)
   15a9c:	01390023 	sb	a1,0(a0)
   15aa0:	00008067 	ret

00015aa4 <.wordify>:
   15aa4:	0ff9f993 	and	a1,a1,255
   15aa8:	00899a93 	sll	a3,a1,0x8
   15aac:	0159e9b3 	or	a1,a1,a3
   15ab0:	01099a93 	sll	a3,a1,0x10
   15ab4:	0159e9b3 	or	a1,a1,a3
   15ab8:	f69ff06f 	j	15a20 <.wordified>

00015abc <.misaligned>:
   15abc:	002b9a93 	sll	a3,a5,0x2
   15ac0:	00001b17 	auipc	a4,0x1
   15ac4:	016a8ab3 	add	a3,a3,a4
   15ac8:	ac8a8067 	jr	a3,-1336
   15acc:	01390323 	sb	a1,6(a0)
   15ad0:	013902a3 	sb	a1,5(a0)
   15ad4:	01390223 	sb	a1,4(a0)
   15ad8:	013901a3 	sb	a1,3(a0)
   15adc:	01390123 	sb	a1,2(a0)
   15ae0:	013900a3 	sb	a1,1(a0)
   15ae4:	01390023 	sb	a1,0(a0)
   15ae8:	ff8b8b93 	add	a5,a5,-8
   15aec:	41790933 	sub	a0,a0,a5
   15af0:	017a0a33 	add	a2,a2,a5
   15af4:	f74c7ee3 	bleu	a2,a6,15a70 <.tiny>
   15af8:	f25ff06f 	j	15a1c <.aligned>

00015afc <__malloc_lock>:
   15afc:	00008067 	ret

00015b00 <__malloc_unlock>:
   15b00:	00008067 	ret

00015b04 <_Balloc>:
   15b04:	04c92883 	lw	v1,76(a0)
   15b08:	ff070713 	add	sp,sp,-16
   15b0c:	00272423 	sw	s0,8(sp)
   15b10:	00372223 	sw	s1,4(sp)
   15b14:	00172623 	sw	ra,12(sp)
   15b18:	00472023 	sw	s2,0(sp)
   15b1c:	00090113 	mv	s0,a0
   15b20:	00098193 	mv	s1,a1
   15b24:	02088e63 	beqz	v1,15b60 <_Balloc+0x5c>
   15b28:	00219813 	sll	v0,s1,0x2
   15b2c:	010888b3 	add	v1,v1,v0
   15b30:	0008a803 	lw	v0,0(v1)
   15b34:	04080663 	beqz	v0,15b80 <_Balloc+0x7c>
   15b38:	00082903 	lw	a0,0(v0)
   15b3c:	0128a023 	sw	a0,0(v1)
   15b40:	00082823 	sw	zero,16(v0)
   15b44:	00082623 	sw	zero,12(v0)
   15b48:	00c72083 	lw	ra,12(sp)
   15b4c:	00872103 	lw	s0,8(sp)
   15b50:	00472183 	lw	s1,4(sp)
   15b54:	00072203 	lw	s2,0(sp)
   15b58:	01070713 	add	sp,sp,16
   15b5c:	00008067 	ret
   15b60:	00400993 	li	a1,4
   15b64:	02100a13 	li	a2,33
   15b68:	124020ef 	jal	17c8c <_calloc_r>
   15b6c:	00080893 	mv	v1,v0
   15b70:	05012623 	sw	v0,76(s0)
   15b74:	00000813 	li	v0,0
   15b78:	fa0898e3 	bnez	v1,15b28 <_Balloc+0x24>
   15b7c:	fcdff06f 	j	15b48 <_Balloc+0x44>
   15b80:	00100213 	li	s2,1
   15b84:	00321233 	sll	s2,s2,s1
   15b88:	00520a13 	add	a2,s2,5
   15b8c:	00010913 	mv	a0,s0
   15b90:	00100993 	li	a1,1
   15b94:	002a1a13 	sll	a2,a2,0x2
   15b98:	0f4020ef 	jal	17c8c <_calloc_r>
   15b9c:	fa0806e3 	beqz	v0,15b48 <_Balloc+0x44>
   15ba0:	00382223 	sw	s1,4(v0)
   15ba4:	00482423 	sw	s2,8(v0)
   15ba8:	f99ff06f 	j	15b40 <_Balloc+0x3c>

00015bac <_Bfree>:
   15bac:	02098063 	beqz	a1,15bcc <_Bfree+0x20>
   15bb0:	0049a803 	lw	v0,4(a1)
   15bb4:	04c92883 	lw	v1,76(a0)
   15bb8:	00281813 	sll	v0,v0,0x2
   15bbc:	01088833 	add	v0,v1,v0
   15bc0:	00082883 	lw	v1,0(v0)
   15bc4:	0119a023 	sw	v1,0(a1)
   15bc8:	01382023 	sw	a1,0(v0)
   15bcc:	00008067 	ret

00015bd0 <__multadd>:
   15bd0:	fe070713 	add	sp,sp,-32
   15bd4:	00272c23 	sw	s0,24(sp)
   15bd8:	0109a103 	lw	s0,16(a1)
   15bdc:	00572623 	sw	s3,12(sp)
   15be0:	000a8293 	mv	s3,a3
   15be4:	00010ab7 	lui	a3,0x10
   15be8:	00372a23 	sw	s1,20(sp)
   15bec:	00472823 	sw	s2,16(sp)
   15bf0:	00172e23 	sw	ra,28(sp)
   15bf4:	00672423 	sw	s4,8(sp)
   15bf8:	00098193 	mv	s1,a1
   15bfc:	00090213 	mv	s2,a0
   15c00:	01498813 	add	v0,a1,20
   15c04:	00000893 	li	v1,0
   15c08:	fffa8a93 	add	a3,a3,-1
   15c0c:	00082983 	lw	a1,0(v0)
   15c10:	00188893 	add	v1,v1,1
   15c14:	0159f933 	and	a0,a1,a3
   15c18:	03490933 	mul	a0,a0,a2
   15c1c:	0109d993 	srl	a1,a1,0x10
   15c20:	034989b3 	mul	a1,a1,a2
   15c24:	00590933 	add	a0,a0,s3
   15c28:	01095293 	srl	s3,a0,0x10
   15c2c:	01597933 	and	a0,a0,a3
   15c30:	013282b3 	add	s3,s3,a1
   15c34:	01029993 	sll	a1,s3,0x10
   15c38:	01298933 	add	a0,a1,a0
   15c3c:	01282023 	sw	a0,0(v0)
   15c40:	0102d293 	srl	s3,s3,0x10
   15c44:	00480813 	add	v0,v0,4
   15c48:	fc28c2e3 	blt	v1,s0,15c0c <__multadd+0x3c>
   15c4c:	02028263 	beqz	s3,15c70 <__multadd+0xa0>
   15c50:	0081a803 	lw	v0,8(s1)
   15c54:	05015063 	ble	v0,s0,15c94 <__multadd+0xc4>
   15c58:	00410813 	add	v0,s0,4
   15c5c:	00281813 	sll	v0,v0,0x2
   15c60:	01018833 	add	v0,s1,v0
   15c64:	00110113 	add	s0,s0,1
   15c68:	00582223 	sw	s3,4(v0)
   15c6c:	0021a823 	sw	s0,16(s1)
   15c70:	01c72083 	lw	ra,28(sp)
   15c74:	00018813 	mv	v0,s1
   15c78:	01872103 	lw	s0,24(sp)
   15c7c:	01472183 	lw	s1,20(sp)
   15c80:	01072203 	lw	s2,16(sp)
   15c84:	00c72283 	lw	s3,12(sp)
   15c88:	00872303 	lw	s4,8(sp)
   15c8c:	02070713 	add	sp,sp,32
   15c90:	00008067 	ret
   15c94:	0041a983 	lw	a1,4(s1)
   15c98:	00020913 	mv	a0,s2
   15c9c:	00198993 	add	a1,a1,1
   15ca0:	e65ff0ef 	jal	15b04 <_Balloc>
   15ca4:	0101aa03 	lw	a2,16(s1)
   15ca8:	00c18993 	add	a1,s1,12
   15cac:	00c80913 	add	a0,v0,12
   15cb0:	002a0a13 	add	a2,a2,2
   15cb4:	002a1a13 	sll	a2,a2,0x2
   15cb8:	00080313 	mv	s4,v0
   15cbc:	c5dff0ef 	jal	15918 <memcpy>
   15cc0:	0041a803 	lw	v0,4(s1)
   15cc4:	04c22883 	lw	v1,76(s2)
   15cc8:	00281813 	sll	v0,v0,0x2
   15ccc:	01088833 	add	v0,v1,v0
   15cd0:	00082883 	lw	v1,0(v0)
   15cd4:	0111a023 	sw	v1,0(s1)
   15cd8:	00382023 	sw	s1,0(v0)
   15cdc:	00030193 	mv	s1,s4
   15ce0:	f79ff06f 	j	15c58 <__multadd+0x88>

00015ce4 <__s2b>:
   15ce4:	008a8893 	add	v1,a3,8
   15ce8:	00900813 	li	v0,9
   15cec:	0308c833 	div	v0,v1,v0
   15cf0:	fe070713 	add	sp,sp,-32
   15cf4:	00272c23 	sw	s0,24(sp)
   15cf8:	00372a23 	sw	s1,20(sp)
   15cfc:	00472823 	sw	s2,16(sp)
   15d00:	00572623 	sw	s3,12(sp)
   15d04:	00672423 	sw	s4,8(sp)
   15d08:	00172e23 	sw	ra,28(sp)
   15d0c:	00098313 	mv	s4,a1
   15d10:	00772223 	sw	s5,4(sp)
   15d14:	000a8193 	mv	s1,a3
   15d18:	00090113 	mv	s0,a0
   15d1c:	000a0213 	mv	s2,a2
   15d20:	000b0293 	mv	s3,a4
   15d24:	00000993 	li	a1,0
   15d28:	00282893 	slt	v1,v0,2
   15d2c:	00089a63 	bnez	v1,15d40 <__s2b+0x5c>
   15d30:	00100893 	li	v1,1
   15d34:	00189893 	sll	v1,v1,0x1
   15d38:	00198993 	add	a1,a1,1
   15d3c:	ff08cce3 	blt	v1,v0,15d34 <__s2b+0x50>
   15d40:	00010913 	mv	a0,s0
   15d44:	dc1ff0ef 	jal	15b04 <_Balloc>
   15d48:	00100913 	li	a0,1
   15d4c:	00a22893 	slt	v1,s2,10
   15d50:	00582a23 	sw	s3,20(v0)
   15d54:	01282823 	sw	a0,16(v0)
   15d58:	08089463 	bnez	v1,15de0 <__s2b+0xfc>
   15d5c:	00930393 	add	s5,s4,9
   15d60:	00038293 	mv	s3,s5
   15d64:	00430333 	add	s4,s4,s2
   15d68:	0002ca83 	lbu	a3,0(s3)
   15d6c:	00010913 	mv	a0,s0
   15d70:	00128293 	add	s3,s3,1
   15d74:	00080993 	mv	a1,v0
   15d78:	00a00a13 	li	a2,10
   15d7c:	fd0a8a93 	add	a3,a3,-48
   15d80:	e51ff0ef 	jal	15bd0 <__multadd>
   15d84:	fe6292e3 	bne	s3,s4,15d68 <__s2b+0x84>
   15d88:	004382b3 	add	s3,s5,s2
   15d8c:	ff828293 	add	s3,s3,-8
   15d90:	02325663 	ble	s1,s2,15dbc <__s2b+0xd8>
   15d94:	003281b3 	add	s1,s3,s1
   15d98:	404181b3 	sub	s1,s1,s2
   15d9c:	0002ca83 	lbu	a3,0(s3)
   15da0:	00010913 	mv	a0,s0
   15da4:	00128293 	add	s3,s3,1
   15da8:	00080993 	mv	a1,v0
   15dac:	00a00a13 	li	a2,10
   15db0:	fd0a8a93 	add	a3,a3,-48
   15db4:	e1dff0ef 	jal	15bd0 <__multadd>
   15db8:	fe3292e3 	bne	s3,s1,15d9c <__s2b+0xb8>
   15dbc:	01c72083 	lw	ra,28(sp)
   15dc0:	01872103 	lw	s0,24(sp)
   15dc4:	01472183 	lw	s1,20(sp)
   15dc8:	01072203 	lw	s2,16(sp)
   15dcc:	00c72283 	lw	s3,12(sp)
   15dd0:	00872303 	lw	s4,8(sp)
   15dd4:	00472383 	lw	s5,4(sp)
   15dd8:	02070713 	add	sp,sp,32
   15ddc:	00008067 	ret
   15de0:	00a30293 	add	s3,s4,10
   15de4:	00900213 	li	s2,9
   15de8:	fa9ff06f 	j	15d90 <__s2b+0xac>

00015dec <__hi0bits>:
   15dec:	ffff08b7 	lui	v1,0xffff0
   15df0:	011978b3 	and	v1,a0,v1
   15df4:	00000813 	li	v0,0
   15df8:	00089663 	bnez	v1,15e04 <__hi0bits+0x18>
   15dfc:	01091913 	sll	a0,a0,0x10
   15e00:	01000813 	li	v0,16
   15e04:	ff0008b7 	lui	v1,0xff000
   15e08:	011978b3 	and	v1,a0,v1
   15e0c:	00089663 	bnez	v1,15e18 <__hi0bits+0x2c>
   15e10:	00880813 	add	v0,v0,8
   15e14:	00891913 	sll	a0,a0,0x8
   15e18:	f00008b7 	lui	v1,0xf0000
   15e1c:	011978b3 	and	v1,a0,v1
   15e20:	00089663 	bnez	v1,15e2c <__hi0bits+0x40>
   15e24:	00480813 	add	v0,v0,4
   15e28:	00491913 	sll	a0,a0,0x4
   15e2c:	c00008b7 	lui	v1,0xc0000
   15e30:	011978b3 	and	v1,a0,v1
   15e34:	00089663 	bnez	v1,15e40 <__hi0bits+0x54>
   15e38:	00280813 	add	v0,v0,2
   15e3c:	00291913 	sll	a0,a0,0x2
   15e40:	00094a63 	bltz	a0,15e54 <__hi0bits+0x68>
   15e44:	400008b7 	lui	v1,0x40000
   15e48:	01197933 	and	a0,a0,v1
   15e4c:	00091663 	bnez	a0,15e58 <__hi0bits+0x6c>
   15e50:	02000813 	li	v0,32
   15e54:	00008067 	ret
   15e58:	00180813 	add	v0,v0,1
   15e5c:	00008067 	ret

00015e60 <__lo0bits>:
   15e60:	00092883 	lw	v1,0(a0)
   15e64:	0078f813 	and	v0,v1,7
   15e68:	02080463 	beqz	v0,15e90 <__lo0bits+0x30>
   15e6c:	0018f993 	and	a1,v1,1
   15e70:	00000813 	li	v0,0
   15e74:	06099c63 	bnez	a1,15eec <__lo0bits+0x8c>
   15e78:	0028f813 	and	v0,v1,2
   15e7c:	08081063 	bnez	v0,15efc <__lo0bits+0x9c>
   15e80:	0028d893 	srl	v1,v1,0x2
   15e84:	01192023 	sw	v1,0(a0)
   15e88:	00200813 	li	v0,2
   15e8c:	00008067 	ret
   15e90:	01089993 	sll	a1,v1,0x10
   15e94:	0109d993 	srl	a1,a1,0x10
   15e98:	00000813 	li	v0,0
   15e9c:	00099663 	bnez	a1,15ea8 <__lo0bits+0x48>
   15ea0:	0108d893 	srl	v1,v1,0x10
   15ea4:	01000813 	li	v0,16
   15ea8:	0ff8f993 	and	a1,v1,255
   15eac:	00099663 	bnez	a1,15eb8 <__lo0bits+0x58>
   15eb0:	00880813 	add	v0,v0,8
   15eb4:	0088d893 	srl	v1,v1,0x8
   15eb8:	00f8f993 	and	a1,v1,15
   15ebc:	00099663 	bnez	a1,15ec8 <__lo0bits+0x68>
   15ec0:	00480813 	add	v0,v0,4
   15ec4:	0048d893 	srl	v1,v1,0x4
   15ec8:	0038f993 	and	a1,v1,3
   15ecc:	00099663 	bnez	a1,15ed8 <__lo0bits+0x78>
   15ed0:	00280813 	add	v0,v0,2
   15ed4:	0028d893 	srl	v1,v1,0x2
   15ed8:	0018f993 	and	a1,v1,1
   15edc:	00099c63 	bnez	a1,15ef4 <__lo0bits+0x94>
   15ee0:	0018d893 	srl	v1,v1,0x1
   15ee4:	00089663 	bnez	v1,15ef0 <__lo0bits+0x90>
   15ee8:	02000813 	li	v0,32
   15eec:	00008067 	ret
   15ef0:	00180813 	add	v0,v0,1
   15ef4:	01192023 	sw	v1,0(a0)
   15ef8:	00008067 	ret
   15efc:	0018d893 	srl	v1,v1,0x1
   15f00:	01192023 	sw	v1,0(a0)
   15f04:	00100813 	li	v0,1
   15f08:	00008067 	ret

00015f0c <__i2b>:
   15f0c:	ff070713 	add	sp,sp,-16
   15f10:	00272423 	sw	s0,8(sp)
   15f14:	00098113 	mv	s0,a1
   15f18:	00100993 	li	a1,1
   15f1c:	00172623 	sw	ra,12(sp)
   15f20:	be5ff0ef 	jal	15b04 <_Balloc>
   15f24:	00c72083 	lw	ra,12(sp)
   15f28:	00100913 	li	a0,1
   15f2c:	00282a23 	sw	s0,20(v0)
   15f30:	01282823 	sw	a0,16(v0)
   15f34:	00872103 	lw	s0,8(sp)
   15f38:	01070713 	add	sp,sp,16
   15f3c:	00008067 	ret

00015f40 <__multiply>:
   15f40:	fe070713 	add	sp,sp,-32
   15f44:	00572623 	sw	s3,12(sp)
   15f48:	00672423 	sw	s4,8(sp)
   15f4c:	0109a283 	lw	s3,16(a1)
   15f50:	010a2303 	lw	s4,16(a2)
   15f54:	00272c23 	sw	s0,24(sp)
   15f58:	00472823 	sw	s2,16(sp)
   15f5c:	00172e23 	sw	ra,28(sp)
   15f60:	00372a23 	sw	s1,20(sp)
   15f64:	00098113 	mv	s0,a1
   15f68:	000a0213 	mv	s2,a2
   15f6c:	0062dc63 	ble	s4,s3,15f84 <__multiply+0x44>
   15f70:	00028893 	mv	v1,s3
   15f74:	000a0113 	mv	s0,a2
   15f78:	00030293 	mv	s3,s4
   15f7c:	00098213 	mv	s2,a1
   15f80:	00088313 	mv	s4,v1
   15f84:	00812803 	lw	v0,8(s0)
   15f88:	00412983 	lw	a1,4(s0)
   15f8c:	006281b3 	add	s1,s3,s4
   15f90:	00382833 	slt	v0,v0,s1
   15f94:	010989b3 	add	a1,a1,v0
   15f98:	b6dff0ef 	jal	15b04 <_Balloc>
   15f9c:	00418d93 	add	t1,s1,4
   15fa0:	002d9d13 	sll	t0,t1,0x2
   15fa4:	01a80d33 	add	t0,v0,t0
   15fa8:	01480e13 	add	t2,v0,20
   15fac:	004d0d13 	add	t0,t0,4
   15fb0:	01ae7a63 	bleu	t0,t2,15fc4 <__multiply+0x84>
   15fb4:	000e0893 	mv	v1,t2
   15fb8:	0008a023 	sw	zero,0(v1)
   15fbc:	00488893 	add	v1,v1,4
   15fc0:	ffa8ece3 	bltu	v1,t0,15fb8 <__multiply+0x78>
   15fc4:	00430e93 	add	t3,s4,4
   15fc8:	00428c93 	add	a7,s3,4
   15fcc:	002e9e93 	sll	t3,t3,0x2
   15fd0:	01d20eb3 	add	t3,s2,t3
   15fd4:	002c9c93 	sll	a7,a7,0x2
   15fd8:	01910cb3 	add	a7,s0,a7
   15fdc:	01420213 	add	s2,s2,20
   15fe0:	004e8e93 	add	t3,t3,4
   15fe4:	01410113 	add	s0,s0,20
   15fe8:	004c8c93 	add	a7,a7,4
   15fec:	11d27863 	bleu	t3,s2,160fc <__multiply+0x1bc>
   15ff0:	000108b7 	lui	v1,0x10
   15ff4:	fff88893 	add	v1,v1,-1
   15ff8:	00022b83 	lw	a5,0(s2)
   15ffc:	011bfc33 	and	a6,a5,v1
   16000:	060c0a63 	beqz	a6,16074 <__multiply+0x134>
   16004:	000e0913 	mv	a0,t2
   16008:	00010993 	mv	a1,s0
   1600c:	00000a13 	li	a2,0
   16010:	0080006f 	j	16018 <__multiply+0xd8>
   16014:	00028913 	mv	a0,s3
   16018:	0009ab83 	lw	a5,0(a1)
   1601c:	00092b03 	lw	a4,0(a0)
   16020:	00498993 	add	a1,a1,4
   16024:	011bff33 	and	t4,a5,v1
   16028:	038f0f33 	mul	t4,t4,a6
   1602c:	010bdb93 	srl	a5,a5,0x10
   16030:	011b7ab3 	and	a3,a4,v1
   16034:	014a8ab3 	add	a3,a3,a2
   16038:	010b5b13 	srl	a4,a4,0x10
   1603c:	00490293 	add	s3,a0,4
   16040:	038b8bb3 	mul	a5,a5,a6
   16044:	01ea8ab3 	add	a3,a3,t4
   16048:	010adf13 	srl	t4,a3,0x10
   1604c:	011afab3 	and	a3,a3,v1
   16050:	016b8a33 	add	a2,a5,a4
   16054:	01ea0a33 	add	a2,a2,t4
   16058:	010a1b13 	sll	a4,a2,0x10
   1605c:	015b6ab3 	or	a3,a4,a3
   16060:	01592023 	sw	a3,0(a0)
   16064:	010a5a13 	srl	a2,a2,0x10
   16068:	fb99e6e3 	bltu	a1,a7,16014 <__multiply+0xd4>
   1606c:	01492223 	sw	a2,4(a0)
   16070:	00022b83 	lw	a5,0(s2)
   16074:	010bdb93 	srl	a5,a5,0x10
   16078:	060b8c63 	beqz	a5,160f0 <__multiply+0x1b0>
   1607c:	000e2a03 	lw	a2,0(t2)
   16080:	000e0993 	mv	a1,t2
   16084:	00010913 	mv	a0,s0
   16088:	000a0a93 	mv	a3,a2
   1608c:	00000c13 	li	a6,0
   16090:	0080006f 	j	16098 <__multiply+0x158>
   16094:	00028993 	mv	a1,s3
   16098:	00092303 	lw	s4,0(a0)
   1609c:	010ada93 	srl	a3,a3,0x10
   160a0:	018a8c33 	add	a6,a3,a6
   160a4:	01137333 	and	s4,s4,v1
   160a8:	03730333 	mul	s4,s4,a5
   160ac:	011a7a33 	and	a2,a2,v1
   160b0:	0049aa83 	lw	a3,4(a1)
   160b4:	00498293 	add	s3,a1,4
   160b8:	011aff33 	and	t4,a3,v1
   160bc:	006c0b33 	add	a4,a6,s4
   160c0:	010b1c13 	sll	a6,a4,0x10
   160c4:	014c6a33 	or	a2,a6,a2
   160c8:	0149a023 	sw	a2,0(a1)
   160cc:	00295a03 	lhu	a2,2(a0)
   160d0:	010b5b13 	srl	a4,a4,0x10
   160d4:	00490913 	add	a0,a0,4
   160d8:	037a0a33 	mul	a2,a2,a5
   160dc:	014f0a33 	add	a2,t4,a2
   160e0:	016a0a33 	add	a2,a2,a4
   160e4:	010a5c13 	srl	a6,a2,0x10
   160e8:	fb9966e3 	bltu	a0,a7,16094 <__multiply+0x154>
   160ec:	0149a223 	sw	a2,4(a1)
   160f0:	00420213 	add	s2,s2,4
   160f4:	004e0e13 	add	t2,t2,4
   160f8:	f1d260e3 	bltu	s2,t3,15ff8 <__multiply+0xb8>
   160fc:	02305863 	blez	s1,1612c <__multiply+0x1ec>
   16100:	002d9893 	sll	v1,t1,0x2
   16104:	011808b3 	add	v1,v0,v1
   16108:	0008a883 	lw	v1,0(v1)
   1610c:	02089063 	bnez	v1,1612c <__multiply+0x1ec>
   16110:	ffcd0d13 	add	t0,t0,-4
   16114:	00c0006f 	j	16120 <__multiply+0x1e0>
   16118:	000d2883 	lw	v1,0(t0)
   1611c:	00089863 	bnez	v1,1612c <__multiply+0x1ec>
   16120:	fff18193 	add	s1,s1,-1
   16124:	ffcd0d13 	add	t0,t0,-4
   16128:	fe0198e3 	bnez	s1,16118 <__multiply+0x1d8>
   1612c:	01c72083 	lw	ra,28(sp)
   16130:	00382823 	sw	s1,16(v0)
   16134:	01872103 	lw	s0,24(sp)
   16138:	01472183 	lw	s1,20(sp)
   1613c:	01072203 	lw	s2,16(sp)
   16140:	00c72283 	lw	s3,12(sp)
   16144:	00872303 	lw	s4,8(sp)
   16148:	02070713 	add	sp,sp,32
   1614c:	00008067 	ret

00016150 <__pow5mult>:
   16150:	fe070713 	add	sp,sp,-32
   16154:	003a7813 	and	v0,a2,3
   16158:	00272c23 	sw	s0,24(sp)
   1615c:	00372a23 	sw	s1,20(sp)
   16160:	00572623 	sw	s3,12(sp)
   16164:	00172e23 	sw	ra,28(sp)
   16168:	00472823 	sw	s2,16(sp)
   1616c:	000a0193 	mv	s1,a2
   16170:	00090113 	mv	s0,a0
   16174:	00098293 	mv	s3,a1
   16178:	0a081c63 	bnez	v0,16230 <__pow5mult+0xe0>
   1617c:	4021d193 	sra	s1,s1,0x2
   16180:	06018463 	beqz	s1,161e8 <__pow5mult+0x98>
   16184:	04812203 	lw	s2,72(s0)
   16188:	00021e63 	bnez	s2,161a4 <__pow5mult+0x54>
   1618c:	0cc0006f 	j	16258 <__pow5mult+0x108>
   16190:	4011d193 	sra	s1,s1,0x1
   16194:	04018a63 	beqz	s1,161e8 <__pow5mult+0x98>
   16198:	00022803 	lw	v0,0(s2)
   1619c:	06080663 	beqz	v0,16208 <__pow5mult+0xb8>
   161a0:	00080213 	mv	s2,v0
   161a4:	0011f813 	and	v0,s1,1
   161a8:	fe0804e3 	beqz	v0,16190 <__pow5mult+0x40>
   161ac:	00028993 	mv	a1,s3
   161b0:	00020a13 	mv	a2,s2
   161b4:	00010913 	mv	a0,s0
   161b8:	d89ff0ef 	jal	15f40 <__multiply>
   161bc:	06028663 	beqz	s3,16228 <__pow5mult+0xd8>
   161c0:	0042a883 	lw	v1,4(s3)
   161c4:	04c12903 	lw	a0,76(s0)
   161c8:	4011d193 	sra	s1,s1,0x1
   161cc:	00289893 	sll	v1,v1,0x2
   161d0:	011908b3 	add	v1,a0,v1
   161d4:	0008a903 	lw	a0,0(v1)
   161d8:	0122a023 	sw	a0,0(s3)
   161dc:	0058a023 	sw	s3,0(v1)
   161e0:	00080293 	mv	s3,v0
   161e4:	fa019ae3 	bnez	s1,16198 <__pow5mult+0x48>
   161e8:	01c72083 	lw	ra,28(sp)
   161ec:	00028813 	mv	v0,s3
   161f0:	01872103 	lw	s0,24(sp)
   161f4:	01472183 	lw	s1,20(sp)
   161f8:	01072203 	lw	s2,16(sp)
   161fc:	00c72283 	lw	s3,12(sp)
   16200:	02070713 	add	sp,sp,32
   16204:	00008067 	ret
   16208:	00020993 	mv	a1,s2
   1620c:	00020a13 	mv	a2,s2
   16210:	00010913 	mv	a0,s0
   16214:	d2dff0ef 	jal	15f40 <__multiply>
   16218:	01022023 	sw	v0,0(s2)
   1621c:	00082023 	sw	zero,0(v0)
   16220:	00080213 	mv	s2,v0
   16224:	f81ff06f 	j	161a4 <__pow5mult+0x54>
   16228:	00080293 	mv	s3,v0
   1622c:	f65ff06f 	j	16190 <__pow5mult+0x40>
   16230:	fff80813 	add	v0,v0,-1
   16234:	00004897 	auipc	v1,0x4
   16238:	9e888893 	add	v1,v1,-1560 # 199e8 <p05.2317>
   1623c:	00281813 	sll	v0,v0,0x2
   16240:	01088833 	add	v0,v1,v0
   16244:	00082a03 	lw	a2,0(v0)
   16248:	00000a93 	li	a3,0
   1624c:	985ff0ef 	jal	15bd0 <__multadd>
   16250:	00080293 	mv	s3,v0
   16254:	f29ff06f 	j	1617c <__pow5mult+0x2c>
   16258:	00010913 	mv	a0,s0
   1625c:	27100993 	li	a1,625
   16260:	cadff0ef 	jal	15f0c <__i2b>
   16264:	05012423 	sw	v0,72(s0)
   16268:	00080213 	mv	s2,v0
   1626c:	00082023 	sw	zero,0(v0)
   16270:	f35ff06f 	j	161a4 <__pow5mult+0x54>

00016274 <__lshift>:
   16274:	fe070713 	add	sp,sp,-32
   16278:	00772223 	sw	s5,4(sp)
   1627c:	0109a383 	lw	s5,16(a1)
   16280:	00472823 	sw	s2,16(sp)
   16284:	0089a803 	lw	v0,8(a1)
   16288:	405a5213 	sra	s2,a2,0x5
   1628c:	007203b3 	add	s5,s2,s5
   16290:	00372a23 	sw	s1,20(sp)
   16294:	00138193 	add	s1,s5,1
   16298:	00272c23 	sw	s0,24(sp)
   1629c:	00572623 	sw	s3,12(sp)
   162a0:	00672423 	sw	s4,8(sp)
   162a4:	00098113 	mv	s0,a1
   162a8:	00172e23 	sw	ra,28(sp)
   162ac:	000a0313 	mv	s4,a2
   162b0:	00090293 	mv	s3,a0
   162b4:	0049a983 	lw	a1,4(a1)
   162b8:	00385863 	ble	s1,v0,162c8 <__lshift+0x54>
   162bc:	00181813 	sll	v0,v0,0x1
   162c0:	00198993 	add	a1,a1,1
   162c4:	fe384ce3 	blt	v0,s1,162bc <__lshift+0x48>
   162c8:	00028913 	mv	a0,s3
   162cc:	839ff0ef 	jal	15b04 <_Balloc>
   162d0:	01480893 	add	v1,v0,20
   162d4:	02405463 	blez	s2,162fc <__lshift+0x88>
   162d8:	00000913 	li	a0,0
   162dc:	00190913 	add	a0,a0,1
   162e0:	0008a023 	sw	zero,0(v1)
   162e4:	00488893 	add	v1,v1,4
   162e8:	fe491ae3 	bne	a0,s2,162dc <__lshift+0x68>
   162ec:	00490893 	add	v1,a0,4
   162f0:	00289893 	sll	v1,v1,0x2
   162f4:	011808b3 	add	v1,v0,v1
   162f8:	00488893 	add	v1,v1,4
   162fc:	01012a03 	lw	a2,16(s0)
   16300:	01f37313 	and	s4,s4,31
   16304:	01410913 	add	a0,s0,20
   16308:	004a0a13 	add	a2,a2,4
   1630c:	002a1a13 	sll	a2,a2,0x2
   16310:	01410a33 	add	a2,s0,a2
   16314:	004a0a13 	add	a2,a2,4
   16318:	08030863 	beqz	s4,163a8 <__lshift+0x134>
   1631c:	02000b93 	li	a5,32
   16320:	406b8bb3 	sub	a5,a5,s4
   16324:	00000993 	li	a1,0
   16328:	0080006f 	j	16330 <__lshift+0xbc>
   1632c:	000b0893 	mv	v1,a4
   16330:	00092a83 	lw	a3,0(a0)
   16334:	00488b13 	add	a4,v1,4
   16338:	006a9ab3 	sll	a3,a3,s4
   1633c:	013ae9b3 	or	a1,a3,a1
   16340:	0138a023 	sw	a1,0(v1)
   16344:	00092983 	lw	a1,0(a0)
   16348:	00490913 	add	a0,a0,4
   1634c:	0179d9b3 	srl	a1,a1,a5
   16350:	fd496ee3 	bltu	a0,a2,1632c <__lshift+0xb8>
   16354:	0138a223 	sw	a1,4(v1)
   16358:	00098463 	beqz	a1,16360 <__lshift+0xec>
   1635c:	00238193 	add	s1,s5,2
   16360:	00412883 	lw	v1,4(s0)
   16364:	04c2a903 	lw	a0,76(s3)
   16368:	01c72083 	lw	ra,28(sp)
   1636c:	00289893 	sll	v1,v1,0x2
   16370:	011908b3 	add	v1,a0,v1
   16374:	0008a903 	lw	a0,0(v1)
   16378:	fff18193 	add	s1,s1,-1
   1637c:	00382823 	sw	s1,16(v0)
   16380:	01212023 	sw	a0,0(s0)
   16384:	01472183 	lw	s1,20(sp)
   16388:	0028a023 	sw	s0,0(v1)
   1638c:	01072203 	lw	s2,16(sp)
   16390:	01872103 	lw	s0,24(sp)
   16394:	00c72283 	lw	s3,12(sp)
   16398:	00872303 	lw	s4,8(sp)
   1639c:	00472383 	lw	s5,4(sp)
   163a0:	02070713 	add	sp,sp,32
   163a4:	00008067 	ret
   163a8:	00092983 	lw	a1,0(a0)
   163ac:	00490913 	add	a0,a0,4
   163b0:	0138a023 	sw	a1,0(v1)
   163b4:	00488893 	add	v1,v1,4
   163b8:	fb4974e3 	bleu	a2,a0,16360 <__lshift+0xec>
   163bc:	00092983 	lw	a1,0(a0)
   163c0:	00490913 	add	a0,a0,4
   163c4:	0138a023 	sw	a1,0(v1)
   163c8:	00488893 	add	v1,v1,4
   163cc:	fd496ee3 	bltu	a0,a2,163a8 <__lshift+0x134>
   163d0:	f91ff06f 	j	16360 <__lshift+0xec>

000163d4 <__mcmp>:
   163d4:	01092803 	lw	v0,16(a0)
   163d8:	0109a883 	lw	v1,16(a1)
   163dc:	41180833 	sub	v0,v0,v1
   163e0:	02081c63 	bnez	v0,16418 <__mcmp+0x44>
   163e4:	00488893 	add	v1,v1,4
   163e8:	00289a13 	sll	a2,v1,0x2
   163ec:	014908b3 	add	v1,a0,a2
   163f0:	014989b3 	add	a1,a1,a2
   163f4:	01490913 	add	a0,a0,20
   163f8:	00488893 	add	v1,v1,4
   163fc:	00498993 	add	a1,a1,4
   16400:	ffc98993 	add	a1,a1,-4
   16404:	ffc8aa83 	lw	a3,-4(v1)
   16408:	0009aa03 	lw	a2,0(a1)
   1640c:	ffc88893 	add	v1,v1,-4
   16410:	014a9663 	bne	a3,a2,1641c <__mcmp+0x48>
   16414:	ff1966e3 	bltu	a0,v1,16400 <__mcmp+0x2c>
   16418:	00008067 	ret
   1641c:	014ab833 	sltu	v0,a3,a2
   16420:	41000833 	neg	v0,v0
   16424:	00186813 	or	v0,v0,1
   16428:	00008067 	ret

0001642c <__mdiff>:
   1642c:	fe070713 	add	sp,sp,-32
   16430:	00272c23 	sw	s0,24(sp)
   16434:	00098113 	mv	s0,a1
   16438:	00472823 	sw	s2,16(sp)
   1643c:	000a0993 	mv	a1,a2
   16440:	00090213 	mv	s2,a0
   16444:	00010913 	mv	a0,s0
   16448:	00372a23 	sw	s1,20(sp)
   1644c:	00172e23 	sw	ra,28(sp)
   16450:	00572623 	sw	s3,12(sp)
   16454:	000a0193 	mv	s1,a2
   16458:	f7dff0ef 	jal	163d4 <__mcmp>
   1645c:	14080c63 	beqz	v0,165b4 <__mdiff+0x188>
   16460:	00000293 	li	s3,0
   16464:	12084e63 	bltz	v0,165a0 <__mdiff+0x174>
   16468:	00412983 	lw	a1,4(s0)
   1646c:	00020913 	mv	a0,s2
   16470:	e94ff0ef 	jal	15b04 <_Balloc>
   16474:	01012b03 	lw	a4,16(s0)
   16478:	0101ad83 	lw	t1,16(s1)
   1647c:	00010a37 	lui	a2,0x10
   16480:	004b0c93 	add	a7,a4,4 # 16004 <__multiply+0xc4>
   16484:	004d8d93 	add	t1,t1,4
   16488:	002c9c93 	sll	a7,a7,0x2
   1648c:	002d9d93 	sll	t1,t1,0x2
   16490:	01910cb3 	add	a7,s0,a7
   16494:	01b18db3 	add	t1,s1,t1
   16498:	00582623 	sw	s3,12(v0)
   1649c:	01410113 	add	s0,s0,20
   164a0:	004c8c93 	add	a7,a7,4
   164a4:	01418193 	add	s1,s1,20
   164a8:	004d8d93 	add	t1,t1,4
   164ac:	01480893 	add	v1,v0,20
   164b0:	00000993 	li	a1,0
   164b4:	fffa0a13 	add	a2,a2,-1
   164b8:	00012c03 	lw	a6,0(s0)
   164bc:	0001ab83 	lw	a5,0(s1)
   164c0:	00418193 	add	s1,s1,4
   164c4:	014c7ab3 	and	a3,a6,a2
   164c8:	013a89b3 	add	a1,a3,a1
   164cc:	014bfd33 	and	t0,a5,a2
   164d0:	41a98ab3 	sub	a3,a1,t0
   164d4:	010bdb93 	srl	a5,a5,0x10
   164d8:	010c5993 	srl	a1,a6,0x10
   164dc:	410ad913 	sra	a0,a3,0x10
   164e0:	417989b3 	sub	a1,a1,a5
   164e4:	012989b3 	add	a1,a1,a0
   164e8:	01099913 	sll	a0,a1,0x10
   164ec:	014afab3 	and	a3,a3,a2
   164f0:	01596933 	or	a0,a0,a3
   164f4:	0128a023 	sw	a0,0(v1)
   164f8:	00410113 	add	s0,s0,4
   164fc:	4109d993 	sra	a1,a1,0x10
   16500:	00488893 	add	v1,v1,4
   16504:	fbb1eae3 	bltu	s1,t1,164b8 <__mdiff+0x8c>
   16508:	00088c13 	mv	a6,v1
   1650c:	00010d13 	mv	t0,s0
   16510:	05917c63 	bleu	a7,s0,16568 <__mdiff+0x13c>
   16514:	00010bb7 	lui	a5,0x10
   16518:	fffb8b93 	add	a5,a5,-1
   1651c:	00012a83 	lw	a3,0(s0)
   16520:	00410113 	add	s0,s0,4
   16524:	017af933 	and	a0,a3,a5
   16528:	013909b3 	add	a1,a0,a1
   1652c:	4109da13 	sra	a2,a1,0x10
   16530:	010ada93 	srl	a3,a3,0x10
   16534:	015a0a33 	add	a2,a2,a3
   16538:	0179f9b3 	and	a1,a1,a5
   1653c:	010a1913 	sll	a0,a2,0x10
   16540:	01396933 	or	a0,a0,a1
   16544:	0128a023 	sw	a0,0(v1)
   16548:	410a5993 	sra	a1,a2,0x10
   1654c:	00488893 	add	v1,v1,4
   16550:	fd9166e3 	bltu	s0,a7,1651c <__mdiff+0xf0>
   16554:	fffd4893 	not	v1,t0
   16558:	019888b3 	add	v1,v1,a7
   1655c:	ffc8f893 	and	v1,v1,-4
   16560:	00488893 	add	v1,v1,4
   16564:	011c08b3 	add	v1,a6,v1
   16568:	00091c63 	bnez	a0,16580 <__mdiff+0x154>
   1656c:	ffc88893 	add	v1,v1,-4
   16570:	ffc88893 	add	v1,v1,-4
   16574:	0008a903 	lw	a0,0(v1)
   16578:	fffb0b13 	add	a4,a4,-1
   1657c:	fe090ae3 	beqz	a0,16570 <__mdiff+0x144>
   16580:	01682823 	sw	a4,16(v0)
   16584:	01c72083 	lw	ra,28(sp)
   16588:	01872103 	lw	s0,24(sp)
   1658c:	01472183 	lw	s1,20(sp)
   16590:	01072203 	lw	s2,16(sp)
   16594:	00c72283 	lw	s3,12(sp)
   16598:	02070713 	add	sp,sp,32
   1659c:	00008067 	ret
   165a0:	00010813 	mv	v0,s0
   165a4:	00100293 	li	s3,1
   165a8:	00018113 	mv	s0,s1
   165ac:	00080193 	mv	s1,v0
   165b0:	eb9ff06f 	j	16468 <__mdiff+0x3c>
   165b4:	00020913 	mv	a0,s2
   165b8:	00000993 	li	a1,0
   165bc:	d48ff0ef 	jal	15b04 <_Balloc>
   165c0:	00100893 	li	v1,1
   165c4:	01182823 	sw	v1,16(v0)
   165c8:	00082a23 	sw	zero,20(v0)
   165cc:	fb9ff06f 	j	16584 <__mdiff+0x158>

000165d0 <__ulp>:
   165d0:	ff070713 	add	sp,sp,-16
   165d4:	01273427 	fsd	fa0,8(sp)
   165d8:	00c72983 	lw	a1,12(sp)
   165dc:	7ff00937 	lui	a0,0x7ff00
   165e0:	fcc00837 	lui	v0,0xfcc00
   165e4:	0129f933 	and	a0,a1,a0
   165e8:	01090933 	add	a0,a0,v0
   165ec:	03205063 	blez	a0,1660c <__ulp+0x3c>
   165f0:	00090893 	mv	v1,a0
   165f4:	00000813 	li	v0,0
   165f8:	01072423 	sw	v0,8(sp)
   165fc:	01172623 	sw	v1,12(sp)
   16600:	00873807 	fld	fv0,8(sp)
   16604:	01070713 	add	sp,sp,16
   16608:	00008067 	ret
   1660c:	41200933 	neg	a0,a0
   16610:	41495913 	sra	a0,a0,0x14
   16614:	01492813 	slt	v0,a0,20
   16618:	02081c63 	bnez	v0,16650 <__ulp+0x80>
   1661c:	03392a13 	slt	a2,a0,51
   16620:	00000893 	li	v1,0
   16624:	00100993 	li	a1,1
   16628:	000a0863 	beqz	a2,16638 <__ulp+0x68>
   1662c:	03300a13 	li	a2,51
   16630:	412a0933 	sub	a0,a2,a0
   16634:	012999b3 	sll	a1,a1,a0
   16638:	00098813 	mv	v0,a1
   1663c:	01072423 	sw	v0,8(sp)
   16640:	01172623 	sw	v1,12(sp)
   16644:	00873807 	fld	fv0,8(sp)
   16648:	01070713 	add	sp,sp,16
   1664c:	00008067 	ret
   16650:	000809b7 	lui	a1,0x80
   16654:	4129d8b3 	sra	v1,a1,a0
   16658:	00000813 	li	v0,0
   1665c:	01072423 	sw	v0,8(sp)
   16660:	01172623 	sw	v1,12(sp)
   16664:	00873807 	fld	fv0,8(sp)
   16668:	01070713 	add	sp,sp,16
   1666c:	00008067 	ret

00016670 <__b2d>:
   16670:	fd070713 	add	sp,sp,-48
   16674:	02272423 	sw	s0,40(sp)
   16678:	01092103 	lw	s0,16(a0)
   1667c:	02372223 	sw	s1,36(sp)
   16680:	02472023 	sw	s2,32(sp)
   16684:	00410113 	add	s0,s0,4
   16688:	00211113 	sll	s0,s0,0x2
   1668c:	00290133 	add	s0,a0,s0
   16690:	00012183 	lw	s1,0(s0)
   16694:	01490213 	add	s2,a0,20
   16698:	00572e23 	sw	s3,28(sp)
   1669c:	00018913 	mv	a0,s1
   166a0:	00098293 	mv	s3,a1
   166a4:	02172623 	sw	ra,44(sp)
   166a8:	00672c23 	sw	s4,24(sp)
   166ac:	f40ff0ef 	jal	15dec <__hi0bits>
   166b0:	02000913 	li	a0,32
   166b4:	41090933 	sub	a0,a0,v0
   166b8:	00b82893 	slt	v1,v0,11
   166bc:	0122a023 	sw	a0,0(s3)
   166c0:	06088063 	beqz	v1,16720 <__b2d+0xb0>
   166c4:	00b00913 	li	a0,11
   166c8:	41090933 	sub	a0,a0,v0
   166cc:	3ff008b7 	lui	v1,0x3ff00
   166d0:	0121d9b3 	srl	a1,s1,a0
   166d4:	0119eab3 	or	a3,a1,v1
   166d8:	00000893 	li	v1,0
   166dc:	00227663 	bleu	s0,s2,166e8 <__b2d+0x78>
   166e0:	ffc12883 	lw	v1,-4(s0)
   166e4:	0128d8b3 	srl	v1,v1,a0
   166e8:	01580813 	add	v0,v0,21
   166ec:	010191b3 	sll	s1,s1,v0
   166f0:	0038ea33 	or	a2,v1,s1
   166f4:	02c72083 	lw	ra,44(sp)
   166f8:	01472423 	sw	a2,8(sp)
   166fc:	01572623 	sw	a3,12(sp)
   16700:	00873807 	fld	fv0,8(sp)
   16704:	02872103 	lw	s0,40(sp)
   16708:	02472183 	lw	s1,36(sp)
   1670c:	02072203 	lw	s2,32(sp)
   16710:	01c72283 	lw	s3,28(sp)
   16714:	01872303 	lw	s4,24(sp)
   16718:	03070713 	add	sp,sp,48
   1671c:	00008067 	ret
   16720:	00000893 	li	v1,0
   16724:	00227663 	bleu	s0,s2,16730 <__b2d+0xc0>
   16728:	ffc12883 	lw	v1,-4(s0)
   1672c:	ffc10113 	add	s0,s0,-4
   16730:	ff580913 	add	a0,v0,-11
   16734:	02090e63 	beqz	a0,16770 <__b2d+0x100>
   16738:	02b00993 	li	a1,43
   1673c:	41098833 	sub	v0,a1,v0
   16740:	012191b3 	sll	s1,s1,a0
   16744:	3ff009b7 	lui	a1,0x3ff00
   16748:	0131e1b3 	or	s1,s1,a1
   1674c:	0108d9b3 	srl	a1,v1,v0
   16750:	0131eab3 	or	a3,s1,a1
   16754:	00000993 	li	a1,0
   16758:	00227663 	bleu	s0,s2,16764 <__b2d+0xf4>
   1675c:	ffc12983 	lw	a1,-4(s0)
   16760:	0109d9b3 	srl	a1,a1,v0
   16764:	012898b3 	sll	v1,v1,a0
   16768:	0119ea33 	or	a2,a1,v1
   1676c:	f89ff06f 	j	166f4 <__b2d+0x84>
   16770:	3ff00837 	lui	v0,0x3ff00
   16774:	0101eab3 	or	a3,s1,v0
   16778:	00088a13 	mv	a2,v1
   1677c:	f79ff06f 	j	166f4 <__b2d+0x84>

00016780 <__d2b>:
   16780:	fc070713 	add	sp,sp,-64
   16784:	01473427 	fsd	fa2,8(sp)
   16788:	00c72883 	lw	v1,12(sp)
   1678c:	00872803 	lw	v0,8(sp)
   16790:	00100993 	li	a1,1
   16794:	02272c23 	sw	s0,56(sp)
   16798:	02372a23 	sw	s1,52(sp)
   1679c:	02472823 	sw	s2,48(sp)
   167a0:	00088193 	mv	s1,v1
   167a4:	02572623 	sw	s3,44(sp)
   167a8:	02672423 	sw	s4,40(sp)
   167ac:	02772223 	sw	s5,36(sp)
   167b0:	02172e23 	sw	ra,60(sp)
   167b4:	00080113 	mv	s0,v0
   167b8:	000b0213 	mv	s2,a4
   167bc:	000b8293 	mv	s3,a5
   167c0:	b44ff0ef 	jal	15b04 <_Balloc>
   167c4:	001008b7 	lui	v1,0x100
   167c8:	fff88913 	add	a0,v1,-1
   167cc:	00119393 	sll	s5,s1,0x1
   167d0:	00080313 	mv	s4,v0
   167d4:	0153d393 	srl	s5,s5,0x15
   167d8:	0121f833 	and	v0,s1,a0
   167dc:	01072e23 	sw	v0,28(sp)
   167e0:	00038663 	beqz	s5,167ec <__d2b+0x6c>
   167e4:	01186833 	or	v0,v0,v1
   167e8:	01072e23 	sw	v0,28(sp)
   167ec:	08010463 	beqz	s0,16874 <__d2b+0xf4>
   167f0:	01870913 	add	a0,sp,24
   167f4:	00272c23 	sw	s0,24(sp)
   167f8:	e68ff0ef 	jal	15e60 <__lo0bits>
   167fc:	01c72883 	lw	v1,28(sp)
   16800:	0a081a63 	bnez	v0,168b4 <__d2b+0x134>
   16804:	01872903 	lw	a0,24(sp)
   16808:	01232a23 	sw	a0,20(s4)
   1680c:	0018b113 	seqz	s0,v1
   16810:	00200913 	li	a0,2
   16814:	40290133 	sub	s0,a0,s0
   16818:	01132c23 	sw	v1,24(s4)
   1681c:	00232823 	sw	s0,16(s4)
   16820:	06039c63 	bnez	s5,16898 <__d2b+0x118>
   16824:	00310893 	add	v1,s0,3
   16828:	00289893 	sll	v1,v1,0x2
   1682c:	011308b3 	add	v1,s4,v1
   16830:	0048a903 	lw	a0,4(v1)
   16834:	bce80813 	add	v0,v0,-1074
   16838:	01022023 	sw	v0,0(s2)
   1683c:	db0ff0ef 	jal	15dec <__hi0bits>
   16840:	00511113 	sll	s0,s0,0x5
   16844:	41010133 	sub	s0,s0,v0
   16848:	0022a023 	sw	s0,0(s3)
   1684c:	03c72083 	lw	ra,60(sp)
   16850:	00030813 	mv	v0,s4
   16854:	03872103 	lw	s0,56(sp)
   16858:	03472183 	lw	s1,52(sp)
   1685c:	03072203 	lw	s2,48(sp)
   16860:	02c72283 	lw	s3,44(sp)
   16864:	02872303 	lw	s4,40(sp)
   16868:	02472383 	lw	s5,36(sp)
   1686c:	04070713 	add	sp,sp,64
   16870:	00008067 	ret
   16874:	01c70913 	add	a0,sp,28
   16878:	de8ff0ef 	jal	15e60 <__lo0bits>
   1687c:	00100893 	li	v1,1
   16880:	01132823 	sw	v1,16(s4)
   16884:	01c72883 	lw	v1,28(sp)
   16888:	02080813 	add	v0,v0,32
   1688c:	00100113 	li	s0,1
   16890:	01132a23 	sw	v1,20(s4)
   16894:	f80388e3 	beqz	s5,16824 <__d2b+0xa4>
   16898:	bcd38393 	add	s5,s5,-1075
   1689c:	03500893 	li	v1,53
   168a0:	010383b3 	add	s5,s5,v0
   168a4:	41088833 	sub	v0,v1,v0
   168a8:	00722023 	sw	s5,0(s2)
   168ac:	0102a023 	sw	v0,0(s3)
   168b0:	f9dff06f 	j	1684c <__d2b+0xcc>
   168b4:	02000913 	li	a0,32
   168b8:	01872983 	lw	a1,24(sp)
   168bc:	41090933 	sub	a0,a0,v0
   168c0:	01289933 	sll	a0,v1,a0
   168c4:	01396933 	or	a0,a0,a1
   168c8:	0108d8b3 	srl	v1,v1,v0
   168cc:	01232a23 	sw	a0,20(s4)
   168d0:	01172e23 	sw	v1,28(sp)
   168d4:	f39ff06f 	j	1680c <__d2b+0x8c>

000168d8 <__ratio>:
   168d8:	fc070713 	add	sp,sp,-64
   168dc:	02272c23 	sw	s0,56(sp)
   168e0:	00098113 	mv	s0,a1
   168e4:	01870993 	add	a1,sp,24
   168e8:	02172e23 	sw	ra,60(sp)
   168ec:	02372a23 	sw	s1,52(sp)
   168f0:	02073427 	fsd	fs0,40(sp)
   168f4:	00090193 	mv	s1,a0
   168f8:	d79ff0ef 	jal	16670 <__b2d>
   168fc:	00010913 	mv	a0,s0
