
dhry.elf:     file format elf32-littleriscv


Disassembly of section .text:

00010000 <_start>:
   10000:	00014197          	auipc	gp,0x14
   10004:	44818193          	addi	gp,gp,1096 # 24448 <__global_pointer$>
   10008:	82c18513          	addi	a0,gp,-2004 # 23c74 <_edata>
   1000c:	00016617          	auipc	a2,0x16
   10010:	4d460613          	addi	a2,a2,1236 # 264e0 <_end>
   10014:	40a60633          	sub	a2,a2,a0
   10018:	00000593          	li	a1,0
   1001c:	4fd000ef          	jal	ra,10d18 <memset>
   10020:	00000517          	auipc	a0,0x0
   10024:	57c50513          	addi	a0,a0,1404 # 1059c <__libc_fini_array>
   10028:	528000ef          	jal	ra,10550 <atexit>
   1002c:	5cc000ef          	jal	ra,105f8 <__libc_init_array>
   10030:	00012503          	lw	a0,0(sp)
   10034:	00410593          	addi	a1,sp,4
   10038:	00000613          	li	a2,0
   1003c:	750100ef          	jal	ra,2078c <main>
   10040:	52c0006f          	j	1056c <exit>

00010044 <_fini>:
   10044:	00008067          	ret

00010048 <deregister_tm_clones>:
   10048:	00024537          	lui	a0,0x24
   1004c:	000247b7          	lui	a5,0x24
   10050:	c4450713          	addi	a4,a0,-956 # 23c44 <__TMC_END__>
   10054:	c4478793          	addi	a5,a5,-956 # 23c44 <__TMC_END__>
   10058:	00e78c63          	beq	a5,a4,10070 <deregister_tm_clones+0x28>
   1005c:	00000337          	lui	t1,0x0
   10060:	00030313          	mv	t1,t1
   10064:	00030663          	beqz	t1,10070 <deregister_tm_clones+0x28>
   10068:	c4450513          	addi	a0,a0,-956
   1006c:	00030067          	jr	t1 # 0 <_start-0x10000>
   10070:	00008067          	ret

00010074 <register_tm_clones>:
   10074:	000247b7          	lui	a5,0x24
   10078:	00024537          	lui	a0,0x24
   1007c:	c4478593          	addi	a1,a5,-956 # 23c44 <__TMC_END__>
   10080:	c4450793          	addi	a5,a0,-956 # 23c44 <__TMC_END__>
   10084:	40f585b3          	sub	a1,a1,a5
   10088:	4025d593          	srai	a1,a1,0x2
   1008c:	00200793          	li	a5,2
   10090:	02f5c5b3          	div	a1,a1,a5
   10094:	00058c63          	beqz	a1,100ac <register_tm_clones+0x38>
   10098:	00000337          	lui	t1,0x0
   1009c:	00030313          	mv	t1,t1
   100a0:	00030663          	beqz	t1,100ac <register_tm_clones+0x38>
   100a4:	c4450513          	addi	a0,a0,-956
   100a8:	00030067          	jr	t1 # 0 <_start-0x10000>
   100ac:	00008067          	ret

000100b0 <__do_global_dtors_aux>:
   100b0:	8441c703          	lbu	a4,-1980(gp) # 23c8c <completed.5430>
   100b4:	04071663          	bnez	a4,10100 <__do_global_dtors_aux+0x50>
   100b8:	ff010113          	addi	sp,sp,-16
   100bc:	00812423          	sw	s0,8(sp)
   100c0:	00112623          	sw	ra,12(sp)
   100c4:	00078413          	mv	s0,a5
   100c8:	f81ff0ef          	jal	ra,10048 <deregister_tm_clones>
   100cc:	000007b7          	lui	a5,0x0
   100d0:	00078793          	mv	a5,a5
   100d4:	00078a63          	beqz	a5,100e8 <__do_global_dtors_aux+0x38>
   100d8:	00023537          	lui	a0,0x23
   100dc:	25c50513          	addi	a0,a0,604 # 2325c <__EH_FRAME_BEGIN__>
   100e0:	ffff0097          	auipc	ra,0xffff0
   100e4:	f20080e7          	jalr	-224(ra) # 0 <_start-0x10000>
   100e8:	00100793          	li	a5,1
   100ec:	84f18223          	sb	a5,-1980(gp) # 23c8c <completed.5430>
   100f0:	00c12083          	lw	ra,12(sp)
   100f4:	00812403          	lw	s0,8(sp)
   100f8:	01010113          	addi	sp,sp,16
   100fc:	00008067          	ret
   10100:	00008067          	ret

00010104 <frame_dummy>:
   10104:	000007b7          	lui	a5,0x0
   10108:	00078793          	mv	a5,a5
   1010c:	02078463          	beqz	a5,10134 <frame_dummy+0x30>
   10110:	00023537          	lui	a0,0x23
   10114:	ff010113          	addi	sp,sp,-16
   10118:	84818593          	addi	a1,gp,-1976 # 23c90 <object.5435>
   1011c:	25c50513          	addi	a0,a0,604 # 2325c <__EH_FRAME_BEGIN__>
   10120:	00112623          	sw	ra,12(sp)
   10124:	ffff0097          	auipc	ra,0xffff0
   10128:	edc080e7          	jalr	-292(ra) # 0 <_start-0x10000>
   1012c:	00c12083          	lw	ra,12(sp)
   10130:	01010113          	addi	sp,sp,16
   10134:	f41ff06f          	j	10074 <register_tm_clones>

00010138 <Proc_1>:
   10138:	ff010113          	addi	sp,sp,-16
   1013c:	01212023          	sw	s2,0(sp)
   10140:	00026937          	lui	s2,0x26
   10144:	40492783          	lw	a5,1028(s2) # 26404 <Ptr_Glob>
   10148:	00812423          	sw	s0,8(sp)
   1014c:	00052403          	lw	s0,0(a0)
   10150:	0007a683          	lw	a3,0(a5) # 0 <_start-0x10000>
   10154:	0047af03          	lw	t5,4(a5)
   10158:	0087ae83          	lw	t4,8(a5)
   1015c:	0107ae03          	lw	t3,16(a5)
   10160:	0147a303          	lw	t1,20(a5)
   10164:	0187a883          	lw	a7,24(a5)
   10168:	01c7a803          	lw	a6,28(a5)
   1016c:	0287a603          	lw	a2,40(a5)
   10170:	02c7a703          	lw	a4,44(a5)
   10174:	00112623          	sw	ra,12(sp)
   10178:	00912223          	sw	s1,4(sp)
   1017c:	0247a583          	lw	a1,36(a5)
   10180:	00050493          	mv	s1,a0
   10184:	0207a503          	lw	a0,32(a5)
   10188:	00d42023          	sw	a3,0(s0)
   1018c:	0004a683          	lw	a3,0(s1)
   10190:	01e42223          	sw	t5,4(s0)
   10194:	01d42423          	sw	t4,8(s0)
   10198:	01c42823          	sw	t3,16(s0)
   1019c:	00642a23          	sw	t1,20(s0)
   101a0:	01142c23          	sw	a7,24(s0)
   101a4:	01042e23          	sw	a6,28(s0)
   101a8:	02a42023          	sw	a0,32(s0)
   101ac:	02c42423          	sw	a2,40(s0)
   101b0:	02e42623          	sw	a4,44(s0)
   101b4:	02b42223          	sw	a1,36(s0)
   101b8:	00500713          	li	a4,5
   101bc:	00e4a623          	sw	a4,12(s1)
   101c0:	00d42023          	sw	a3,0(s0)
   101c4:	0007a783          	lw	a5,0(a5)
   101c8:	000266b7          	lui	a3,0x26
   101cc:	3fc6a583          	lw	a1,1020(a3) # 263fc <Int_Glob>
   101d0:	00f42023          	sw	a5,0(s0)
   101d4:	40492603          	lw	a2,1028(s2)
   101d8:	00e42623          	sw	a4,12(s0)
   101dc:	00a00513          	li	a0,10
   101e0:	00c60613          	addi	a2,a2,12
   101e4:	1c4000ef          	jal	ra,103a8 <Proc_7>
   101e8:	00442783          	lw	a5,4(s0)
   101ec:	08078063          	beqz	a5,1026c <Proc_1+0x134>
   101f0:	0004a783          	lw	a5,0(s1)
   101f4:	00c12083          	lw	ra,12(sp)
   101f8:	00812403          	lw	s0,8(sp)
   101fc:	0007af83          	lw	t6,0(a5)
   10200:	0047af03          	lw	t5,4(a5)
   10204:	0087ae83          	lw	t4,8(a5)
   10208:	00c7ae03          	lw	t3,12(a5)
   1020c:	0107a303          	lw	t1,16(a5)
   10210:	0147a883          	lw	a7,20(a5)
   10214:	0187a803          	lw	a6,24(a5)
   10218:	01c7a583          	lw	a1,28(a5)
   1021c:	0207a603          	lw	a2,32(a5)
   10220:	0247a683          	lw	a3,36(a5)
   10224:	0287a703          	lw	a4,40(a5)
   10228:	02c7a783          	lw	a5,44(a5)
   1022c:	01f4a023          	sw	t6,0(s1)
   10230:	01e4a223          	sw	t5,4(s1)
   10234:	01d4a423          	sw	t4,8(s1)
   10238:	01c4a623          	sw	t3,12(s1)
   1023c:	0064a823          	sw	t1,16(s1)
   10240:	0114aa23          	sw	a7,20(s1)
   10244:	0104ac23          	sw	a6,24(s1)
   10248:	00b4ae23          	sw	a1,28(s1)
   1024c:	02c4a023          	sw	a2,32(s1)
   10250:	02d4a223          	sw	a3,36(s1)
   10254:	02e4a423          	sw	a4,40(s1)
   10258:	02f4a623          	sw	a5,44(s1)
   1025c:	00012903          	lw	s2,0(sp)
   10260:	00412483          	lw	s1,4(sp)
   10264:	01010113          	addi	sp,sp,16
   10268:	00008067          	ret
   1026c:	0084a503          	lw	a0,8(s1)
   10270:	00600793          	li	a5,6
   10274:	00840593          	addi	a1,s0,8
   10278:	00f42623          	sw	a5,12(s0)
   1027c:	0d8000ef          	jal	ra,10354 <Proc_6>
   10280:	40492783          	lw	a5,1028(s2)
   10284:	00c42503          	lw	a0,12(s0)
   10288:	00c40613          	addi	a2,s0,12
   1028c:	0007a783          	lw	a5,0(a5)
   10290:	00c12083          	lw	ra,12(sp)
   10294:	00412483          	lw	s1,4(sp)
   10298:	00f42023          	sw	a5,0(s0)
   1029c:	00812403          	lw	s0,8(sp)
   102a0:	00012903          	lw	s2,0(sp)
   102a4:	00a00593          	li	a1,10
   102a8:	01010113          	addi	sp,sp,16
   102ac:	0fc0006f          	j	103a8 <Proc_7>

000102b0 <Proc_2>:
   102b0:	000267b7          	lui	a5,0x26
   102b4:	4007c703          	lbu	a4,1024(a5) # 26400 <Ch_1_Glob>
   102b8:	04100793          	li	a5,65
   102bc:	00f70463          	beq	a4,a5,102c4 <Proc_2+0x14>
   102c0:	00008067          	ret
   102c4:	00052783          	lw	a5,0(a0)
   102c8:	00026737          	lui	a4,0x26
   102cc:	3fc72703          	lw	a4,1020(a4) # 263fc <Int_Glob>
   102d0:	00978793          	addi	a5,a5,9
   102d4:	40e787b3          	sub	a5,a5,a4
   102d8:	00f52023          	sw	a5,0(a0)
   102dc:	00008067          	ret

000102e0 <Proc_3>:
   102e0:	000267b7          	lui	a5,0x26
   102e4:	4047a603          	lw	a2,1028(a5) # 26404 <Ptr_Glob>
   102e8:	00060863          	beqz	a2,102f8 <Proc_3+0x18>
   102ec:	00062703          	lw	a4,0(a2)
   102f0:	00e52023          	sw	a4,0(a0)
   102f4:	4047a603          	lw	a2,1028(a5)
   102f8:	000267b7          	lui	a5,0x26
   102fc:	3fc7a583          	lw	a1,1020(a5) # 263fc <Int_Glob>
   10300:	00c60613          	addi	a2,a2,12
   10304:	00a00513          	li	a0,10
   10308:	0a00006f          	j	103a8 <Proc_7>

0001030c <Proc_4>:
   1030c:	000267b7          	lui	a5,0x26
   10310:	4007c783          	lbu	a5,1024(a5) # 26400 <Ch_1_Glob>
   10314:	00026737          	lui	a4,0x26
   10318:	4d472683          	lw	a3,1236(a4) # 264d4 <Bool_Glob>
   1031c:	fbf78793          	addi	a5,a5,-65
   10320:	0017b793          	seqz	a5,a5
   10324:	00d7e7b3          	or	a5,a5,a3
   10328:	4cf72a23          	sw	a5,1236(a4)
   1032c:	000267b7          	lui	a5,0x26
   10330:	04200713          	li	a4,66
   10334:	40e780a3          	sb	a4,1025(a5) # 26401 <Ch_2_Glob>
   10338:	00008067          	ret

0001033c <Proc_5>:
   1033c:	000267b7          	lui	a5,0x26
   10340:	04100713          	li	a4,65
   10344:	40e78023          	sb	a4,1024(a5) # 26400 <Ch_1_Glob>
   10348:	000267b7          	lui	a5,0x26
   1034c:	4c07aa23          	sw	zero,1236(a5) # 264d4 <Bool_Glob>
   10350:	00008067          	ret

00010354 <Proc_6>:
   10354:	00200793          	li	a5,2
   10358:	02f50663          	beq	a0,a5,10384 <Proc_6+0x30>
   1035c:	00300713          	li	a4,3
   10360:	00e5a023          	sw	a4,0(a1)
   10364:	00100713          	li	a4,1
   10368:	02e50463          	beq	a0,a4,10390 <Proc_6+0x3c>
   1036c:	02050a63          	beqz	a0,103a0 <Proc_6+0x4c>
   10370:	00400713          	li	a4,4
   10374:	00e50463          	beq	a0,a4,1037c <Proc_6+0x28>
   10378:	00008067          	ret
   1037c:	00f5a023          	sw	a5,0(a1)
   10380:	00008067          	ret
   10384:	00100793          	li	a5,1
   10388:	00f5a023          	sw	a5,0(a1)
   1038c:	00008067          	ret
   10390:	000267b7          	lui	a5,0x26
   10394:	3fc7a703          	lw	a4,1020(a5) # 263fc <Int_Glob>
   10398:	06400793          	li	a5,100
   1039c:	fee7d2e3          	ble	a4,a5,10380 <Proc_6+0x2c>
   103a0:	0005a023          	sw	zero,0(a1)
   103a4:	00008067          	ret

000103a8 <Proc_7>:
   103a8:	00250513          	addi	a0,a0,2
   103ac:	00b505b3          	add	a1,a0,a1
   103b0:	00b62023          	sw	a1,0(a2)
   103b4:	00008067          	ret

000103b8 <Proc_8>:
   103b8:	00560713          	addi	a4,a2,5
   103bc:	0c800813          	li	a6,200
   103c0:	03070833          	mul	a6,a4,a6
   103c4:	00261613          	slli	a2,a2,0x2
   103c8:	00271793          	slli	a5,a4,0x2
   103cc:	00f50533          	add	a0,a0,a5
   103d0:	00d52023          	sw	a3,0(a0)
   103d4:	06e52c23          	sw	a4,120(a0)
   103d8:	00d52223          	sw	a3,4(a0)
   103dc:	00c807b3          	add	a5,a6,a2
   103e0:	00f587b3          	add	a5,a1,a5
   103e4:	0107a683          	lw	a3,16(a5)
   103e8:	00e7aa23          	sw	a4,20(a5)
   103ec:	00e7ac23          	sw	a4,24(a5)
   103f0:	00168713          	addi	a4,a3,1
   103f4:	00e7a823          	sw	a4,16(a5)
   103f8:	00052783          	lw	a5,0(a0)
   103fc:	010585b3          	add	a1,a1,a6
   10400:	00c585b3          	add	a1,a1,a2
   10404:	00001637          	lui	a2,0x1
   10408:	00b605b3          	add	a1,a2,a1
   1040c:	faf5aa23          	sw	a5,-76(a1)
   10410:	00500713          	li	a4,5
   10414:	000267b7          	lui	a5,0x26
   10418:	3ee7ae23          	sw	a4,1020(a5) # 263fc <Int_Glob>
   1041c:	00008067          	ret

00010420 <Func_1>:
   10420:	0ff57513          	andi	a0,a0,255
   10424:	0ff5f593          	andi	a1,a1,255
   10428:	00b50663          	beq	a0,a1,10434 <Func_1+0x14>
   1042c:	00000513          	li	a0,0
   10430:	00008067          	ret
   10434:	000267b7          	lui	a5,0x26
   10438:	40a78023          	sb	a0,1024(a5) # 26400 <Ch_1_Glob>
   1043c:	00100513          	li	a0,1
   10440:	00008067          	ret

00010444 <Func_2>:
   10444:	00254703          	lbu	a4,2(a0)
   10448:	0035c783          	lbu	a5,3(a1)
   1044c:	02f70c63          	beq	a4,a5,10484 <Func_2+0x40>
   10450:	ff010113          	addi	sp,sp,-16
   10454:	00112623          	sw	ra,12(sp)
   10458:	409000ef          	jal	ra,11060 <strcmp>
   1045c:	00000793          	li	a5,0
   10460:	00a05a63          	blez	a0,10474 <Func_2+0x30>
   10464:	000267b7          	lui	a5,0x26
   10468:	00a00713          	li	a4,10
   1046c:	3ee7ae23          	sw	a4,1020(a5) # 263fc <Int_Glob>
   10470:	00100793          	li	a5,1
   10474:	00c12083          	lw	ra,12(sp)
   10478:	00078513          	mv	a0,a5
   1047c:	01010113          	addi	sp,sp,16
   10480:	00008067          	ret
   10484:	0000006f          	j	10484 <Func_2+0x40>

00010488 <Func_3>:
   10488:	ffe50513          	addi	a0,a0,-2
   1048c:	00153513          	seqz	a0,a0
   10490:	00008067          	ret

00010494 <time>:
   10494:	c0002573          	rdcycle	a0
   10498:	00008067          	ret

0001049c <insn>:
   1049c:	c0202573          	rdinstret	a0
   104a0:	00008067          	ret

000104a4 <_access>:
   104a4:	0040006f          	j	104a8 <unimplemented_syscall>

000104a8 <unimplemented_syscall>:
   104a8:	000217b7          	lui	a5,0x21
   104ac:	55c78793          	addi	a5,a5,1372 # 2155c <main+0xdd0>
   104b0:	05500713          	li	a4,85
   104b4:	100006b7          	lui	a3,0x10000
   104b8:	00178793          	addi	a5,a5,1
   104bc:	00e6a023          	sw	a4,0(a3) # 10000000 <_end+0xffd9b20>
   104c0:	0007c703          	lbu	a4,0(a5)
   104c4:	fe071ae3          	bnez	a4,104b8 <unimplemented_syscall+0x10>
   104c8:	00100073          	ebreak

000104cc <_read>:
   104cc:	00000513          	li	a0,0
   104d0:	00008067          	ret

000104d4 <_write>:
   104d4:	00c58733          	add	a4,a1,a2
   104d8:	00e58c63          	beq	a1,a4,104f0 <_write+0x1c>
   104dc:	100006b7          	lui	a3,0x10000
   104e0:	00158593          	addi	a1,a1,1
   104e4:	fff5c783          	lbu	a5,-1(a1)
   104e8:	00f6a023          	sw	a5,0(a3) # 10000000 <_end+0xffd9b20>
   104ec:	feb71ae3          	bne	a4,a1,104e0 <_write+0xc>
   104f0:	00060513          	mv	a0,a2
   104f4:	00008067          	ret

000104f8 <_close>:
   104f8:	00000513          	li	a0,0
   104fc:	00008067          	ret

00010500 <_fstat>:
   10500:	ff010113          	addi	sp,sp,-16
   10504:	00112623          	sw	ra,12(sp)
   10508:	05c000ef          	jal	ra,10564 <__errno>
   1050c:	00c12083          	lw	ra,12(sp)
   10510:	00200793          	li	a5,2
   10514:	00f52023          	sw	a5,0(a0)
   10518:	fff00513          	li	a0,-1
   1051c:	01010113          	addi	sp,sp,16
   10520:	00008067          	ret

00010524 <_sbrk>:
   10524:	8301a703          	lw	a4,-2000(gp) # 23c78 <heap_end.2318>
   10528:	00050793          	mv	a5,a0
   1052c:	00070513          	mv	a0,a4
   10530:	00071863          	bnez	a4,10540 <_sbrk+0x1c>
   10534:	00026537          	lui	a0,0x26
   10538:	4e050713          	addi	a4,a0,1248 # 264e0 <_end>
   1053c:	4e050513          	addi	a0,a0,1248
   10540:	00e787b3          	add	a5,a5,a4
   10544:	82f1a823          	sw	a5,-2000(gp) # 23c78 <heap_end.2318>
   10548:	00008067          	ret

0001054c <_exit>:
   1054c:	00100073          	ebreak

00010550 <atexit>:
   10550:	00050593          	mv	a1,a0
   10554:	00000693          	li	a3,0
   10558:	00000613          	li	a2,0
   1055c:	00000513          	li	a0,0
   10560:	7550206f          	j	134b4 <__register_exitproc>

00010564 <__errno>:
   10564:	8201a503          	lw	a0,-2016(gp) # 23c68 <_impure_ptr>
   10568:	00008067          	ret

0001056c <exit>:
   1056c:	ff010113          	addi	sp,sp,-16
   10570:	00000593          	li	a1,0
   10574:	00812423          	sw	s0,8(sp)
   10578:	00112623          	sw	ra,12(sp)
   1057c:	00050413          	mv	s0,a0
   10580:	7b1020ef          	jal	ra,13530 <__call_exitprocs>
   10584:	8181a503          	lw	a0,-2024(gp) # 23c60 <_global_impure_ptr>
   10588:	03c52783          	lw	a5,60(a0)
   1058c:	00078463          	beqz	a5,10594 <exit+0x28>
   10590:	000780e7          	jalr	a5
   10594:	00040513          	mv	a0,s0
   10598:	fb5ff0ef          	jal	ra,1054c <_exit>

0001059c <__libc_fini_array>:
   1059c:	ff010113          	addi	sp,sp,-16
   105a0:	000237b7          	lui	a5,0x23
   105a4:	00812423          	sw	s0,8(sp)
   105a8:	00023437          	lui	s0,0x23
   105ac:	2a078713          	addi	a4,a5,672 # 232a0 <__init_array_end>
   105b0:	2a440413          	addi	s0,s0,676 # 232a4 <__fini_array_end>
   105b4:	40e40433          	sub	s0,s0,a4
   105b8:	00912223          	sw	s1,4(sp)
   105bc:	00112623          	sw	ra,12(sp)
   105c0:	40245413          	srai	s0,s0,0x2
   105c4:	2a078493          	addi	s1,a5,672
   105c8:	00041c63          	bnez	s0,105e0 <__libc_fini_array+0x44>
   105cc:	00812403          	lw	s0,8(sp)
   105d0:	00c12083          	lw	ra,12(sp)
   105d4:	00412483          	lw	s1,4(sp)
   105d8:	01010113          	addi	sp,sp,16
   105dc:	a69ff06f          	j	10044 <_fini>
   105e0:	fff40413          	addi	s0,s0,-1
   105e4:	00241793          	slli	a5,s0,0x2
   105e8:	00f487b3          	add	a5,s1,a5
   105ec:	0007a783          	lw	a5,0(a5)
   105f0:	000780e7          	jalr	a5
   105f4:	fd5ff06f          	j	105c8 <__libc_fini_array+0x2c>

000105f8 <__libc_init_array>:
   105f8:	ff010113          	addi	sp,sp,-16
   105fc:	000237b7          	lui	a5,0x23
   10600:	00812423          	sw	s0,8(sp)
   10604:	00023437          	lui	s0,0x23
   10608:	29c78713          	addi	a4,a5,668 # 2329c <__frame_dummy_init_array_entry>
   1060c:	29c40413          	addi	s0,s0,668 # 2329c <__frame_dummy_init_array_entry>
   10610:	40e40433          	sub	s0,s0,a4
   10614:	00912223          	sw	s1,4(sp)
   10618:	01212023          	sw	s2,0(sp)
   1061c:	00112623          	sw	ra,12(sp)
   10620:	40245413          	srai	s0,s0,0x2
   10624:	00000493          	li	s1,0
   10628:	29c78913          	addi	s2,a5,668
   1062c:	04849263          	bne	s1,s0,10670 <__libc_init_array+0x78>
   10630:	a15ff0ef          	jal	ra,10044 <_fini>
   10634:	000237b7          	lui	a5,0x23
   10638:	00023437          	lui	s0,0x23
   1063c:	29c78713          	addi	a4,a5,668 # 2329c <__frame_dummy_init_array_entry>
   10640:	2a040413          	addi	s0,s0,672 # 232a0 <__init_array_end>
   10644:	40e40433          	sub	s0,s0,a4
   10648:	40245413          	srai	s0,s0,0x2
   1064c:	00000493          	li	s1,0
   10650:	29c78913          	addi	s2,a5,668
   10654:	02849a63          	bne	s1,s0,10688 <__libc_init_array+0x90>
   10658:	00c12083          	lw	ra,12(sp)
   1065c:	00812403          	lw	s0,8(sp)
   10660:	00412483          	lw	s1,4(sp)
   10664:	00012903          	lw	s2,0(sp)
   10668:	01010113          	addi	sp,sp,16
   1066c:	00008067          	ret
   10670:	00249793          	slli	a5,s1,0x2
   10674:	00f907b3          	add	a5,s2,a5
   10678:	0007a783          	lw	a5,0(a5)
   1067c:	00148493          	addi	s1,s1,1
   10680:	000780e7          	jalr	a5
   10684:	fa9ff06f          	j	1062c <__libc_init_array+0x34>
   10688:	00249793          	slli	a5,s1,0x2
   1068c:	00f907b3          	add	a5,s2,a5
   10690:	0007a783          	lw	a5,0(a5)
   10694:	00148493          	addi	s1,s1,1
   10698:	000780e7          	jalr	a5
   1069c:	fb9ff06f          	j	10654 <__libc_init_array+0x5c>

000106a0 <malloc>:
   106a0:	00050593          	mv	a1,a0
   106a4:	8201a503          	lw	a0,-2016(gp) # 23c68 <_impure_ptr>
   106a8:	0100006f          	j	106b8 <_malloc_r>

000106ac <free>:
   106ac:	00050593          	mv	a1,a0
   106b0:	8201a503          	lw	a0,-2016(gp) # 23c68 <_impure_ptr>
   106b4:	5c80306f          	j	13c7c <_free_r>

000106b8 <_malloc_r>:
   106b8:	fd010113          	addi	sp,sp,-48
   106bc:	02112623          	sw	ra,44(sp)
   106c0:	02812423          	sw	s0,40(sp)
   106c4:	02912223          	sw	s1,36(sp)
   106c8:	03212023          	sw	s2,32(sp)
   106cc:	01312e23          	sw	s3,28(sp)
   106d0:	01412c23          	sw	s4,24(sp)
   106d4:	01512a23          	sw	s5,20(sp)
   106d8:	01612823          	sw	s6,16(sp)
   106dc:	01712623          	sw	s7,12(sp)
   106e0:	01812423          	sw	s8,8(sp)
   106e4:	01912223          	sw	s9,4(sp)
   106e8:	00b58793          	addi	a5,a1,11
   106ec:	01600713          	li	a4,22
   106f0:	04f77663          	bleu	a5,a4,1073c <_malloc_r+0x84>
   106f4:	ff87f493          	andi	s1,a5,-8
   106f8:	0404d463          	bgez	s1,10740 <_malloc_r+0x88>
   106fc:	00c00793          	li	a5,12
   10700:	00f52023          	sw	a5,0(a0)
   10704:	00000513          	li	a0,0
   10708:	02c12083          	lw	ra,44(sp)
   1070c:	02812403          	lw	s0,40(sp)
   10710:	02412483          	lw	s1,36(sp)
   10714:	02012903          	lw	s2,32(sp)
   10718:	01c12983          	lw	s3,28(sp)
   1071c:	01812a03          	lw	s4,24(sp)
   10720:	01412a83          	lw	s5,20(sp)
   10724:	01012b03          	lw	s6,16(sp)
   10728:	00c12b83          	lw	s7,12(sp)
   1072c:	00812c03          	lw	s8,8(sp)
   10730:	00412c83          	lw	s9,4(sp)
   10734:	03010113          	addi	sp,sp,48
   10738:	00008067          	ret
   1073c:	01000493          	li	s1,16
   10740:	fab4eee3          	bltu	s1,a1,106fc <_malloc_r+0x44>
   10744:	00050993          	mv	s3,a0
   10748:	6ac000ef          	jal	ra,10df4 <__malloc_lock>
   1074c:	00023937          	lui	s2,0x23
   10750:	1f700793          	li	a5,503
   10754:	6d090913          	addi	s2,s2,1744 # 236d0 <__malloc_av_>
   10758:	0497ea63          	bltu	a5,s1,107ac <_malloc_r+0xf4>
   1075c:	00848713          	addi	a4,s1,8
   10760:	00e90733          	add	a4,s2,a4
   10764:	00472403          	lw	s0,4(a4)
   10768:	ff870693          	addi	a3,a4,-8
   1076c:	0034d793          	srli	a5,s1,0x3
   10770:	00d41863          	bne	s0,a3,10780 <_malloc_r+0xc8>
   10774:	00c72403          	lw	s0,12(a4)
   10778:	00278793          	addi	a5,a5,2
   1077c:	08870063          	beq	a4,s0,107fc <_malloc_r+0x144>
   10780:	00442783          	lw	a5,4(s0)
   10784:	00c42703          	lw	a4,12(s0)
   10788:	00842683          	lw	a3,8(s0)
   1078c:	ffc7f793          	andi	a5,a5,-4
   10790:	00f407b3          	add	a5,s0,a5
   10794:	00e6a623          	sw	a4,12(a3)
   10798:	00d72423          	sw	a3,8(a4)
   1079c:	0047a703          	lw	a4,4(a5)
   107a0:	00176713          	ori	a4,a4,1
   107a4:	00e7a223          	sw	a4,4(a5)
   107a8:	0a80006f          	j	10850 <_malloc_r+0x198>
   107ac:	0094d713          	srli	a4,s1,0x9
   107b0:	03f00793          	li	a5,63
   107b4:	00070a63          	beqz	a4,107c8 <_malloc_r+0x110>
   107b8:	00400793          	li	a5,4
   107bc:	0ae7e263          	bltu	a5,a4,10860 <_malloc_r+0x1a8>
   107c0:	0064d793          	srli	a5,s1,0x6
   107c4:	03878793          	addi	a5,a5,56
   107c8:	00178713          	addi	a4,a5,1
   107cc:	00371713          	slli	a4,a4,0x3
   107d0:	00e90733          	add	a4,s2,a4
   107d4:	00472403          	lw	s0,4(a4)
   107d8:	ff870593          	addi	a1,a4,-8
   107dc:	00f00513          	li	a0,15
   107e0:	00b40c63          	beq	s0,a1,107f8 <_malloc_r+0x140>
   107e4:	00442703          	lw	a4,4(s0)
   107e8:	ffc77713          	andi	a4,a4,-4
   107ec:	40970633          	sub	a2,a4,s1
   107f0:	0cc55063          	ble	a2,a0,108b0 <_malloc_r+0x1f8>
   107f4:	fff78793          	addi	a5,a5,-1
   107f8:	00178793          	addi	a5,a5,1
   107fc:	01092403          	lw	s0,16(s2)
   10800:	000235b7          	lui	a1,0x23
   10804:	00890693          	addi	a3,s2,8
   10808:	6d858593          	addi	a1,a1,1752 # 236d8 <__malloc_av_+0x8>
   1080c:	12d40863          	beq	s0,a3,1093c <_malloc_r+0x284>
   10810:	00442703          	lw	a4,4(s0)
   10814:	00f00613          	li	a2,15
   10818:	ffc77713          	andi	a4,a4,-4
   1081c:	40970533          	sub	a0,a4,s1
   10820:	0aa65a63          	ble	a0,a2,108d4 <_malloc_r+0x21c>
   10824:	0014e793          	ori	a5,s1,1
   10828:	00f42223          	sw	a5,4(s0)
   1082c:	00940633          	add	a2,s0,s1
   10830:	00c92a23          	sw	a2,20(s2)
   10834:	00c92823          	sw	a2,16(s2)
   10838:	00156793          	ori	a5,a0,1
   1083c:	00d62623          	sw	a3,12(a2) # 100c <_start-0xeff4>
   10840:	00d62423          	sw	a3,8(a2)
   10844:	00f62223          	sw	a5,4(a2)
   10848:	00e40733          	add	a4,s0,a4
   1084c:	00a72023          	sw	a0,0(a4)
   10850:	00098513          	mv	a0,s3
   10854:	5a4000ef          	jal	ra,10df8 <__malloc_unlock>
   10858:	00840513          	addi	a0,s0,8
   1085c:	eadff06f          	j	10708 <_malloc_r+0x50>
   10860:	01400793          	li	a5,20
   10864:	00e7e663          	bltu	a5,a4,10870 <_malloc_r+0x1b8>
   10868:	05b70793          	addi	a5,a4,91
   1086c:	f5dff06f          	j	107c8 <_malloc_r+0x110>
   10870:	05400793          	li	a5,84
   10874:	00e7e863          	bltu	a5,a4,10884 <_malloc_r+0x1cc>
   10878:	00c4d793          	srli	a5,s1,0xc
   1087c:	06e78793          	addi	a5,a5,110
   10880:	f49ff06f          	j	107c8 <_malloc_r+0x110>
   10884:	15400793          	li	a5,340
   10888:	00e7e863          	bltu	a5,a4,10898 <_malloc_r+0x1e0>
   1088c:	00f4d793          	srli	a5,s1,0xf
   10890:	07778793          	addi	a5,a5,119
   10894:	f35ff06f          	j	107c8 <_malloc_r+0x110>
   10898:	55400693          	li	a3,1364
   1089c:	07e00793          	li	a5,126
   108a0:	f2e6e4e3          	bltu	a3,a4,107c8 <_malloc_r+0x110>
   108a4:	0124d793          	srli	a5,s1,0x12
   108a8:	07c78793          	addi	a5,a5,124
   108ac:	f1dff06f          	j	107c8 <_malloc_r+0x110>
   108b0:	00c42683          	lw	a3,12(s0)
   108b4:	00064c63          	bltz	a2,108cc <_malloc_r+0x214>
   108b8:	00842783          	lw	a5,8(s0)
   108bc:	00d7a623          	sw	a3,12(a5)
   108c0:	00f6a423          	sw	a5,8(a3)
   108c4:	00e407b3          	add	a5,s0,a4
   108c8:	ed5ff06f          	j	1079c <_malloc_r+0xe4>
   108cc:	00068413          	mv	s0,a3
   108d0:	f11ff06f          	j	107e0 <_malloc_r+0x128>
   108d4:	00d92a23          	sw	a3,20(s2)
   108d8:	00d92823          	sw	a3,16(s2)
   108dc:	00054c63          	bltz	a0,108f4 <_malloc_r+0x23c>
   108e0:	00e40733          	add	a4,s0,a4
   108e4:	00472783          	lw	a5,4(a4)
   108e8:	0017e793          	ori	a5,a5,1
   108ec:	00f72223          	sw	a5,4(a4)
   108f0:	f61ff06f          	j	10850 <_malloc_r+0x198>
   108f4:	1ff00693          	li	a3,511
   108f8:	00492803          	lw	a6,4(s2)
   108fc:	16e6e663          	bltu	a3,a4,10a68 <_malloc_r+0x3b0>
   10900:	00375713          	srli	a4,a4,0x3
   10904:	40275613          	srai	a2,a4,0x2
   10908:	00100693          	li	a3,1
   1090c:	00170713          	addi	a4,a4,1
   10910:	00c696b3          	sll	a3,a3,a2
   10914:	00371713          	slli	a4,a4,0x3
   10918:	00e90733          	add	a4,s2,a4
   1091c:	0106e6b3          	or	a3,a3,a6
   10920:	00d92223          	sw	a3,4(s2)
   10924:	00072683          	lw	a3,0(a4)
   10928:	ff870613          	addi	a2,a4,-8
   1092c:	00c42623          	sw	a2,12(s0)
   10930:	00d42423          	sw	a3,8(s0)
   10934:	00872023          	sw	s0,0(a4)
   10938:	0086a623          	sw	s0,12(a3)
   1093c:	4027d713          	srai	a4,a5,0x2
   10940:	00100313          	li	t1,1
   10944:	00e31333          	sll	t1,t1,a4
   10948:	00492703          	lw	a4,4(s2)
   1094c:	06676a63          	bltu	a4,t1,109c0 <_malloc_r+0x308>
   10950:	006776b3          	and	a3,a4,t1
   10954:	00069c63          	bnez	a3,1096c <_malloc_r+0x2b4>
   10958:	ffc7f793          	andi	a5,a5,-4
   1095c:	00131313          	slli	t1,t1,0x1
   10960:	006776b3          	and	a3,a4,t1
   10964:	00478793          	addi	a5,a5,4
   10968:	fe068ae3          	beqz	a3,1095c <_malloc_r+0x2a4>
   1096c:	00f00e13          	li	t3,15
   10970:	00379693          	slli	a3,a5,0x3
   10974:	00d906b3          	add	a3,s2,a3
   10978:	00068813          	mv	a6,a3
   1097c:	00078513          	mv	a0,a5
   10980:	00c82403          	lw	s0,12(a6)
   10984:	1b041263          	bne	s0,a6,10b28 <_malloc_r+0x470>
   10988:	00150513          	addi	a0,a0,1
   1098c:	00357713          	andi	a4,a0,3
   10990:	00880813          	addi	a6,a6,8
   10994:	fe0716e3          	bnez	a4,10980 <_malloc_r+0x2c8>
   10998:	0037f713          	andi	a4,a5,3
   1099c:	20071463          	bnez	a4,10ba4 <_malloc_r+0x4ec>
   109a0:	00492703          	lw	a4,4(s2)
   109a4:	fff34793          	not	a5,t1
   109a8:	00f777b3          	and	a5,a4,a5
   109ac:	00f92223          	sw	a5,4(s2)
   109b0:	00492703          	lw	a4,4(s2)
   109b4:	00131313          	slli	t1,t1,0x1
   109b8:	00676463          	bltu	a4,t1,109c0 <_malloc_r+0x308>
   109bc:	20031863          	bnez	t1,10bcc <_malloc_r+0x514>
   109c0:	00892b83          	lw	s7,8(s2)
   109c4:	004ba403          	lw	s0,4(s7)
   109c8:	ffc47a93          	andi	s5,s0,-4
   109cc:	009ae863          	bltu	s5,s1,109dc <_malloc_r+0x324>
   109d0:	409a8733          	sub	a4,s5,s1
   109d4:	00f00793          	li	a5,15
   109d8:	32e7c463          	blt	a5,a4,10d00 <_malloc_r+0x648>
   109dc:	83c1a403          	lw	s0,-1988(gp) # 23c84 <__malloc_top_pad>
   109e0:	8241a703          	lw	a4,-2012(gp) # 23c6c <__malloc_sbrk_base>
   109e4:	fff00793          	li	a5,-1
   109e8:	015b8cb3          	add	s9,s7,s5
   109ec:	00848433          	add	s0,s1,s0
   109f0:	1ef71263          	bne	a4,a5,10bd4 <_malloc_r+0x51c>
   109f4:	01040413          	addi	s0,s0,16
   109f8:	00040593          	mv	a1,s0
   109fc:	00098513          	mv	a0,s3
   10a00:	614000ef          	jal	ra,11014 <_sbrk_r>
   10a04:	fff00793          	li	a5,-1
   10a08:	00050b13          	mv	s6,a0
   10a0c:	28f50063          	beq	a0,a5,10c8c <_malloc_r+0x5d4>
   10a10:	01957463          	bleu	s9,a0,10a18 <_malloc_r+0x360>
   10a14:	272b9c63          	bne	s7,s2,10c8c <_malloc_r+0x5d4>
   10a18:	86018693          	addi	a3,gp,-1952 # 23ca8 <__malloc_current_mallinfo>
   10a1c:	0006a703          	lw	a4,0(a3)
   10a20:	86018c13          	addi	s8,gp,-1952 # 23ca8 <__malloc_current_mallinfo>
   10a24:	00e40733          	add	a4,s0,a4
   10a28:	00e6a023          	sw	a4,0(a3)
   10a2c:	1d6c9063          	bne	s9,s6,10bec <_malloc_r+0x534>
   10a30:	014c9793          	slli	a5,s9,0x14
   10a34:	1a079c63          	bnez	a5,10bec <_malloc_r+0x534>
   10a38:	00892783          	lw	a5,8(s2)
   10a3c:	008a8433          	add	s0,s5,s0
   10a40:	00146413          	ori	s0,s0,1
   10a44:	0087a223          	sw	s0,4(a5)
   10a48:	000c2783          	lw	a5,0(s8)
   10a4c:	8381a683          	lw	a3,-1992(gp) # 23c80 <__malloc_max_sbrked_mem>
   10a50:	00f6f463          	bleu	a5,a3,10a58 <_malloc_r+0x3a0>
   10a54:	82f1ac23          	sw	a5,-1992(gp) # 23c80 <__malloc_max_sbrked_mem>
   10a58:	8341a683          	lw	a3,-1996(gp) # 23c7c <__malloc_max_total_mem>
   10a5c:	22f6f863          	bleu	a5,a3,10c8c <_malloc_r+0x5d4>
   10a60:	82f1aa23          	sw	a5,-1996(gp) # 23c7c <__malloc_max_total_mem>
   10a64:	2280006f          	j	10c8c <_malloc_r+0x5d4>
   10a68:	00975613          	srli	a2,a4,0x9
   10a6c:	00400693          	li	a3,4
   10a70:	04c6e663          	bltu	a3,a2,10abc <_malloc_r+0x404>
   10a74:	00675693          	srli	a3,a4,0x6
   10a78:	03868693          	addi	a3,a3,56
   10a7c:	00168613          	addi	a2,a3,1
   10a80:	00361613          	slli	a2,a2,0x3
   10a84:	00c90633          	add	a2,s2,a2
   10a88:	ff860513          	addi	a0,a2,-8
   10a8c:	00062603          	lw	a2,0(a2)
   10a90:	08c51263          	bne	a0,a2,10b14 <_malloc_r+0x45c>
   10a94:	4026d693          	srai	a3,a3,0x2
   10a98:	00100713          	li	a4,1
   10a9c:	00d716b3          	sll	a3,a4,a3
   10aa0:	0106e6b3          	or	a3,a3,a6
   10aa4:	00d92223          	sw	a3,4(s2)
   10aa8:	00a42623          	sw	a0,12(s0)
   10aac:	00c42423          	sw	a2,8(s0)
   10ab0:	00852423          	sw	s0,8(a0)
   10ab4:	00862623          	sw	s0,12(a2)
   10ab8:	e85ff06f          	j	1093c <_malloc_r+0x284>
   10abc:	01400693          	li	a3,20
   10ac0:	00c6e663          	bltu	a3,a2,10acc <_malloc_r+0x414>
   10ac4:	05b60693          	addi	a3,a2,91
   10ac8:	fb5ff06f          	j	10a7c <_malloc_r+0x3c4>
   10acc:	05400693          	li	a3,84
   10ad0:	00c6e863          	bltu	a3,a2,10ae0 <_malloc_r+0x428>
   10ad4:	00c75693          	srli	a3,a4,0xc
   10ad8:	06e68693          	addi	a3,a3,110
   10adc:	fa1ff06f          	j	10a7c <_malloc_r+0x3c4>
   10ae0:	15400693          	li	a3,340
   10ae4:	00c6e863          	bltu	a3,a2,10af4 <_malloc_r+0x43c>
   10ae8:	00f75693          	srli	a3,a4,0xf
   10aec:	07768693          	addi	a3,a3,119
   10af0:	f8dff06f          	j	10a7c <_malloc_r+0x3c4>
   10af4:	55400513          	li	a0,1364
   10af8:	07e00693          	li	a3,126
   10afc:	f8c560e3          	bltu	a0,a2,10a7c <_malloc_r+0x3c4>
   10b00:	01275693          	srli	a3,a4,0x12
   10b04:	07c68693          	addi	a3,a3,124
   10b08:	f75ff06f          	j	10a7c <_malloc_r+0x3c4>
   10b0c:	00862603          	lw	a2,8(a2)
   10b10:	00c50863          	beq	a0,a2,10b20 <_malloc_r+0x468>
   10b14:	00462683          	lw	a3,4(a2)
   10b18:	ffc6f693          	andi	a3,a3,-4
   10b1c:	fed768e3          	bltu	a4,a3,10b0c <_malloc_r+0x454>
   10b20:	00c62503          	lw	a0,12(a2)
   10b24:	f85ff06f          	j	10aa8 <_malloc_r+0x3f0>
   10b28:	00442703          	lw	a4,4(s0)
   10b2c:	00c42603          	lw	a2,12(s0)
   10b30:	ffc77713          	andi	a4,a4,-4
   10b34:	409708b3          	sub	a7,a4,s1
   10b38:	051e5063          	ble	a7,t3,10b78 <_malloc_r+0x4c0>
   10b3c:	0014e793          	ori	a5,s1,1
   10b40:	00f42223          	sw	a5,4(s0)
   10b44:	00842783          	lw	a5,8(s0)
   10b48:	009406b3          	add	a3,s0,s1
   10b4c:	00e40733          	add	a4,s0,a4
   10b50:	00c7a623          	sw	a2,12(a5)
   10b54:	00f62423          	sw	a5,8(a2)
   10b58:	00d92a23          	sw	a3,20(s2)
   10b5c:	00d92823          	sw	a3,16(s2)
   10b60:	0018e793          	ori	a5,a7,1
   10b64:	00b6a623          	sw	a1,12(a3)
   10b68:	00b6a423          	sw	a1,8(a3)
   10b6c:	00f6a223          	sw	a5,4(a3)
   10b70:	01172023          	sw	a7,0(a4)
   10b74:	cddff06f          	j	10850 <_malloc_r+0x198>
   10b78:	0208c263          	bltz	a7,10b9c <_malloc_r+0x4e4>
   10b7c:	00e40733          	add	a4,s0,a4
   10b80:	00472783          	lw	a5,4(a4)
   10b84:	0017e793          	ori	a5,a5,1
   10b88:	00f72223          	sw	a5,4(a4)
   10b8c:	00842783          	lw	a5,8(s0)
   10b90:	00c7a623          	sw	a2,12(a5)
   10b94:	00f62423          	sw	a5,8(a2)
   10b98:	cb9ff06f          	j	10850 <_malloc_r+0x198>
   10b9c:	00060413          	mv	s0,a2
   10ba0:	de5ff06f          	j	10984 <_malloc_r+0x2cc>
   10ba4:	ff868693          	addi	a3,a3,-8
   10ba8:	0086a703          	lw	a4,8(a3)
   10bac:	fff78793          	addi	a5,a5,-1
   10bb0:	ded704e3          	beq	a4,a3,10998 <_malloc_r+0x2e0>
   10bb4:	dfdff06f          	j	109b0 <_malloc_r+0x2f8>
   10bb8:	00478793          	addi	a5,a5,4
   10bbc:	00131313          	slli	t1,t1,0x1
   10bc0:	006776b3          	and	a3,a4,t1
   10bc4:	fe068ae3          	beqz	a3,10bb8 <_malloc_r+0x500>
   10bc8:	da9ff06f          	j	10970 <_malloc_r+0x2b8>
   10bcc:	00050793          	mv	a5,a0
   10bd0:	ff1ff06f          	j	10bc0 <_malloc_r+0x508>
   10bd4:	00001737          	lui	a4,0x1
   10bd8:	00f70713          	addi	a4,a4,15 # 100f <_start-0xeff1>
   10bdc:	00e40433          	add	s0,s0,a4
   10be0:	fffff7b7          	lui	a5,0xfffff
   10be4:	00f47433          	and	s0,s0,a5
   10be8:	e11ff06f          	j	109f8 <_malloc_r+0x340>
   10bec:	8241a683          	lw	a3,-2012(gp) # 23c6c <__malloc_sbrk_base>
   10bf0:	fff00793          	li	a5,-1
   10bf4:	0cf69063          	bne	a3,a5,10cb4 <_malloc_r+0x5fc>
   10bf8:	8361a223          	sw	s6,-2012(gp) # 23c6c <__malloc_sbrk_base>
   10bfc:	007b7c93          	andi	s9,s6,7
   10c00:	00000793          	li	a5,0
   10c04:	000c8863          	beqz	s9,10c14 <_malloc_r+0x55c>
   10c08:	00800793          	li	a5,8
   10c0c:	419787b3          	sub	a5,a5,s9
   10c10:	00fb0b33          	add	s6,s6,a5
   10c14:	00001537          	lui	a0,0x1
   10c18:	00a78a33          	add	s4,a5,a0
   10c1c:	008b0433          	add	s0,s6,s0
   10c20:	fff50513          	addi	a0,a0,-1 # fff <_start-0xf001>
   10c24:	00a477b3          	and	a5,s0,a0
   10c28:	40fa0a33          	sub	s4,s4,a5
   10c2c:	00aa7a33          	and	s4,s4,a0
   10c30:	000a0593          	mv	a1,s4
   10c34:	00098513          	mv	a0,s3
   10c38:	3dc000ef          	jal	ra,11014 <_sbrk_r>
   10c3c:	fff00793          	li	a5,-1
   10c40:	00f51c63          	bne	a0,a5,10c58 <_malloc_r+0x5a0>
   10c44:	00040513          	mv	a0,s0
   10c48:	000c8663          	beqz	s9,10c54 <_malloc_r+0x59c>
   10c4c:	ff8c8513          	addi	a0,s9,-8
   10c50:	00a40533          	add	a0,s0,a0
   10c54:	00000a13          	li	s4,0
   10c58:	000c2783          	lw	a5,0(s8)
   10c5c:	41650533          	sub	a0,a0,s6
   10c60:	01692423          	sw	s6,8(s2)
   10c64:	014787b3          	add	a5,a5,s4
   10c68:	01450a33          	add	s4,a0,s4
   10c6c:	001a6a13          	ori	s4,s4,1
   10c70:	00fc2023          	sw	a5,0(s8)
   10c74:	014b2223          	sw	s4,4(s6)
   10c78:	dd2b88e3          	beq	s7,s2,10a48 <_malloc_r+0x390>
   10c7c:	00f00713          	li	a4,15
   10c80:	05576263          	bltu	a4,s5,10cc4 <_malloc_r+0x60c>
   10c84:	00100793          	li	a5,1
   10c88:	00fb2223          	sw	a5,4(s6)
   10c8c:	00892783          	lw	a5,8(s2)
   10c90:	0047a783          	lw	a5,4(a5) # fffff004 <_end+0xfffd8b24>
   10c94:	ffc7f793          	andi	a5,a5,-4
   10c98:	40978733          	sub	a4,a5,s1
   10c9c:	0097e663          	bltu	a5,s1,10ca8 <_malloc_r+0x5f0>
   10ca0:	00f00793          	li	a5,15
   10ca4:	04e7ce63          	blt	a5,a4,10d00 <_malloc_r+0x648>
   10ca8:	00098513          	mv	a0,s3
   10cac:	14c000ef          	jal	ra,10df8 <__malloc_unlock>
   10cb0:	a55ff06f          	j	10704 <_malloc_r+0x4c>
   10cb4:	419b07b3          	sub	a5,s6,s9
   10cb8:	00e787b3          	add	a5,a5,a4
   10cbc:	00fc2023          	sw	a5,0(s8)
   10cc0:	f3dff06f          	j	10bfc <_malloc_r+0x544>
   10cc4:	004ba783          	lw	a5,4(s7)
   10cc8:	ff4a8413          	addi	s0,s5,-12
   10ccc:	ff847413          	andi	s0,s0,-8
   10cd0:	0017f793          	andi	a5,a5,1
   10cd4:	0087e7b3          	or	a5,a5,s0
   10cd8:	00fba223          	sw	a5,4(s7)
   10cdc:	00500693          	li	a3,5
   10ce0:	008b87b3          	add	a5,s7,s0
   10ce4:	00d7a223          	sw	a3,4(a5)
   10ce8:	00d7a423          	sw	a3,8(a5)
   10cec:	d4877ee3          	bleu	s0,a4,10a48 <_malloc_r+0x390>
   10cf0:	008b8593          	addi	a1,s7,8
   10cf4:	00098513          	mv	a0,s3
   10cf8:	785020ef          	jal	ra,13c7c <_free_r>
   10cfc:	d4dff06f          	j	10a48 <_malloc_r+0x390>
   10d00:	00892403          	lw	s0,8(s2)
   10d04:	0014e793          	ori	a5,s1,1
   10d08:	00f42223          	sw	a5,4(s0)
   10d0c:	009407b3          	add	a5,s0,s1
   10d10:	00f92423          	sw	a5,8(s2)
   10d14:	a8dff06f          	j	107a0 <_malloc_r+0xe8>

00010d18 <memset>:
   10d18:	00f00313          	li	t1,15
   10d1c:	00050713          	mv	a4,a0
   10d20:	02c37e63          	bleu	a2,t1,10d5c <memset+0x44>
   10d24:	00f77793          	andi	a5,a4,15
   10d28:	0a079063          	bnez	a5,10dc8 <memset+0xb0>
   10d2c:	08059263          	bnez	a1,10db0 <memset+0x98>
   10d30:	ff067693          	andi	a3,a2,-16
   10d34:	00f67613          	andi	a2,a2,15
   10d38:	00e686b3          	add	a3,a3,a4
   10d3c:	00b72023          	sw	a1,0(a4)
   10d40:	00b72223          	sw	a1,4(a4)
   10d44:	00b72423          	sw	a1,8(a4)
   10d48:	00b72623          	sw	a1,12(a4)
   10d4c:	01070713          	addi	a4,a4,16
   10d50:	fed766e3          	bltu	a4,a3,10d3c <memset+0x24>
   10d54:	00061463          	bnez	a2,10d5c <memset+0x44>
   10d58:	00008067          	ret
   10d5c:	40c306b3          	sub	a3,t1,a2
   10d60:	00269693          	slli	a3,a3,0x2
   10d64:	00000297          	auipc	t0,0x0
   10d68:	005686b3          	add	a3,a3,t0
   10d6c:	00c68067          	jr	12(a3)
   10d70:	00b70723          	sb	a1,14(a4)
   10d74:	00b706a3          	sb	a1,13(a4)
   10d78:	00b70623          	sb	a1,12(a4)
   10d7c:	00b705a3          	sb	a1,11(a4)
   10d80:	00b70523          	sb	a1,10(a4)
   10d84:	00b704a3          	sb	a1,9(a4)
   10d88:	00b70423          	sb	a1,8(a4)
   10d8c:	00b703a3          	sb	a1,7(a4)
   10d90:	00b70323          	sb	a1,6(a4)
   10d94:	00b702a3          	sb	a1,5(a4)
   10d98:	00b70223          	sb	a1,4(a4)
   10d9c:	00b701a3          	sb	a1,3(a4)
   10da0:	00b70123          	sb	a1,2(a4)
   10da4:	00b700a3          	sb	a1,1(a4)
   10da8:	00b70023          	sb	a1,0(a4)
   10dac:	00008067          	ret
   10db0:	0ff5f593          	andi	a1,a1,255
   10db4:	00859693          	slli	a3,a1,0x8
   10db8:	00d5e5b3          	or	a1,a1,a3
   10dbc:	01059693          	slli	a3,a1,0x10
   10dc0:	00d5e5b3          	or	a1,a1,a3
   10dc4:	f6dff06f          	j	10d30 <memset+0x18>
   10dc8:	00279693          	slli	a3,a5,0x2
   10dcc:	00000297          	auipc	t0,0x0
   10dd0:	005686b3          	add	a3,a3,t0
   10dd4:	00008293          	mv	t0,ra
   10dd8:	fa0680e7          	jalr	-96(a3)
   10ddc:	00028093          	mv	ra,t0
   10de0:	ff078793          	addi	a5,a5,-16
   10de4:	40f70733          	sub	a4,a4,a5
   10de8:	00f60633          	add	a2,a2,a5
   10dec:	f6c378e3          	bleu	a2,t1,10d5c <memset+0x44>
   10df0:	f3dff06f          	j	10d2c <memset+0x14>

00010df4 <__malloc_lock>:
   10df4:	00008067          	ret

00010df8 <__malloc_unlock>:
   10df8:	00008067          	ret

00010dfc <_printf_r>:
   10dfc:	fc010113          	addi	sp,sp,-64
   10e00:	02c12423          	sw	a2,40(sp)
   10e04:	02d12623          	sw	a3,44(sp)
   10e08:	02e12823          	sw	a4,48(sp)
   10e0c:	02f12a23          	sw	a5,52(sp)
   10e10:	03012c23          	sw	a6,56(sp)
   10e14:	03112e23          	sw	a7,60(sp)
   10e18:	00058613          	mv	a2,a1
   10e1c:	00852583          	lw	a1,8(a0)
   10e20:	02810693          	addi	a3,sp,40
   10e24:	00112e23          	sw	ra,28(sp)
   10e28:	00d12623          	sw	a3,12(sp)
   10e2c:	3cc000ef          	jal	ra,111f8 <_vfprintf_r>
   10e30:	01c12083          	lw	ra,28(sp)
   10e34:	04010113          	addi	sp,sp,64
   10e38:	00008067          	ret

00010e3c <printf>:
   10e3c:	fc010113          	addi	sp,sp,-64
   10e40:	02f12a23          	sw	a5,52(sp)
   10e44:	8201a783          	lw	a5,-2016(gp) # 23c68 <_impure_ptr>
   10e48:	02c12423          	sw	a2,40(sp)
   10e4c:	02d12623          	sw	a3,44(sp)
   10e50:	02b12223          	sw	a1,36(sp)
   10e54:	02e12823          	sw	a4,48(sp)
   10e58:	03012c23          	sw	a6,56(sp)
   10e5c:	03112e23          	sw	a7,60(sp)
   10e60:	0087a583          	lw	a1,8(a5)
   10e64:	02410693          	addi	a3,sp,36
   10e68:	00050613          	mv	a2,a0
   10e6c:	00078513          	mv	a0,a5
   10e70:	00112e23          	sw	ra,28(sp)
   10e74:	00d12623          	sw	a3,12(sp)
   10e78:	380000ef          	jal	ra,111f8 <_vfprintf_r>
   10e7c:	01c12083          	lw	ra,28(sp)
   10e80:	04010113          	addi	sp,sp,64
   10e84:	00008067          	ret

00010e88 <_putchar_r>:
   10e88:	00852603          	lw	a2,8(a0)
   10e8c:	0180006f          	j	10ea4 <_putc_r>

00010e90 <putchar>:
   10e90:	8201a783          	lw	a5,-2016(gp) # 23c68 <_impure_ptr>
   10e94:	00050593          	mv	a1,a0
   10e98:	0087a603          	lw	a2,8(a5)
   10e9c:	00078513          	mv	a0,a5
   10ea0:	0040006f          	j	10ea4 <_putc_r>

00010ea4 <_putc_r>:
   10ea4:	fe010113          	addi	sp,sp,-32
   10ea8:	00812c23          	sw	s0,24(sp)
   10eac:	00112e23          	sw	ra,28(sp)
   10eb0:	00050413          	mv	s0,a0
   10eb4:	02050063          	beqz	a0,10ed4 <_putc_r+0x30>
   10eb8:	03852783          	lw	a5,56(a0)
   10ebc:	00079c63          	bnez	a5,10ed4 <_putc_r+0x30>
   10ec0:	00c12623          	sw	a2,12(sp)
   10ec4:	00b12423          	sw	a1,8(sp)
   10ec8:	30d020ef          	jal	ra,139d4 <__sinit>
   10ecc:	00c12603          	lw	a2,12(sp)
   10ed0:	00812583          	lw	a1,8(sp)
   10ed4:	00862783          	lw	a5,8(a2)
   10ed8:	fff78793          	addi	a5,a5,-1
   10edc:	00f62423          	sw	a5,8(a2)
   10ee0:	0207d663          	bgez	a5,10f0c <_putc_r+0x68>
   10ee4:	01862703          	lw	a4,24(a2)
   10ee8:	00e7c863          	blt	a5,a4,10ef8 <_putc_r+0x54>
   10eec:	0ff5f793          	andi	a5,a1,255
   10ef0:	00a00713          	li	a4,10
   10ef4:	00e79c63          	bne	a5,a4,10f0c <_putc_r+0x68>
   10ef8:	00040513          	mv	a0,s0
   10efc:	01812403          	lw	s0,24(sp)
   10f00:	01c12083          	lw	ra,28(sp)
   10f04:	02010113          	addi	sp,sp,32
   10f08:	3380206f          	j	13240 <__swbuf_r>
   10f0c:	00062783          	lw	a5,0(a2)
   10f10:	0ff5f513          	andi	a0,a1,255
   10f14:	00178713          	addi	a4,a5,1
   10f18:	00e62023          	sw	a4,0(a2)
   10f1c:	00b78023          	sb	a1,0(a5)
   10f20:	01c12083          	lw	ra,28(sp)
   10f24:	01812403          	lw	s0,24(sp)
   10f28:	02010113          	addi	sp,sp,32
   10f2c:	00008067          	ret

00010f30 <putc>:
   10f30:	00058613          	mv	a2,a1
   10f34:	00050593          	mv	a1,a0
   10f38:	8201a503          	lw	a0,-2016(gp) # 23c68 <_impure_ptr>
   10f3c:	f69ff06f          	j	10ea4 <_putc_r>

00010f40 <_puts_r>:
   10f40:	fc010113          	addi	sp,sp,-64
   10f44:	02812c23          	sw	s0,56(sp)
   10f48:	00050413          	mv	s0,a0
   10f4c:	00058513          	mv	a0,a1
   10f50:	00b12623          	sw	a1,12(sp)
   10f54:	02112e23          	sw	ra,60(sp)
   10f58:	284000ef          	jal	ra,111dc <strlen>
   10f5c:	000217b7          	lui	a5,0x21
   10f60:	4f878793          	addi	a5,a5,1272 # 214f8 <main+0xd6c>
   10f64:	02f12423          	sw	a5,40(sp)
   10f68:	00100793          	li	a5,1
   10f6c:	02f12623          	sw	a5,44(sp)
   10f70:	02010793          	addi	a5,sp,32
   10f74:	00c12583          	lw	a1,12(sp)
   10f78:	00f12a23          	sw	a5,20(sp)
   10f7c:	00200793          	li	a5,2
   10f80:	00f12c23          	sw	a5,24(sp)
   10f84:	03842783          	lw	a5,56(s0)
   10f88:	02a12223          	sw	a0,36(sp)
   10f8c:	00150513          	addi	a0,a0,1
   10f90:	02b12023          	sw	a1,32(sp)
   10f94:	00a12e23          	sw	a0,28(sp)
   10f98:	00842583          	lw	a1,8(s0)
   10f9c:	00079a63          	bnez	a5,10fb0 <_puts_r+0x70>
   10fa0:	00040513          	mv	a0,s0
   10fa4:	00b12623          	sw	a1,12(sp)
   10fa8:	22d020ef          	jal	ra,139d4 <__sinit>
   10fac:	00c12583          	lw	a1,12(sp)
   10fb0:	00c59783          	lh	a5,12(a1)
   10fb4:	01279713          	slli	a4,a5,0x12
   10fb8:	02074263          	bltz	a4,10fdc <_puts_r+0x9c>
   10fbc:	000026b7          	lui	a3,0x2
   10fc0:	0645a703          	lw	a4,100(a1)
   10fc4:	00d7e7b3          	or	a5,a5,a3
   10fc8:	00f59623          	sh	a5,12(a1)
   10fcc:	ffffe7b7          	lui	a5,0xffffe
   10fd0:	fff78793          	addi	a5,a5,-1 # ffffdfff <_end+0xfffd7b1f>
   10fd4:	00f777b3          	and	a5,a4,a5
   10fd8:	06f5a223          	sw	a5,100(a1)
   10fdc:	01410613          	addi	a2,sp,20
   10fe0:	00040513          	mv	a0,s0
   10fe4:	6f5020ef          	jal	ra,13ed8 <__sfvwrite_r>
   10fe8:	fff00793          	li	a5,-1
   10fec:	00051463          	bnez	a0,10ff4 <_puts_r+0xb4>
   10ff0:	00a00793          	li	a5,10
   10ff4:	03c12083          	lw	ra,60(sp)
   10ff8:	03812403          	lw	s0,56(sp)
   10ffc:	00078513          	mv	a0,a5
   11000:	04010113          	addi	sp,sp,64
   11004:	00008067          	ret

00011008 <puts>:
   11008:	00050593          	mv	a1,a0
   1100c:	8201a503          	lw	a0,-2016(gp) # 23c68 <_impure_ptr>
   11010:	f31ff06f          	j	10f40 <_puts_r>

00011014 <_sbrk_r>:
   11014:	ff010113          	addi	sp,sp,-16
   11018:	00812423          	sw	s0,8(sp)
   1101c:	00912223          	sw	s1,4(sp)
   11020:	00026437          	lui	s0,0x26
   11024:	00050493          	mv	s1,a0
   11028:	00058513          	mv	a0,a1
   1102c:	00112623          	sw	ra,12(sp)
   11030:	4c042e23          	sw	zero,1244(s0) # 264dc <errno>
   11034:	cf0ff0ef          	jal	ra,10524 <_sbrk>
   11038:	fff00793          	li	a5,-1
   1103c:	00f51863          	bne	a0,a5,1104c <_sbrk_r+0x38>
   11040:	4dc42783          	lw	a5,1244(s0)
   11044:	00078463          	beqz	a5,1104c <_sbrk_r+0x38>
   11048:	00f4a023          	sw	a5,0(s1)
   1104c:	00c12083          	lw	ra,12(sp)
   11050:	00812403          	lw	s0,8(sp)
   11054:	00412483          	lw	s1,4(sp)
   11058:	01010113          	addi	sp,sp,16
   1105c:	00008067          	ret

00011060 <strcmp>:
   11060:	00b56733          	or	a4,a0,a1
   11064:	fff00393          	li	t2,-1
   11068:	00377713          	andi	a4,a4,3
   1106c:	10071063          	bnez	a4,1116c <strcmp+0x10c>
   11070:	7f7f87b7          	lui	a5,0x7f7f8
   11074:	f7f78793          	addi	a5,a5,-129 # 7f7f7f7f <_end+0x7f7d1a9f>
   11078:	00052603          	lw	a2,0(a0)
   1107c:	0005a683          	lw	a3,0(a1)
   11080:	00f672b3          	and	t0,a2,a5
   11084:	00f66333          	or	t1,a2,a5
   11088:	00f282b3          	add	t0,t0,a5
   1108c:	0062e2b3          	or	t0,t0,t1
   11090:	10729263          	bne	t0,t2,11194 <strcmp+0x134>
   11094:	08d61663          	bne	a2,a3,11120 <strcmp+0xc0>
   11098:	00452603          	lw	a2,4(a0)
   1109c:	0045a683          	lw	a3,4(a1)
   110a0:	00f672b3          	and	t0,a2,a5
   110a4:	00f66333          	or	t1,a2,a5
   110a8:	00f282b3          	add	t0,t0,a5
   110ac:	0062e2b3          	or	t0,t0,t1
   110b0:	0c729e63          	bne	t0,t2,1118c <strcmp+0x12c>
   110b4:	06d61663          	bne	a2,a3,11120 <strcmp+0xc0>
   110b8:	00852603          	lw	a2,8(a0)
   110bc:	0085a683          	lw	a3,8(a1)
   110c0:	00f672b3          	and	t0,a2,a5
   110c4:	00f66333          	or	t1,a2,a5
   110c8:	00f282b3          	add	t0,t0,a5
   110cc:	0062e2b3          	or	t0,t0,t1
   110d0:	0c729863          	bne	t0,t2,111a0 <strcmp+0x140>
   110d4:	04d61663          	bne	a2,a3,11120 <strcmp+0xc0>
   110d8:	00c52603          	lw	a2,12(a0)
   110dc:	00c5a683          	lw	a3,12(a1)
   110e0:	00f672b3          	and	t0,a2,a5
   110e4:	00f66333          	or	t1,a2,a5
   110e8:	00f282b3          	add	t0,t0,a5
   110ec:	0062e2b3          	or	t0,t0,t1
   110f0:	0c729263          	bne	t0,t2,111b4 <strcmp+0x154>
   110f4:	02d61663          	bne	a2,a3,11120 <strcmp+0xc0>
   110f8:	01052603          	lw	a2,16(a0)
   110fc:	0105a683          	lw	a3,16(a1)
   11100:	00f672b3          	and	t0,a2,a5
   11104:	00f66333          	or	t1,a2,a5
   11108:	00f282b3          	add	t0,t0,a5
   1110c:	0062e2b3          	or	t0,t0,t1
   11110:	0a729c63          	bne	t0,t2,111c8 <strcmp+0x168>
   11114:	01450513          	addi	a0,a0,20
   11118:	01458593          	addi	a1,a1,20
   1111c:	f4d60ee3          	beq	a2,a3,11078 <strcmp+0x18>
   11120:	01061713          	slli	a4,a2,0x10
   11124:	01069793          	slli	a5,a3,0x10
   11128:	00f71e63          	bne	a4,a5,11144 <strcmp+0xe4>
   1112c:	01065713          	srli	a4,a2,0x10
   11130:	0106d793          	srli	a5,a3,0x10
   11134:	40f70533          	sub	a0,a4,a5
   11138:	0ff57593          	andi	a1,a0,255
   1113c:	02059063          	bnez	a1,1115c <strcmp+0xfc>
   11140:	00008067          	ret
   11144:	01075713          	srli	a4,a4,0x10
   11148:	0107d793          	srli	a5,a5,0x10
   1114c:	40f70533          	sub	a0,a4,a5
   11150:	0ff57593          	andi	a1,a0,255
   11154:	00059463          	bnez	a1,1115c <strcmp+0xfc>
   11158:	00008067          	ret
   1115c:	0ff77713          	andi	a4,a4,255
   11160:	0ff7f793          	andi	a5,a5,255
   11164:	40f70533          	sub	a0,a4,a5
   11168:	00008067          	ret
   1116c:	00054603          	lbu	a2,0(a0)
   11170:	0005c683          	lbu	a3,0(a1)
   11174:	00150513          	addi	a0,a0,1
   11178:	00158593          	addi	a1,a1,1
   1117c:	00d61463          	bne	a2,a3,11184 <strcmp+0x124>
   11180:	fe0616e3          	bnez	a2,1116c <strcmp+0x10c>
   11184:	40d60533          	sub	a0,a2,a3
   11188:	00008067          	ret
   1118c:	00450513          	addi	a0,a0,4
   11190:	00458593          	addi	a1,a1,4
   11194:	fcd61ce3          	bne	a2,a3,1116c <strcmp+0x10c>
   11198:	00000513          	li	a0,0
   1119c:	00008067          	ret
   111a0:	00850513          	addi	a0,a0,8
   111a4:	00858593          	addi	a1,a1,8
   111a8:	fcd612e3          	bne	a2,a3,1116c <strcmp+0x10c>
   111ac:	00000513          	li	a0,0
   111b0:	00008067          	ret
   111b4:	00c50513          	addi	a0,a0,12
   111b8:	00c58593          	addi	a1,a1,12
   111bc:	fad618e3          	bne	a2,a3,1116c <strcmp+0x10c>
   111c0:	00000513          	li	a0,0
   111c4:	00008067          	ret
   111c8:	01050513          	addi	a0,a0,16
   111cc:	01058593          	addi	a1,a1,16
   111d0:	f8d61ee3          	bne	a2,a3,1116c <strcmp+0x10c>
   111d4:	00000513          	li	a0,0
   111d8:	00008067          	ret

000111dc <strlen>:
   111dc:	00050793          	mv	a5,a0
   111e0:	00178793          	addi	a5,a5,1
   111e4:	fff7c703          	lbu	a4,-1(a5)
   111e8:	fe071ce3          	bnez	a4,111e0 <strlen+0x4>
   111ec:	40a78533          	sub	a0,a5,a0
   111f0:	fff50513          	addi	a0,a0,-1
   111f4:	00008067          	ret

000111f8 <_vfprintf_r>:
   111f8:	e2010113          	addi	sp,sp,-480
   111fc:	1c112e23          	sw	ra,476(sp)
   11200:	1c912a23          	sw	s1,468(sp)
   11204:	1d212823          	sw	s2,464(sp)
   11208:	1d312623          	sw	s3,460(sp)
   1120c:	1d512223          	sw	s5,452(sp)
   11210:	00058913          	mv	s2,a1
   11214:	00060493          	mv	s1,a2
   11218:	00068a93          	mv	s5,a3
   1121c:	1c812c23          	sw	s0,472(sp)
   11220:	1d412423          	sw	s4,456(sp)
   11224:	1d612023          	sw	s6,448(sp)
   11228:	1b712e23          	sw	s7,444(sp)
   1122c:	1b812c23          	sw	s8,440(sp)
   11230:	1b912a23          	sw	s9,436(sp)
   11234:	1ba12823          	sw	s10,432(sp)
   11238:	1bb12623          	sw	s11,428(sp)
   1123c:	00050993          	mv	s3,a0
   11240:	1cc050ef          	jal	ra,1640c <_localeconv_r>
   11244:	00052783          	lw	a5,0(a0)
   11248:	00078513          	mv	a0,a5
   1124c:	02f12a23          	sw	a5,52(sp)
   11250:	f8dff0ef          	jal	ra,111dc <strlen>
   11254:	02a12023          	sw	a0,32(sp)
   11258:	0e012023          	sw	zero,224(sp)
   1125c:	0e012223          	sw	zero,228(sp)
   11260:	0e012423          	sw	zero,232(sp)
   11264:	0e012623          	sw	zero,236(sp)
   11268:	00098a63          	beqz	s3,1127c <_vfprintf_r+0x84>
   1126c:	0389a783          	lw	a5,56(s3)
   11270:	00079663          	bnez	a5,1127c <_vfprintf_r+0x84>
   11274:	00098513          	mv	a0,s3
   11278:	75c020ef          	jal	ra,139d4 <__sinit>
   1127c:	00c91783          	lh	a5,12(s2)
   11280:	01279713          	slli	a4,a5,0x12
   11284:	02074263          	bltz	a4,112a8 <_vfprintf_r+0xb0>
   11288:	000026b7          	lui	a3,0x2
   1128c:	06492703          	lw	a4,100(s2)
   11290:	00d7e7b3          	or	a5,a5,a3
   11294:	00f91623          	sh	a5,12(s2)
   11298:	ffffe7b7          	lui	a5,0xffffe
   1129c:	fff78793          	addi	a5,a5,-1 # ffffdfff <_end+0xfffd7b1f>
   112a0:	00f777b3          	and	a5,a4,a5
   112a4:	06f92223          	sw	a5,100(s2)
   112a8:	00c95783          	lhu	a5,12(s2)
   112ac:	0087f793          	andi	a5,a5,8
   112b0:	04078063          	beqz	a5,112f0 <_vfprintf_r+0xf8>
   112b4:	01092783          	lw	a5,16(s2)
   112b8:	02078c63          	beqz	a5,112f0 <_vfprintf_r+0xf8>
   112bc:	00c95783          	lhu	a5,12(s2)
   112c0:	00a00713          	li	a4,10
   112c4:	01a7f793          	andi	a5,a5,26
   112c8:	08e79063          	bne	a5,a4,11348 <_vfprintf_r+0x150>
   112cc:	00e91783          	lh	a5,14(s2)
   112d0:	0607cc63          	bltz	a5,11348 <_vfprintf_r+0x150>
   112d4:	000a8693          	mv	a3,s5
   112d8:	00048613          	mv	a2,s1
   112dc:	00090593          	mv	a1,s2
   112e0:	00098513          	mv	a0,s3
   112e4:	6a1010ef          	jal	ra,13184 <__sbprintf>
   112e8:	02a12223          	sw	a0,36(sp)
   112ec:	01c0006f          	j	11308 <_vfprintf_r+0x110>
   112f0:	00090593          	mv	a1,s2
   112f4:	00098513          	mv	a0,s3
   112f8:	088020ef          	jal	ra,13380 <__swsetup_r>
   112fc:	fc0500e3          	beqz	a0,112bc <_vfprintf_r+0xc4>
   11300:	fff00793          	li	a5,-1
   11304:	02f12223          	sw	a5,36(sp)
   11308:	1dc12083          	lw	ra,476(sp)
   1130c:	1d812403          	lw	s0,472(sp)
   11310:	02412503          	lw	a0,36(sp)
   11314:	1d412483          	lw	s1,468(sp)
   11318:	1d012903          	lw	s2,464(sp)
   1131c:	1cc12983          	lw	s3,460(sp)
   11320:	1c812a03          	lw	s4,456(sp)
   11324:	1c412a83          	lw	s5,452(sp)
   11328:	1c012b03          	lw	s6,448(sp)
   1132c:	1bc12b83          	lw	s7,444(sp)
   11330:	1b812c03          	lw	s8,440(sp)
   11334:	1b412c83          	lw	s9,436(sp)
   11338:	1b012d03          	lw	s10,432(sp)
   1133c:	1ac12d83          	lw	s11,428(sp)
   11340:	1e010113          	addi	sp,sp,480
   11344:	00008067          	ret
   11348:	000217b7          	lui	a5,0x21
   1134c:	58078793          	addi	a5,a5,1408 # 21580 <main+0xdf4>
   11350:	04f12623          	sw	a5,76(sp)
   11354:	000217b7          	lui	a5,0x21
   11358:	0fc10893          	addi	a7,sp,252
   1135c:	6fc78793          	addi	a5,a5,1788 # 216fc <zeroes.4514>
   11360:	0d112a23          	sw	a7,212(sp)
   11364:	0c012e23          	sw	zero,220(sp)
   11368:	0c012c23          	sw	zero,216(sp)
   1136c:	00000a13          	li	s4,0
   11370:	00088b93          	mv	s7,a7
   11374:	04012023          	sw	zero,64(sp)
   11378:	02012e23          	sw	zero,60(sp)
   1137c:	00012823          	sw	zero,16(sp)
   11380:	02012823          	sw	zero,48(sp)
   11384:	02012c23          	sw	zero,56(sp)
   11388:	02012223          	sw	zero,36(sp)
   1138c:	00f12a23          	sw	a5,20(sp)
   11390:	00048413          	mv	s0,s1
   11394:	02500713          	li	a4,37
   11398:	00044783          	lbu	a5,0(s0)
   1139c:	00078463          	beqz	a5,113a4 <_vfprintf_r+0x1ac>
   113a0:	0ae79c63          	bne	a5,a4,11458 <_vfprintf_r+0x260>
   113a4:	40940b33          	sub	s6,s0,s1
   113a8:	040b0a63          	beqz	s6,113fc <_vfprintf_r+0x204>
   113ac:	0dc12783          	lw	a5,220(sp)
   113b0:	009ba023          	sw	s1,0(s7)
   113b4:	016ba223          	sw	s6,4(s7)
   113b8:	016787b3          	add	a5,a5,s6
   113bc:	0cf12e23          	sw	a5,220(sp)
   113c0:	0d812783          	lw	a5,216(sp)
   113c4:	00700713          	li	a4,7
   113c8:	008b8b93          	addi	s7,s7,8
   113cc:	00178793          	addi	a5,a5,1
   113d0:	0cf12c23          	sw	a5,216(sp)
   113d4:	00f75e63          	ble	a5,a4,113f0 <_vfprintf_r+0x1f8>
   113d8:	0d410613          	addi	a2,sp,212
   113dc:	00090593          	mv	a1,s2
   113e0:	00098513          	mv	a0,s3
   113e4:	3cd080ef          	jal	ra,19fb0 <__sprint_r>
   113e8:	70051663          	bnez	a0,11af4 <_vfprintf_r+0x8fc>
   113ec:	0fc10b93          	addi	s7,sp,252
   113f0:	02412783          	lw	a5,36(sp)
   113f4:	016787b3          	add	a5,a5,s6
   113f8:	02f12223          	sw	a5,36(sp)
   113fc:	00044783          	lbu	a5,0(s0)
   11400:	00079463          	bnez	a5,11408 <_vfprintf_r+0x210>
   11404:	5290106f          	j	1312c <_vfprintf_r+0x1f34>
   11408:	00140793          	addi	a5,s0,1
   1140c:	0a010ba3          	sb	zero,183(sp)
   11410:	fff00d13          	li	s10,-1
   11414:	02012423          	sw	zero,40(sp)
   11418:	00000413          	li	s0,0
   1141c:	05a00c93          	li	s9,90
   11420:	00a00d93          	li	s11,10
   11424:	00900c13          	li	s8,9
   11428:	0007cb03          	lbu	s6,0(a5)
   1142c:	00178713          	addi	a4,a5,1
   11430:	00e12e23          	sw	a4,28(sp)
   11434:	02a00693          	li	a3,42
   11438:	fe0b0793          	addi	a5,s6,-32
   1143c:	00fcf463          	bleu	a5,s9,11444 <_vfprintf_r+0x24c>
   11440:	20c0106f          	j	1264c <_vfprintf_r+0x1454>
   11444:	04c12703          	lw	a4,76(sp)
   11448:	00279793          	slli	a5,a5,0x2
   1144c:	00e787b3          	add	a5,a5,a4
   11450:	0007a783          	lw	a5,0(a5)
   11454:	00078067          	jr	a5
   11458:	00140413          	addi	s0,s0,1
   1145c:	f3dff06f          	j	11398 <_vfprintf_r+0x1a0>
   11460:	00098513          	mv	a0,s3
   11464:	7a9040ef          	jal	ra,1640c <_localeconv_r>
   11468:	00452783          	lw	a5,4(a0)
   1146c:	00078513          	mv	a0,a5
   11470:	02f12c23          	sw	a5,56(sp)
   11474:	d69ff0ef          	jal	ra,111dc <strlen>
   11478:	02a12823          	sw	a0,48(sp)
   1147c:	00098513          	mv	a0,s3
   11480:	78d040ef          	jal	ra,1640c <_localeconv_r>
   11484:	00852783          	lw	a5,8(a0)
   11488:	00f12823          	sw	a5,16(sp)
   1148c:	03012783          	lw	a5,48(sp)
   11490:	00078c63          	beqz	a5,114a8 <_vfprintf_r+0x2b0>
   11494:	01012783          	lw	a5,16(sp)
   11498:	00078863          	beqz	a5,114a8 <_vfprintf_r+0x2b0>
   1149c:	0007c783          	lbu	a5,0(a5)
   114a0:	00078463          	beqz	a5,114a8 <_vfprintf_r+0x2b0>
   114a4:	40046413          	ori	s0,s0,1024
   114a8:	01c12783          	lw	a5,28(sp)
   114ac:	f7dff06f          	j	11428 <_vfprintf_r+0x230>
   114b0:	0b714783          	lbu	a5,183(sp)
   114b4:	fe079ae3          	bnez	a5,114a8 <_vfprintf_r+0x2b0>
   114b8:	02000793          	li	a5,32
   114bc:	0af10ba3          	sb	a5,183(sp)
   114c0:	fe9ff06f          	j	114a8 <_vfprintf_r+0x2b0>
   114c4:	00146413          	ori	s0,s0,1
   114c8:	fe1ff06f          	j	114a8 <_vfprintf_r+0x2b0>
   114cc:	000aa783          	lw	a5,0(s5)
   114d0:	004a8a93          	addi	s5,s5,4
   114d4:	02f12423          	sw	a5,40(sp)
   114d8:	fc07d8e3          	bgez	a5,114a8 <_vfprintf_r+0x2b0>
   114dc:	40f007b3          	neg	a5,a5
   114e0:	02f12423          	sw	a5,40(sp)
   114e4:	00446413          	ori	s0,s0,4
   114e8:	fc1ff06f          	j	114a8 <_vfprintf_r+0x2b0>
   114ec:	02b00793          	li	a5,43
   114f0:	fcdff06f          	j	114bc <_vfprintf_r+0x2c4>
   114f4:	01c12703          	lw	a4,28(sp)
   114f8:	01c12783          	lw	a5,28(sp)
   114fc:	00074b03          	lbu	s6,0(a4)
   11500:	00178793          	addi	a5,a5,1
   11504:	04db1063          	bne	s6,a3,11544 <_vfprintf_r+0x34c>
   11508:	000aad03          	lw	s10,0(s5)
   1150c:	004a8713          	addi	a4,s5,4
   11510:	000d5463          	bgez	s10,11518 <_vfprintf_r+0x320>
   11514:	fff00d13          	li	s10,-1
   11518:	00070a93          	mv	s5,a4
   1151c:	00f12e23          	sw	a5,28(sp)
   11520:	f89ff06f          	j	114a8 <_vfprintf_r+0x2b0>
   11524:	03bd0333          	mul	t1,s10,s11
   11528:	00178793          	addi	a5,a5,1
   1152c:	fff7cb03          	lbu	s6,-1(a5)
   11530:	00e30d33          	add	s10,t1,a4
   11534:	fd0b0713          	addi	a4,s6,-48
   11538:	feec76e3          	bleu	a4,s8,11524 <_vfprintf_r+0x32c>
   1153c:	00f12e23          	sw	a5,28(sp)
   11540:	ef9ff06f          	j	11438 <_vfprintf_r+0x240>
   11544:	00000d13          	li	s10,0
   11548:	fedff06f          	j	11534 <_vfprintf_r+0x33c>
   1154c:	08046413          	ori	s0,s0,128
   11550:	f59ff06f          	j	114a8 <_vfprintf_r+0x2b0>
   11554:	01c12783          	lw	a5,28(sp)
   11558:	02012423          	sw	zero,40(sp)
   1155c:	02812703          	lw	a4,40(sp)
   11560:	fd0b0b13          	addi	s6,s6,-48
   11564:	00178793          	addi	a5,a5,1
   11568:	03b70733          	mul	a4,a4,s11
   1156c:	00eb0733          	add	a4,s6,a4
   11570:	fff7cb03          	lbu	s6,-1(a5)
   11574:	02e12423          	sw	a4,40(sp)
   11578:	fd0b0713          	addi	a4,s6,-48
   1157c:	feec70e3          	bleu	a4,s8,1155c <_vfprintf_r+0x364>
   11580:	fbdff06f          	j	1153c <_vfprintf_r+0x344>
   11584:	00846413          	ori	s0,s0,8
   11588:	f21ff06f          	j	114a8 <_vfprintf_r+0x2b0>
   1158c:	01c12783          	lw	a5,28(sp)
   11590:	0007c703          	lbu	a4,0(a5)
   11594:	06800793          	li	a5,104
   11598:	00f71c63          	bne	a4,a5,115b0 <_vfprintf_r+0x3b8>
   1159c:	01c12783          	lw	a5,28(sp)
   115a0:	20046413          	ori	s0,s0,512
   115a4:	00178793          	addi	a5,a5,1
   115a8:	00f12e23          	sw	a5,28(sp)
   115ac:	efdff06f          	j	114a8 <_vfprintf_r+0x2b0>
   115b0:	04046413          	ori	s0,s0,64
   115b4:	ef5ff06f          	j	114a8 <_vfprintf_r+0x2b0>
   115b8:	01c12783          	lw	a5,28(sp)
   115bc:	0007c703          	lbu	a4,0(a5)
   115c0:	06c00793          	li	a5,108
   115c4:	00f71c63          	bne	a4,a5,115dc <_vfprintf_r+0x3e4>
   115c8:	01c12783          	lw	a5,28(sp)
   115cc:	00178793          	addi	a5,a5,1
   115d0:	00f12e23          	sw	a5,28(sp)
   115d4:	02046413          	ori	s0,s0,32
   115d8:	ed1ff06f          	j	114a8 <_vfprintf_r+0x2b0>
   115dc:	01046413          	ori	s0,s0,16
   115e0:	ec9ff06f          	j	114a8 <_vfprintf_r+0x2b0>
   115e4:	004a8793          	addi	a5,s5,4
   115e8:	00f12c23          	sw	a5,24(sp)
   115ec:	000aa783          	lw	a5,0(s5)
   115f0:	0a010ba3          	sb	zero,183(sp)
   115f4:	12f10e23          	sb	a5,316(sp)
   115f8:	00012623          	sw	zero,12(sp)
   115fc:	00100d13          	li	s10,1
   11600:	00000a93          	li	s5,0
   11604:	00000c93          	li	s9,0
   11608:	00000c13          	li	s8,0
   1160c:	00000d93          	li	s11,0
   11610:	13c10493          	addi	s1,sp,316
   11614:	03512623          	sw	s5,44(sp)
   11618:	01aad463          	ble	s10,s5,11620 <_vfprintf_r+0x428>
   1161c:	03a12623          	sw	s10,44(sp)
   11620:	0b714703          	lbu	a4,183(sp)
   11624:	00070863          	beqz	a4,11634 <_vfprintf_r+0x43c>
   11628:	02c12783          	lw	a5,44(sp)
   1162c:	00178793          	addi	a5,a5,1
   11630:	02f12623          	sw	a5,44(sp)
   11634:	00247793          	andi	a5,s0,2
   11638:	04f12223          	sw	a5,68(sp)
   1163c:	00078863          	beqz	a5,1164c <_vfprintf_r+0x454>
   11640:	02c12783          	lw	a5,44(sp)
   11644:	00278793          	addi	a5,a5,2
   11648:	02f12623          	sw	a5,44(sp)
   1164c:	08447793          	andi	a5,s0,132
   11650:	04f12423          	sw	a5,72(sp)
   11654:	06079c63          	bnez	a5,116cc <_vfprintf_r+0x4d4>
   11658:	02812783          	lw	a5,40(sp)
   1165c:	02c12703          	lw	a4,44(sp)
   11660:	40e78733          	sub	a4,a5,a4
   11664:	06e05463          	blez	a4,116cc <_vfprintf_r+0x4d4>
   11668:	000217b7          	lui	a5,0x21
   1166c:	01000e93          	li	t4,16
   11670:	6ec78e13          	addi	t3,a5,1772 # 216ec <blanks.4513>
   11674:	00700f13          	li	t5,7
   11678:	0d812683          	lw	a3,216(sp)
   1167c:	01cba023          	sw	t3,0(s7)
   11680:	0dc12603          	lw	a2,220(sp)
   11684:	00168693          	addi	a3,a3,1 # 2001 <_start-0xdfff>
   11688:	008b8593          	addi	a1,s7,8
   1168c:	00eed463          	ble	a4,t4,11694 <_vfprintf_r+0x49c>
   11690:	7d10006f          	j	12660 <_vfprintf_r+0x1468>
   11694:	00eba223          	sw	a4,4(s7)
   11698:	00c70733          	add	a4,a4,a2
   1169c:	0ce12e23          	sw	a4,220(sp)
   116a0:	0cd12c23          	sw	a3,216(sp)
   116a4:	00700713          	li	a4,7
   116a8:	00058b93          	mv	s7,a1
   116ac:	02d75063          	ble	a3,a4,116cc <_vfprintf_r+0x4d4>
   116b0:	0d410613          	addi	a2,sp,212
   116b4:	00090593          	mv	a1,s2
   116b8:	00098513          	mv	a0,s3
   116bc:	0f5080ef          	jal	ra,19fb0 <__sprint_r>
   116c0:	00050463          	beqz	a0,116c8 <_vfprintf_r+0x4d0>
   116c4:	2050106f          	j	130c8 <_vfprintf_r+0x1ed0>
   116c8:	0fc10b93          	addi	s7,sp,252
   116cc:	0b714703          	lbu	a4,183(sp)
   116d0:	04070a63          	beqz	a4,11724 <_vfprintf_r+0x52c>
   116d4:	0b710713          	addi	a4,sp,183
   116d8:	00eba023          	sw	a4,0(s7)
   116dc:	00100713          	li	a4,1
   116e0:	00eba223          	sw	a4,4(s7)
   116e4:	0dc12703          	lw	a4,220(sp)
   116e8:	00700693          	li	a3,7
   116ec:	008b8b93          	addi	s7,s7,8
   116f0:	00170713          	addi	a4,a4,1
   116f4:	0ce12e23          	sw	a4,220(sp)
   116f8:	0d812703          	lw	a4,216(sp)
   116fc:	00170713          	addi	a4,a4,1
   11700:	0ce12c23          	sw	a4,216(sp)
   11704:	02e6d063          	ble	a4,a3,11724 <_vfprintf_r+0x52c>
   11708:	0d410613          	addi	a2,sp,212
   1170c:	00090593          	mv	a1,s2
   11710:	00098513          	mv	a0,s3
   11714:	09d080ef          	jal	ra,19fb0 <__sprint_r>
   11718:	00050463          	beqz	a0,11720 <_vfprintf_r+0x528>
   1171c:	1ad0106f          	j	130c8 <_vfprintf_r+0x1ed0>
   11720:	0fc10b93          	addi	s7,sp,252
   11724:	04412783          	lw	a5,68(sp)
   11728:	04078a63          	beqz	a5,1177c <_vfprintf_r+0x584>
   1172c:	0b810713          	addi	a4,sp,184
   11730:	00eba023          	sw	a4,0(s7)
   11734:	00200713          	li	a4,2
   11738:	00eba223          	sw	a4,4(s7)
   1173c:	0dc12703          	lw	a4,220(sp)
   11740:	00700693          	li	a3,7
   11744:	008b8b93          	addi	s7,s7,8
   11748:	00270713          	addi	a4,a4,2
   1174c:	0ce12e23          	sw	a4,220(sp)
   11750:	0d812703          	lw	a4,216(sp)
   11754:	00170713          	addi	a4,a4,1
   11758:	0ce12c23          	sw	a4,216(sp)
   1175c:	02e6d063          	ble	a4,a3,1177c <_vfprintf_r+0x584>
   11760:	0d410613          	addi	a2,sp,212
   11764:	00090593          	mv	a1,s2
   11768:	00098513          	mv	a0,s3
   1176c:	045080ef          	jal	ra,19fb0 <__sprint_r>
   11770:	00050463          	beqz	a0,11778 <_vfprintf_r+0x580>
   11774:	1550106f          	j	130c8 <_vfprintf_r+0x1ed0>
   11778:	0fc10b93          	addi	s7,sp,252
   1177c:	04812783          	lw	a5,72(sp)
   11780:	08000713          	li	a4,128
   11784:	06e79863          	bne	a5,a4,117f4 <_vfprintf_r+0x5fc>
   11788:	02812783          	lw	a5,40(sp)
   1178c:	02c12703          	lw	a4,44(sp)
   11790:	40e787b3          	sub	a5,a5,a4
   11794:	06f05063          	blez	a5,117f4 <_vfprintf_r+0x5fc>
   11798:	01000e13          	li	t3,16
   1179c:	00700e93          	li	t4,7
   117a0:	01412583          	lw	a1,20(sp)
   117a4:	0d812683          	lw	a3,216(sp)
   117a8:	0dc12703          	lw	a4,220(sp)
   117ac:	00bba023          	sw	a1,0(s7)
   117b0:	00168693          	addi	a3,a3,1
   117b4:	008b8613          	addi	a2,s7,8
   117b8:	6efe4ce3          	blt	t3,a5,126b0 <_vfprintf_r+0x14b8>
   117bc:	00e78733          	add	a4,a5,a4
   117c0:	00fba223          	sw	a5,4(s7)
   117c4:	0ce12e23          	sw	a4,220(sp)
   117c8:	0cd12c23          	sw	a3,216(sp)
   117cc:	00700713          	li	a4,7
   117d0:	00060b93          	mv	s7,a2
   117d4:	02d75063          	ble	a3,a4,117f4 <_vfprintf_r+0x5fc>
   117d8:	0d410613          	addi	a2,sp,212
   117dc:	00090593          	mv	a1,s2
   117e0:	00098513          	mv	a0,s3
   117e4:	7cc080ef          	jal	ra,19fb0 <__sprint_r>
   117e8:	00050463          	beqz	a0,117f0 <_vfprintf_r+0x5f8>
   117ec:	0dd0106f          	j	130c8 <_vfprintf_r+0x1ed0>
   117f0:	0fc10b93          	addi	s7,sp,252
   117f4:	41aa8ab3          	sub	s5,s5,s10
   117f8:	07505063          	blez	s5,11858 <_vfprintf_r+0x660>
   117fc:	01000813          	li	a6,16
   11800:	00700e13          	li	t3,7
   11804:	01412783          	lw	a5,20(sp)
   11808:	0d812703          	lw	a4,216(sp)
   1180c:	0dc12683          	lw	a3,220(sp)
   11810:	00fba023          	sw	a5,0(s7)
   11814:	00170713          	addi	a4,a4,1
   11818:	008b8613          	addi	a2,s7,8
   1181c:	6d584ee3          	blt	a6,s5,126f8 <_vfprintf_r+0x1500>
   11820:	015ba223          	sw	s5,4(s7)
   11824:	00da8ab3          	add	s5,s5,a3
   11828:	0d512e23          	sw	s5,220(sp)
   1182c:	0ce12c23          	sw	a4,216(sp)
   11830:	00700693          	li	a3,7
   11834:	00060b93          	mv	s7,a2
   11838:	02e6d063          	ble	a4,a3,11858 <_vfprintf_r+0x660>
   1183c:	0d410613          	addi	a2,sp,212
   11840:	00090593          	mv	a1,s2
   11844:	00098513          	mv	a0,s3
   11848:	768080ef          	jal	ra,19fb0 <__sprint_r>
   1184c:	00050463          	beqz	a0,11854 <_vfprintf_r+0x65c>
   11850:	0790106f          	j	130c8 <_vfprintf_r+0x1ed0>
   11854:	0fc10b93          	addi	s7,sp,252
   11858:	10047693          	andi	a3,s0,256
   1185c:	0dc12703          	lw	a4,220(sp)
   11860:	6c069ce3          	bnez	a3,12738 <_vfprintf_r+0x1540>
   11864:	0d812783          	lw	a5,216(sp)
   11868:	00ed0333          	add	t1,s10,a4
   1186c:	009ba023          	sw	s1,0(s7)
   11870:	00178793          	addi	a5,a5,1
   11874:	01aba223          	sw	s10,4(s7)
   11878:	0c612e23          	sw	t1,220(sp)
   1187c:	0cf12c23          	sw	a5,216(sp)
   11880:	00700713          	li	a4,7
   11884:	008b8b93          	addi	s7,s7,8
   11888:	00f74463          	blt	a4,a5,11890 <_vfprintf_r+0x698>
   1188c:	1740106f          	j	12a00 <_vfprintf_r+0x1808>
   11890:	0d410613          	addi	a2,sp,212
   11894:	00090593          	mv	a1,s2
   11898:	00098513          	mv	a0,s3
   1189c:	714080ef          	jal	ra,19fb0 <__sprint_r>
   118a0:	00050463          	beqz	a0,118a8 <_vfprintf_r+0x6b0>
   118a4:	0250106f          	j	130c8 <_vfprintf_r+0x1ed0>
   118a8:	0fc10b93          	addi	s7,sp,252
   118ac:	1540106f          	j	12a00 <_vfprintf_r+0x1808>
   118b0:	01046413          	ori	s0,s0,16
   118b4:	02047793          	andi	a5,s0,32
   118b8:	06078463          	beqz	a5,11920 <_vfprintf_r+0x728>
   118bc:	007a8a93          	addi	s5,s5,7
   118c0:	ff8afa93          	andi	s5,s5,-8
   118c4:	000aad83          	lw	s11,0(s5)
   118c8:	004aac83          	lw	s9,4(s5)
   118cc:	008a8793          	addi	a5,s5,8
   118d0:	00f12c23          	sw	a5,24(sp)
   118d4:	000cc463          	bltz	s9,118dc <_vfprintf_r+0x6e4>
   118d8:	0750106f          	j	1314c <_vfprintf_r+0x1f54>
   118dc:	41b00db3          	neg	s11,s11
   118e0:	01b037b3          	snez	a5,s11
   118e4:	41900cb3          	neg	s9,s9
   118e8:	40fc8cb3          	sub	s9,s9,a5
   118ec:	02d00793          	li	a5,45
   118f0:	0af10ba3          	sb	a5,183(sp)
   118f4:	00100793          	li	a5,1
   118f8:	fff00713          	li	a4,-1
   118fc:	3aed0ee3          	beq	s10,a4,124b8 <_vfprintf_r+0x12c0>
   11900:	00040713          	mv	a4,s0
   11904:	019de6b3          	or	a3,s11,s9
   11908:	f7f47413          	andi	s0,s0,-129
   1190c:	3a0696e3          	bnez	a3,124b8 <_vfprintf_r+0x12c0>
   11910:	520d00e3          	beqz	s10,12630 <_vfprintf_r+0x1438>
   11914:	00100713          	li	a4,1
   11918:	3ae794e3          	bne	a5,a4,124c0 <_vfprintf_r+0x12c8>
   1191c:	0450106f          	j	13160 <_vfprintf_r+0x1f68>
   11920:	004a8793          	addi	a5,s5,4
   11924:	00f12c23          	sw	a5,24(sp)
   11928:	01047793          	andi	a5,s0,16
   1192c:	00078863          	beqz	a5,1193c <_vfprintf_r+0x744>
   11930:	000aad83          	lw	s11,0(s5)
   11934:	41fddc93          	srai	s9,s11,0x1f
   11938:	f9dff06f          	j	118d4 <_vfprintf_r+0x6dc>
   1193c:	04047793          	andi	a5,s0,64
   11940:	000aad83          	lw	s11,0(s5)
   11944:	00078863          	beqz	a5,11954 <_vfprintf_r+0x75c>
   11948:	010d9d93          	slli	s11,s11,0x10
   1194c:	410ddd93          	srai	s11,s11,0x10
   11950:	fe5ff06f          	j	11934 <_vfprintf_r+0x73c>
   11954:	20047793          	andi	a5,s0,512
   11958:	fc078ee3          	beqz	a5,11934 <_vfprintf_r+0x73c>
   1195c:	018d9d93          	slli	s11,s11,0x18
   11960:	418ddd93          	srai	s11,s11,0x18
   11964:	fd1ff06f          	j	11934 <_vfprintf_r+0x73c>
   11968:	00847793          	andi	a5,s0,8
   1196c:	0a078863          	beqz	a5,11a1c <_vfprintf_r+0x824>
   11970:	004a8793          	addi	a5,s5,4
   11974:	00f12c23          	sw	a5,24(sp)
   11978:	000aa783          	lw	a5,0(s5)
   1197c:	0007a603          	lw	a2,0(a5)
   11980:	0047a683          	lw	a3,4(a5)
   11984:	0087a703          	lw	a4,8(a5)
   11988:	00c7a783          	lw	a5,12(a5)
   1198c:	0ec12023          	sw	a2,224(sp)
   11990:	0ed12223          	sw	a3,228(sp)
   11994:	0ee12423          	sw	a4,232(sp)
   11998:	0e010513          	addi	a0,sp,224
   1199c:	0ef12623          	sw	a5,236(sp)
   119a0:	201040ef          	jal	ra,163a0 <_ldcheck>
   119a4:	0aa12e23          	sw	a0,188(sp)
   119a8:	00200793          	li	a5,2
   119ac:	0af51e63          	bne	a0,a5,11a68 <_vfprintf_r+0x870>
   119b0:	0e012783          	lw	a5,224(sp)
   119b4:	09010593          	addi	a1,sp,144
   119b8:	0a010513          	addi	a0,sp,160
   119bc:	0af12023          	sw	a5,160(sp)
   119c0:	0e412783          	lw	a5,228(sp)
   119c4:	08012823          	sw	zero,144(sp)
   119c8:	08012a23          	sw	zero,148(sp)
   119cc:	0af12223          	sw	a5,164(sp)
   119d0:	0e812783          	lw	a5,232(sp)
   119d4:	08012c23          	sw	zero,152(sp)
   119d8:	08012e23          	sw	zero,156(sp)
   119dc:	0af12423          	sw	a5,168(sp)
   119e0:	0ec12783          	lw	a5,236(sp)
   119e4:	0af12623          	sw	a5,172(sp)
   119e8:	6d50b0ef          	jal	ra,1d8bc <__letf2>
   119ec:	00055663          	bgez	a0,119f8 <_vfprintf_r+0x800>
   119f0:	02d00793          	li	a5,45
   119f4:	0af10ba3          	sb	a5,183(sp)
   119f8:	04700793          	li	a5,71
   119fc:	0767d063          	ble	s6,a5,11a5c <_vfprintf_r+0x864>
   11a00:	000214b7          	lui	s1,0x21
   11a04:	71048493          	addi	s1,s1,1808 # 21710 <zeroes.4514+0x14>
   11a08:	f7f47413          	andi	s0,s0,-129
   11a0c:	00012623          	sw	zero,12(sp)
   11a10:	00300d13          	li	s10,3
   11a14:	00000a93          	li	s5,0
   11a18:	3050006f          	j	1251c <_vfprintf_r+0x1324>
   11a1c:	007a8a93          	addi	s5,s5,7
   11a20:	ff8afa93          	andi	s5,s5,-8
   11a24:	000aa583          	lw	a1,0(s5)
   11a28:	004aa603          	lw	a2,4(s5)
   11a2c:	008a8793          	addi	a5,s5,8
   11a30:	0a010513          	addi	a0,sp,160
   11a34:	00f12c23          	sw	a5,24(sp)
   11a38:	7c80e0ef          	jal	ra,20200 <__extenddftf2>
   11a3c:	0a012783          	lw	a5,160(sp)
   11a40:	0ef12023          	sw	a5,224(sp)
   11a44:	0a412783          	lw	a5,164(sp)
   11a48:	0ef12223          	sw	a5,228(sp)
   11a4c:	0a812783          	lw	a5,168(sp)
   11a50:	0ef12423          	sw	a5,232(sp)
   11a54:	0ac12783          	lw	a5,172(sp)
   11a58:	f41ff06f          	j	11998 <_vfprintf_r+0x7a0>
   11a5c:	000214b7          	lui	s1,0x21
   11a60:	70c48493          	addi	s1,s1,1804 # 2170c <zeroes.4514+0x10>
   11a64:	fa5ff06f          	j	11a08 <_vfprintf_r+0x810>
   11a68:	00100793          	li	a5,1
   11a6c:	02f51a63          	bne	a0,a5,11aa0 <_vfprintf_r+0x8a8>
   11a70:	0ec12783          	lw	a5,236(sp)
   11a74:	0007d663          	bgez	a5,11a80 <_vfprintf_r+0x888>
   11a78:	02d00793          	li	a5,45
   11a7c:	0af10ba3          	sb	a5,183(sp)
   11a80:	04700793          	li	a5,71
   11a84:	0167d863          	ble	s6,a5,11a94 <_vfprintf_r+0x89c>
   11a88:	000214b7          	lui	s1,0x21
   11a8c:	71848493          	addi	s1,s1,1816 # 21718 <zeroes.4514+0x1c>
   11a90:	f79ff06f          	j	11a08 <_vfprintf_r+0x810>
   11a94:	000214b7          	lui	s1,0x21
   11a98:	71448493          	addi	s1,s1,1812 # 21714 <zeroes.4514+0x18>
   11a9c:	f6dff06f          	j	11a08 <_vfprintf_r+0x810>
   11aa0:	fdfb7c13          	andi	s8,s6,-33
   11aa4:	04100793          	li	a5,65
   11aa8:	04fc1e63          	bne	s8,a5,11b04 <_vfprintf_r+0x90c>
   11aac:	03000793          	li	a5,48
   11ab0:	0af10c23          	sb	a5,184(sp)
   11ab4:	06100713          	li	a4,97
   11ab8:	07800793          	li	a5,120
   11abc:	00eb0463          	beq	s6,a4,11ac4 <_vfprintf_r+0x8cc>
   11ac0:	05800793          	li	a5,88
   11ac4:	0af10ca3          	sb	a5,185(sp)
   11ac8:	06300793          	li	a5,99
   11acc:	00246413          	ori	s0,s0,2
   11ad0:	49a7de63          	ble	s10,a5,11f6c <_vfprintf_r+0xd74>
   11ad4:	001d0593          	addi	a1,s10,1
   11ad8:	00098513          	mv	a0,s3
   11adc:	bddfe0ef          	jal	ra,106b8 <_malloc_r>
   11ae0:	00050493          	mv	s1,a0
   11ae4:	48051a63          	bnez	a0,11f78 <_vfprintf_r+0xd80>
   11ae8:	00c95783          	lhu	a5,12(s2)
   11aec:	0407e793          	ori	a5,a5,64
   11af0:	00f91623          	sh	a5,12(s2)
   11af4:	00c95783          	lhu	a5,12(s2)
   11af8:	0407f793          	andi	a5,a5,64
   11afc:	800786e3          	beqz	a5,11308 <_vfprintf_r+0x110>
   11b00:	801ff06f          	j	11300 <_vfprintf_r+0x108>
   11b04:	fff00793          	li	a5,-1
   11b08:	46fd0c63          	beq	s10,a5,11f80 <_vfprintf_r+0xd88>
   11b0c:	04700793          	li	a5,71
   11b10:	00012623          	sw	zero,12(sp)
   11b14:	00fc1863          	bne	s8,a5,11b24 <_vfprintf_r+0x92c>
   11b18:	000d1663          	bnez	s10,11b24 <_vfprintf_r+0x92c>
   11b1c:	01a12623          	sw	s10,12(sp)
   11b20:	00100d13          	li	s10,1
   11b24:	0ec12a03          	lw	s4,236(sp)
   11b28:	10046793          	ori	a5,s0,256
   11b2c:	02f12623          	sw	a5,44(sp)
   11b30:	04012223          	sw	zero,68(sp)
   11b34:	0e012e83          	lw	t4,224(sp)
   11b38:	0e412e03          	lw	t3,228(sp)
   11b3c:	0e812d83          	lw	s11,232(sp)
   11b40:	000a5a63          	bgez	s4,11b54 <_vfprintf_r+0x95c>
   11b44:	800007b7          	lui	a5,0x80000
   11b48:	0147ca33          	xor	s4,a5,s4
   11b4c:	02d00793          	li	a5,45
   11b50:	04f12223          	sw	a5,68(sp)
   11b54:	04100793          	li	a5,65
   11b58:	46fc1e63          	bne	s8,a5,11fd4 <_vfprintf_r+0xddc>
   11b5c:	0a010513          	addi	a0,sp,160
   11b60:	0bd12023          	sw	t4,160(sp)
   11b64:	0bc12223          	sw	t3,164(sp)
   11b68:	0bb12423          	sw	s11,168(sp)
   11b6c:	0b412623          	sw	s4,172(sp)
   11b70:	09d0e0ef          	jal	ra,2040c <__trunctfdf2>
   11b74:	0bc10613          	addi	a2,sp,188
   11b78:	208060ef          	jal	ra,17d80 <frexp>
   11b7c:	00058613          	mv	a2,a1
   11b80:	00050593          	mv	a1,a0
   11b84:	0a010513          	addi	a0,sp,160
   11b88:	6780e0ef          	jal	ra,20200 <__extenddftf2>
   11b8c:	0a012783          	lw	a5,160(sp)
   11b90:	07010613          	addi	a2,sp,112
   11b94:	08010593          	addi	a1,sp,128
   11b98:	08f12023          	sw	a5,128(sp)
   11b9c:	0a412783          	lw	a5,164(sp)
   11ba0:	09010513          	addi	a0,sp,144
   11ba4:	06012823          	sw	zero,112(sp)
   11ba8:	08f12223          	sw	a5,132(sp)
   11bac:	0a812783          	lw	a5,168(sp)
   11bb0:	06012a23          	sw	zero,116(sp)
   11bb4:	06012c23          	sw	zero,120(sp)
   11bb8:	08f12423          	sw	a5,136(sp)
   11bbc:	0ac12783          	lw	a5,172(sp)
   11bc0:	08f12623          	sw	a5,140(sp)
   11bc4:	3ffc07b7          	lui	a5,0x3ffc0
   11bc8:	06f12e23          	sw	a5,124(sp)
   11bcc:	6390b0ef          	jal	ra,1da04 <__multf3>
   11bd0:	09012803          	lw	a6,144(sp)
   11bd4:	09412603          	lw	a2,148(sp)
   11bd8:	09812683          	lw	a3,152(sp)
   11bdc:	09c12d83          	lw	s11,156(sp)
   11be0:	09010593          	addi	a1,sp,144
   11be4:	0a010513          	addi	a0,sp,160
   11be8:	0b012023          	sw	a6,160(sp)
   11bec:	05012a23          	sw	a6,84(sp)
   11bf0:	0ac12223          	sw	a2,164(sp)
   11bf4:	04c12823          	sw	a2,80(sp)
   11bf8:	0ad12423          	sw	a3,168(sp)
   11bfc:	04d12423          	sw	a3,72(sp)
   11c00:	0bb12623          	sw	s11,172(sp)
   11c04:	08012823          	sw	zero,144(sp)
   11c08:	08012a23          	sw	zero,148(sp)
   11c0c:	08012c23          	sw	zero,152(sp)
   11c10:	08012e23          	sw	zero,156(sp)
   11c14:	2950b0ef          	jal	ra,1d6a8 <__eqtf2>
   11c18:	04812683          	lw	a3,72(sp)
   11c1c:	05012603          	lw	a2,80(sp)
   11c20:	05412803          	lw	a6,84(sp)
   11c24:	00051663          	bnez	a0,11c30 <_vfprintf_r+0xa38>
   11c28:	00100713          	li	a4,1
   11c2c:	0ae12e23          	sw	a4,188(sp)
   11c30:	06100713          	li	a4,97
   11c34:	34eb0c63          	beq	s6,a4,11f8c <_vfprintf_r+0xd94>
   11c38:	00021a37          	lui	s4,0x21
   11c3c:	730a0a13          	addi	s4,s4,1840 # 21730 <zeroes.4514+0x34>
   11c40:	fffd0e13          	addi	t3,s10,-1
   11c44:	00048c93          	mv	s9,s1
   11c48:	400307b7          	lui	a5,0x40030
   11c4c:	09010593          	addi	a1,sp,144
   11c50:	08c12a23          	sw	a2,148(sp)
   11c54:	0a010513          	addi	a0,sp,160
   11c58:	08010613          	addi	a2,sp,128
   11c5c:	05c12c23          	sw	t3,88(sp)
   11c60:	09012823          	sw	a6,144(sp)
   11c64:	08d12c23          	sw	a3,152(sp)
   11c68:	09b12e23          	sw	s11,156(sp)
   11c6c:	08f12623          	sw	a5,140(sp)
   11c70:	08012023          	sw	zero,128(sp)
   11c74:	08012223          	sw	zero,132(sp)
   11c78:	08012423          	sw	zero,136(sp)
   11c7c:	5890b0ef          	jal	ra,1da04 <__multf3>
   11c80:	0a012603          	lw	a2,160(sp)
   11c84:	0a412683          	lw	a3,164(sp)
   11c88:	0a812783          	lw	a5,168(sp)
   11c8c:	0a010513          	addi	a0,sp,160
   11c90:	04c12a23          	sw	a2,84(sp)
   11c94:	04d12823          	sw	a3,80(sp)
   11c98:	04f12423          	sw	a5,72(sp)
   11c9c:	2880e0ef          	jal	ra,1ff24 <__fixtfsi>
   11ca0:	00050593          	mv	a1,a0
   11ca4:	00050a93          	mv	s5,a0
   11ca8:	0a010513          	addi	a0,sp,160
   11cac:	0ac12d83          	lw	s11,172(sp)
   11cb0:	3c40e0ef          	jal	ra,20074 <__floatsitf>
   11cb4:	04812783          	lw	a5,72(sp)
   11cb8:	05412603          	lw	a2,84(sp)
   11cbc:	05012683          	lw	a3,80(sp)
   11cc0:	08f12423          	sw	a5,136(sp)
   11cc4:	0a012783          	lw	a5,160(sp)
   11cc8:	08c12023          	sw	a2,128(sp)
   11ccc:	08010593          	addi	a1,sp,128
   11cd0:	06f12823          	sw	a5,112(sp)
   11cd4:	0a412783          	lw	a5,164(sp)
   11cd8:	07010613          	addi	a2,sp,112
   11cdc:	09010513          	addi	a0,sp,144
   11ce0:	06f12a23          	sw	a5,116(sp)
   11ce4:	0a812783          	lw	a5,168(sp)
   11ce8:	09b12623          	sw	s11,140(sp)
   11cec:	08d12223          	sw	a3,132(sp)
   11cf0:	06f12c23          	sw	a5,120(sp)
   11cf4:	0ac12783          	lw	a5,172(sp)
   11cf8:	001c8c93          	addi	s9,s9,1
   11cfc:	06f12e23          	sw	a5,124(sp)
   11d00:	50d0c0ef          	jal	ra,1ea0c <__subtf3>
   11d04:	015a05b3          	add	a1,s4,s5
   11d08:	0005c583          	lbu	a1,0(a1)
   11d0c:	05812e03          	lw	t3,88(sp)
   11d10:	09c12e83          	lw	t4,156(sp)
   11d14:	09012283          	lw	t0,144(sp)
   11d18:	09412f83          	lw	t6,148(sp)
   11d1c:	09812f03          	lw	t5,152(sp)
   11d20:	05c12423          	sw	t3,72(sp)
   11d24:	febc8fa3          	sb	a1,-1(s9)
   11d28:	fff00793          	li	a5,-1
   11d2c:	000e8d93          	mv	s11,t4
   11d30:	06fe0c63          	beq	t3,a5,11da8 <_vfprintf_r+0xbb0>
   11d34:	fffe0e13          	addi	t3,t3,-1
   11d38:	09010593          	addi	a1,sp,144
   11d3c:	0a010513          	addi	a0,sp,160
   11d40:	07d12623          	sw	t4,108(sp)
   11d44:	07e12423          	sw	t5,104(sp)
   11d48:	07f12223          	sw	t6,100(sp)
   11d4c:	06512023          	sw	t0,96(sp)
   11d50:	05c12e23          	sw	t3,92(sp)
   11d54:	0a512023          	sw	t0,160(sp)
   11d58:	04512c23          	sw	t0,88(sp)
   11d5c:	0bf12223          	sw	t6,164(sp)
   11d60:	05f12a23          	sw	t6,84(sp)
   11d64:	0be12423          	sw	t5,168(sp)
   11d68:	05e12823          	sw	t5,80(sp)
   11d6c:	0bd12623          	sw	t4,172(sp)
   11d70:	08012823          	sw	zero,144(sp)
   11d74:	08012a23          	sw	zero,148(sp)
   11d78:	08012c23          	sw	zero,152(sp)
   11d7c:	08012e23          	sw	zero,156(sp)
   11d80:	1290b0ef          	jal	ra,1d6a8 <__eqtf2>
   11d84:	05012683          	lw	a3,80(sp)
   11d88:	05412603          	lw	a2,84(sp)
   11d8c:	05812803          	lw	a6,88(sp)
   11d90:	05c12e03          	lw	t3,92(sp)
   11d94:	06012283          	lw	t0,96(sp)
   11d98:	06412f83          	lw	t6,100(sp)
   11d9c:	06812f03          	lw	t5,104(sp)
   11da0:	06c12e83          	lw	t4,108(sp)
   11da4:	ea0512e3          	bnez	a0,11c48 <_vfprintf_r+0xa50>
   11da8:	3ffe0db7          	lui	s11,0x3ffe0
   11dac:	09010593          	addi	a1,sp,144
   11db0:	0a010513          	addi	a0,sp,160
   11db4:	0a512023          	sw	t0,160(sp)
   11db8:	04512e23          	sw	t0,92(sp)
   11dbc:	0bf12223          	sw	t6,164(sp)
   11dc0:	05f12c23          	sw	t6,88(sp)
   11dc4:	0be12423          	sw	t5,168(sp)
   11dc8:	05e12a23          	sw	t5,84(sp)
   11dcc:	0bd12623          	sw	t4,172(sp)
   11dd0:	05d12823          	sw	t4,80(sp)
   11dd4:	08012823          	sw	zero,144(sp)
   11dd8:	08012a23          	sw	zero,148(sp)
   11ddc:	08012c23          	sw	zero,152(sp)
   11de0:	09b12e23          	sw	s11,156(sp)
   11de4:	1910b0ef          	jal	ra,1d774 <__getf2>
   11de8:	04a04663          	bgtz	a0,11e34 <_vfprintf_r+0xc3c>
   11dec:	05c12283          	lw	t0,92(sp)
   11df0:	05812f83          	lw	t6,88(sp)
   11df4:	05412f03          	lw	t5,84(sp)
   11df8:	05012e83          	lw	t4,80(sp)
   11dfc:	09010593          	addi	a1,sp,144
   11e00:	0a010513          	addi	a0,sp,160
   11e04:	0a512023          	sw	t0,160(sp)
   11e08:	0bf12223          	sw	t6,164(sp)
   11e0c:	0be12423          	sw	t5,168(sp)
   11e10:	0bd12623          	sw	t4,172(sp)
   11e14:	08012823          	sw	zero,144(sp)
   11e18:	08012a23          	sw	zero,148(sp)
   11e1c:	08012c23          	sw	zero,152(sp)
   11e20:	09b12e23          	sw	s11,156(sp)
   11e24:	0850b0ef          	jal	ra,1d6a8 <__eqtf2>
   11e28:	18051c63          	bnez	a0,11fc0 <_vfprintf_r+0xdc8>
   11e2c:	001afa93          	andi	s5,s5,1
   11e30:	180a8863          	beqz	s5,11fc0 <_vfprintf_r+0xdc8>
   11e34:	00fa4603          	lbu	a2,15(s4)
   11e38:	0d912623          	sw	s9,204(sp)
   11e3c:	03000593          	li	a1,48
   11e40:	0cc12683          	lw	a3,204(sp)
   11e44:	fff68793          	addi	a5,a3,-1
   11e48:	0cf12623          	sw	a5,204(sp)
   11e4c:	fff6c783          	lbu	a5,-1(a3)
   11e50:	14c78463          	beq	a5,a2,11f98 <_vfprintf_r+0xda0>
   11e54:	03900613          	li	a2,57
   11e58:	14c79463          	bne	a5,a2,11fa0 <_vfprintf_r+0xda8>
   11e5c:	00aa4783          	lbu	a5,10(s4)
   11e60:	fef68fa3          	sb	a5,-1(a3)
   11e64:	000c8a13          	mv	s4,s9
   11e68:	04700713          	li	a4,71
   11e6c:	409a0a33          	sub	s4,s4,s1
   11e70:	0bc12d83          	lw	s11,188(sp)
   11e74:	2aec1063          	bne	s8,a4,12114 <_vfprintf_r+0xf1c>
   11e78:	ffd00713          	li	a4,-3
   11e7c:	00edc463          	blt	s11,a4,11e84 <_vfprintf_r+0xc8c>
   11e80:	31bd5a63          	ble	s11,s10,12194 <_vfprintf_r+0xf9c>
   11e84:	ffeb0b13          	addi	s6,s6,-2
   11e88:	fffd8693          	addi	a3,s11,-1 # 3ffdffff <_end+0x3ffb9b1f>
   11e8c:	0ad12e23          	sw	a3,188(sp)
   11e90:	fdfb7613          	andi	a2,s6,-33
   11e94:	04100513          	li	a0,65
   11e98:	0ffb7713          	andi	a4,s6,255
   11e9c:	00000593          	li	a1,0
   11ea0:	00a61863          	bne	a2,a0,11eb0 <_vfprintf_r+0xcb8>
   11ea4:	00f70713          	addi	a4,a4,15
   11ea8:	0ff77713          	andi	a4,a4,255
   11eac:	00100593          	li	a1,1
   11eb0:	0ce10223          	sb	a4,196(sp)
   11eb4:	02b00793          	li	a5,43
   11eb8:	0006d863          	bgez	a3,11ec8 <_vfprintf_r+0xcd0>
   11ebc:	00100693          	li	a3,1
   11ec0:	41b686b3          	sub	a3,a3,s11
   11ec4:	02d00793          	li	a5,45
   11ec8:	0cf102a3          	sb	a5,197(sp)
   11ecc:	00900793          	li	a5,9
   11ed0:	28d7d863          	ble	a3,a5,12160 <_vfprintf_r+0xf68>
   11ed4:	0d310713          	addi	a4,sp,211
   11ed8:	00070513          	mv	a0,a4
   11edc:	00a00593          	li	a1,10
   11ee0:	06300813          	li	a6,99
   11ee4:	02b6e7b3          	rem	a5,a3,a1
   11ee8:	fff70613          	addi	a2,a4,-1
   11eec:	03078793          	addi	a5,a5,48 # 40030030 <_end+0x40009b50>
   11ef0:	fef70fa3          	sb	a5,-1(a4)
   11ef4:	02b6c7b3          	div	a5,a3,a1
   11ef8:	24d84463          	blt	a6,a3,12140 <_vfprintf_r+0xf48>
   11efc:	03078793          	addi	a5,a5,48
   11f00:	fef60fa3          	sb	a5,-1(a2)
   11f04:	ffe70713          	addi	a4,a4,-2
   11f08:	0c610613          	addi	a2,sp,198
   11f0c:	24a76063          	bltu	a4,a0,1214c <_vfprintf_r+0xf54>
   11f10:	0c410793          	addi	a5,sp,196
   11f14:	40f607b3          	sub	a5,a2,a5
   11f18:	02f12e23          	sw	a5,60(sp)
   11f1c:	01478d33          	add	s10,a5,s4
   11f20:	00100793          	li	a5,1
   11f24:	0147c663          	blt	a5,s4,11f30 <_vfprintf_r+0xd38>
   11f28:	00147793          	andi	a5,s0,1
   11f2c:	00078663          	beqz	a5,11f38 <_vfprintf_r+0xd40>
   11f30:	02012783          	lw	a5,32(sp)
   11f34:	00fd0d33          	add	s10,s10,a5
   11f38:	bff47413          	andi	s0,s0,-1025
   11f3c:	10046793          	ori	a5,s0,256
   11f40:	02f12623          	sw	a5,44(sp)
   11f44:	00000c93          	li	s9,0
   11f48:	00000c13          	li	s8,0
   11f4c:	00000d93          	li	s11,0
   11f50:	04412783          	lw	a5,68(sp)
   11f54:	00078663          	beqz	a5,11f60 <_vfprintf_r+0xd68>
   11f58:	02d00713          	li	a4,45
   11f5c:	0ae10ba3          	sb	a4,183(sp)
   11f60:	02c12403          	lw	s0,44(sp)
   11f64:	00000a93          	li	s5,0
   11f68:	eacff06f          	j	11614 <_vfprintf_r+0x41c>
   11f6c:	00012623          	sw	zero,12(sp)
   11f70:	13c10493          	addi	s1,sp,316
   11f74:	bb1ff06f          	j	11b24 <_vfprintf_r+0x92c>
   11f78:	00a12623          	sw	a0,12(sp)
   11f7c:	ba9ff06f          	j	11b24 <_vfprintf_r+0x92c>
   11f80:	00012623          	sw	zero,12(sp)
   11f84:	00600d13          	li	s10,6
   11f88:	b9dff06f          	j	11b24 <_vfprintf_r+0x92c>
   11f8c:	00021a37          	lui	s4,0x21
   11f90:	71ca0a13          	addi	s4,s4,1820 # 2171c <zeroes.4514+0x20>
   11f94:	cadff06f          	j	11c40 <_vfprintf_r+0xa48>
   11f98:	feb68fa3          	sb	a1,-1(a3)
   11f9c:	ea5ff06f          	j	11e40 <_vfprintf_r+0xc48>
   11fa0:	00178793          	addi	a5,a5,1
   11fa4:	0ff7f793          	andi	a5,a5,255
   11fa8:	eb9ff06f          	j	11e60 <_vfprintf_r+0xc68>
   11fac:	001a0a13          	addi	s4,s4,1
   11fb0:	feea0fa3          	sb	a4,-1(s4)
   11fb4:	414c87b3          	sub	a5,s9,s4
   11fb8:	fe07dae3          	bgez	a5,11fac <_vfprintf_r+0xdb4>
   11fbc:	eadff06f          	j	11e68 <_vfprintf_r+0xc70>
   11fc0:	04812783          	lw	a5,72(sp)
   11fc4:	000c8a13          	mv	s4,s9
   11fc8:	03000713          	li	a4,48
   11fcc:	00fc8cb3          	add	s9,s9,a5
   11fd0:	fe5ff06f          	j	11fb4 <_vfprintf_r+0xdbc>
   11fd4:	04600793          	li	a5,70
   11fd8:	00fc0e63          	beq	s8,a5,11ff4 <_vfprintf_r+0xdfc>
   11fdc:	04500793          	li	a5,69
   11fe0:	001d0a93          	addi	s5,s10,1
   11fe4:	00fc0463          	beq	s8,a5,11fec <_vfprintf_r+0xdf4>
   11fe8:	000d0a93          	mv	s5,s10
   11fec:	00200613          	li	a2,2
   11ff0:	00c0006f          	j	11ffc <_vfprintf_r+0xe04>
   11ff4:	000d0a93          	mv	s5,s10
   11ff8:	00300613          	li	a2,3
   11ffc:	0c010793          	addi	a5,sp,192
   12000:	0cc10813          	addi	a6,sp,204
   12004:	0bc10713          	addi	a4,sp,188
   12008:	000a8693          	mv	a3,s5
   1200c:	0a010593          	addi	a1,sp,160
   12010:	00098513          	mv	a0,s3
   12014:	0bd12023          	sw	t4,160(sp)
   12018:	05d12823          	sw	t4,80(sp)
   1201c:	0bc12223          	sw	t3,164(sp)
   12020:	05c12423          	sw	t3,72(sp)
   12024:	0bb12423          	sw	s11,168(sp)
   12028:	0b412623          	sw	s4,172(sp)
   1202c:	780030ef          	jal	ra,157ac <_ldtoa_r>
   12030:	04700793          	li	a5,71
   12034:	00050493          	mv	s1,a0
   12038:	04812e03          	lw	t3,72(sp)
   1203c:	05012e83          	lw	t4,80(sp)
   12040:	00fc1a63          	bne	s8,a5,12054 <_vfprintf_r+0xe5c>
   12044:	00147793          	andi	a5,s0,1
   12048:	00079663          	bnez	a5,12054 <_vfprintf_r+0xe5c>
   1204c:	0cc12a03          	lw	s4,204(sp)
   12050:	e19ff06f          	j	11e68 <_vfprintf_r+0xc70>
   12054:	04600793          	li	a5,70
   12058:	01548cb3          	add	s9,s1,s5
   1205c:	06fc1263          	bne	s8,a5,120c0 <_vfprintf_r+0xec8>
   12060:	0004c703          	lbu	a4,0(s1)
   12064:	03000793          	li	a5,48
   12068:	04f71863          	bne	a4,a5,120b8 <_vfprintf_r+0xec0>
   1206c:	09010593          	addi	a1,sp,144
   12070:	0a010513          	addi	a0,sp,160
   12074:	0bd12023          	sw	t4,160(sp)
   12078:	05d12823          	sw	t4,80(sp)
   1207c:	0bc12223          	sw	t3,164(sp)
   12080:	05c12423          	sw	t3,72(sp)
   12084:	0bb12423          	sw	s11,168(sp)
   12088:	0b412623          	sw	s4,172(sp)
   1208c:	08012823          	sw	zero,144(sp)
   12090:	08012a23          	sw	zero,148(sp)
   12094:	08012c23          	sw	zero,152(sp)
   12098:	08012e23          	sw	zero,156(sp)
   1209c:	60c0b0ef          	jal	ra,1d6a8 <__eqtf2>
   120a0:	04812e03          	lw	t3,72(sp)
   120a4:	05012e83          	lw	t4,80(sp)
   120a8:	00050863          	beqz	a0,120b8 <_vfprintf_r+0xec0>
   120ac:	00100793          	li	a5,1
   120b0:	41578ab3          	sub	s5,a5,s5
   120b4:	0b512e23          	sw	s5,188(sp)
   120b8:	0bc12783          	lw	a5,188(sp)
   120bc:	00fc8cb3          	add	s9,s9,a5
   120c0:	09010593          	addi	a1,sp,144
   120c4:	0a010513          	addi	a0,sp,160
   120c8:	0bd12023          	sw	t4,160(sp)
   120cc:	0bc12223          	sw	t3,164(sp)
   120d0:	0bb12423          	sw	s11,168(sp)
   120d4:	0b412623          	sw	s4,172(sp)
   120d8:	08012823          	sw	zero,144(sp)
   120dc:	08012a23          	sw	zero,148(sp)
   120e0:	08012c23          	sw	zero,152(sp)
   120e4:	08012e23          	sw	zero,156(sp)
   120e8:	5c00b0ef          	jal	ra,1d6a8 <__eqtf2>
   120ec:	00051463          	bnez	a0,120f4 <_vfprintf_r+0xefc>
   120f0:	0d912623          	sw	s9,204(sp)
   120f4:	03000713          	li	a4,48
   120f8:	0100006f          	j	12108 <_vfprintf_r+0xf10>
   120fc:	00178693          	addi	a3,a5,1
   12100:	0cd12623          	sw	a3,204(sp)
   12104:	00e78023          	sb	a4,0(a5)
   12108:	0cc12783          	lw	a5,204(sp)
   1210c:	ff97e8e3          	bltu	a5,s9,120fc <_vfprintf_r+0xf04>
   12110:	f3dff06f          	j	1204c <_vfprintf_r+0xe54>
   12114:	04600713          	li	a4,70
   12118:	d6ec18e3          	bne	s8,a4,11e88 <_vfprintf_r+0xc90>
   1211c:	00147713          	andi	a4,s0,1
   12120:	01a76733          	or	a4,a4,s10
   12124:	07b05063          	blez	s11,12184 <_vfprintf_r+0xf8c>
   12128:	0c070063          	beqz	a4,121e8 <_vfprintf_r+0xff0>
   1212c:	02012783          	lw	a5,32(sp)
   12130:	00fd8733          	add	a4,s11,a5
   12134:	00ed0d33          	add	s10,s10,a4
   12138:	06600b13          	li	s6,102
   1213c:	0900006f          	j	121cc <_vfprintf_r+0xfd4>
   12140:	00060713          	mv	a4,a2
   12144:	00078693          	mv	a3,a5
   12148:	d9dff06f          	j	11ee4 <_vfprintf_r+0xcec>
   1214c:	00170713          	addi	a4,a4,1
   12150:	fff74783          	lbu	a5,-1(a4)
   12154:	00160613          	addi	a2,a2,1
   12158:	fef60fa3          	sb	a5,-1(a2)
   1215c:	db1ff06f          	j	11f0c <_vfprintf_r+0xd14>
   12160:	0c610713          	addi	a4,sp,198
   12164:	00059863          	bnez	a1,12174 <_vfprintf_r+0xf7c>
   12168:	03000793          	li	a5,48
   1216c:	0cf10323          	sb	a5,198(sp)
   12170:	0c710713          	addi	a4,sp,199
   12174:	03068793          	addi	a5,a3,48
   12178:	00170613          	addi	a2,a4,1
   1217c:	00f70023          	sb	a5,0(a4)
   12180:	d91ff06f          	j	11f10 <_vfprintf_r+0xd18>
   12184:	06070663          	beqz	a4,121f0 <_vfprintf_r+0xff8>
   12188:	02012783          	lw	a5,32(sp)
   1218c:	00178713          	addi	a4,a5,1
   12190:	fa5ff06f          	j	12134 <_vfprintf_r+0xf3c>
   12194:	034dc063          	blt	s11,s4,121b4 <_vfprintf_r+0xfbc>
   12198:	00147713          	andi	a4,s0,1
   1219c:	000d8d13          	mv	s10,s11
   121a0:	00070663          	beqz	a4,121ac <_vfprintf_r+0xfb4>
   121a4:	02012783          	lw	a5,32(sp)
   121a8:	00fd8d33          	add	s10,s11,a5
   121ac:	06700b13          	li	s6,103
   121b0:	01c0006f          	j	121cc <_vfprintf_r+0xfd4>
   121b4:	02012783          	lw	a5,32(sp)
   121b8:	06700b13          	li	s6,103
   121bc:	00fa0d33          	add	s10,s4,a5
   121c0:	01b04663          	bgtz	s11,121cc <_vfprintf_r+0xfd4>
   121c4:	41bd0333          	sub	t1,s10,s11
   121c8:	00130d13          	addi	s10,t1,1
   121cc:	40047c13          	andi	s8,s0,1024
   121d0:	00000c93          	li	s9,0
   121d4:	d60c0ee3          	beqz	s8,11f50 <_vfprintf_r+0xd58>
   121d8:	00000c13          	li	s8,0
   121dc:	d7b05ae3          	blez	s11,11f50 <_vfprintf_r+0xd58>
   121e0:	0ff00693          	li	a3,255
   121e4:	0380006f          	j	1221c <_vfprintf_r+0x1024>
   121e8:	000d8d13          	mv	s10,s11
   121ec:	f4dff06f          	j	12138 <_vfprintf_r+0xf40>
   121f0:	06600b13          	li	s6,102
   121f4:	00100d13          	li	s10,1
   121f8:	fd5ff06f          	j	121cc <_vfprintf_r+0xfd4>
   121fc:	03b75663          	ble	s11,a4,12228 <_vfprintf_r+0x1030>
   12200:	01012783          	lw	a5,16(sp)
   12204:	40ed8db3          	sub	s11,s11,a4
   12208:	0017c703          	lbu	a4,1(a5)
   1220c:	02070863          	beqz	a4,1223c <_vfprintf_r+0x1044>
   12210:	00178793          	addi	a5,a5,1
   12214:	001c0c13          	addi	s8,s8,1
   12218:	00f12823          	sw	a5,16(sp)
   1221c:	01012783          	lw	a5,16(sp)
   12220:	0007c703          	lbu	a4,0(a5)
   12224:	fcd71ce3          	bne	a4,a3,121fc <_vfprintf_r+0x1004>
   12228:	03012783          	lw	a5,48(sp)
   1222c:	019c0733          	add	a4,s8,s9
   12230:	02f70733          	mul	a4,a4,a5
   12234:	01a70d33          	add	s10,a4,s10
   12238:	d19ff06f          	j	11f50 <_vfprintf_r+0xd58>
   1223c:	001c8c93          	addi	s9,s9,1
   12240:	fddff06f          	j	1221c <_vfprintf_r+0x1024>
   12244:	004a8713          	addi	a4,s5,4
   12248:	00e12c23          	sw	a4,24(sp)
   1224c:	02047713          	andi	a4,s0,32
   12250:	000aa783          	lw	a5,0(s5)
   12254:	02070063          	beqz	a4,12274 <_vfprintf_r+0x107c>
   12258:	02412703          	lw	a4,36(sp)
   1225c:	00e7a023          	sw	a4,0(a5)
   12260:	41f75713          	srai	a4,a4,0x1f
   12264:	00e7a223          	sw	a4,4(a5)
   12268:	01812a83          	lw	s5,24(sp)
   1226c:	01c12483          	lw	s1,28(sp)
   12270:	920ff06f          	j	11390 <_vfprintf_r+0x198>
   12274:	01047713          	andi	a4,s0,16
   12278:	00070863          	beqz	a4,12288 <_vfprintf_r+0x1090>
   1227c:	02412703          	lw	a4,36(sp)
   12280:	00e7a023          	sw	a4,0(a5)
   12284:	fe5ff06f          	j	12268 <_vfprintf_r+0x1070>
   12288:	04047713          	andi	a4,s0,64
   1228c:	00070863          	beqz	a4,1229c <_vfprintf_r+0x10a4>
   12290:	02412703          	lw	a4,36(sp)
   12294:	00e79023          	sh	a4,0(a5)
   12298:	fd1ff06f          	j	12268 <_vfprintf_r+0x1070>
   1229c:	20047413          	andi	s0,s0,512
   122a0:	fc040ee3          	beqz	s0,1227c <_vfprintf_r+0x1084>
   122a4:	02412703          	lw	a4,36(sp)
   122a8:	00e78023          	sb	a4,0(a5)
   122ac:	fbdff06f          	j	12268 <_vfprintf_r+0x1070>
   122b0:	01046413          	ori	s0,s0,16
   122b4:	02047793          	andi	a5,s0,32
   122b8:	02078663          	beqz	a5,122e4 <_vfprintf_r+0x10ec>
   122bc:	007a8a93          	addi	s5,s5,7
   122c0:	ff8afa93          	andi	s5,s5,-8
   122c4:	000aad83          	lw	s11,0(s5)
   122c8:	004aac83          	lw	s9,4(s5)
   122cc:	008a8793          	addi	a5,s5,8
   122d0:	00f12c23          	sw	a5,24(sp)
   122d4:	bff47413          	andi	s0,s0,-1025
   122d8:	00000793          	li	a5,0
   122dc:	0a010ba3          	sb	zero,183(sp)
   122e0:	e18ff06f          	j	118f8 <_vfprintf_r+0x700>
   122e4:	004a8793          	addi	a5,s5,4
   122e8:	00f12c23          	sw	a5,24(sp)
   122ec:	01047793          	andi	a5,s0,16
   122f0:	00078663          	beqz	a5,122fc <_vfprintf_r+0x1104>
   122f4:	000aad83          	lw	s11,0(s5)
   122f8:	0100006f          	j	12308 <_vfprintf_r+0x1110>
   122fc:	04047793          	andi	a5,s0,64
   12300:	00078863          	beqz	a5,12310 <_vfprintf_r+0x1118>
   12304:	000add83          	lhu	s11,0(s5)
   12308:	00000c93          	li	s9,0
   1230c:	fc9ff06f          	j	122d4 <_vfprintf_r+0x10dc>
   12310:	20047793          	andi	a5,s0,512
   12314:	fe0780e3          	beqz	a5,122f4 <_vfprintf_r+0x10fc>
   12318:	000acd83          	lbu	s11,0(s5)
   1231c:	fedff06f          	j	12308 <_vfprintf_r+0x1110>
   12320:	004a8793          	addi	a5,s5,4
   12324:	00f12c23          	sw	a5,24(sp)
   12328:	ffff87b7          	lui	a5,0xffff8
   1232c:	8307c793          	xori	a5,a5,-2000
   12330:	0af11c23          	sh	a5,184(sp)
   12334:	000217b7          	lui	a5,0x21
   12338:	71c78793          	addi	a5,a5,1820 # 2171c <zeroes.4514+0x20>
   1233c:	04f12023          	sw	a5,64(sp)
   12340:	000aad83          	lw	s11,0(s5)
   12344:	00000c93          	li	s9,0
   12348:	00246413          	ori	s0,s0,2
   1234c:	00200793          	li	a5,2
   12350:	07800b13          	li	s6,120
   12354:	f89ff06f          	j	122dc <_vfprintf_r+0x10e4>
   12358:	004a8793          	addi	a5,s5,4
   1235c:	00f12c23          	sw	a5,24(sp)
   12360:	0a010ba3          	sb	zero,183(sp)
   12364:	fff00793          	li	a5,-1
   12368:	000aa483          	lw	s1,0(s5)
   1236c:	02fd0463          	beq	s10,a5,12394 <_vfprintf_r+0x119c>
   12370:	000d0613          	mv	a2,s10
   12374:	00000593          	li	a1,0
   12378:	00048513          	mv	a0,s1
   1237c:	390040ef          	jal	ra,1670c <memchr>
   12380:	00a12623          	sw	a0,12(sp)
   12384:	e8050863          	beqz	a0,11a14 <_vfprintf_r+0x81c>
   12388:	40950d33          	sub	s10,a0,s1
   1238c:	00012623          	sw	zero,12(sp)
   12390:	e84ff06f          	j	11a14 <_vfprintf_r+0x81c>
   12394:	00048513          	mv	a0,s1
   12398:	e45fe0ef          	jal	ra,111dc <strlen>
   1239c:	00050d13          	mv	s10,a0
   123a0:	fedff06f          	j	1238c <_vfprintf_r+0x1194>
   123a4:	01046413          	ori	s0,s0,16
   123a8:	02047793          	andi	a5,s0,32
   123ac:	02078263          	beqz	a5,123d0 <_vfprintf_r+0x11d8>
   123b0:	007a8a93          	addi	s5,s5,7
   123b4:	ff8afa93          	andi	s5,s5,-8
   123b8:	000aad83          	lw	s11,0(s5)
   123bc:	004aac83          	lw	s9,4(s5)
   123c0:	008a8793          	addi	a5,s5,8
   123c4:	00f12c23          	sw	a5,24(sp)
   123c8:	00100793          	li	a5,1
   123cc:	f11ff06f          	j	122dc <_vfprintf_r+0x10e4>
   123d0:	004a8793          	addi	a5,s5,4
   123d4:	00f12c23          	sw	a5,24(sp)
   123d8:	01047793          	andi	a5,s0,16
   123dc:	00078663          	beqz	a5,123e8 <_vfprintf_r+0x11f0>
   123e0:	000aad83          	lw	s11,0(s5)
   123e4:	0100006f          	j	123f4 <_vfprintf_r+0x11fc>
   123e8:	04047793          	andi	a5,s0,64
   123ec:	00078863          	beqz	a5,123fc <_vfprintf_r+0x1204>
   123f0:	000add83          	lhu	s11,0(s5)
   123f4:	00000c93          	li	s9,0
   123f8:	fd1ff06f          	j	123c8 <_vfprintf_r+0x11d0>
   123fc:	20047793          	andi	a5,s0,512
   12400:	fe0780e3          	beqz	a5,123e0 <_vfprintf_r+0x11e8>
   12404:	000acd83          	lbu	s11,0(s5)
   12408:	fedff06f          	j	123f4 <_vfprintf_r+0x11fc>
   1240c:	000217b7          	lui	a5,0x21
   12410:	73078793          	addi	a5,a5,1840 # 21730 <zeroes.4514+0x34>
   12414:	04f12023          	sw	a5,64(sp)
   12418:	02047793          	andi	a5,s0,32
   1241c:	04078a63          	beqz	a5,12470 <_vfprintf_r+0x1278>
   12420:	007a8a93          	addi	s5,s5,7
   12424:	ff8afa93          	andi	s5,s5,-8
   12428:	000aad83          	lw	s11,0(s5)
   1242c:	004aac83          	lw	s9,4(s5)
   12430:	008a8793          	addi	a5,s5,8
   12434:	00f12c23          	sw	a5,24(sp)
   12438:	00147793          	andi	a5,s0,1
   1243c:	00078e63          	beqz	a5,12458 <_vfprintf_r+0x1260>
   12440:	019de7b3          	or	a5,s11,s9
   12444:	00078a63          	beqz	a5,12458 <_vfprintf_r+0x1260>
   12448:	03000793          	li	a5,48
   1244c:	0af10c23          	sb	a5,184(sp)
   12450:	0b610ca3          	sb	s6,185(sp)
   12454:	00246413          	ori	s0,s0,2
   12458:	bff47413          	andi	s0,s0,-1025
   1245c:	00200793          	li	a5,2
   12460:	e7dff06f          	j	122dc <_vfprintf_r+0x10e4>
   12464:	000217b7          	lui	a5,0x21
   12468:	71c78793          	addi	a5,a5,1820 # 2171c <zeroes.4514+0x20>
   1246c:	fa9ff06f          	j	12414 <_vfprintf_r+0x121c>
   12470:	004a8793          	addi	a5,s5,4
   12474:	00f12c23          	sw	a5,24(sp)
   12478:	01047793          	andi	a5,s0,16
   1247c:	00078663          	beqz	a5,12488 <_vfprintf_r+0x1290>
   12480:	000aad83          	lw	s11,0(s5)
   12484:	0100006f          	j	12494 <_vfprintf_r+0x129c>
   12488:	04047793          	andi	a5,s0,64
   1248c:	00078863          	beqz	a5,1249c <_vfprintf_r+0x12a4>
   12490:	000add83          	lhu	s11,0(s5)
   12494:	00000c93          	li	s9,0
   12498:	fa1ff06f          	j	12438 <_vfprintf_r+0x1240>
   1249c:	20047793          	andi	a5,s0,512
   124a0:	fe0780e3          	beqz	a5,12480 <_vfprintf_r+0x1288>
   124a4:	000acd83          	lbu	s11,0(s5)
   124a8:	fedff06f          	j	12494 <_vfprintf_r+0x129c>
   124ac:	00040713          	mv	a4,s0
   124b0:	00100793          	li	a5,1
   124b4:	c50ff06f          	j	11904 <_vfprintf_r+0x70c>
   124b8:	00100713          	li	a4,1
   124bc:	48e78ce3          	beq	a5,a4,13154 <_vfprintf_r+0x1f5c>
   124c0:	00200713          	li	a4,2
   124c4:	12e78a63          	beq	a5,a4,125f8 <_vfprintf_r+0x1400>
   124c8:	1a010793          	addi	a5,sp,416
   124cc:	01dc9693          	slli	a3,s9,0x1d
   124d0:	007df713          	andi	a4,s11,7
   124d4:	003ddd93          	srli	s11,s11,0x3
   124d8:	03070713          	addi	a4,a4,48
   124dc:	01b6edb3          	or	s11,a3,s11
   124e0:	003cdc93          	srli	s9,s9,0x3
   124e4:	fee78fa3          	sb	a4,-1(a5)
   124e8:	019de6b3          	or	a3,s11,s9
   124ec:	fff78493          	addi	s1,a5,-1
   124f0:	02069e63          	bnez	a3,1252c <_vfprintf_r+0x1334>
   124f4:	00147693          	andi	a3,s0,1
   124f8:	00068a63          	beqz	a3,1250c <_vfprintf_r+0x1314>
   124fc:	03000693          	li	a3,48
   12500:	00d70663          	beq	a4,a3,1250c <_vfprintf_r+0x1314>
   12504:	fed48fa3          	sb	a3,-1(s1)
   12508:	ffe78493          	addi	s1,a5,-2
   1250c:	1a010793          	addi	a5,sp,416
   12510:	000d0a93          	mv	s5,s10
   12514:	00012623          	sw	zero,12(sp)
   12518:	40978d33          	sub	s10,a5,s1
   1251c:	00000c93          	li	s9,0
   12520:	00000c13          	li	s8,0
   12524:	00000d93          	li	s11,0
   12528:	8ecff06f          	j	11614 <_vfprintf_r+0x41c>
   1252c:	00048793          	mv	a5,s1
   12530:	f9dff06f          	j	124cc <_vfprintf_r+0x12d4>
   12534:	40047713          	andi	a4,s0,1024
   12538:	00000a13          	li	s4,0
   1253c:	1a010793          	addi	a5,sp,416
   12540:	00e12623          	sw	a4,12(sp)
   12544:	0ff00c13          	li	s8,255
   12548:	00900a93          	li	s5,9
   1254c:	00a00613          	li	a2,10
   12550:	00000693          	li	a3,0
   12554:	000d8513          	mv	a0,s11
   12558:	000c8593          	mv	a1,s9
   1255c:	fff78493          	addi	s1,a5,-1
   12560:	02f12623          	sw	a5,44(sp)
   12564:	0a40a0ef          	jal	ra,1c608 <__umoddi3>
   12568:	02c12783          	lw	a5,44(sp)
   1256c:	03050513          	addi	a0,a0,48
   12570:	001a0a13          	addi	s4,s4,1
   12574:	fea78fa3          	sb	a0,-1(a5)
   12578:	00c12783          	lw	a5,12(sp)
   1257c:	04078863          	beqz	a5,125cc <_vfprintf_r+0x13d4>
   12580:	01012783          	lw	a5,16(sp)
   12584:	0007c783          	lbu	a5,0(a5)
   12588:	04fa1263          	bne	s4,a5,125cc <_vfprintf_r+0x13d4>
   1258c:	058a0063          	beq	s4,s8,125cc <_vfprintf_r+0x13d4>
   12590:	000c9463          	bnez	s9,12598 <_vfprintf_r+0x13a0>
   12594:	03bafc63          	bleu	s11,s5,125cc <_vfprintf_r+0x13d4>
   12598:	03012783          	lw	a5,48(sp)
   1259c:	03812583          	lw	a1,56(sp)
   125a0:	00000a13          	li	s4,0
   125a4:	40f484b3          	sub	s1,s1,a5
   125a8:	00078613          	mv	a2,a5
   125ac:	00048513          	mv	a0,s1
   125b0:	2ad050ef          	jal	ra,1805c <strncpy>
   125b4:	01012783          	lw	a5,16(sp)
   125b8:	0017c783          	lbu	a5,1(a5)
   125bc:	00078863          	beqz	a5,125cc <_vfprintf_r+0x13d4>
   125c0:	01012783          	lw	a5,16(sp)
   125c4:	00178793          	addi	a5,a5,1
   125c8:	00f12823          	sw	a5,16(sp)
   125cc:	00a00613          	li	a2,10
   125d0:	00000693          	li	a3,0
   125d4:	000d8513          	mv	a0,s11
   125d8:	000c8593          	mv	a1,s9
   125dc:	3f9090ef          	jal	ra,1c1d4 <__udivdi3>
   125e0:	000c9463          	bnez	s9,125e8 <_vfprintf_r+0x13f0>
   125e4:	f3baf4e3          	bleu	s11,s5,1250c <_vfprintf_r+0x1314>
   125e8:	00050d93          	mv	s11,a0
   125ec:	00058c93          	mv	s9,a1
   125f0:	00048793          	mv	a5,s1
   125f4:	f59ff06f          	j	1254c <_vfprintf_r+0x1354>
   125f8:	1a010493          	addi	s1,sp,416
   125fc:	04012703          	lw	a4,64(sp)
   12600:	00fdf793          	andi	a5,s11,15
   12604:	fff48493          	addi	s1,s1,-1
   12608:	00f707b3          	add	a5,a4,a5
   1260c:	0007c783          	lbu	a5,0(a5)
   12610:	004ddd93          	srli	s11,s11,0x4
   12614:	00f48023          	sb	a5,0(s1)
   12618:	01cc9793          	slli	a5,s9,0x1c
   1261c:	01b7edb3          	or	s11,a5,s11
   12620:	004cdc93          	srli	s9,s9,0x4
   12624:	019de7b3          	or	a5,s11,s9
   12628:	fc079ae3          	bnez	a5,125fc <_vfprintf_r+0x1404>
   1262c:	ee1ff06f          	j	1250c <_vfprintf_r+0x1314>
   12630:	1a010493          	addi	s1,sp,416
   12634:	ec079ce3          	bnez	a5,1250c <_vfprintf_r+0x1314>
   12638:	00177713          	andi	a4,a4,1
   1263c:	ec0708e3          	beqz	a4,1250c <_vfprintf_r+0x1314>
   12640:	03000793          	li	a5,48
   12644:	18f10fa3          	sb	a5,415(sp)
   12648:	3210006f          	j	13168 <_vfprintf_r+0x1f70>
   1264c:	2e0b00e3          	beqz	s6,1312c <_vfprintf_r+0x1f34>
   12650:	13610e23          	sb	s6,316(sp)
   12654:	0a010ba3          	sb	zero,183(sp)
   12658:	01512c23          	sw	s5,24(sp)
   1265c:	f9dfe06f          	j	115f8 <_vfprintf_r+0x400>
   12660:	01060613          	addi	a2,a2,16
   12664:	01dba223          	sw	t4,4(s7)
   12668:	0cc12e23          	sw	a2,220(sp)
   1266c:	0cd12c23          	sw	a3,216(sp)
   12670:	02df5a63          	ble	a3,t5,126a4 <_vfprintf_r+0x14ac>
   12674:	0d410613          	addi	a2,sp,212
   12678:	00090593          	mv	a1,s2
   1267c:	00098513          	mv	a0,s3
   12680:	04e12823          	sw	a4,80(sp)
   12684:	12d070ef          	jal	ra,19fb0 <__sprint_r>
   12688:	240510e3          	bnez	a0,130c8 <_vfprintf_r+0x1ed0>
   1268c:	05012703          	lw	a4,80(sp)
   12690:	000217b7          	lui	a5,0x21
   12694:	0fc10593          	addi	a1,sp,252
   12698:	00700f13          	li	t5,7
   1269c:	6ec78e13          	addi	t3,a5,1772 # 216ec <blanks.4513>
   126a0:	01000e93          	li	t4,16
   126a4:	ff070713          	addi	a4,a4,-16
   126a8:	00058b93          	mv	s7,a1
   126ac:	fcdfe06f          	j	11678 <_vfprintf_r+0x480>
   126b0:	01070713          	addi	a4,a4,16
   126b4:	01cba223          	sw	t3,4(s7)
   126b8:	0ce12e23          	sw	a4,220(sp)
   126bc:	0cd12c23          	sw	a3,216(sp)
   126c0:	02ded663          	ble	a3,t4,126ec <_vfprintf_r+0x14f4>
   126c4:	0d410613          	addi	a2,sp,212
   126c8:	00090593          	mv	a1,s2
   126cc:	00098513          	mv	a0,s3
   126d0:	04f12223          	sw	a5,68(sp)
   126d4:	0dd070ef          	jal	ra,19fb0 <__sprint_r>
   126d8:	1e0518e3          	bnez	a0,130c8 <_vfprintf_r+0x1ed0>
   126dc:	04412783          	lw	a5,68(sp)
   126e0:	0fc10613          	addi	a2,sp,252
   126e4:	00700e93          	li	t4,7
   126e8:	01000e13          	li	t3,16
   126ec:	ff078793          	addi	a5,a5,-16
   126f0:	00060b93          	mv	s7,a2
   126f4:	8acff06f          	j	117a0 <_vfprintf_r+0x5a8>
   126f8:	01068693          	addi	a3,a3,16
   126fc:	010ba223          	sw	a6,4(s7)
   12700:	0cd12e23          	sw	a3,220(sp)
   12704:	0ce12c23          	sw	a4,216(sp)
   12708:	02ee5263          	ble	a4,t3,1272c <_vfprintf_r+0x1534>
   1270c:	0d410613          	addi	a2,sp,212
   12710:	00090593          	mv	a1,s2
   12714:	00098513          	mv	a0,s3
   12718:	099070ef          	jal	ra,19fb0 <__sprint_r>
   1271c:	1a0516e3          	bnez	a0,130c8 <_vfprintf_r+0x1ed0>
   12720:	0fc10613          	addi	a2,sp,252
   12724:	00700e13          	li	t3,7
   12728:	01000813          	li	a6,16
   1272c:	ff0a8a93          	addi	s5,s5,-16
   12730:	00060b93          	mv	s7,a2
   12734:	8d0ff06f          	j	11804 <_vfprintf_r+0x60c>
   12738:	06500693          	li	a3,101
   1273c:	7366d463          	ble	s6,a3,12e64 <_vfprintf_r+0x1c6c>
   12740:	0e012683          	lw	a3,224(sp)
   12744:	09010593          	addi	a1,sp,144
   12748:	0a010513          	addi	a0,sp,160
   1274c:	0ad12023          	sw	a3,160(sp)
   12750:	0e412683          	lw	a3,228(sp)
   12754:	04e12223          	sw	a4,68(sp)
   12758:	08012823          	sw	zero,144(sp)
   1275c:	0ad12223          	sw	a3,164(sp)
   12760:	0e812683          	lw	a3,232(sp)
   12764:	08012a23          	sw	zero,148(sp)
   12768:	08012c23          	sw	zero,152(sp)
   1276c:	0ad12423          	sw	a3,168(sp)
   12770:	0ec12683          	lw	a3,236(sp)
   12774:	08012e23          	sw	zero,156(sp)
   12778:	0ad12623          	sw	a3,172(sp)
   1277c:	72d0a0ef          	jal	ra,1d6a8 <__eqtf2>
   12780:	04412703          	lw	a4,68(sp)
   12784:	12051a63          	bnez	a0,128b8 <_vfprintf_r+0x16c0>
   12788:	000217b7          	lui	a5,0x21
   1278c:	74478793          	addi	a5,a5,1860 # 21744 <zeroes.4514+0x48>
   12790:	00fba023          	sw	a5,0(s7)
   12794:	00100793          	li	a5,1
   12798:	00fba223          	sw	a5,4(s7)
   1279c:	0d812783          	lw	a5,216(sp)
   127a0:	00170713          	addi	a4,a4,1
   127a4:	0ce12e23          	sw	a4,220(sp)
   127a8:	00178793          	addi	a5,a5,1
   127ac:	0cf12c23          	sw	a5,216(sp)
   127b0:	00700713          	li	a4,7
   127b4:	008b8b93          	addi	s7,s7,8
   127b8:	00f75e63          	ble	a5,a4,127d4 <_vfprintf_r+0x15dc>
   127bc:	0d410613          	addi	a2,sp,212
   127c0:	00090593          	mv	a1,s2
   127c4:	00098513          	mv	a0,s3
   127c8:	7e8070ef          	jal	ra,19fb0 <__sprint_r>
   127cc:	0e051ee3          	bnez	a0,130c8 <_vfprintf_r+0x1ed0>
   127d0:	0fc10b93          	addi	s7,sp,252
   127d4:	0bc12783          	lw	a5,188(sp)
   127d8:	0147c663          	blt	a5,s4,127e4 <_vfprintf_r+0x15ec>
   127dc:	00147793          	andi	a5,s0,1
   127e0:	22078063          	beqz	a5,12a00 <_vfprintf_r+0x1808>
   127e4:	03412783          	lw	a5,52(sp)
   127e8:	02012703          	lw	a4,32(sp)
   127ec:	008b8b93          	addi	s7,s7,8
   127f0:	fefbac23          	sw	a5,-8(s7)
   127f4:	02012783          	lw	a5,32(sp)
   127f8:	fefbae23          	sw	a5,-4(s7)
   127fc:	0dc12783          	lw	a5,220(sp)
   12800:	00e787b3          	add	a5,a5,a4
   12804:	0cf12e23          	sw	a5,220(sp)
   12808:	0d812783          	lw	a5,216(sp)
   1280c:	00700713          	li	a4,7
   12810:	00178793          	addi	a5,a5,1
   12814:	0cf12c23          	sw	a5,216(sp)
   12818:	00f75e63          	ble	a5,a4,12834 <_vfprintf_r+0x163c>
   1281c:	0d410613          	addi	a2,sp,212
   12820:	00090593          	mv	a1,s2
   12824:	00098513          	mv	a0,s3
   12828:	788070ef          	jal	ra,19fb0 <__sprint_r>
   1282c:	08051ee3          	bnez	a0,130c8 <_vfprintf_r+0x1ed0>
   12830:	0fc10b93          	addi	s7,sp,252
   12834:	fffa0493          	addi	s1,s4,-1
   12838:	1c905463          	blez	s1,12a00 <_vfprintf_r+0x1808>
   1283c:	01000a93          	li	s5,16
   12840:	00700b13          	li	s6,7
   12844:	01412603          	lw	a2,20(sp)
   12848:	0d812783          	lw	a5,216(sp)
   1284c:	0dc12703          	lw	a4,220(sp)
   12850:	00cba023          	sw	a2,0(s7)
   12854:	00178793          	addi	a5,a5,1
   12858:	008b8693          	addi	a3,s7,8
   1285c:	029ac263          	blt	s5,s1,12880 <_vfprintf_r+0x1688>
   12860:	009ba223          	sw	s1,4(s7)
   12864:	00e484b3          	add	s1,s1,a4
   12868:	0c912e23          	sw	s1,220(sp)
   1286c:	0cf12c23          	sw	a5,216(sp)
   12870:	00700713          	li	a4,7
   12874:	00068b93          	mv	s7,a3
   12878:	18f75463          	ble	a5,a4,12a00 <_vfprintf_r+0x1808>
   1287c:	814ff06f          	j	11890 <_vfprintf_r+0x698>
   12880:	01070713          	addi	a4,a4,16
   12884:	015ba223          	sw	s5,4(s7)
   12888:	0ce12e23          	sw	a4,220(sp)
   1288c:	0cf12c23          	sw	a5,216(sp)
   12890:	00fb5e63          	ble	a5,s6,128ac <_vfprintf_r+0x16b4>
   12894:	0d410613          	addi	a2,sp,212
   12898:	00090593          	mv	a1,s2
   1289c:	00098513          	mv	a0,s3
   128a0:	710070ef          	jal	ra,19fb0 <__sprint_r>
   128a4:	020512e3          	bnez	a0,130c8 <_vfprintf_r+0x1ed0>
   128a8:	0fc10693          	addi	a3,sp,252
   128ac:	ff048493          	addi	s1,s1,-16
   128b0:	00068b93          	mv	s7,a3
   128b4:	f91ff06f          	j	12844 <_vfprintf_r+0x164c>
   128b8:	0bc12683          	lw	a3,188(sp)
   128bc:	1cd04863          	bgtz	a3,12a8c <_vfprintf_r+0x1894>
   128c0:	000217b7          	lui	a5,0x21
   128c4:	74478793          	addi	a5,a5,1860 # 21744 <zeroes.4514+0x48>
   128c8:	00fba023          	sw	a5,0(s7)
   128cc:	00100793          	li	a5,1
   128d0:	00fba223          	sw	a5,4(s7)
   128d4:	0d812783          	lw	a5,216(sp)
   128d8:	00170713          	addi	a4,a4,1
   128dc:	0ce12e23          	sw	a4,220(sp)
   128e0:	00178793          	addi	a5,a5,1
   128e4:	0cf12c23          	sw	a5,216(sp)
   128e8:	00700713          	li	a4,7
   128ec:	008b8b93          	addi	s7,s7,8
   128f0:	00f75e63          	ble	a5,a4,1290c <_vfprintf_r+0x1714>
   128f4:	0d410613          	addi	a2,sp,212
   128f8:	00090593          	mv	a1,s2
   128fc:	00098513          	mv	a0,s3
   12900:	6b0070ef          	jal	ra,19fb0 <__sprint_r>
   12904:	7c051263          	bnez	a0,130c8 <_vfprintf_r+0x1ed0>
   12908:	0fc10b93          	addi	s7,sp,252
   1290c:	0bc12783          	lw	a5,188(sp)
   12910:	00147693          	andi	a3,s0,1
   12914:	0dc12703          	lw	a4,220(sp)
   12918:	00fa67b3          	or	a5,s4,a5
   1291c:	00d7e7b3          	or	a5,a5,a3
   12920:	0e078063          	beqz	a5,12a00 <_vfprintf_r+0x1808>
   12924:	03412783          	lw	a5,52(sp)
   12928:	008b8893          	addi	a7,s7,8
   1292c:	00fba023          	sw	a5,0(s7)
   12930:	02012783          	lw	a5,32(sp)
   12934:	00fba223          	sw	a5,4(s7)
   12938:	00e787b3          	add	a5,a5,a4
   1293c:	0cf12e23          	sw	a5,220(sp)
   12940:	0d812783          	lw	a5,216(sp)
   12944:	00700713          	li	a4,7
   12948:	00178793          	addi	a5,a5,1
   1294c:	0cf12c23          	sw	a5,216(sp)
   12950:	00f75e63          	ble	a5,a4,1296c <_vfprintf_r+0x1774>
   12954:	0d410613          	addi	a2,sp,212
   12958:	00090593          	mv	a1,s2
   1295c:	00098513          	mv	a0,s3
   12960:	650070ef          	jal	ra,19fb0 <__sprint_r>
   12964:	76051263          	bnez	a0,130c8 <_vfprintf_r+0x1ed0>
   12968:	0fc10893          	addi	a7,sp,252
   1296c:	0bc12a83          	lw	s5,188(sp)
   12970:	060ad063          	bgez	s5,129d0 <_vfprintf_r+0x17d8>
   12974:	41500ab3          	neg	s5,s5
   12978:	00088713          	mv	a4,a7
   1297c:	01000b13          	li	s6,16
   12980:	00700c13          	li	s8,7
   12984:	01412603          	lw	a2,20(sp)
   12988:	0d812783          	lw	a5,216(sp)
   1298c:	0dc12683          	lw	a3,220(sp)
   12990:	00c72023          	sw	a2,0(a4)
   12994:	00178793          	addi	a5,a5,1
   12998:	00888893          	addi	a7,a7,8
   1299c:	0b5b4c63          	blt	s6,s5,12a54 <_vfprintf_r+0x185c>
   129a0:	01572223          	sw	s5,4(a4)
   129a4:	00da8ab3          	add	s5,s5,a3
   129a8:	0d512e23          	sw	s5,220(sp)
   129ac:	0cf12c23          	sw	a5,216(sp)
   129b0:	00700713          	li	a4,7
   129b4:	00f75e63          	ble	a5,a4,129d0 <_vfprintf_r+0x17d8>
   129b8:	0d410613          	addi	a2,sp,212
   129bc:	00090593          	mv	a1,s2
   129c0:	00098513          	mv	a0,s3
   129c4:	5ec070ef          	jal	ra,19fb0 <__sprint_r>
   129c8:	70051063          	bnez	a0,130c8 <_vfprintf_r+0x1ed0>
   129cc:	0fc10893          	addi	a7,sp,252
   129d0:	0dc12783          	lw	a5,220(sp)
   129d4:	0098a023          	sw	s1,0(a7)
   129d8:	0148a223          	sw	s4,4(a7)
   129dc:	014787b3          	add	a5,a5,s4
   129e0:	0cf12e23          	sw	a5,220(sp)
   129e4:	0d812783          	lw	a5,216(sp)
   129e8:	00700713          	li	a4,7
   129ec:	00888b93          	addi	s7,a7,8
   129f0:	00178793          	addi	a5,a5,1
   129f4:	0cf12c23          	sw	a5,216(sp)
   129f8:	00f75463          	ble	a5,a4,12a00 <_vfprintf_r+0x1808>
   129fc:	e95fe06f          	j	11890 <_vfprintf_r+0x698>
   12a00:	00447413          	andi	s0,s0,4
   12a04:	66041263          	bnez	s0,13068 <_vfprintf_r+0x1e70>
   12a08:	02812b03          	lw	s6,40(sp)
   12a0c:	02c12783          	lw	a5,44(sp)
   12a10:	00fb5463          	ble	a5,s6,12a18 <_vfprintf_r+0x1820>
   12a14:	00078b13          	mv	s6,a5
   12a18:	02412783          	lw	a5,36(sp)
   12a1c:	016787b3          	add	a5,a5,s6
   12a20:	02f12223          	sw	a5,36(sp)
   12a24:	0dc12783          	lw	a5,220(sp)
   12a28:	00078c63          	beqz	a5,12a40 <_vfprintf_r+0x1848>
   12a2c:	0d410613          	addi	a2,sp,212
   12a30:	00090593          	mv	a1,s2
   12a34:	00098513          	mv	a0,s3
   12a38:	578070ef          	jal	ra,19fb0 <__sprint_r>
   12a3c:	68051663          	bnez	a0,130c8 <_vfprintf_r+0x1ed0>
   12a40:	00c12783          	lw	a5,12(sp)
   12a44:	0c012c23          	sw	zero,216(sp)
   12a48:	6c079a63          	bnez	a5,1311c <_vfprintf_r+0x1f24>
   12a4c:	0fc10b93          	addi	s7,sp,252
   12a50:	819ff06f          	j	12268 <_vfprintf_r+0x1070>
   12a54:	01068693          	addi	a3,a3,16
   12a58:	01672223          	sw	s6,4(a4)
   12a5c:	0cd12e23          	sw	a3,220(sp)
   12a60:	0cf12c23          	sw	a5,216(sp)
   12a64:	00fc5e63          	ble	a5,s8,12a80 <_vfprintf_r+0x1888>
   12a68:	0d410613          	addi	a2,sp,212
   12a6c:	00090593          	mv	a1,s2
   12a70:	00098513          	mv	a0,s3
   12a74:	53c070ef          	jal	ra,19fb0 <__sprint_r>
   12a78:	64051863          	bnez	a0,130c8 <_vfprintf_r+0x1ed0>
   12a7c:	0fc10893          	addi	a7,sp,252
   12a80:	ff0a8a93          	addi	s5,s5,-16
   12a84:	00088713          	mv	a4,a7
   12a88:	efdff06f          	j	12984 <_vfprintf_r+0x178c>
   12a8c:	000d8a93          	mv	s5,s11
   12a90:	01ba5463          	ble	s11,s4,12a98 <_vfprintf_r+0x18a0>
   12a94:	000a0a93          	mv	s5,s4
   12a98:	05505263          	blez	s5,12adc <_vfprintf_r+0x18e4>
   12a9c:	00ea8733          	add	a4,s5,a4
   12aa0:	0ce12e23          	sw	a4,220(sp)
   12aa4:	0d812703          	lw	a4,216(sp)
   12aa8:	009ba023          	sw	s1,0(s7)
   12aac:	015ba223          	sw	s5,4(s7)
   12ab0:	00170713          	addi	a4,a4,1
   12ab4:	0ce12c23          	sw	a4,216(sp)
   12ab8:	00700693          	li	a3,7
   12abc:	008b8b93          	addi	s7,s7,8
   12ac0:	00e6de63          	ble	a4,a3,12adc <_vfprintf_r+0x18e4>
   12ac4:	0d410613          	addi	a2,sp,212
   12ac8:	00090593          	mv	a1,s2
   12acc:	00098513          	mv	a0,s3
   12ad0:	4e0070ef          	jal	ra,19fb0 <__sprint_r>
   12ad4:	5e051a63          	bnez	a0,130c8 <_vfprintf_r+0x1ed0>
   12ad8:	0fc10b93          	addi	s7,sp,252
   12adc:	000ad463          	bgez	s5,12ae4 <_vfprintf_r+0x18ec>
   12ae0:	00000a93          	li	s5,0
   12ae4:	415d8ab3          	sub	s5,s11,s5
   12ae8:	05505e63          	blez	s5,12b44 <_vfprintf_r+0x194c>
   12aec:	01000b13          	li	s6,16
   12af0:	00700d13          	li	s10,7
   12af4:	01412783          	lw	a5,20(sp)
   12af8:	0d812703          	lw	a4,216(sp)
   12afc:	0dc12683          	lw	a3,220(sp)
   12b00:	00fba023          	sw	a5,0(s7)
   12b04:	00170713          	addi	a4,a4,1
   12b08:	008b8613          	addi	a2,s7,8
   12b0c:	195b4c63          	blt	s6,s5,12ca4 <_vfprintf_r+0x1aac>
   12b10:	015ba223          	sw	s5,4(s7)
   12b14:	00da8ab3          	add	s5,s5,a3
   12b18:	0d512e23          	sw	s5,220(sp)
   12b1c:	0ce12c23          	sw	a4,216(sp)
   12b20:	00700693          	li	a3,7
   12b24:	00060b93          	mv	s7,a2
   12b28:	00e6de63          	ble	a4,a3,12b44 <_vfprintf_r+0x194c>
   12b2c:	0d410613          	addi	a2,sp,212
   12b30:	00090593          	mv	a1,s2
   12b34:	00098513          	mv	a0,s3
   12b38:	478070ef          	jal	ra,19fb0 <__sprint_r>
   12b3c:	58051663          	bnez	a0,130c8 <_vfprintf_r+0x1ed0>
   12b40:	0fc10b93          	addi	s7,sp,252
   12b44:	40047793          	andi	a5,s0,1024
   12b48:	01b48ab3          	add	s5,s1,s11
   12b4c:	02078063          	beqz	a5,12b6c <_vfprintf_r+0x1974>
   12b50:	00700b13          	li	s6,7
   12b54:	01448d33          	add	s10,s1,s4
   12b58:	180c1263          	bnez	s8,12cdc <_vfprintf_r+0x1ae4>
   12b5c:	180c9263          	bnez	s9,12ce0 <_vfprintf_r+0x1ae8>
   12b60:	014487b3          	add	a5,s1,s4
   12b64:	0157f463          	bleu	s5,a5,12b6c <_vfprintf_r+0x1974>
   12b68:	00078a93          	mv	s5,a5
   12b6c:	0bc12783          	lw	a5,188(sp)
   12b70:	0147c663          	blt	a5,s4,12b7c <_vfprintf_r+0x1984>
   12b74:	00147793          	andi	a5,s0,1
   12b78:	04078a63          	beqz	a5,12bcc <_vfprintf_r+0x19d4>
   12b7c:	03412783          	lw	a5,52(sp)
   12b80:	02012703          	lw	a4,32(sp)
   12b84:	008b8b93          	addi	s7,s7,8
   12b88:	fefbac23          	sw	a5,-8(s7)
   12b8c:	02012783          	lw	a5,32(sp)
   12b90:	fefbae23          	sw	a5,-4(s7)
   12b94:	0dc12783          	lw	a5,220(sp)
   12b98:	00e787b3          	add	a5,a5,a4
   12b9c:	0cf12e23          	sw	a5,220(sp)
   12ba0:	0d812783          	lw	a5,216(sp)
   12ba4:	00700713          	li	a4,7
   12ba8:	00178793          	addi	a5,a5,1
   12bac:	0cf12c23          	sw	a5,216(sp)
   12bb0:	00f75e63          	ble	a5,a4,12bcc <_vfprintf_r+0x19d4>
   12bb4:	0d410613          	addi	a2,sp,212
   12bb8:	00090593          	mv	a1,s2
   12bbc:	00098513          	mv	a0,s3
   12bc0:	3f0070ef          	jal	ra,19fb0 <__sprint_r>
   12bc4:	50051263          	bnez	a0,130c8 <_vfprintf_r+0x1ed0>
   12bc8:	0fc10b93          	addi	s7,sp,252
   12bcc:	014484b3          	add	s1,s1,s4
   12bd0:	415487b3          	sub	a5,s1,s5
   12bd4:	0bc12483          	lw	s1,188(sp)
   12bd8:	409a04b3          	sub	s1,s4,s1
   12bdc:	0097d463          	ble	s1,a5,12be4 <_vfprintf_r+0x19ec>
   12be0:	00078493          	mv	s1,a5
   12be4:	04905463          	blez	s1,12c2c <_vfprintf_r+0x1a34>
   12be8:	0dc12783          	lw	a5,220(sp)
   12bec:	015ba023          	sw	s5,0(s7)
   12bf0:	009ba223          	sw	s1,4(s7)
   12bf4:	00f487b3          	add	a5,s1,a5
   12bf8:	0cf12e23          	sw	a5,220(sp)
   12bfc:	0d812783          	lw	a5,216(sp)
   12c00:	00700713          	li	a4,7
   12c04:	008b8b93          	addi	s7,s7,8
   12c08:	00178793          	addi	a5,a5,1
   12c0c:	0cf12c23          	sw	a5,216(sp)
   12c10:	00f75e63          	ble	a5,a4,12c2c <_vfprintf_r+0x1a34>
   12c14:	0d410613          	addi	a2,sp,212
   12c18:	00090593          	mv	a1,s2
   12c1c:	00098513          	mv	a0,s3
   12c20:	390070ef          	jal	ra,19fb0 <__sprint_r>
   12c24:	4a051263          	bnez	a0,130c8 <_vfprintf_r+0x1ed0>
   12c28:	0fc10b93          	addi	s7,sp,252
   12c2c:	00048793          	mv	a5,s1
   12c30:	0004d463          	bgez	s1,12c38 <_vfprintf_r+0x1a40>
   12c34:	00000793          	li	a5,0
   12c38:	0bc12483          	lw	s1,188(sp)
   12c3c:	409a04b3          	sub	s1,s4,s1
   12c40:	40f484b3          	sub	s1,s1,a5
   12c44:	da905ee3          	blez	s1,12a00 <_vfprintf_r+0x1808>
   12c48:	01000a93          	li	s5,16
   12c4c:	00700b13          	li	s6,7
   12c50:	01412603          	lw	a2,20(sp)
   12c54:	0d812783          	lw	a5,216(sp)
   12c58:	0dc12703          	lw	a4,220(sp)
   12c5c:	00cba023          	sw	a2,0(s7)
   12c60:	00178793          	addi	a5,a5,1
   12c64:	008b8693          	addi	a3,s7,8
   12c68:	be9adce3          	ble	s1,s5,12860 <_vfprintf_r+0x1668>
   12c6c:	01070713          	addi	a4,a4,16
   12c70:	015ba223          	sw	s5,4(s7)
   12c74:	0ce12e23          	sw	a4,220(sp)
   12c78:	0cf12c23          	sw	a5,216(sp)
   12c7c:	00fb5e63          	ble	a5,s6,12c98 <_vfprintf_r+0x1aa0>
   12c80:	0d410613          	addi	a2,sp,212
   12c84:	00090593          	mv	a1,s2
   12c88:	00098513          	mv	a0,s3
   12c8c:	324070ef          	jal	ra,19fb0 <__sprint_r>
   12c90:	42051c63          	bnez	a0,130c8 <_vfprintf_r+0x1ed0>
   12c94:	0fc10693          	addi	a3,sp,252
   12c98:	ff048493          	addi	s1,s1,-16
   12c9c:	00068b93          	mv	s7,a3
   12ca0:	fb1ff06f          	j	12c50 <_vfprintf_r+0x1a58>
   12ca4:	01068693          	addi	a3,a3,16
   12ca8:	016ba223          	sw	s6,4(s7)
   12cac:	0cd12e23          	sw	a3,220(sp)
   12cb0:	0ce12c23          	sw	a4,216(sp)
   12cb4:	00ed5e63          	ble	a4,s10,12cd0 <_vfprintf_r+0x1ad8>
   12cb8:	0d410613          	addi	a2,sp,212
   12cbc:	00090593          	mv	a1,s2
   12cc0:	00098513          	mv	a0,s3
   12cc4:	2ec070ef          	jal	ra,19fb0 <__sprint_r>
   12cc8:	40051063          	bnez	a0,130c8 <_vfprintf_r+0x1ed0>
   12ccc:	0fc10613          	addi	a2,sp,252
   12cd0:	ff0a8a93          	addi	s5,s5,-16
   12cd4:	00060b93          	mv	s7,a2
   12cd8:	e1dff06f          	j	12af4 <_vfprintf_r+0x18fc>
   12cdc:	0e0c8263          	beqz	s9,12dc0 <_vfprintf_r+0x1bc8>
   12ce0:	fffc8c93          	addi	s9,s9,-1
   12ce4:	03812783          	lw	a5,56(sp)
   12ce8:	03012703          	lw	a4,48(sp)
   12cec:	008b8b93          	addi	s7,s7,8
   12cf0:	fefbac23          	sw	a5,-8(s7)
   12cf4:	03012783          	lw	a5,48(sp)
   12cf8:	fefbae23          	sw	a5,-4(s7)
   12cfc:	0dc12783          	lw	a5,220(sp)
   12d00:	00e787b3          	add	a5,a5,a4
   12d04:	0cf12e23          	sw	a5,220(sp)
   12d08:	0d812783          	lw	a5,216(sp)
   12d0c:	00178793          	addi	a5,a5,1
   12d10:	0cf12c23          	sw	a5,216(sp)
   12d14:	00fb5e63          	ble	a5,s6,12d30 <_vfprintf_r+0x1b38>
   12d18:	0d410613          	addi	a2,sp,212
   12d1c:	00090593          	mv	a1,s2
   12d20:	00098513          	mv	a0,s3
   12d24:	28c070ef          	jal	ra,19fb0 <__sprint_r>
   12d28:	3a051063          	bnez	a0,130c8 <_vfprintf_r+0x1ed0>
   12d2c:	0fc10b93          	addi	s7,sp,252
   12d30:	01012783          	lw	a5,16(sp)
   12d34:	415d0733          	sub	a4,s10,s5
   12d38:	0007c783          	lbu	a5,0(a5)
   12d3c:	00f75463          	ble	a5,a4,12d44 <_vfprintf_r+0x1b4c>
   12d40:	00070793          	mv	a5,a4
   12d44:	04f05663          	blez	a5,12d90 <_vfprintf_r+0x1b98>
   12d48:	0dc12703          	lw	a4,220(sp)
   12d4c:	015ba023          	sw	s5,0(s7)
   12d50:	00fba223          	sw	a5,4(s7)
   12d54:	00e78733          	add	a4,a5,a4
   12d58:	0ce12e23          	sw	a4,220(sp)
   12d5c:	0d812703          	lw	a4,216(sp)
   12d60:	008b8b93          	addi	s7,s7,8
   12d64:	00170713          	addi	a4,a4,1
   12d68:	0ce12c23          	sw	a4,216(sp)
   12d6c:	02eb5263          	ble	a4,s6,12d90 <_vfprintf_r+0x1b98>
   12d70:	0d410613          	addi	a2,sp,212
   12d74:	00090593          	mv	a1,s2
   12d78:	00098513          	mv	a0,s3
   12d7c:	04f12223          	sw	a5,68(sp)
   12d80:	230070ef          	jal	ra,19fb0 <__sprint_r>
   12d84:	34051263          	bnez	a0,130c8 <_vfprintf_r+0x1ed0>
   12d88:	04412783          	lw	a5,68(sp)
   12d8c:	0fc10b93          	addi	s7,sp,252
   12d90:	00078713          	mv	a4,a5
   12d94:	0007d463          	bgez	a5,12d9c <_vfprintf_r+0x1ba4>
   12d98:	00000713          	li	a4,0
   12d9c:	01012783          	lw	a5,16(sp)
   12da0:	01000813          	li	a6,16
   12da4:	0007c783          	lbu	a5,0(a5)
   12da8:	40e787b3          	sub	a5,a5,a4
   12dac:	06f04463          	bgtz	a5,12e14 <_vfprintf_r+0x1c1c>
   12db0:	01012783          	lw	a5,16(sp)
   12db4:	0007c783          	lbu	a5,0(a5)
   12db8:	00fa8ab3          	add	s5,s5,a5
   12dbc:	d9dff06f          	j	12b58 <_vfprintf_r+0x1960>
   12dc0:	01012783          	lw	a5,16(sp)
   12dc4:	fffc0c13          	addi	s8,s8,-1
   12dc8:	fff78793          	addi	a5,a5,-1
   12dcc:	00f12823          	sw	a5,16(sp)
   12dd0:	f15ff06f          	j	12ce4 <_vfprintf_r+0x1aec>
   12dd4:	01068693          	addi	a3,a3,16
   12dd8:	010ba223          	sw	a6,4(s7)
   12ddc:	0cd12e23          	sw	a3,220(sp)
   12de0:	0ce12c23          	sw	a4,216(sp)
   12de4:	02eb5463          	ble	a4,s6,12e0c <_vfprintf_r+0x1c14>
   12de8:	0d410613          	addi	a2,sp,212
   12dec:	00090593          	mv	a1,s2
   12df0:	00098513          	mv	a0,s3
   12df4:	04f12223          	sw	a5,68(sp)
   12df8:	1b8070ef          	jal	ra,19fb0 <__sprint_r>
   12dfc:	2c051663          	bnez	a0,130c8 <_vfprintf_r+0x1ed0>
   12e00:	04412783          	lw	a5,68(sp)
   12e04:	0fc10613          	addi	a2,sp,252
   12e08:	01000813          	li	a6,16
   12e0c:	ff078793          	addi	a5,a5,-16
   12e10:	00060b93          	mv	s7,a2
   12e14:	01412583          	lw	a1,20(sp)
   12e18:	0d812703          	lw	a4,216(sp)
   12e1c:	0dc12683          	lw	a3,220(sp)
   12e20:	00bba023          	sw	a1,0(s7)
   12e24:	00170713          	addi	a4,a4,1
   12e28:	008b8613          	addi	a2,s7,8
   12e2c:	faf844e3          	blt	a6,a5,12dd4 <_vfprintf_r+0x1bdc>
   12e30:	00fba223          	sw	a5,4(s7)
   12e34:	00d787b3          	add	a5,a5,a3
   12e38:	0cf12e23          	sw	a5,220(sp)
   12e3c:	0ce12c23          	sw	a4,216(sp)
   12e40:	00060b93          	mv	s7,a2
   12e44:	f6eb56e3          	ble	a4,s6,12db0 <_vfprintf_r+0x1bb8>
   12e48:	0d410613          	addi	a2,sp,212
   12e4c:	00090593          	mv	a1,s2
   12e50:	00098513          	mv	a0,s3
   12e54:	15c070ef          	jal	ra,19fb0 <__sprint_r>
   12e58:	26051863          	bnez	a0,130c8 <_vfprintf_r+0x1ed0>
   12e5c:	0fc10b93          	addi	s7,sp,252
   12e60:	f51ff06f          	j	12db0 <_vfprintf_r+0x1bb8>
   12e64:	0d812783          	lw	a5,216(sp)
   12e68:	00100693          	li	a3,1
   12e6c:	009ba023          	sw	s1,0(s7)
   12e70:	00170713          	addi	a4,a4,1
   12e74:	00178793          	addi	a5,a5,1
   12e78:	008b8b13          	addi	s6,s7,8
   12e7c:	0146c663          	blt	a3,s4,12e88 <_vfprintf_r+0x1c90>
   12e80:	00147613          	andi	a2,s0,1
   12e84:	1c060663          	beqz	a2,13050 <_vfprintf_r+0x1e58>
   12e88:	00100693          	li	a3,1
   12e8c:	0ce12e23          	sw	a4,220(sp)
   12e90:	00dba223          	sw	a3,4(s7)
   12e94:	0cf12c23          	sw	a5,216(sp)
   12e98:	00700713          	li	a4,7
   12e9c:	00f75e63          	ble	a5,a4,12eb8 <_vfprintf_r+0x1cc0>
   12ea0:	0d410613          	addi	a2,sp,212
   12ea4:	00090593          	mv	a1,s2
   12ea8:	00098513          	mv	a0,s3
   12eac:	104070ef          	jal	ra,19fb0 <__sprint_r>
   12eb0:	20051c63          	bnez	a0,130c8 <_vfprintf_r+0x1ed0>
   12eb4:	0fc10b13          	addi	s6,sp,252
   12eb8:	03412783          	lw	a5,52(sp)
   12ebc:	02012703          	lw	a4,32(sp)
   12ec0:	008b0b13          	addi	s6,s6,8
   12ec4:	fefb2c23          	sw	a5,-8(s6)
   12ec8:	02012783          	lw	a5,32(sp)
   12ecc:	fefb2e23          	sw	a5,-4(s6)
   12ed0:	0dc12783          	lw	a5,220(sp)
   12ed4:	00e787b3          	add	a5,a5,a4
   12ed8:	0cf12e23          	sw	a5,220(sp)
   12edc:	0d812783          	lw	a5,216(sp)
   12ee0:	00700713          	li	a4,7
   12ee4:	00178793          	addi	a5,a5,1
   12ee8:	0cf12c23          	sw	a5,216(sp)
   12eec:	00f75e63          	ble	a5,a4,12f08 <_vfprintf_r+0x1d10>
   12ef0:	0d410613          	addi	a2,sp,212
   12ef4:	00090593          	mv	a1,s2
   12ef8:	00098513          	mv	a0,s3
   12efc:	0b4070ef          	jal	ra,19fb0 <__sprint_r>
   12f00:	1c051463          	bnez	a0,130c8 <_vfprintf_r+0x1ed0>
   12f04:	0fc10b13          	addi	s6,sp,252
   12f08:	0e012783          	lw	a5,224(sp)
   12f0c:	09010593          	addi	a1,sp,144
   12f10:	0a010513          	addi	a0,sp,160
   12f14:	0af12023          	sw	a5,160(sp)
   12f18:	0e412783          	lw	a5,228(sp)
   12f1c:	fffa0a93          	addi	s5,s4,-1
   12f20:	08012823          	sw	zero,144(sp)
   12f24:	0af12223          	sw	a5,164(sp)
   12f28:	0e812783          	lw	a5,232(sp)
   12f2c:	08012a23          	sw	zero,148(sp)
   12f30:	08012c23          	sw	zero,152(sp)
   12f34:	0af12423          	sw	a5,168(sp)
   12f38:	0ec12783          	lw	a5,236(sp)
   12f3c:	08012e23          	sw	zero,156(sp)
   12f40:	0af12623          	sw	a5,172(sp)
   12f44:	7640a0ef          	jal	ra,1d6a8 <__eqtf2>
   12f48:	08050663          	beqz	a0,12fd4 <_vfprintf_r+0x1ddc>
   12f4c:	0dc12783          	lw	a5,220(sp)
   12f50:	0d812703          	lw	a4,216(sp)
   12f54:	00148493          	addi	s1,s1,1
   12f58:	fff78793          	addi	a5,a5,-1
   12f5c:	014787b3          	add	a5,a5,s4
   12f60:	00170713          	addi	a4,a4,1
   12f64:	009b2023          	sw	s1,0(s6)
   12f68:	015b2223          	sw	s5,4(s6)
   12f6c:	0cf12e23          	sw	a5,220(sp)
   12f70:	0ce12c23          	sw	a4,216(sp)
   12f74:	00700793          	li	a5,7
   12f78:	008b0b13          	addi	s6,s6,8
   12f7c:	00e7de63          	ble	a4,a5,12f98 <_vfprintf_r+0x1da0>
   12f80:	0d410613          	addi	a2,sp,212
   12f84:	00090593          	mv	a1,s2
   12f88:	00098513          	mv	a0,s3
   12f8c:	024070ef          	jal	ra,19fb0 <__sprint_r>
   12f90:	12051c63          	bnez	a0,130c8 <_vfprintf_r+0x1ed0>
   12f94:	0fc10b13          	addi	s6,sp,252
   12f98:	0c410793          	addi	a5,sp,196
   12f9c:	00fb2023          	sw	a5,0(s6)
   12fa0:	03c12783          	lw	a5,60(sp)
   12fa4:	03c12703          	lw	a4,60(sp)
   12fa8:	008b0b93          	addi	s7,s6,8
   12fac:	00fb2223          	sw	a5,4(s6)
   12fb0:	0dc12783          	lw	a5,220(sp)
   12fb4:	00e787b3          	add	a5,a5,a4
   12fb8:	0cf12e23          	sw	a5,220(sp)
   12fbc:	0d812783          	lw	a5,216(sp)
   12fc0:	00700713          	li	a4,7
   12fc4:	00178793          	addi	a5,a5,1
   12fc8:	0cf12c23          	sw	a5,216(sp)
   12fcc:	a2f75ae3          	ble	a5,a4,12a00 <_vfprintf_r+0x1808>
   12fd0:	8c1fe06f          	j	11890 <_vfprintf_r+0x698>
   12fd4:	fd5052e3          	blez	s5,12f98 <_vfprintf_r+0x1da0>
   12fd8:	01000493          	li	s1,16
   12fdc:	00700c13          	li	s8,7
   12fe0:	01412603          	lw	a2,20(sp)
   12fe4:	0d812703          	lw	a4,216(sp)
   12fe8:	0dc12783          	lw	a5,220(sp)
   12fec:	00cb2023          	sw	a2,0(s6)
   12ff0:	00170713          	addi	a4,a4,1
   12ff4:	008b0693          	addi	a3,s6,8
   12ff8:	0354c063          	blt	s1,s5,13018 <_vfprintf_r+0x1e20>
   12ffc:	00fa87b3          	add	a5,s5,a5
   13000:	015b2223          	sw	s5,4(s6)
   13004:	0cf12e23          	sw	a5,220(sp)
   13008:	0ce12c23          	sw	a4,216(sp)
   1300c:	00700793          	li	a5,7
   13010:	00068b13          	mv	s6,a3
   13014:	f69ff06f          	j	12f7c <_vfprintf_r+0x1d84>
   13018:	01078793          	addi	a5,a5,16
   1301c:	009b2223          	sw	s1,4(s6)
   13020:	0cf12e23          	sw	a5,220(sp)
   13024:	0ce12c23          	sw	a4,216(sp)
   13028:	00ec5e63          	ble	a4,s8,13044 <_vfprintf_r+0x1e4c>
   1302c:	0d410613          	addi	a2,sp,212
   13030:	00090593          	mv	a1,s2
   13034:	00098513          	mv	a0,s3
   13038:	779060ef          	jal	ra,19fb0 <__sprint_r>
   1303c:	08051663          	bnez	a0,130c8 <_vfprintf_r+0x1ed0>
   13040:	0fc10693          	addi	a3,sp,252
   13044:	ff0a8a93          	addi	s5,s5,-16
   13048:	00068b13          	mv	s6,a3
   1304c:	f95ff06f          	j	12fe0 <_vfprintf_r+0x1de8>
   13050:	0ce12e23          	sw	a4,220(sp)
   13054:	00dba223          	sw	a3,4(s7)
   13058:	0cf12c23          	sw	a5,216(sp)
   1305c:	00700713          	li	a4,7
   13060:	f2f75ce3          	ble	a5,a4,12f98 <_vfprintf_r+0x1da0>
   13064:	f1dff06f          	j	12f80 <_vfprintf_r+0x1d88>
   13068:	02812783          	lw	a5,40(sp)
   1306c:	02c12703          	lw	a4,44(sp)
   13070:	40e78433          	sub	s0,a5,a4
   13074:	98805ae3          	blez	s0,12a08 <_vfprintf_r+0x1810>
   13078:	000217b7          	lui	a5,0x21
   1307c:	01000a93          	li	s5,16
   13080:	6ec78493          	addi	s1,a5,1772 # 216ec <blanks.4513>
   13084:	00700b13          	li	s6,7
   13088:	0d812783          	lw	a5,216(sp)
   1308c:	009ba023          	sw	s1,0(s7)
   13090:	0dc12703          	lw	a4,220(sp)
   13094:	00178793          	addi	a5,a5,1
   13098:	048ac663          	blt	s5,s0,130e4 <_vfprintf_r+0x1eec>
   1309c:	008ba223          	sw	s0,4(s7)
   130a0:	00e40433          	add	s0,s0,a4
   130a4:	0c812e23          	sw	s0,220(sp)
   130a8:	0cf12c23          	sw	a5,216(sp)
   130ac:	00700713          	li	a4,7
   130b0:	94f75ce3          	ble	a5,a4,12a08 <_vfprintf_r+0x1810>
   130b4:	0d410613          	addi	a2,sp,212
   130b8:	00090593          	mv	a1,s2
   130bc:	00098513          	mv	a0,s3
   130c0:	6f1060ef          	jal	ra,19fb0 <__sprint_r>
   130c4:	940502e3          	beqz	a0,12a08 <_vfprintf_r+0x1810>
   130c8:	00c12783          	lw	a5,12(sp)
   130cc:	00079463          	bnez	a5,130d4 <_vfprintf_r+0x1edc>
   130d0:	a25fe06f          	j	11af4 <_vfprintf_r+0x8fc>
   130d4:	00078593          	mv	a1,a5
   130d8:	00098513          	mv	a0,s3
   130dc:	3a1000ef          	jal	ra,13c7c <_free_r>
   130e0:	a15fe06f          	j	11af4 <_vfprintf_r+0x8fc>
   130e4:	01070713          	addi	a4,a4,16
   130e8:	015ba223          	sw	s5,4(s7)
   130ec:	0ce12e23          	sw	a4,220(sp)
   130f0:	0cf12c23          	sw	a5,216(sp)
   130f4:	008b8b93          	addi	s7,s7,8
   130f8:	00fb5e63          	ble	a5,s6,13114 <_vfprintf_r+0x1f1c>
   130fc:	0d410613          	addi	a2,sp,212
   13100:	00090593          	mv	a1,s2
   13104:	00098513          	mv	a0,s3
   13108:	6a9060ef          	jal	ra,19fb0 <__sprint_r>
   1310c:	fa051ee3          	bnez	a0,130c8 <_vfprintf_r+0x1ed0>
   13110:	0fc10b93          	addi	s7,sp,252
   13114:	ff040413          	addi	s0,s0,-16
   13118:	f71ff06f          	j	13088 <_vfprintf_r+0x1e90>
   1311c:	00c12583          	lw	a1,12(sp)
   13120:	00098513          	mv	a0,s3
   13124:	359000ef          	jal	ra,13c7c <_free_r>
   13128:	925ff06f          	j	12a4c <_vfprintf_r+0x1854>
   1312c:	0dc12783          	lw	a5,220(sp)
   13130:	00079463          	bnez	a5,13138 <_vfprintf_r+0x1f40>
   13134:	9c1fe06f          	j	11af4 <_vfprintf_r+0x8fc>
   13138:	0d410613          	addi	a2,sp,212
   1313c:	00090593          	mv	a1,s2
   13140:	00098513          	mv	a0,s3
   13144:	66d060ef          	jal	ra,19fb0 <__sprint_r>
   13148:	9adfe06f          	j	11af4 <_vfprintf_r+0x8fc>
   1314c:	fff00793          	li	a5,-1
   13150:	b4fd1e63          	bne	s10,a5,124ac <_vfprintf_r+0x12b4>
   13154:	be0c9063          	bnez	s9,12534 <_vfprintf_r+0x133c>
   13158:	00900793          	li	a5,9
   1315c:	bdb7ec63          	bltu	a5,s11,12534 <_vfprintf_r+0x133c>
   13160:	030d8d93          	addi	s11,s11,48
   13164:	19b10fa3          	sb	s11,415(sp)
   13168:	19f10493          	addi	s1,sp,415
   1316c:	ba0ff06f          	j	1250c <_vfprintf_r+0x1314>

00013170 <vfprintf>:
   13170:	00060693          	mv	a3,a2
   13174:	00058613          	mv	a2,a1
   13178:	00050593          	mv	a1,a0
   1317c:	8201a503          	lw	a0,-2016(gp) # 23c68 <_impure_ptr>
   13180:	878fe06f          	j	111f8 <_vfprintf_r>

00013184 <__sbprintf>:
   13184:	00c5d783          	lhu	a5,12(a1)
   13188:	b8010113          	addi	sp,sp,-1152
   1318c:	46812c23          	sw	s0,1144(sp)
   13190:	ffd7f793          	andi	a5,a5,-3
   13194:	00f11a23          	sh	a5,20(sp)
   13198:	0645a783          	lw	a5,100(a1)
   1319c:	00058413          	mv	s0,a1
   131a0:	46912a23          	sw	s1,1140(sp)
   131a4:	06f12623          	sw	a5,108(sp)
   131a8:	00e5d783          	lhu	a5,14(a1)
   131ac:	47212823          	sw	s2,1136(sp)
   131b0:	46112e23          	sw	ra,1148(sp)
   131b4:	00f11b23          	sh	a5,22(sp)
   131b8:	01c5a783          	lw	a5,28(a1)
   131bc:	00050913          	mv	s2,a0
   131c0:	02012023          	sw	zero,32(sp)
   131c4:	02f12223          	sw	a5,36(sp)
   131c8:	0245a783          	lw	a5,36(a1)
   131cc:	00810593          	addi	a1,sp,8
   131d0:	02f12623          	sw	a5,44(sp)
   131d4:	07010793          	addi	a5,sp,112
   131d8:	00f12423          	sw	a5,8(sp)
   131dc:	00f12c23          	sw	a5,24(sp)
   131e0:	40000793          	li	a5,1024
   131e4:	00f12823          	sw	a5,16(sp)
   131e8:	00f12e23          	sw	a5,28(sp)
   131ec:	80cfe0ef          	jal	ra,111f8 <_vfprintf_r>
   131f0:	00050493          	mv	s1,a0
   131f4:	00054c63          	bltz	a0,1320c <__sbprintf+0x88>
   131f8:	00810593          	addi	a1,sp,8
   131fc:	00090513          	mv	a0,s2
   13200:	644000ef          	jal	ra,13844 <_fflush_r>
   13204:	00050463          	beqz	a0,1320c <__sbprintf+0x88>
   13208:	fff00493          	li	s1,-1
   1320c:	01415783          	lhu	a5,20(sp)
   13210:	0407f793          	andi	a5,a5,64
   13214:	00078863          	beqz	a5,13224 <__sbprintf+0xa0>
   13218:	00c45783          	lhu	a5,12(s0)
   1321c:	0407e793          	ori	a5,a5,64
   13220:	00f41623          	sh	a5,12(s0)
   13224:	47c12083          	lw	ra,1148(sp)
   13228:	47812403          	lw	s0,1144(sp)
   1322c:	00048513          	mv	a0,s1
   13230:	47012903          	lw	s2,1136(sp)
   13234:	47412483          	lw	s1,1140(sp)
   13238:	48010113          	addi	sp,sp,1152
   1323c:	00008067          	ret

00013240 <__swbuf_r>:
   13240:	fe010113          	addi	sp,sp,-32
   13244:	00812c23          	sw	s0,24(sp)
   13248:	00912a23          	sw	s1,20(sp)
   1324c:	01212823          	sw	s2,16(sp)
   13250:	00112e23          	sw	ra,28(sp)
   13254:	01312623          	sw	s3,12(sp)
   13258:	00050913          	mv	s2,a0
   1325c:	00058493          	mv	s1,a1
   13260:	00060413          	mv	s0,a2
   13264:	00050863          	beqz	a0,13274 <__swbuf_r+0x34>
   13268:	03852783          	lw	a5,56(a0)
   1326c:	00079463          	bnez	a5,13274 <__swbuf_r+0x34>
   13270:	764000ef          	jal	ra,139d4 <__sinit>
   13274:	01842783          	lw	a5,24(s0)
   13278:	00f42423          	sw	a5,8(s0)
   1327c:	00c45783          	lhu	a5,12(s0)
   13280:	0087f793          	andi	a5,a5,8
   13284:	0a078863          	beqz	a5,13334 <__swbuf_r+0xf4>
   13288:	01042783          	lw	a5,16(s0)
   1328c:	0a078463          	beqz	a5,13334 <__swbuf_r+0xf4>
   13290:	00c41783          	lh	a5,12(s0)
   13294:	0ff4f993          	andi	s3,s1,255
   13298:	0ff4f493          	andi	s1,s1,255
   1329c:	01279713          	slli	a4,a5,0x12
   132a0:	0a075663          	bgez	a4,1334c <__swbuf_r+0x10c>
   132a4:	01042783          	lw	a5,16(s0)
   132a8:	00042503          	lw	a0,0(s0)
   132ac:	40f50533          	sub	a0,a0,a5
   132b0:	01442783          	lw	a5,20(s0)
   132b4:	00f54a63          	blt	a0,a5,132c8 <__swbuf_r+0x88>
   132b8:	00040593          	mv	a1,s0
   132bc:	00090513          	mv	a0,s2
   132c0:	584000ef          	jal	ra,13844 <_fflush_r>
   132c4:	08051063          	bnez	a0,13344 <__swbuf_r+0x104>
   132c8:	00842783          	lw	a5,8(s0)
   132cc:	00150513          	addi	a0,a0,1
   132d0:	fff78793          	addi	a5,a5,-1
   132d4:	00f42423          	sw	a5,8(s0)
   132d8:	00042783          	lw	a5,0(s0)
   132dc:	00178713          	addi	a4,a5,1
   132e0:	00e42023          	sw	a4,0(s0)
   132e4:	01378023          	sb	s3,0(a5)
   132e8:	01442783          	lw	a5,20(s0)
   132ec:	00a78c63          	beq	a5,a0,13304 <__swbuf_r+0xc4>
   132f0:	00c45783          	lhu	a5,12(s0)
   132f4:	0017f793          	andi	a5,a5,1
   132f8:	00078e63          	beqz	a5,13314 <__swbuf_r+0xd4>
   132fc:	00a00793          	li	a5,10
   13300:	00f49a63          	bne	s1,a5,13314 <__swbuf_r+0xd4>
   13304:	00040593          	mv	a1,s0
   13308:	00090513          	mv	a0,s2
   1330c:	538000ef          	jal	ra,13844 <_fflush_r>
   13310:	02051a63          	bnez	a0,13344 <__swbuf_r+0x104>
   13314:	01c12083          	lw	ra,28(sp)
   13318:	01812403          	lw	s0,24(sp)
   1331c:	00048513          	mv	a0,s1
   13320:	01012903          	lw	s2,16(sp)
   13324:	01412483          	lw	s1,20(sp)
   13328:	00c12983          	lw	s3,12(sp)
   1332c:	02010113          	addi	sp,sp,32
   13330:	00008067          	ret
   13334:	00040593          	mv	a1,s0
   13338:	00090513          	mv	a0,s2
   1333c:	044000ef          	jal	ra,13380 <__swsetup_r>
   13340:	f40508e3          	beqz	a0,13290 <__swbuf_r+0x50>
   13344:	fff00493          	li	s1,-1
   13348:	fcdff06f          	j	13314 <__swbuf_r+0xd4>
   1334c:	00002737          	lui	a4,0x2
   13350:	00e7e7b3          	or	a5,a5,a4
   13354:	00f41623          	sh	a5,12(s0)
   13358:	06442783          	lw	a5,100(s0)
   1335c:	ffffe737          	lui	a4,0xffffe
   13360:	fff70713          	addi	a4,a4,-1 # ffffdfff <_end+0xfffd7b1f>
   13364:	00e7f7b3          	and	a5,a5,a4
   13368:	06f42223          	sw	a5,100(s0)
   1336c:	f39ff06f          	j	132a4 <__swbuf_r+0x64>

00013370 <__swbuf>:
   13370:	00058613          	mv	a2,a1
   13374:	00050593          	mv	a1,a0
   13378:	8201a503          	lw	a0,-2016(gp) # 23c68 <_impure_ptr>
   1337c:	ec5ff06f          	j	13240 <__swbuf_r>

00013380 <__swsetup_r>:
   13380:	ff010113          	addi	sp,sp,-16
   13384:	00912223          	sw	s1,4(sp)
   13388:	00050493          	mv	s1,a0
   1338c:	8201a503          	lw	a0,-2016(gp) # 23c68 <_impure_ptr>
   13390:	00812423          	sw	s0,8(sp)
   13394:	00112623          	sw	ra,12(sp)
   13398:	00058413          	mv	s0,a1
   1339c:	00050863          	beqz	a0,133ac <__swsetup_r+0x2c>
   133a0:	03852783          	lw	a5,56(a0)
   133a4:	00079463          	bnez	a5,133ac <__swsetup_r+0x2c>
   133a8:	62c000ef          	jal	ra,139d4 <__sinit>
   133ac:	00c41703          	lh	a4,12(s0)
   133b0:	01071793          	slli	a5,a4,0x10
   133b4:	0107d793          	srli	a5,a5,0x10
   133b8:	0087f693          	andi	a3,a5,8
   133bc:	06069e63          	bnez	a3,13438 <__swsetup_r+0xb8>
   133c0:	0107f693          	andi	a3,a5,16
   133c4:	02069663          	bnez	a3,133f0 <__swsetup_r+0x70>
   133c8:	00900793          	li	a5,9
   133cc:	00f4a023          	sw	a5,0(s1)
   133d0:	04076713          	ori	a4,a4,64
   133d4:	00e41623          	sh	a4,12(s0)
   133d8:	fff00513          	li	a0,-1
   133dc:	00c12083          	lw	ra,12(sp)
   133e0:	00812403          	lw	s0,8(sp)
   133e4:	00412483          	lw	s1,4(sp)
   133e8:	01010113          	addi	sp,sp,16
   133ec:	00008067          	ret
   133f0:	0047f793          	andi	a5,a5,4
   133f4:	02078c63          	beqz	a5,1342c <__swsetup_r+0xac>
   133f8:	03042583          	lw	a1,48(s0)
   133fc:	00058c63          	beqz	a1,13414 <__swsetup_r+0x94>
   13400:	04040793          	addi	a5,s0,64
   13404:	00f58663          	beq	a1,a5,13410 <__swsetup_r+0x90>
   13408:	00048513          	mv	a0,s1
   1340c:	071000ef          	jal	ra,13c7c <_free_r>
   13410:	02042823          	sw	zero,48(s0)
   13414:	00c45783          	lhu	a5,12(s0)
   13418:	00042223          	sw	zero,4(s0)
   1341c:	fdb7f793          	andi	a5,a5,-37
   13420:	00f41623          	sh	a5,12(s0)
   13424:	01042783          	lw	a5,16(s0)
   13428:	00f42023          	sw	a5,0(s0)
   1342c:	00c45783          	lhu	a5,12(s0)
   13430:	0087e793          	ori	a5,a5,8
   13434:	00f41623          	sh	a5,12(s0)
   13438:	01042783          	lw	a5,16(s0)
   1343c:	02079063          	bnez	a5,1345c <__swsetup_r+0xdc>
   13440:	00c45783          	lhu	a5,12(s0)
   13444:	20000713          	li	a4,512
   13448:	2807f793          	andi	a5,a5,640
   1344c:	00e78863          	beq	a5,a4,1345c <__swsetup_r+0xdc>
   13450:	00040593          	mv	a1,s0
   13454:	00048513          	mv	a0,s1
   13458:	14c030ef          	jal	ra,165a4 <__smakebuf_r>
   1345c:	00c45783          	lhu	a5,12(s0)
   13460:	0017f713          	andi	a4,a5,1
   13464:	02070c63          	beqz	a4,1349c <__swsetup_r+0x11c>
   13468:	01442783          	lw	a5,20(s0)
   1346c:	00042423          	sw	zero,8(s0)
   13470:	40f007b3          	neg	a5,a5
   13474:	00f42c23          	sw	a5,24(s0)
   13478:	01042783          	lw	a5,16(s0)
   1347c:	00000513          	li	a0,0
   13480:	f4079ee3          	bnez	a5,133dc <__swsetup_r+0x5c>
   13484:	00c41783          	lh	a5,12(s0)
   13488:	0807f713          	andi	a4,a5,128
   1348c:	f40708e3          	beqz	a4,133dc <__swsetup_r+0x5c>
   13490:	0407e793          	ori	a5,a5,64
   13494:	00f41623          	sh	a5,12(s0)
   13498:	f41ff06f          	j	133d8 <__swsetup_r+0x58>
   1349c:	0027f793          	andi	a5,a5,2
   134a0:	00000713          	li	a4,0
   134a4:	00079463          	bnez	a5,134ac <__swsetup_r+0x12c>
   134a8:	01442703          	lw	a4,20(s0)
   134ac:	00e42423          	sw	a4,8(s0)
   134b0:	fc9ff06f          	j	13478 <__swsetup_r+0xf8>

000134b4 <__register_exitproc>:
   134b4:	8181a703          	lw	a4,-2024(gp) # 23c60 <_global_impure_ptr>
   134b8:	00050313          	mv	t1,a0
   134bc:	14872783          	lw	a5,328(a4)
   134c0:	00079663          	bnez	a5,134cc <__register_exitproc+0x18>
   134c4:	14c70793          	addi	a5,a4,332
   134c8:	14f72423          	sw	a5,328(a4)
   134cc:	0047a703          	lw	a4,4(a5)
   134d0:	01f00813          	li	a6,31
   134d4:	fff00513          	li	a0,-1
   134d8:	04e84a63          	blt	a6,a4,1352c <__register_exitproc+0x78>
   134dc:	00271893          	slli	a7,a4,0x2
   134e0:	02030c63          	beqz	t1,13518 <__register_exitproc+0x64>
   134e4:	01178533          	add	a0,a5,a7
   134e8:	08c52423          	sw	a2,136(a0)
   134ec:	1887a803          	lw	a6,392(a5)
   134f0:	00100613          	li	a2,1
   134f4:	00e61633          	sll	a2,a2,a4
   134f8:	00c86833          	or	a6,a6,a2
   134fc:	1907a423          	sw	a6,392(a5)
   13500:	10d52423          	sw	a3,264(a0)
   13504:	00200693          	li	a3,2
   13508:	00d31863          	bne	t1,a3,13518 <__register_exitproc+0x64>
   1350c:	18c7a683          	lw	a3,396(a5)
   13510:	00c6e633          	or	a2,a3,a2
   13514:	18c7a623          	sw	a2,396(a5)
   13518:	00170713          	addi	a4,a4,1
   1351c:	00e7a223          	sw	a4,4(a5)
   13520:	011787b3          	add	a5,a5,a7
   13524:	00b7a423          	sw	a1,8(a5)
   13528:	00000513          	li	a0,0
   1352c:	00008067          	ret

00013530 <__call_exitprocs>:
   13530:	fd010113          	addi	sp,sp,-48
   13534:	01312e23          	sw	s3,28(sp)
   13538:	8181a983          	lw	s3,-2024(gp) # 23c60 <_global_impure_ptr>
   1353c:	01412c23          	sw	s4,24(sp)
   13540:	01512a23          	sw	s5,20(sp)
   13544:	01612823          	sw	s6,16(sp)
   13548:	02112623          	sw	ra,44(sp)
   1354c:	02812423          	sw	s0,40(sp)
   13550:	02912223          	sw	s1,36(sp)
   13554:	03212023          	sw	s2,32(sp)
   13558:	01712623          	sw	s7,12(sp)
   1355c:	00050a93          	mv	s5,a0
   13560:	00058a13          	mv	s4,a1
   13564:	00100b13          	li	s6,1
   13568:	1489a483          	lw	s1,328(s3)
   1356c:	00048c63          	beqz	s1,13584 <__call_exitprocs+0x54>
   13570:	0044a403          	lw	s0,4(s1)
   13574:	fff40913          	addi	s2,s0,-1
   13578:	00241413          	slli	s0,s0,0x2
   1357c:	00848433          	add	s0,s1,s0
   13580:	02095863          	bgez	s2,135b0 <__call_exitprocs+0x80>
   13584:	02c12083          	lw	ra,44(sp)
   13588:	02812403          	lw	s0,40(sp)
   1358c:	02412483          	lw	s1,36(sp)
   13590:	02012903          	lw	s2,32(sp)
   13594:	01c12983          	lw	s3,28(sp)
   13598:	01812a03          	lw	s4,24(sp)
   1359c:	01412a83          	lw	s5,20(sp)
   135a0:	01012b03          	lw	s6,16(sp)
   135a4:	00c12b83          	lw	s7,12(sp)
   135a8:	03010113          	addi	sp,sp,48
   135ac:	00008067          	ret
   135b0:	000a0c63          	beqz	s4,135c8 <__call_exitprocs+0x98>
   135b4:	10442783          	lw	a5,260(s0)
   135b8:	01478863          	beq	a5,s4,135c8 <__call_exitprocs+0x98>
   135bc:	fff90913          	addi	s2,s2,-1
   135c0:	ffc40413          	addi	s0,s0,-4
   135c4:	fbdff06f          	j	13580 <__call_exitprocs+0x50>
   135c8:	0044a703          	lw	a4,4(s1)
   135cc:	00442783          	lw	a5,4(s0)
   135d0:	fff70713          	addi	a4,a4,-1
   135d4:	03271c63          	bne	a4,s2,1360c <__call_exitprocs+0xdc>
   135d8:	0124a223          	sw	s2,4(s1)
   135dc:	fe0780e3          	beqz	a5,135bc <__call_exitprocs+0x8c>
   135e0:	1884a683          	lw	a3,392(s1)
   135e4:	012b1733          	sll	a4,s6,s2
   135e8:	0044ab83          	lw	s7,4(s1)
   135ec:	00d776b3          	and	a3,a4,a3
   135f0:	02069263          	bnez	a3,13614 <__call_exitprocs+0xe4>
   135f4:	000780e7          	jalr	a5
   135f8:	0044a783          	lw	a5,4(s1)
   135fc:	f77796e3          	bne	a5,s7,13568 <__call_exitprocs+0x38>
   13600:	1489a783          	lw	a5,328(s3)
   13604:	fa978ce3          	beq	a5,s1,135bc <__call_exitprocs+0x8c>
   13608:	f61ff06f          	j	13568 <__call_exitprocs+0x38>
   1360c:	00042223          	sw	zero,4(s0)
   13610:	fcdff06f          	j	135dc <__call_exitprocs+0xac>
   13614:	18c4a683          	lw	a3,396(s1)
   13618:	08442583          	lw	a1,132(s0)
   1361c:	00d77733          	and	a4,a4,a3
   13620:	00071863          	bnez	a4,13630 <__call_exitprocs+0x100>
   13624:	000a8513          	mv	a0,s5
   13628:	000780e7          	jalr	a5
   1362c:	fcdff06f          	j	135f8 <__call_exitprocs+0xc8>
   13630:	00058513          	mv	a0,a1
   13634:	000780e7          	jalr	a5
   13638:	fc1ff06f          	j	135f8 <__call_exitprocs+0xc8>

0001363c <__sflush_r>:
   1363c:	00c59783          	lh	a5,12(a1)
   13640:	fe010113          	addi	sp,sp,-32
   13644:	00812c23          	sw	s0,24(sp)
   13648:	01079713          	slli	a4,a5,0x10
   1364c:	01075713          	srli	a4,a4,0x10
   13650:	00912a23          	sw	s1,20(sp)
   13654:	00112e23          	sw	ra,28(sp)
   13658:	01212823          	sw	s2,16(sp)
   1365c:	01312623          	sw	s3,12(sp)
   13660:	00877693          	andi	a3,a4,8
   13664:	00050493          	mv	s1,a0
   13668:	00058413          	mv	s0,a1
   1366c:	16069c63          	bnez	a3,137e4 <__sflush_r+0x1a8>
   13670:	00001737          	lui	a4,0x1
   13674:	80070713          	addi	a4,a4,-2048 # 800 <_start-0xf800>
   13678:	00e7e7b3          	or	a5,a5,a4
   1367c:	0045a703          	lw	a4,4(a1)
   13680:	00f59623          	sh	a5,12(a1)
   13684:	02e04663          	bgtz	a4,136b0 <__sflush_r+0x74>
   13688:	03c5a703          	lw	a4,60(a1)
   1368c:	02e04263          	bgtz	a4,136b0 <__sflush_r+0x74>
   13690:	00000513          	li	a0,0
   13694:	01c12083          	lw	ra,28(sp)
   13698:	01812403          	lw	s0,24(sp)
   1369c:	01412483          	lw	s1,20(sp)
   136a0:	01012903          	lw	s2,16(sp)
   136a4:	00c12983          	lw	s3,12(sp)
   136a8:	02010113          	addi	sp,sp,32
   136ac:	00008067          	ret
   136b0:	02842703          	lw	a4,40(s0)
   136b4:	fc070ee3          	beqz	a4,13690 <__sflush_r+0x54>
   136b8:	0004a903          	lw	s2,0(s1)
   136bc:	01379693          	slli	a3,a5,0x13
   136c0:	0004a023          	sw	zero,0(s1)
   136c4:	0c06d863          	bgez	a3,13794 <__sflush_r+0x158>
   136c8:	05042603          	lw	a2,80(s0)
   136cc:	00c45783          	lhu	a5,12(s0)
   136d0:	0047f793          	andi	a5,a5,4
   136d4:	00078e63          	beqz	a5,136f0 <__sflush_r+0xb4>
   136d8:	00442783          	lw	a5,4(s0)
   136dc:	40f60633          	sub	a2,a2,a5
   136e0:	03042783          	lw	a5,48(s0)
   136e4:	00078663          	beqz	a5,136f0 <__sflush_r+0xb4>
   136e8:	03c42783          	lw	a5,60(s0)
   136ec:	40f60633          	sub	a2,a2,a5
   136f0:	02842783          	lw	a5,40(s0)
   136f4:	01c42583          	lw	a1,28(s0)
   136f8:	00000693          	li	a3,0
   136fc:	00048513          	mv	a0,s1
   13700:	000780e7          	jalr	a5
   13704:	fff00793          	li	a5,-1
   13708:	00c45683          	lhu	a3,12(s0)
   1370c:	02f51263          	bne	a0,a5,13730 <__sflush_r+0xf4>
   13710:	0004a783          	lw	a5,0(s1)
   13714:	01d00713          	li	a4,29
   13718:	0af76e63          	bltu	a4,a5,137d4 <__sflush_r+0x198>
   1371c:	20400737          	lui	a4,0x20400
   13720:	00170713          	addi	a4,a4,1 # 20400001 <_end+0x203d9b21>
   13724:	00f75733          	srl	a4,a4,a5
   13728:	00177713          	andi	a4,a4,1
   1372c:	0a070463          	beqz	a4,137d4 <__sflush_r+0x198>
   13730:	fffff7b7          	lui	a5,0xfffff
   13734:	7ff78793          	addi	a5,a5,2047 # fffff7ff <_end+0xfffd931f>
   13738:	01042703          	lw	a4,16(s0)
   1373c:	00d7f7b3          	and	a5,a5,a3
   13740:	01079793          	slli	a5,a5,0x10
   13744:	4107d793          	srai	a5,a5,0x10
   13748:	00e42023          	sw	a4,0(s0)
   1374c:	00f41623          	sh	a5,12(s0)
   13750:	00042223          	sw	zero,4(s0)
   13754:	01379713          	slli	a4,a5,0x13
   13758:	00075c63          	bgez	a4,13770 <__sflush_r+0x134>
   1375c:	fff00793          	li	a5,-1
   13760:	00f51663          	bne	a0,a5,1376c <__sflush_r+0x130>
   13764:	0004a783          	lw	a5,0(s1)
   13768:	00079463          	bnez	a5,13770 <__sflush_r+0x134>
   1376c:	04a42823          	sw	a0,80(s0)
   13770:	03042583          	lw	a1,48(s0)
   13774:	0124a023          	sw	s2,0(s1)
   13778:	f0058ce3          	beqz	a1,13690 <__sflush_r+0x54>
   1377c:	04040793          	addi	a5,s0,64
   13780:	00f58663          	beq	a1,a5,1378c <__sflush_r+0x150>
   13784:	00048513          	mv	a0,s1
   13788:	4f4000ef          	jal	ra,13c7c <_free_r>
   1378c:	02042823          	sw	zero,48(s0)
   13790:	f01ff06f          	j	13690 <__sflush_r+0x54>
   13794:	01c42583          	lw	a1,28(s0)
   13798:	00000613          	li	a2,0
   1379c:	00100693          	li	a3,1
   137a0:	00048513          	mv	a0,s1
   137a4:	000700e7          	jalr	a4
   137a8:	fff00793          	li	a5,-1
   137ac:	00050613          	mv	a2,a0
   137b0:	f0f51ee3          	bne	a0,a5,136cc <__sflush_r+0x90>
   137b4:	0004a783          	lw	a5,0(s1)
   137b8:	f0078ae3          	beqz	a5,136cc <__sflush_r+0x90>
   137bc:	01d00713          	li	a4,29
   137c0:	00e78663          	beq	a5,a4,137cc <__sflush_r+0x190>
   137c4:	01600713          	li	a4,22
   137c8:	06e79263          	bne	a5,a4,1382c <__sflush_r+0x1f0>
   137cc:	0124a023          	sw	s2,0(s1)
   137d0:	ec1ff06f          	j	13690 <__sflush_r+0x54>
   137d4:	0406e793          	ori	a5,a3,64
   137d8:	00f41623          	sh	a5,12(s0)
   137dc:	fff00513          	li	a0,-1
   137e0:	eb5ff06f          	j	13694 <__sflush_r+0x58>
   137e4:	0105a983          	lw	s3,16(a1)
   137e8:	ea0984e3          	beqz	s3,13690 <__sflush_r+0x54>
   137ec:	0005a903          	lw	s2,0(a1)
   137f0:	00377713          	andi	a4,a4,3
   137f4:	0135a023          	sw	s3,0(a1)
   137f8:	41390933          	sub	s2,s2,s3
   137fc:	00000793          	li	a5,0
   13800:	00071463          	bnez	a4,13808 <__sflush_r+0x1cc>
   13804:	0145a783          	lw	a5,20(a1)
   13808:	00f42423          	sw	a5,8(s0)
   1380c:	e92052e3          	blez	s2,13690 <__sflush_r+0x54>
   13810:	02442783          	lw	a5,36(s0)
   13814:	01c42583          	lw	a1,28(s0)
   13818:	00090693          	mv	a3,s2
   1381c:	00098613          	mv	a2,s3
   13820:	00048513          	mv	a0,s1
   13824:	000780e7          	jalr	a5
   13828:	00a04863          	bgtz	a0,13838 <__sflush_r+0x1fc>
   1382c:	00c45783          	lhu	a5,12(s0)
   13830:	0407e793          	ori	a5,a5,64
   13834:	fa5ff06f          	j	137d8 <__sflush_r+0x19c>
   13838:	00a989b3          	add	s3,s3,a0
   1383c:	40a90933          	sub	s2,s2,a0
   13840:	fcdff06f          	j	1380c <__sflush_r+0x1d0>

00013844 <_fflush_r>:
   13844:	fe010113          	addi	sp,sp,-32
   13848:	00812c23          	sw	s0,24(sp)
   1384c:	00112e23          	sw	ra,28(sp)
   13850:	00050413          	mv	s0,a0
   13854:	00050c63          	beqz	a0,1386c <_fflush_r+0x28>
   13858:	03852783          	lw	a5,56(a0)
   1385c:	00079863          	bnez	a5,1386c <_fflush_r+0x28>
   13860:	00b12623          	sw	a1,12(sp)
   13864:	170000ef          	jal	ra,139d4 <__sinit>
   13868:	00c12583          	lw	a1,12(sp)
   1386c:	00c59783          	lh	a5,12(a1)
   13870:	00078c63          	beqz	a5,13888 <_fflush_r+0x44>
   13874:	00040513          	mv	a0,s0
   13878:	01812403          	lw	s0,24(sp)
   1387c:	01c12083          	lw	ra,28(sp)
   13880:	02010113          	addi	sp,sp,32
   13884:	db9ff06f          	j	1363c <__sflush_r>
   13888:	01c12083          	lw	ra,28(sp)
   1388c:	01812403          	lw	s0,24(sp)
   13890:	00000513          	li	a0,0
   13894:	02010113          	addi	sp,sp,32
   13898:	00008067          	ret

0001389c <fflush>:
   1389c:	00050593          	mv	a1,a0
   138a0:	00051a63          	bnez	a0,138b4 <fflush+0x18>
   138a4:	8181a503          	lw	a0,-2024(gp) # 23c60 <_global_impure_ptr>
   138a8:	000145b7          	lui	a1,0x14
   138ac:	84458593          	addi	a1,a1,-1980 # 13844 <_fflush_r>
   138b0:	3290006f          	j	143d8 <_fwalk_reent>
   138b4:	8201a503          	lw	a0,-2016(gp) # 23c68 <_impure_ptr>
   138b8:	f8dff06f          	j	13844 <_fflush_r>

000138bc <__fp_lock>:
   138bc:	00000513          	li	a0,0
   138c0:	00008067          	ret

000138c4 <std>:
   138c4:	ff010113          	addi	sp,sp,-16
   138c8:	00812423          	sw	s0,8(sp)
   138cc:	00112623          	sw	ra,12(sp)
   138d0:	00050413          	mv	s0,a0
   138d4:	00b51623          	sh	a1,12(a0)
   138d8:	00c51723          	sh	a2,14(a0)
   138dc:	00052023          	sw	zero,0(a0)
   138e0:	00052223          	sw	zero,4(a0)
   138e4:	00052423          	sw	zero,8(a0)
   138e8:	06052223          	sw	zero,100(a0)
   138ec:	00052823          	sw	zero,16(a0)
   138f0:	00052a23          	sw	zero,20(a0)
   138f4:	00052c23          	sw	zero,24(a0)
   138f8:	00800613          	li	a2,8
   138fc:	00000593          	li	a1,0
   13900:	05c50513          	addi	a0,a0,92
   13904:	c14fd0ef          	jal	ra,10d18 <memset>
   13908:	000187b7          	lui	a5,0x18
   1390c:	f0478793          	addi	a5,a5,-252 # 17f04 <__sread>
   13910:	02f42023          	sw	a5,32(s0)
   13914:	000187b7          	lui	a5,0x18
   13918:	f5c78793          	addi	a5,a5,-164 # 17f5c <__swrite>
   1391c:	02f42223          	sw	a5,36(s0)
   13920:	000187b7          	lui	a5,0x18
   13924:	fe078793          	addi	a5,a5,-32 # 17fe0 <__sseek>
   13928:	02f42423          	sw	a5,40(s0)
   1392c:	000187b7          	lui	a5,0x18
   13930:	03878793          	addi	a5,a5,56 # 18038 <__sclose>
   13934:	00842e23          	sw	s0,28(s0)
   13938:	02f42623          	sw	a5,44(s0)
   1393c:	00c12083          	lw	ra,12(sp)
   13940:	00812403          	lw	s0,8(sp)
   13944:	01010113          	addi	sp,sp,16
   13948:	00008067          	ret

0001394c <_cleanup_r>:
   1394c:	0001b5b7          	lui	a1,0x1b
   13950:	f8858593          	addi	a1,a1,-120 # 1af88 <_fclose_r>
   13954:	2850006f          	j	143d8 <_fwalk_reent>

00013958 <__fp_unlock>:
   13958:	00000513          	li	a0,0
   1395c:	00008067          	ret

00013960 <__sfmoreglue>:
   13960:	ff010113          	addi	sp,sp,-16
   13964:	00912223          	sw	s1,4(sp)
   13968:	06800613          	li	a2,104
   1396c:	fff58493          	addi	s1,a1,-1
   13970:	02c484b3          	mul	s1,s1,a2
   13974:	01212023          	sw	s2,0(sp)
   13978:	00058913          	mv	s2,a1
   1397c:	00812423          	sw	s0,8(sp)
   13980:	00112623          	sw	ra,12(sp)
   13984:	07448593          	addi	a1,s1,116
   13988:	d31fc0ef          	jal	ra,106b8 <_malloc_r>
   1398c:	00050413          	mv	s0,a0
   13990:	02050063          	beqz	a0,139b0 <__sfmoreglue+0x50>
   13994:	00052023          	sw	zero,0(a0)
   13998:	01252223          	sw	s2,4(a0)
   1399c:	00c50513          	addi	a0,a0,12
   139a0:	00a42423          	sw	a0,8(s0)
   139a4:	06848613          	addi	a2,s1,104
   139a8:	00000593          	li	a1,0
   139ac:	b6cfd0ef          	jal	ra,10d18 <memset>
   139b0:	00040513          	mv	a0,s0
   139b4:	00c12083          	lw	ra,12(sp)
   139b8:	00812403          	lw	s0,8(sp)
   139bc:	00412483          	lw	s1,4(sp)
   139c0:	00012903          	lw	s2,0(sp)
   139c4:	01010113          	addi	sp,sp,16
   139c8:	00008067          	ret

000139cc <_cleanup>:
   139cc:	8181a503          	lw	a0,-2024(gp) # 23c60 <_global_impure_ptr>
   139d0:	f7dff06f          	j	1394c <_cleanup_r>

000139d4 <__sinit>:
   139d4:	03852783          	lw	a5,56(a0)
   139d8:	06079e63          	bnez	a5,13a54 <__sinit+0x80>
   139dc:	ff010113          	addi	sp,sp,-16
   139e0:	000147b7          	lui	a5,0x14
   139e4:	00112623          	sw	ra,12(sp)
   139e8:	00812423          	sw	s0,8(sp)
   139ec:	94c78793          	addi	a5,a5,-1716 # 1394c <_cleanup_r>
   139f0:	02f52e23          	sw	a5,60(a0)
   139f4:	00300793          	li	a5,3
   139f8:	2ef52223          	sw	a5,740(a0)
   139fc:	2ec50793          	addi	a5,a0,748
   13a00:	00050413          	mv	s0,a0
   13a04:	2ef52423          	sw	a5,744(a0)
   13a08:	2e052023          	sw	zero,736(a0)
   13a0c:	00452503          	lw	a0,4(a0)
   13a10:	00000613          	li	a2,0
   13a14:	00400593          	li	a1,4
   13a18:	eadff0ef          	jal	ra,138c4 <std>
   13a1c:	00842503          	lw	a0,8(s0)
   13a20:	00100613          	li	a2,1
   13a24:	00900593          	li	a1,9
   13a28:	e9dff0ef          	jal	ra,138c4 <std>
   13a2c:	00c42503          	lw	a0,12(s0)
   13a30:	00200613          	li	a2,2
   13a34:	01200593          	li	a1,18
   13a38:	e8dff0ef          	jal	ra,138c4 <std>
   13a3c:	00100793          	li	a5,1
   13a40:	02f42c23          	sw	a5,56(s0)
   13a44:	00c12083          	lw	ra,12(sp)
   13a48:	00812403          	lw	s0,8(sp)
   13a4c:	01010113          	addi	sp,sp,16
   13a50:	00008067          	ret
   13a54:	00008067          	ret

00013a58 <__sfp>:
   13a58:	ff010113          	addi	sp,sp,-16
   13a5c:	00912223          	sw	s1,4(sp)
   13a60:	8181a483          	lw	s1,-2024(gp) # 23c60 <_global_impure_ptr>
   13a64:	01212023          	sw	s2,0(sp)
   13a68:	00112623          	sw	ra,12(sp)
   13a6c:	0384a783          	lw	a5,56(s1)
   13a70:	00812423          	sw	s0,8(sp)
   13a74:	00050913          	mv	s2,a0
   13a78:	00079663          	bnez	a5,13a84 <__sfp+0x2c>
   13a7c:	00048513          	mv	a0,s1
   13a80:	f55ff0ef          	jal	ra,139d4 <__sinit>
   13a84:	2e048493          	addi	s1,s1,736
   13a88:	0084a403          	lw	s0,8(s1)
   13a8c:	0044a783          	lw	a5,4(s1)
   13a90:	fff78793          	addi	a5,a5,-1
   13a94:	0007da63          	bgez	a5,13aa8 <__sfp+0x50>
   13a98:	0004a783          	lw	a5,0(s1)
   13a9c:	08078063          	beqz	a5,13b1c <__sfp+0xc4>
   13aa0:	0004a483          	lw	s1,0(s1)
   13aa4:	fe5ff06f          	j	13a88 <__sfp+0x30>
   13aa8:	00c41703          	lh	a4,12(s0)
   13aac:	06071463          	bnez	a4,13b14 <__sfp+0xbc>
   13ab0:	ffff07b7          	lui	a5,0xffff0
   13ab4:	00178793          	addi	a5,a5,1 # ffff0001 <_end+0xfffc9b21>
   13ab8:	06042223          	sw	zero,100(s0)
   13abc:	00042023          	sw	zero,0(s0)
   13ac0:	00042223          	sw	zero,4(s0)
   13ac4:	00042423          	sw	zero,8(s0)
   13ac8:	00f42623          	sw	a5,12(s0)
   13acc:	00042823          	sw	zero,16(s0)
   13ad0:	00042a23          	sw	zero,20(s0)
   13ad4:	00042c23          	sw	zero,24(s0)
   13ad8:	00800613          	li	a2,8
   13adc:	00000593          	li	a1,0
   13ae0:	05c40513          	addi	a0,s0,92
   13ae4:	a34fd0ef          	jal	ra,10d18 <memset>
   13ae8:	02042823          	sw	zero,48(s0)
   13aec:	02042a23          	sw	zero,52(s0)
   13af0:	04042223          	sw	zero,68(s0)
   13af4:	04042423          	sw	zero,72(s0)
   13af8:	00040513          	mv	a0,s0
   13afc:	00c12083          	lw	ra,12(sp)
   13b00:	00812403          	lw	s0,8(sp)
   13b04:	00412483          	lw	s1,4(sp)
   13b08:	00012903          	lw	s2,0(sp)
   13b0c:	01010113          	addi	sp,sp,16
   13b10:	00008067          	ret
   13b14:	06840413          	addi	s0,s0,104
   13b18:	f79ff06f          	j	13a90 <__sfp+0x38>
   13b1c:	00400593          	li	a1,4
   13b20:	00090513          	mv	a0,s2
   13b24:	e3dff0ef          	jal	ra,13960 <__sfmoreglue>
   13b28:	00a4a023          	sw	a0,0(s1)
   13b2c:	f6051ae3          	bnez	a0,13aa0 <__sfp+0x48>
   13b30:	00c00793          	li	a5,12
   13b34:	00f92023          	sw	a5,0(s2)
   13b38:	00000413          	li	s0,0
   13b3c:	fbdff06f          	j	13af8 <__sfp+0xa0>

00013b40 <__sfp_lock_acquire>:
   13b40:	00008067          	ret

00013b44 <__sfp_lock_release>:
   13b44:	00008067          	ret

00013b48 <__sinit_lock_acquire>:
   13b48:	00008067          	ret

00013b4c <__sinit_lock_release>:
   13b4c:	00008067          	ret

00013b50 <__fp_lock_all>:
   13b50:	8201a503          	lw	a0,-2016(gp) # 23c68 <_impure_ptr>
   13b54:	000145b7          	lui	a1,0x14
   13b58:	8bc58593          	addi	a1,a1,-1860 # 138bc <__fp_lock>
   13b5c:	7dc0006f          	j	14338 <_fwalk>

00013b60 <__fp_unlock_all>:
   13b60:	8201a503          	lw	a0,-2016(gp) # 23c68 <_impure_ptr>
   13b64:	000145b7          	lui	a1,0x14
   13b68:	95858593          	addi	a1,a1,-1704 # 13958 <__fp_unlock>
   13b6c:	7cc0006f          	j	14338 <_fwalk>

00013b70 <_malloc_trim_r>:
   13b70:	fe010113          	addi	sp,sp,-32
   13b74:	01212823          	sw	s2,16(sp)
   13b78:	00023937          	lui	s2,0x23
   13b7c:	00812c23          	sw	s0,24(sp)
   13b80:	00912a23          	sw	s1,20(sp)
   13b84:	01312623          	sw	s3,12(sp)
   13b88:	00058413          	mv	s0,a1
   13b8c:	00112e23          	sw	ra,28(sp)
   13b90:	00050993          	mv	s3,a0
   13b94:	6d090913          	addi	s2,s2,1744 # 236d0 <__malloc_av_>
   13b98:	a5cfd0ef          	jal	ra,10df4 <__malloc_lock>
   13b9c:	00892783          	lw	a5,8(s2)
   13ba0:	00001737          	lui	a4,0x1
   13ba4:	0047a483          	lw	s1,4(a5)
   13ba8:	fef70793          	addi	a5,a4,-17 # fef <_start-0xf011>
   13bac:	40878433          	sub	s0,a5,s0
   13bb0:	ffc4f493          	andi	s1,s1,-4
   13bb4:	00940433          	add	s0,s0,s1
   13bb8:	00c45413          	srli	s0,s0,0xc
   13bbc:	fff40413          	addi	s0,s0,-1
   13bc0:	00c41413          	slli	s0,s0,0xc
   13bc4:	02e45663          	ble	a4,s0,13bf0 <_malloc_trim_r+0x80>
   13bc8:	00098513          	mv	a0,s3
   13bcc:	a2cfd0ef          	jal	ra,10df8 <__malloc_unlock>
   13bd0:	00000513          	li	a0,0
   13bd4:	01c12083          	lw	ra,28(sp)
   13bd8:	01812403          	lw	s0,24(sp)
   13bdc:	01412483          	lw	s1,20(sp)
   13be0:	01012903          	lw	s2,16(sp)
   13be4:	00c12983          	lw	s3,12(sp)
   13be8:	02010113          	addi	sp,sp,32
   13bec:	00008067          	ret
   13bf0:	00000593          	li	a1,0
   13bf4:	00098513          	mv	a0,s3
   13bf8:	c1cfd0ef          	jal	ra,11014 <_sbrk_r>
   13bfc:	00892783          	lw	a5,8(s2)
   13c00:	009787b3          	add	a5,a5,s1
   13c04:	fcf512e3          	bne	a0,a5,13bc8 <_malloc_trim_r+0x58>
   13c08:	408005b3          	neg	a1,s0
   13c0c:	00098513          	mv	a0,s3
   13c10:	c04fd0ef          	jal	ra,11014 <_sbrk_r>
   13c14:	fff00793          	li	a5,-1
   13c18:	02f51c63          	bne	a0,a5,13c50 <_malloc_trim_r+0xe0>
   13c1c:	00000593          	li	a1,0
   13c20:	00098513          	mv	a0,s3
   13c24:	bf0fd0ef          	jal	ra,11014 <_sbrk_r>
   13c28:	00892703          	lw	a4,8(s2)
   13c2c:	00f00693          	li	a3,15
   13c30:	40e507b3          	sub	a5,a0,a4
   13c34:	f8f6dae3          	ble	a5,a3,13bc8 <_malloc_trim_r+0x58>
   13c38:	8241a683          	lw	a3,-2012(gp) # 23c6c <__malloc_sbrk_base>
   13c3c:	0017e793          	ori	a5,a5,1
   13c40:	00f72223          	sw	a5,4(a4)
   13c44:	40d50533          	sub	a0,a0,a3
   13c48:	86a1a023          	sw	a0,-1952(gp) # 23ca8 <__malloc_current_mallinfo>
   13c4c:	f7dff06f          	j	13bc8 <_malloc_trim_r+0x58>
   13c50:	00892783          	lw	a5,8(s2)
   13c54:	408484b3          	sub	s1,s1,s0
   13c58:	0014e493          	ori	s1,s1,1
   13c5c:	0097a223          	sw	s1,4(a5)
   13c60:	8601a783          	lw	a5,-1952(gp) # 23ca8 <__malloc_current_mallinfo>
   13c64:	00098513          	mv	a0,s3
   13c68:	40878433          	sub	s0,a5,s0
   13c6c:	8681a023          	sw	s0,-1952(gp) # 23ca8 <__malloc_current_mallinfo>
   13c70:	988fd0ef          	jal	ra,10df8 <__malloc_unlock>
   13c74:	00100513          	li	a0,1
   13c78:	f5dff06f          	j	13bd4 <_malloc_trim_r+0x64>

00013c7c <_free_r>:
   13c7c:	24058c63          	beqz	a1,13ed4 <_free_r+0x258>
   13c80:	ff010113          	addi	sp,sp,-16
   13c84:	00812423          	sw	s0,8(sp)
   13c88:	00912223          	sw	s1,4(sp)
   13c8c:	00050413          	mv	s0,a0
   13c90:	00058493          	mv	s1,a1
   13c94:	00112623          	sw	ra,12(sp)
   13c98:	95cfd0ef          	jal	ra,10df4 <__malloc_lock>
   13c9c:	ffc4a503          	lw	a0,-4(s1)
   13ca0:	00023637          	lui	a2,0x23
   13ca4:	ff848693          	addi	a3,s1,-8
   13ca8:	ffe57793          	andi	a5,a0,-2
   13cac:	6d060813          	addi	a6,a2,1744 # 236d0 <__malloc_av_>
   13cb0:	00f685b3          	add	a1,a3,a5
   13cb4:	0045a703          	lw	a4,4(a1)
   13cb8:	00882803          	lw	a6,8(a6)
   13cbc:	6d060613          	addi	a2,a2,1744
   13cc0:	ffc77713          	andi	a4,a4,-4
   13cc4:	00157513          	andi	a0,a0,1
   13cc8:	06b81063          	bne	a6,a1,13d28 <_free_r+0xac>
   13ccc:	00e787b3          	add	a5,a5,a4
   13cd0:	02051063          	bnez	a0,13cf0 <_free_r+0x74>
   13cd4:	ff84a703          	lw	a4,-8(s1)
   13cd8:	40e686b3          	sub	a3,a3,a4
   13cdc:	0086a583          	lw	a1,8(a3)
   13ce0:	00e787b3          	add	a5,a5,a4
   13ce4:	00c6a703          	lw	a4,12(a3)
   13ce8:	00e5a623          	sw	a4,12(a1)
   13cec:	00b72423          	sw	a1,8(a4)
   13cf0:	0017e713          	ori	a4,a5,1
   13cf4:	00e6a223          	sw	a4,4(a3)
   13cf8:	8281a703          	lw	a4,-2008(gp) # 23c70 <__malloc_trim_threshold>
   13cfc:	00d62423          	sw	a3,8(a2)
   13d00:	00e7e863          	bltu	a5,a4,13d10 <_free_r+0x94>
   13d04:	83c1a583          	lw	a1,-1988(gp) # 23c84 <__malloc_top_pad>
   13d08:	00040513          	mv	a0,s0
   13d0c:	e65ff0ef          	jal	ra,13b70 <_malloc_trim_r>
   13d10:	00040513          	mv	a0,s0
   13d14:	00812403          	lw	s0,8(sp)
   13d18:	00c12083          	lw	ra,12(sp)
   13d1c:	00412483          	lw	s1,4(sp)
   13d20:	01010113          	addi	sp,sp,16
   13d24:	8d4fd06f          	j	10df8 <__malloc_unlock>
   13d28:	00e5a223          	sw	a4,4(a1)
   13d2c:	00000813          	li	a6,0
   13d30:	02051663          	bnez	a0,13d5c <_free_r+0xe0>
   13d34:	ff84a503          	lw	a0,-8(s1)
   13d38:	000238b7          	lui	a7,0x23
   13d3c:	6d888893          	addi	a7,a7,1752 # 236d8 <__malloc_av_+0x8>
   13d40:	40a686b3          	sub	a3,a3,a0
   13d44:	00a787b3          	add	a5,a5,a0
   13d48:	0086a503          	lw	a0,8(a3)
   13d4c:	0b150663          	beq	a0,a7,13df8 <_free_r+0x17c>
   13d50:	00c6a883          	lw	a7,12(a3)
   13d54:	01152623          	sw	a7,12(a0)
   13d58:	00a8a423          	sw	a0,8(a7)
   13d5c:	00e58533          	add	a0,a1,a4
   13d60:	00452503          	lw	a0,4(a0)
   13d64:	00157513          	andi	a0,a0,1
   13d68:	02051863          	bnez	a0,13d98 <_free_r+0x11c>
   13d6c:	00e787b3          	add	a5,a5,a4
   13d70:	0085a703          	lw	a4,8(a1)
   13d74:	08081663          	bnez	a6,13e00 <_free_r+0x184>
   13d78:	00023537          	lui	a0,0x23
   13d7c:	6d850513          	addi	a0,a0,1752 # 236d8 <__malloc_av_+0x8>
   13d80:	08a71063          	bne	a4,a0,13e00 <_free_r+0x184>
   13d84:	00d62a23          	sw	a3,20(a2)
   13d88:	00d62823          	sw	a3,16(a2)
   13d8c:	00e6a623          	sw	a4,12(a3)
   13d90:	00e6a423          	sw	a4,8(a3)
   13d94:	00100813          	li	a6,1
   13d98:	0017e713          	ori	a4,a5,1
   13d9c:	00e6a223          	sw	a4,4(a3)
   13da0:	00f68733          	add	a4,a3,a5
   13da4:	00f72023          	sw	a5,0(a4)
   13da8:	f60814e3          	bnez	a6,13d10 <_free_r+0x94>
   13dac:	1ff00713          	li	a4,511
   13db0:	06f76063          	bltu	a4,a5,13e10 <_free_r+0x194>
   13db4:	0037d793          	srli	a5,a5,0x3
   13db8:	4027d593          	srai	a1,a5,0x2
   13dbc:	00100713          	li	a4,1
   13dc0:	00b71733          	sll	a4,a4,a1
   13dc4:	00462583          	lw	a1,4(a2)
   13dc8:	00178793          	addi	a5,a5,1
   13dcc:	00379793          	slli	a5,a5,0x3
   13dd0:	00f607b3          	add	a5,a2,a5
   13dd4:	00b76733          	or	a4,a4,a1
   13dd8:	00e62223          	sw	a4,4(a2)
   13ddc:	0007a703          	lw	a4,0(a5)
   13de0:	ff878613          	addi	a2,a5,-8
   13de4:	00c6a623          	sw	a2,12(a3)
   13de8:	00e6a423          	sw	a4,8(a3)
   13dec:	00d7a023          	sw	a3,0(a5)
   13df0:	00d72623          	sw	a3,12(a4)
   13df4:	f1dff06f          	j	13d10 <_free_r+0x94>
   13df8:	00100813          	li	a6,1
   13dfc:	f61ff06f          	j	13d5c <_free_r+0xe0>
   13e00:	00c5a583          	lw	a1,12(a1)
   13e04:	00b72623          	sw	a1,12(a4)
   13e08:	00e5a423          	sw	a4,8(a1)
   13e0c:	f8dff06f          	j	13d98 <_free_r+0x11c>
   13e10:	0097d593          	srli	a1,a5,0x9
   13e14:	00400713          	li	a4,4
   13e18:	04b76863          	bltu	a4,a1,13e68 <_free_r+0x1ec>
   13e1c:	0067d713          	srli	a4,a5,0x6
   13e20:	03870713          	addi	a4,a4,56
   13e24:	00170593          	addi	a1,a4,1
   13e28:	00359593          	slli	a1,a1,0x3
   13e2c:	00b605b3          	add	a1,a2,a1
   13e30:	ff858513          	addi	a0,a1,-8
   13e34:	0005a583          	lw	a1,0(a1)
   13e38:	08b51463          	bne	a0,a1,13ec0 <_free_r+0x244>
   13e3c:	00100793          	li	a5,1
   13e40:	40275713          	srai	a4,a4,0x2
   13e44:	00e79733          	sll	a4,a5,a4
   13e48:	00462783          	lw	a5,4(a2)
   13e4c:	00f76733          	or	a4,a4,a5
   13e50:	00e62223          	sw	a4,4(a2)
   13e54:	00a6a623          	sw	a0,12(a3)
   13e58:	00b6a423          	sw	a1,8(a3)
   13e5c:	00d52423          	sw	a3,8(a0)
   13e60:	00d5a623          	sw	a3,12(a1)
   13e64:	eadff06f          	j	13d10 <_free_r+0x94>
   13e68:	01400713          	li	a4,20
   13e6c:	00b76663          	bltu	a4,a1,13e78 <_free_r+0x1fc>
   13e70:	05b58713          	addi	a4,a1,91
   13e74:	fb1ff06f          	j	13e24 <_free_r+0x1a8>
   13e78:	05400713          	li	a4,84
   13e7c:	00b76863          	bltu	a4,a1,13e8c <_free_r+0x210>
   13e80:	00c7d713          	srli	a4,a5,0xc
   13e84:	06e70713          	addi	a4,a4,110
   13e88:	f9dff06f          	j	13e24 <_free_r+0x1a8>
   13e8c:	15400713          	li	a4,340
   13e90:	00b76863          	bltu	a4,a1,13ea0 <_free_r+0x224>
   13e94:	00f7d713          	srli	a4,a5,0xf
   13e98:	07770713          	addi	a4,a4,119
   13e9c:	f89ff06f          	j	13e24 <_free_r+0x1a8>
   13ea0:	55400513          	li	a0,1364
   13ea4:	07e00713          	li	a4,126
   13ea8:	f6b56ee3          	bltu	a0,a1,13e24 <_free_r+0x1a8>
   13eac:	0127d713          	srli	a4,a5,0x12
   13eb0:	07c70713          	addi	a4,a4,124
   13eb4:	f71ff06f          	j	13e24 <_free_r+0x1a8>
   13eb8:	0085a583          	lw	a1,8(a1)
   13ebc:	00b50863          	beq	a0,a1,13ecc <_free_r+0x250>
   13ec0:	0045a703          	lw	a4,4(a1)
   13ec4:	ffc77713          	andi	a4,a4,-4
   13ec8:	fee7e8e3          	bltu	a5,a4,13eb8 <_free_r+0x23c>
   13ecc:	00c5a503          	lw	a0,12(a1)
   13ed0:	f85ff06f          	j	13e54 <_free_r+0x1d8>
   13ed4:	00008067          	ret

00013ed8 <__sfvwrite_r>:
   13ed8:	00862783          	lw	a5,8(a2)
   13edc:	00079863          	bnez	a5,13eec <__sfvwrite_r+0x14>
   13ee0:	00000793          	li	a5,0
   13ee4:	00078513          	mv	a0,a5
   13ee8:	00008067          	ret
   13eec:	00c5d783          	lhu	a5,12(a1)
   13ef0:	fb010113          	addi	sp,sp,-80
   13ef4:	04812423          	sw	s0,72(sp)
   13ef8:	05212023          	sw	s2,64(sp)
   13efc:	03512a23          	sw	s5,52(sp)
   13f00:	04112623          	sw	ra,76(sp)
   13f04:	04912223          	sw	s1,68(sp)
   13f08:	03312e23          	sw	s3,60(sp)
   13f0c:	03412c23          	sw	s4,56(sp)
   13f10:	03612823          	sw	s6,48(sp)
   13f14:	03712623          	sw	s7,44(sp)
   13f18:	03812423          	sw	s8,40(sp)
   13f1c:	03912223          	sw	s9,36(sp)
   13f20:	03a12023          	sw	s10,32(sp)
   13f24:	01b12e23          	sw	s11,28(sp)
   13f28:	0087f793          	andi	a5,a5,8
   13f2c:	00060a93          	mv	s5,a2
   13f30:	00058413          	mv	s0,a1
   13f34:	00050913          	mv	s2,a0
   13f38:	0e078263          	beqz	a5,1401c <__sfvwrite_r+0x144>
   13f3c:	0105a783          	lw	a5,16(a1)
   13f40:	0c078e63          	beqz	a5,1401c <__sfvwrite_r+0x144>
   13f44:	00c45783          	lhu	a5,12(s0)
   13f48:	000aaa03          	lw	s4,0(s5)
   13f4c:	0027f713          	andi	a4,a5,2
   13f50:	16071a63          	bnez	a4,140c4 <__sfvwrite_r+0x1ec>
   13f54:	0017f793          	andi	a5,a5,1
   13f58:	20078463          	beqz	a5,14160 <__sfvwrite_r+0x288>
   13f5c:	00000b93          	li	s7,0
   13f60:	00000513          	li	a0,0
   13f64:	00000b13          	li	s6,0
   13f68:	00000993          	li	s3,0
   13f6c:	36098463          	beqz	s3,142d4 <__sfvwrite_r+0x3fc>
   13f70:	02051263          	bnez	a0,13f94 <__sfvwrite_r+0xbc>
   13f74:	00098613          	mv	a2,s3
   13f78:	00a00593          	li	a1,10
   13f7c:	000b0513          	mv	a0,s6
   13f80:	78c020ef          	jal	ra,1670c <memchr>
   13f84:	00198b93          	addi	s7,s3,1
   13f88:	00050663          	beqz	a0,13f94 <__sfvwrite_r+0xbc>
   13f8c:	00150513          	addi	a0,a0,1
   13f90:	41650bb3          	sub	s7,a0,s6
   13f94:	000b8c13          	mv	s8,s7
   13f98:	0179f463          	bleu	s7,s3,13fa0 <__sfvwrite_r+0xc8>
   13f9c:	00098c13          	mv	s8,s3
   13fa0:	00042503          	lw	a0,0(s0)
   13fa4:	01042783          	lw	a5,16(s0)
   13fa8:	01442683          	lw	a3,20(s0)
   13fac:	32a7fe63          	bleu	a0,a5,142e8 <__sfvwrite_r+0x410>
   13fb0:	00842483          	lw	s1,8(s0)
   13fb4:	009684b3          	add	s1,a3,s1
   13fb8:	3384d863          	ble	s8,s1,142e8 <__sfvwrite_r+0x410>
   13fbc:	000b0593          	mv	a1,s6
   13fc0:	00048613          	mv	a2,s1
   13fc4:	045020ef          	jal	ra,16808 <memmove>
   13fc8:	00042783          	lw	a5,0(s0)
   13fcc:	00040593          	mv	a1,s0
   13fd0:	00090513          	mv	a0,s2
   13fd4:	009787b3          	add	a5,a5,s1
   13fd8:	00f42023          	sw	a5,0(s0)
   13fdc:	869ff0ef          	jal	ra,13844 <_fflush_r>
   13fe0:	16051663          	bnez	a0,1414c <__sfvwrite_r+0x274>
   13fe4:	409b8bb3          	sub	s7,s7,s1
   13fe8:	00100513          	li	a0,1
   13fec:	000b9a63          	bnez	s7,14000 <__sfvwrite_r+0x128>
   13ff0:	00040593          	mv	a1,s0
   13ff4:	00090513          	mv	a0,s2
   13ff8:	84dff0ef          	jal	ra,13844 <_fflush_r>
   13ffc:	14051863          	bnez	a0,1414c <__sfvwrite_r+0x274>
   14000:	008aa783          	lw	a5,8(s5)
   14004:	009b0b33          	add	s6,s6,s1
   14008:	409989b3          	sub	s3,s3,s1
   1400c:	409784b3          	sub	s1,a5,s1
   14010:	009aa423          	sw	s1,8(s5)
   14014:	f4049ce3          	bnez	s1,13f6c <__sfvwrite_r+0x94>
   14018:	0680006f          	j	14080 <__sfvwrite_r+0x1a8>
   1401c:	00040593          	mv	a1,s0
   14020:	00090513          	mv	a0,s2
   14024:	b5cff0ef          	jal	ra,13380 <__swsetup_r>
   14028:	fff00793          	li	a5,-1
   1402c:	f0050ce3          	beqz	a0,13f44 <__sfvwrite_r+0x6c>
   14030:	0540006f          	j	14084 <__sfvwrite_r+0x1ac>
   14034:	000a2983          	lw	s3,0(s4)
   14038:	004a2483          	lw	s1,4(s4)
   1403c:	008a0a13          	addi	s4,s4,8
   14040:	fe048ae3          	beqz	s1,14034 <__sfvwrite_r+0x15c>
   14044:	00048693          	mv	a3,s1
   14048:	009b7463          	bleu	s1,s6,14050 <__sfvwrite_r+0x178>
   1404c:	000b0693          	mv	a3,s6
   14050:	02442783          	lw	a5,36(s0)
   14054:	01c42583          	lw	a1,28(s0)
   14058:	00098613          	mv	a2,s3
   1405c:	00090513          	mv	a0,s2
   14060:	000780e7          	jalr	a5
   14064:	0ea05463          	blez	a0,1414c <__sfvwrite_r+0x274>
   14068:	008aa783          	lw	a5,8(s5)
   1406c:	00a989b3          	add	s3,s3,a0
   14070:	40a484b3          	sub	s1,s1,a0
   14074:	40a78533          	sub	a0,a5,a0
   14078:	00aaa423          	sw	a0,8(s5)
   1407c:	fc0512e3          	bnez	a0,14040 <__sfvwrite_r+0x168>
   14080:	00000793          	li	a5,0
   14084:	04c12083          	lw	ra,76(sp)
   14088:	04812403          	lw	s0,72(sp)
   1408c:	04412483          	lw	s1,68(sp)
   14090:	04012903          	lw	s2,64(sp)
   14094:	03c12983          	lw	s3,60(sp)
   14098:	03812a03          	lw	s4,56(sp)
   1409c:	03412a83          	lw	s5,52(sp)
   140a0:	03012b03          	lw	s6,48(sp)
   140a4:	02c12b83          	lw	s7,44(sp)
   140a8:	02812c03          	lw	s8,40(sp)
   140ac:	02412c83          	lw	s9,36(sp)
   140b0:	02012d03          	lw	s10,32(sp)
   140b4:	01c12d83          	lw	s11,28(sp)
   140b8:	00078513          	mv	a0,a5
   140bc:	05010113          	addi	sp,sp,80
   140c0:	00008067          	ret
   140c4:	80000b37          	lui	s6,0x80000
   140c8:	00000993          	li	s3,0
   140cc:	00000493          	li	s1,0
   140d0:	c00b4b13          	xori	s6,s6,-1024
   140d4:	f6dff06f          	j	14040 <__sfvwrite_r+0x168>
   140d8:	000a2b03          	lw	s6,0(s4)
   140dc:	004a2483          	lw	s1,4(s4)
   140e0:	008a0a13          	addi	s4,s4,8
   140e4:	fe048ae3          	beqz	s1,140d8 <__sfvwrite_r+0x200>
   140e8:	00c45703          	lhu	a4,12(s0)
   140ec:	00842783          	lw	a5,8(s0)
   140f0:	00042503          	lw	a0,0(s0)
   140f4:	20077693          	andi	a3,a4,512
   140f8:	14068863          	beqz	a3,14248 <__sfvwrite_r+0x370>
   140fc:	0cf4e263          	bltu	s1,a5,141c0 <__sfvwrite_r+0x2e8>
   14100:	48077693          	andi	a3,a4,1152
   14104:	0a068e63          	beqz	a3,141c0 <__sfvwrite_r+0x2e8>
   14108:	01442d83          	lw	s11,20(s0)
   1410c:	01042583          	lw	a1,16(s0)
   14110:	03bc8db3          	mul	s11,s9,s11
   14114:	40b509b3          	sub	s3,a0,a1
   14118:	00198793          	addi	a5,s3,1
   1411c:	009787b3          	add	a5,a5,s1
   14120:	03adcdb3          	div	s11,s11,s10
   14124:	00fdf463          	bleu	a5,s11,1412c <__sfvwrite_r+0x254>
   14128:	00078d93          	mv	s11,a5
   1412c:	40077713          	andi	a4,a4,1024
   14130:	0e070463          	beqz	a4,14218 <__sfvwrite_r+0x340>
   14134:	000d8593          	mv	a1,s11
   14138:	00090513          	mv	a0,s2
   1413c:	d7cfc0ef          	jal	ra,106b8 <_malloc_r>
   14140:	04051063          	bnez	a0,14180 <__sfvwrite_r+0x2a8>
   14144:	00c00793          	li	a5,12
   14148:	00f92023          	sw	a5,0(s2)
   1414c:	00c45783          	lhu	a5,12(s0)
   14150:	0407e793          	ori	a5,a5,64
   14154:	00f41623          	sh	a5,12(s0)
   14158:	fff00793          	li	a5,-1
   1415c:	f29ff06f          	j	14084 <__sfvwrite_r+0x1ac>
   14160:	80000bb7          	lui	s7,0x80000
   14164:	ffebcc13          	xori	s8,s7,-2
   14168:	00000b13          	li	s6,0
   1416c:	00000493          	li	s1,0
   14170:	fffbcb93          	not	s7,s7
   14174:	00300c93          	li	s9,3
   14178:	00200d13          	li	s10,2
   1417c:	f69ff06f          	j	140e4 <__sfvwrite_r+0x20c>
   14180:	01042583          	lw	a1,16(s0)
   14184:	00098613          	mv	a2,s3
   14188:	00a12623          	sw	a0,12(sp)
   1418c:	5a4020ef          	jal	ra,16730 <memcpy>
   14190:	00c45703          	lhu	a4,12(s0)
   14194:	00c12783          	lw	a5,12(sp)
   14198:	b7f77713          	andi	a4,a4,-1153
   1419c:	08076713          	ori	a4,a4,128
   141a0:	00e41623          	sh	a4,12(s0)
   141a4:	00f42823          	sw	a5,16(s0)
   141a8:	01b42a23          	sw	s11,20(s0)
   141ac:	013787b3          	add	a5,a5,s3
   141b0:	413d8db3          	sub	s11,s11,s3
   141b4:	00f42023          	sw	a5,0(s0)
   141b8:	01b42423          	sw	s11,8(s0)
   141bc:	00048793          	mv	a5,s1
   141c0:	00048993          	mv	s3,s1
   141c4:	00f4f463          	bleu	a5,s1,141cc <__sfvwrite_r+0x2f4>
   141c8:	00048793          	mv	a5,s1
   141cc:	00042503          	lw	a0,0(s0)
   141d0:	00078613          	mv	a2,a5
   141d4:	000b0593          	mv	a1,s6
   141d8:	00f12623          	sw	a5,12(sp)
   141dc:	62c020ef          	jal	ra,16808 <memmove>
   141e0:	00842703          	lw	a4,8(s0)
   141e4:	00c12783          	lw	a5,12(sp)
   141e8:	40f70733          	sub	a4,a4,a5
   141ec:	00e42423          	sw	a4,8(s0)
   141f0:	00042703          	lw	a4,0(s0)
   141f4:	00f707b3          	add	a5,a4,a5
   141f8:	00f42023          	sw	a5,0(s0)
   141fc:	008aa783          	lw	a5,8(s5)
   14200:	013b0b33          	add	s6,s6,s3
   14204:	413484b3          	sub	s1,s1,s3
   14208:	413789b3          	sub	s3,a5,s3
   1420c:	013aa423          	sw	s3,8(s5)
   14210:	ec099ae3          	bnez	s3,140e4 <__sfvwrite_r+0x20c>
   14214:	e6dff06f          	j	14080 <__sfvwrite_r+0x1a8>
   14218:	000d8613          	mv	a2,s11
   1421c:	00090513          	mv	a0,s2
   14220:	4b8030ef          	jal	ra,176d8 <_realloc_r>
   14224:	00050793          	mv	a5,a0
   14228:	f6051ee3          	bnez	a0,141a4 <__sfvwrite_r+0x2cc>
   1422c:	01042583          	lw	a1,16(s0)
   14230:	00090513          	mv	a0,s2
   14234:	a49ff0ef          	jal	ra,13c7c <_free_r>
   14238:	00c45783          	lhu	a5,12(s0)
   1423c:	f7f7f793          	andi	a5,a5,-129
   14240:	00f41623          	sh	a5,12(s0)
   14244:	f01ff06f          	j	14144 <__sfvwrite_r+0x26c>
   14248:	01042703          	lw	a4,16(s0)
   1424c:	00a76663          	bltu	a4,a0,14258 <__sfvwrite_r+0x380>
   14250:	01442683          	lw	a3,20(s0)
   14254:	04d4f663          	bleu	a3,s1,142a0 <__sfvwrite_r+0x3c8>
   14258:	00078993          	mv	s3,a5
   1425c:	00f4f463          	bleu	a5,s1,14264 <__sfvwrite_r+0x38c>
   14260:	00048993          	mv	s3,s1
   14264:	00098613          	mv	a2,s3
   14268:	000b0593          	mv	a1,s6
   1426c:	59c020ef          	jal	ra,16808 <memmove>
   14270:	00842783          	lw	a5,8(s0)
   14274:	00042703          	lw	a4,0(s0)
   14278:	413787b3          	sub	a5,a5,s3
   1427c:	01370733          	add	a4,a4,s3
   14280:	00f42423          	sw	a5,8(s0)
   14284:	00e42023          	sw	a4,0(s0)
   14288:	f6079ae3          	bnez	a5,141fc <__sfvwrite_r+0x324>
   1428c:	00040593          	mv	a1,s0
   14290:	00090513          	mv	a0,s2
   14294:	db0ff0ef          	jal	ra,13844 <_fflush_r>
   14298:	f60502e3          	beqz	a0,141fc <__sfvwrite_r+0x324>
   1429c:	eb1ff06f          	j	1414c <__sfvwrite_r+0x274>
   142a0:	00048793          	mv	a5,s1
   142a4:	009c7463          	bleu	s1,s8,142ac <__sfvwrite_r+0x3d4>
   142a8:	000b8793          	mv	a5,s7
   142ac:	02d7c7b3          	div	a5,a5,a3
   142b0:	02442703          	lw	a4,36(s0)
   142b4:	01c42583          	lw	a1,28(s0)
   142b8:	000b0613          	mv	a2,s6
   142bc:	00090513          	mv	a0,s2
   142c0:	02d786b3          	mul	a3,a5,a3
   142c4:	000700e7          	jalr	a4
   142c8:	00050993          	mv	s3,a0
   142cc:	f2a048e3          	bgtz	a0,141fc <__sfvwrite_r+0x324>
   142d0:	e7dff06f          	j	1414c <__sfvwrite_r+0x274>
   142d4:	000a2b03          	lw	s6,0(s4)
   142d8:	004a2983          	lw	s3,4(s4)
   142dc:	00000513          	li	a0,0
   142e0:	008a0a13          	addi	s4,s4,8
   142e4:	c89ff06f          	j	13f6c <__sfvwrite_r+0x94>
   142e8:	02dc4263          	blt	s8,a3,1430c <__sfvwrite_r+0x434>
   142ec:	02442783          	lw	a5,36(s0)
   142f0:	01c42583          	lw	a1,28(s0)
   142f4:	000b0613          	mv	a2,s6
   142f8:	00090513          	mv	a0,s2
   142fc:	000780e7          	jalr	a5
   14300:	00050493          	mv	s1,a0
   14304:	cea040e3          	bgtz	a0,13fe4 <__sfvwrite_r+0x10c>
   14308:	e45ff06f          	j	1414c <__sfvwrite_r+0x274>
   1430c:	000c0613          	mv	a2,s8
   14310:	000b0593          	mv	a1,s6
   14314:	4f4020ef          	jal	ra,16808 <memmove>
   14318:	00842783          	lw	a5,8(s0)
   1431c:	000c0493          	mv	s1,s8
   14320:	418787b3          	sub	a5,a5,s8
   14324:	00f42423          	sw	a5,8(s0)
   14328:	00042783          	lw	a5,0(s0)
   1432c:	018787b3          	add	a5,a5,s8
   14330:	00f42023          	sw	a5,0(s0)
   14334:	cb1ff06f          	j	13fe4 <__sfvwrite_r+0x10c>

00014338 <_fwalk>:
   14338:	fd010113          	addi	sp,sp,-48
   1433c:	02812423          	sw	s0,40(sp)
   14340:	03212023          	sw	s2,32(sp)
   14344:	01412c23          	sw	s4,24(sp)
   14348:	01512a23          	sw	s5,20(sp)
   1434c:	02112623          	sw	ra,44(sp)
   14350:	02912223          	sw	s1,36(sp)
   14354:	01312e23          	sw	s3,28(sp)
   14358:	2e050413          	addi	s0,a0,736
   1435c:	00000913          	li	s2,0
   14360:	00100a13          	li	s4,1
   14364:	fff00a93          	li	s5,-1
   14368:	02041663          	bnez	s0,14394 <_fwalk+0x5c>
   1436c:	02c12083          	lw	ra,44(sp)
   14370:	02812403          	lw	s0,40(sp)
   14374:	00090513          	mv	a0,s2
   14378:	02412483          	lw	s1,36(sp)
   1437c:	02012903          	lw	s2,32(sp)
   14380:	01c12983          	lw	s3,28(sp)
   14384:	01812a03          	lw	s4,24(sp)
   14388:	01412a83          	lw	s5,20(sp)
   1438c:	03010113          	addi	sp,sp,48
   14390:	00008067          	ret
   14394:	00842483          	lw	s1,8(s0)
   14398:	00442983          	lw	s3,4(s0)
   1439c:	fff98993          	addi	s3,s3,-1
   143a0:	0009d663          	bgez	s3,143ac <_fwalk+0x74>
   143a4:	00042403          	lw	s0,0(s0)
   143a8:	fc1ff06f          	j	14368 <_fwalk+0x30>
   143ac:	00c4d783          	lhu	a5,12(s1)
   143b0:	02fa7063          	bleu	a5,s4,143d0 <_fwalk+0x98>
   143b4:	00e49783          	lh	a5,14(s1)
   143b8:	01578c63          	beq	a5,s5,143d0 <_fwalk+0x98>
   143bc:	00048513          	mv	a0,s1
   143c0:	00b12623          	sw	a1,12(sp)
   143c4:	000580e7          	jalr	a1
   143c8:	00c12583          	lw	a1,12(sp)
   143cc:	00a96933          	or	s2,s2,a0
   143d0:	06848493          	addi	s1,s1,104
   143d4:	fc9ff06f          	j	1439c <_fwalk+0x64>

000143d8 <_fwalk_reent>:
   143d8:	fd010113          	addi	sp,sp,-48
   143dc:	02812423          	sw	s0,40(sp)
   143e0:	03212023          	sw	s2,32(sp)
   143e4:	01412c23          	sw	s4,24(sp)
   143e8:	01512a23          	sw	s5,20(sp)
   143ec:	01612823          	sw	s6,16(sp)
   143f0:	01712623          	sw	s7,12(sp)
   143f4:	02112623          	sw	ra,44(sp)
   143f8:	02912223          	sw	s1,36(sp)
   143fc:	01312e23          	sw	s3,28(sp)
   14400:	00050a13          	mv	s4,a0
   14404:	00058a93          	mv	s5,a1
   14408:	2e050413          	addi	s0,a0,736
   1440c:	00000913          	li	s2,0
   14410:	00100b13          	li	s6,1
   14414:	fff00b93          	li	s7,-1
   14418:	02041a63          	bnez	s0,1444c <_fwalk_reent+0x74>
   1441c:	02c12083          	lw	ra,44(sp)
   14420:	02812403          	lw	s0,40(sp)
   14424:	00090513          	mv	a0,s2
   14428:	02412483          	lw	s1,36(sp)
   1442c:	02012903          	lw	s2,32(sp)
   14430:	01c12983          	lw	s3,28(sp)
   14434:	01812a03          	lw	s4,24(sp)
   14438:	01412a83          	lw	s5,20(sp)
   1443c:	01012b03          	lw	s6,16(sp)
   14440:	00c12b83          	lw	s7,12(sp)
   14444:	03010113          	addi	sp,sp,48
   14448:	00008067          	ret
   1444c:	00842483          	lw	s1,8(s0)
   14450:	00442983          	lw	s3,4(s0)
   14454:	fff98993          	addi	s3,s3,-1
   14458:	0009d663          	bgez	s3,14464 <_fwalk_reent+0x8c>
   1445c:	00042403          	lw	s0,0(s0)
   14460:	fb9ff06f          	j	14418 <_fwalk_reent+0x40>
   14464:	00c4d783          	lhu	a5,12(s1)
   14468:	00fb7e63          	bleu	a5,s6,14484 <_fwalk_reent+0xac>
   1446c:	00e49783          	lh	a5,14(s1)
   14470:	01778a63          	beq	a5,s7,14484 <_fwalk_reent+0xac>
   14474:	00048593          	mv	a1,s1
   14478:	000a0513          	mv	a0,s4
   1447c:	000a80e7          	jalr	s5
   14480:	00a96933          	or	s2,s2,a0
   14484:	06848493          	addi	s1,s1,104
   14488:	fcdff06f          	j	14454 <_fwalk_reent+0x7c>

0001448c <eclear>:
   1448c:	01450793          	addi	a5,a0,20
   14490:	00250513          	addi	a0,a0,2
   14494:	fe051f23          	sh	zero,-2(a0)
   14498:	fef51ce3          	bne	a0,a5,14490 <eclear+0x4>
   1449c:	00008067          	ret

000144a0 <emov>:
   144a0:	00000793          	li	a5,0
   144a4:	01400713          	li	a4,20
   144a8:	00f506b3          	add	a3,a0,a5
   144ac:	0006d603          	lhu	a2,0(a3)
   144b0:	00f586b3          	add	a3,a1,a5
   144b4:	00278793          	addi	a5,a5,2
   144b8:	00c69023          	sh	a2,0(a3)
   144bc:	fee796e3          	bne	a5,a4,144a8 <emov+0x8>
   144c0:	00008067          	ret

000144c4 <ecleaz>:
   144c4:	01a50793          	addi	a5,a0,26
   144c8:	00250513          	addi	a0,a0,2
   144cc:	fe051f23          	sh	zero,-2(a0)
   144d0:	fef51ce3          	bne	a0,a5,144c8 <ecleaz+0x4>
   144d4:	00008067          	ret

000144d8 <emovz>:
   144d8:	00000793          	li	a5,0
   144dc:	01800713          	li	a4,24
   144e0:	00f506b3          	add	a3,a0,a5
   144e4:	0006d603          	lhu	a2,0(a3)
   144e8:	00f586b3          	add	a3,a1,a5
   144ec:	00278793          	addi	a5,a5,2
   144f0:	00c69023          	sh	a2,0(a3)
   144f4:	fee796e3          	bne	a5,a4,144e0 <emovz+0x8>
   144f8:	00059c23          	sh	zero,24(a1)
   144fc:	00008067          	ret

00014500 <ecmpm>:
   14500:	00400793          	li	a5,4
   14504:	01a00613          	li	a2,26
   14508:	00f50733          	add	a4,a0,a5
   1450c:	00075683          	lhu	a3,0(a4)
   14510:	00f58733          	add	a4,a1,a5
   14514:	00075703          	lhu	a4,0(a4)
   14518:	00e68a63          	beq	a3,a4,1452c <ecmpm+0x2c>
   1451c:	00100513          	li	a0,1
   14520:	00d76c63          	bltu	a4,a3,14538 <ecmpm+0x38>
   14524:	fff00513          	li	a0,-1
   14528:	00008067          	ret
   1452c:	00278793          	addi	a5,a5,2
   14530:	fcc79ce3          	bne	a5,a2,14508 <ecmpm+0x8>
   14534:	00000513          	li	a0,0
   14538:	00008067          	ret

0001453c <eshdn1>:
   1453c:	00450693          	addi	a3,a0,4
   14540:	00000793          	li	a5,0
   14544:	01a50513          	addi	a0,a0,26
   14548:	ffff8637          	lui	a2,0xffff8
   1454c:	0006d703          	lhu	a4,0(a3)
   14550:	00177593          	andi	a1,a4,1
   14554:	00058463          	beqz	a1,1455c <eshdn1+0x20>
   14558:	0017e793          	ori	a5,a5,1
   1455c:	0027f593          	andi	a1,a5,2
   14560:	00175713          	srli	a4,a4,0x1
   14564:	02059063          	bnez	a1,14584 <eshdn1+0x48>
   14568:	00179793          	slli	a5,a5,0x1
   1456c:	00e69023          	sh	a4,0(a3)
   14570:	01079793          	slli	a5,a5,0x10
   14574:	00268693          	addi	a3,a3,2
   14578:	0107d793          	srli	a5,a5,0x10
   1457c:	fcd518e3          	bne	a0,a3,1454c <eshdn1+0x10>
   14580:	00008067          	ret
   14584:	00c76733          	or	a4,a4,a2
   14588:	fe1ff06f          	j	14568 <eshdn1+0x2c>

0001458c <eshup1>:
   1458c:	01650693          	addi	a3,a0,22
   14590:	00000713          	li	a4,0
   14594:	0026d783          	lhu	a5,2(a3)
   14598:	01079613          	slli	a2,a5,0x10
   1459c:	41065613          	srai	a2,a2,0x10
   145a0:	00065463          	bgez	a2,145a8 <eshup1+0x1c>
   145a4:	00176713          	ori	a4,a4,1
   145a8:	00179793          	slli	a5,a5,0x1
   145ac:	01079793          	slli	a5,a5,0x10
   145b0:	00277613          	andi	a2,a4,2
   145b4:	0107d793          	srli	a5,a5,0x10
   145b8:	02061063          	bnez	a2,145d8 <eshup1+0x4c>
   145bc:	00171713          	slli	a4,a4,0x1
   145c0:	00f69123          	sh	a5,2(a3)
   145c4:	01071713          	slli	a4,a4,0x10
   145c8:	ffe68693          	addi	a3,a3,-2
   145cc:	01075713          	srli	a4,a4,0x10
   145d0:	fcd512e3          	bne	a0,a3,14594 <eshup1+0x8>
   145d4:	00008067          	ret
   145d8:	0017e793          	ori	a5,a5,1
   145dc:	fe1ff06f          	j	145bc <eshup1+0x30>

000145e0 <eshdn8>:
   145e0:	00450793          	addi	a5,a0,4
   145e4:	00000713          	li	a4,0
   145e8:	01a50513          	addi	a0,a0,26
   145ec:	0007d683          	lhu	a3,0(a5)
   145f0:	00278793          	addi	a5,a5,2
   145f4:	0086d613          	srli	a2,a3,0x8
   145f8:	00c76733          	or	a4,a4,a2
   145fc:	fee79f23          	sh	a4,-2(a5)
   14600:	00869713          	slli	a4,a3,0x8
   14604:	01071713          	slli	a4,a4,0x10
   14608:	01075713          	srli	a4,a4,0x10
   1460c:	fef510e3          	bne	a0,a5,145ec <eshdn8+0xc>
   14610:	00008067          	ret

00014614 <eshup8>:
   14614:	01650793          	addi	a5,a0,22
   14618:	00000713          	li	a4,0
   1461c:	0027d683          	lhu	a3,2(a5)
   14620:	ffe78793          	addi	a5,a5,-2
   14624:	00869613          	slli	a2,a3,0x8
   14628:	00c76733          	or	a4,a4,a2
   1462c:	00e79223          	sh	a4,4(a5)
   14630:	0086d713          	srli	a4,a3,0x8
   14634:	fef514e3          	bne	a0,a5,1461c <eshup8+0x8>
   14638:	00008067          	ret

0001463c <eshup6>:
   1463c:	00450793          	addi	a5,a0,4
   14640:	01850713          	addi	a4,a0,24
   14644:	00278793          	addi	a5,a5,2
   14648:	0007d683          	lhu	a3,0(a5)
   1464c:	fed79f23          	sh	a3,-2(a5)
   14650:	fef71ae3          	bne	a4,a5,14644 <eshup6+0x8>
   14654:	00051c23          	sh	zero,24(a0)
   14658:	00008067          	ret

0001465c <eshdn6>:
   1465c:	01850793          	addi	a5,a0,24
   14660:	00450713          	addi	a4,a0,4
   14664:	ffe78793          	addi	a5,a5,-2
   14668:	0007d683          	lhu	a3,0(a5)
   1466c:	00d79123          	sh	a3,2(a5)
   14670:	fef71ae3          	bne	a4,a5,14664 <eshdn6+0x8>
   14674:	00051223          	sh	zero,4(a0)
   14678:	00008067          	ret

0001467c <eaddm>:
   1467c:	01858593          	addi	a1,a1,24
   14680:	01650713          	addi	a4,a0,22
   14684:	00000693          	li	a3,0
   14688:	00275783          	lhu	a5,2(a4)
   1468c:	0005d603          	lhu	a2,0(a1)
   14690:	ffe70713          	addi	a4,a4,-2
   14694:	ffe58593          	addi	a1,a1,-2
   14698:	00c787b3          	add	a5,a5,a2
   1469c:	00d787b3          	add	a5,a5,a3
   146a0:	00f59123          	sh	a5,2(a1)
   146a4:	0107d793          	srli	a5,a5,0x10
   146a8:	0017f693          	andi	a3,a5,1
   146ac:	fce51ee3          	bne	a0,a4,14688 <eaddm+0xc>
   146b0:	00008067          	ret

000146b4 <esubm>:
   146b4:	01858593          	addi	a1,a1,24
   146b8:	01650713          	addi	a4,a0,22
   146bc:	00000693          	li	a3,0
   146c0:	0005d783          	lhu	a5,0(a1)
   146c4:	ffe70713          	addi	a4,a4,-2
   146c8:	ffe58593          	addi	a1,a1,-2
   146cc:	40d787b3          	sub	a5,a5,a3
   146d0:	00475683          	lhu	a3,4(a4)
   146d4:	40d787b3          	sub	a5,a5,a3
   146d8:	00f59123          	sh	a5,2(a1)
   146dc:	0107d793          	srli	a5,a5,0x10
   146e0:	0017f693          	andi	a3,a5,1
   146e4:	fce51ee3          	bne	a0,a4,146c0 <esubm+0xc>
   146e8:	00008067          	ret

000146ec <m16m>:
   146ec:	fe010113          	addi	sp,sp,-32
   146f0:	00010337          	lui	t1,0x10
   146f4:	01858893          	addi	a7,a1,24
   146f8:	00011d23          	sh	zero,26(sp)
   146fc:	00011e23          	sh	zero,28(sp)
   14700:	00458593          	addi	a1,a1,4
   14704:	01c10693          	addi	a3,sp,28
   14708:	fff30313          	addi	t1,t1,-1 # ffff <_start-0x1>
   1470c:	0008d703          	lhu	a4,0(a7)
   14710:	ffe68693          	addi	a3,a3,-2
   14714:	ffe88893          	addi	a7,a7,-2
   14718:	02071c63          	bnez	a4,14750 <m16m+0x64>
   1471c:	fe069f23          	sh	zero,-2(a3)
   14720:	ff1596e3          	bne	a1,a7,1470c <m16m+0x20>
   14724:	00400793          	li	a5,4
   14728:	01a00713          	li	a4,26
   1472c:	00410593          	addi	a1,sp,4
   14730:	00f585b3          	add	a1,a1,a5
   14734:	0005d583          	lhu	a1,0(a1)
   14738:	00f606b3          	add	a3,a2,a5
   1473c:	00278793          	addi	a5,a5,2
   14740:	00b69023          	sh	a1,0(a3)
   14744:	fee794e3          	bne	a5,a4,1472c <m16m+0x40>
   14748:	02010113          	addi	sp,sp,32
   1474c:	00008067          	ret
   14750:	02a70733          	mul	a4,a4,a0
   14754:	0026d803          	lhu	a6,2(a3)
   14758:	006777b3          	and	a5,a4,t1
   1475c:	010787b3          	add	a5,a5,a6
   14760:	0107d813          	srli	a6,a5,0x10
   14764:	00f69123          	sh	a5,2(a3)
   14768:	01075793          	srli	a5,a4,0x10
   1476c:	0006d703          	lhu	a4,0(a3)
   14770:	00e787b3          	add	a5,a5,a4
   14774:	010787b3          	add	a5,a5,a6
   14778:	00f69023          	sh	a5,0(a3)
   1477c:	0107d793          	srli	a5,a5,0x10
   14780:	fef69f23          	sh	a5,-2(a3)
   14784:	f9dff06f          	j	14720 <m16m+0x34>

00014788 <eisnan>:
   14788:	01255783          	lhu	a5,18(a0)
   1478c:	fff7c793          	not	a5,a5
   14790:	01179713          	slli	a4,a5,0x11
   14794:	00071c63          	bnez	a4,147ac <eisnan+0x24>
   14798:	01250793          	addi	a5,a0,18
   1479c:	00250513          	addi	a0,a0,2
   147a0:	ffe55703          	lhu	a4,-2(a0)
   147a4:	00071863          	bnez	a4,147b4 <eisnan+0x2c>
   147a8:	fea79ae3          	bne	a5,a0,1479c <eisnan+0x14>
   147ac:	00000513          	li	a0,0
   147b0:	00008067          	ret
   147b4:	00100513          	li	a0,1
   147b8:	00008067          	ret

000147bc <eisneg>:
   147bc:	ff010113          	addi	sp,sp,-16
   147c0:	00812423          	sw	s0,8(sp)
   147c4:	00112623          	sw	ra,12(sp)
   147c8:	00050413          	mv	s0,a0
   147cc:	fbdff0ef          	jal	ra,14788 <eisnan>
   147d0:	00051e63          	bnez	a0,147ec <eisneg+0x30>
   147d4:	01241503          	lh	a0,18(s0)
   147d8:	01f55513          	srli	a0,a0,0x1f
   147dc:	00c12083          	lw	ra,12(sp)
   147e0:	00812403          	lw	s0,8(sp)
   147e4:	01010113          	addi	sp,sp,16
   147e8:	00008067          	ret
   147ec:	00000513          	li	a0,0
   147f0:	fedff06f          	j	147dc <eisneg+0x20>

000147f4 <emovi>:
   147f4:	01251783          	lh	a5,18(a0)
   147f8:	ff010113          	addi	sp,sp,-16
   147fc:	00112623          	sw	ra,12(sp)
   14800:	00812423          	sw	s0,8(sp)
   14804:	00912223          	sw	s1,4(sp)
   14808:	01212023          	sw	s2,0(sp)
   1480c:	0607d863          	bgez	a5,1487c <emovi+0x88>
   14810:	fff00793          	li	a5,-1
   14814:	00f59023          	sh	a5,0(a1)
   14818:	01255703          	lhu	a4,18(a0)
   1481c:	000087b7          	lui	a5,0x8
   14820:	fff78793          	addi	a5,a5,-1 # 7fff <_start-0x8001>
   14824:	00e7f733          	and	a4,a5,a4
   14828:	00e59123          	sh	a4,2(a1)
   1482c:	01050913          	addi	s2,a0,16
   14830:	06f71663          	bne	a4,a5,1489c <emovi+0xa8>
   14834:	00058413          	mv	s0,a1
   14838:	00050493          	mv	s1,a0
   1483c:	f4dff0ef          	jal	ra,14788 <eisnan>
   14840:	04050263          	beqz	a0,14884 <emovi+0x90>
   14844:	00640793          	addi	a5,s0,6
   14848:	00041223          	sh	zero,4(s0)
   1484c:	ffc48513          	addi	a0,s1,-4
   14850:	ffe90913          	addi	s2,s2,-2
   14854:	00295703          	lhu	a4,2(s2)
   14858:	00278793          	addi	a5,a5,2
   1485c:	fee79f23          	sh	a4,-2(a5)
   14860:	fea918e3          	bne	s2,a0,14850 <emovi+0x5c>
   14864:	00c12083          	lw	ra,12(sp)
   14868:	00812403          	lw	s0,8(sp)
   1486c:	00412483          	lw	s1,4(sp)
   14870:	00012903          	lw	s2,0(sp)
   14874:	01010113          	addi	sp,sp,16
   14878:	00008067          	ret
   1487c:	00059023          	sh	zero,0(a1)
   14880:	f99ff06f          	j	14818 <emovi+0x24>
   14884:	00440793          	addi	a5,s0,4
   14888:	01a40593          	addi	a1,s0,26
   1488c:	00278793          	addi	a5,a5,2
   14890:	fe079f23          	sh	zero,-2(a5)
   14894:	feb79ce3          	bne	a5,a1,1488c <emovi+0x98>
   14898:	fcdff06f          	j	14864 <emovi+0x70>
   1489c:	00658793          	addi	a5,a1,6
   148a0:	00059223          	sh	zero,4(a1)
   148a4:	ffe50513          	addi	a0,a0,-2
   148a8:	ffe90913          	addi	s2,s2,-2
   148ac:	00295703          	lhu	a4,2(s2)
   148b0:	00278793          	addi	a5,a5,2
   148b4:	fee79f23          	sh	a4,-2(a5)
   148b8:	fea918e3          	bne	s2,a0,148a8 <emovi+0xb4>
   148bc:	00059c23          	sh	zero,24(a1)
   148c0:	fa5ff06f          	j	14864 <emovi+0x70>

000148c4 <ecmp>:
   148c4:	fb010113          	addi	sp,sp,-80
   148c8:	04912223          	sw	s1,68(sp)
   148cc:	05212023          	sw	s2,64(sp)
   148d0:	04112623          	sw	ra,76(sp)
   148d4:	04812423          	sw	s0,72(sp)
   148d8:	00050913          	mv	s2,a0
   148dc:	00058493          	mv	s1,a1
   148e0:	ea9ff0ef          	jal	ra,14788 <eisnan>
   148e4:	0e051063          	bnez	a0,149c4 <ecmp+0x100>
   148e8:	00048513          	mv	a0,s1
   148ec:	e9dff0ef          	jal	ra,14788 <eisnan>
   148f0:	00050413          	mv	s0,a0
   148f4:	0c051863          	bnez	a0,149c4 <ecmp+0x100>
   148f8:	00810593          	addi	a1,sp,8
   148fc:	00090513          	mv	a0,s2
   14900:	ef5ff0ef          	jal	ra,147f4 <emovi>
   14904:	02410593          	addi	a1,sp,36
   14908:	00048513          	mv	a0,s1
   1490c:	ee9ff0ef          	jal	ra,147f4 <emovi>
   14910:	00815703          	lhu	a4,8(sp)
   14914:	02415783          	lhu	a5,36(sp)
   14918:	06e78063          	beq	a5,a4,14978 <ecmp+0xb4>
   1491c:	00200793          	li	a5,2
   14920:	01800693          	li	a3,24
   14924:	00810613          	addi	a2,sp,8
   14928:	00f60633          	add	a2,a2,a5
   1492c:	00065603          	lhu	a2,0(a2) # ffff8000 <_end+0xfffd1b20>
   14930:	02061c63          	bnez	a2,14968 <ecmp+0xa4>
   14934:	02410613          	addi	a2,sp,36
   14938:	00f60633          	add	a2,a2,a5
   1493c:	00065603          	lhu	a2,0(a2)
   14940:	02061463          	bnez	a2,14968 <ecmp+0xa4>
   14944:	00278793          	addi	a5,a5,2
   14948:	fcd79ee3          	bne	a5,a3,14924 <ecmp+0x60>
   1494c:	00040513          	mv	a0,s0
   14950:	04c12083          	lw	ra,76(sp)
   14954:	04812403          	lw	s0,72(sp)
   14958:	04412483          	lw	s1,68(sp)
   1495c:	04012903          	lw	s2,64(sp)
   14960:	05010113          	addi	sp,sp,80
   14964:	00008067          	ret
   14968:	00100413          	li	s0,1
   1496c:	fe0700e3          	beqz	a4,1494c <ecmp+0x88>
   14970:	fff00413          	li	s0,-1
   14974:	fd9ff06f          	j	1494c <ecmp+0x88>
   14978:	00100713          	li	a4,1
   1497c:	00078463          	beqz	a5,14984 <ecmp+0xc0>
   14980:	fff00713          	li	a4,-1
   14984:	00000793          	li	a5,0
   14988:	01800593          	li	a1,24
   1498c:	00810693          	addi	a3,sp,8
   14990:	00f686b3          	add	a3,a3,a5
   14994:	0006d603          	lhu	a2,0(a3)
   14998:	02410693          	addi	a3,sp,36
   1499c:	00f686b3          	add	a3,a3,a5
   149a0:	0006d683          	lhu	a3,0(a3)
   149a4:	00d60a63          	beq	a2,a3,149b8 <ecmp+0xf4>
   149a8:	00070413          	mv	s0,a4
   149ac:	fac6e0e3          	bltu	a3,a2,1494c <ecmp+0x88>
   149b0:	40e00433          	neg	s0,a4
   149b4:	f99ff06f          	j	1494c <ecmp+0x88>
   149b8:	00278793          	addi	a5,a5,2
   149bc:	fcb798e3          	bne	a5,a1,1498c <ecmp+0xc8>
   149c0:	f8dff06f          	j	1494c <ecmp+0x88>
   149c4:	ffe00413          	li	s0,-2
   149c8:	f85ff06f          	j	1494c <ecmp+0x88>

000149cc <eisinf>:
   149cc:	01255783          	lhu	a5,18(a0)
   149d0:	fff7c793          	not	a5,a5
   149d4:	01179713          	slli	a4,a5,0x11
   149d8:	02071063          	bnez	a4,149f8 <eisinf+0x2c>
   149dc:	ff010113          	addi	sp,sp,-16
   149e0:	00112623          	sw	ra,12(sp)
   149e4:	da5ff0ef          	jal	ra,14788 <eisnan>
   149e8:	00c12083          	lw	ra,12(sp)
   149ec:	00153513          	seqz	a0,a0
   149f0:	01010113          	addi	sp,sp,16
   149f4:	00008067          	ret
   149f8:	00000513          	li	a0,0
   149fc:	00008067          	ret

00014a00 <einfin.isra.2>:
   14a00:	01250713          	addi	a4,a0,18
   14a04:	00050793          	mv	a5,a0
   14a08:	00278793          	addi	a5,a5,2
   14a0c:	fe079f23          	sh	zero,-2(a5)
   14a10:	fee79ce3          	bne	a5,a4,14a08 <einfin.isra.2+0x8>
   14a14:	01255783          	lhu	a5,18(a0)
   14a18:	00008737          	lui	a4,0x8
   14a1c:	fff70713          	addi	a4,a4,-1 # 7fff <_start-0x8001>
   14a20:	00e7e7b3          	or	a5,a5,a4
   14a24:	00f51923          	sh	a5,18(a0)
   14a28:	00008067          	ret

00014a2c <eshift.part.3>:
   14a2c:	fe010113          	addi	sp,sp,-32
   14a30:	00812c23          	sw	s0,24(sp)
   14a34:	01312623          	sw	s3,12(sp)
   14a38:	00112e23          	sw	ra,28(sp)
   14a3c:	00912a23          	sw	s1,20(sp)
   14a40:	01212823          	sw	s2,16(sp)
   14a44:	01412423          	sw	s4,8(sp)
   14a48:	01512223          	sw	s5,4(sp)
   14a4c:	00050993          	mv	s3,a0
   14a50:	00058413          	mv	s0,a1
   14a54:	1005d263          	bgez	a1,14b58 <eshift.part.3+0x12c>
   14a58:	40b00933          	neg	s2,a1
   14a5c:	00090a13          	mv	s4,s2
   14a60:	00000493          	li	s1,0
   14a64:	00f00a93          	li	s5,15
   14a68:	034ace63          	blt	s5,s4,14aa4 <eshift.part.3+0x78>
   14a6c:	00495913          	srli	s2,s2,0x4
   14a70:	ff000593          	li	a1,-16
   14a74:	02b905b3          	mul	a1,s2,a1
   14a78:	00700a13          	li	s4,7
   14a7c:	40858433          	sub	s0,a1,s0
   14a80:	00040913          	mv	s2,s0
   14a84:	032a4c63          	blt	s4,s2,14abc <eshift.part.3+0x90>
   14a88:	00345593          	srli	a1,s0,0x3
   14a8c:	ff800793          	li	a5,-8
   14a90:	02f585b3          	mul	a1,a1,a5
   14a94:	00858433          	add	s0,a1,s0
   14a98:	02041e63          	bnez	s0,14ad4 <eshift.part.3+0xa8>
   14a9c:	00903533          	snez	a0,s1
   14aa0:	0940006f          	j	14b34 <eshift.part.3+0x108>
   14aa4:	0189d783          	lhu	a5,24(s3)
   14aa8:	00098513          	mv	a0,s3
   14aac:	ff0a0a13          	addi	s4,s4,-16
   14ab0:	00f4e4b3          	or	s1,s1,a5
   14ab4:	ba9ff0ef          	jal	ra,1465c <eshdn6>
   14ab8:	fb1ff06f          	j	14a68 <eshift.part.3+0x3c>
   14abc:	0189c783          	lbu	a5,24(s3)
   14ac0:	00098513          	mv	a0,s3
   14ac4:	ff890913          	addi	s2,s2,-8
   14ac8:	0097e4b3          	or	s1,a5,s1
   14acc:	b15ff0ef          	jal	ra,145e0 <eshdn8>
   14ad0:	fb5ff06f          	j	14a84 <eshift.part.3+0x58>
   14ad4:	0189d783          	lhu	a5,24(s3)
   14ad8:	00098513          	mv	a0,s3
   14adc:	fff40413          	addi	s0,s0,-1
   14ae0:	0017f793          	andi	a5,a5,1
   14ae4:	0097e4b3          	or	s1,a5,s1
   14ae8:	a55ff0ef          	jal	ra,1453c <eshdn1>
   14aec:	fadff06f          	j	14a98 <eshift.part.3+0x6c>
   14af0:	00098513          	mv	a0,s3
   14af4:	b49ff0ef          	jal	ra,1463c <eshup6>
   14af8:	ff048493          	addi	s1,s1,-16
   14afc:	fe994ae3          	blt	s2,s1,14af0 <eshift.part.3+0xc4>
   14b00:	00445593          	srli	a1,s0,0x4
   14b04:	ff000793          	li	a5,-16
   14b08:	02f585b3          	mul	a1,a1,a5
   14b0c:	00700913          	li	s2,7
   14b10:	00b40433          	add	s0,s0,a1
   14b14:	00040493          	mv	s1,s0
   14b18:	04994663          	blt	s2,s1,14b64 <eshift.part.3+0x138>
   14b1c:	00345593          	srli	a1,s0,0x3
   14b20:	ff800793          	li	a5,-8
   14b24:	02f585b3          	mul	a1,a1,a5
   14b28:	00b40433          	add	s0,s0,a1
   14b2c:	04041463          	bnez	s0,14b74 <eshift.part.3+0x148>
   14b30:	00000513          	li	a0,0
   14b34:	01c12083          	lw	ra,28(sp)
   14b38:	01812403          	lw	s0,24(sp)
   14b3c:	01412483          	lw	s1,20(sp)
   14b40:	01012903          	lw	s2,16(sp)
   14b44:	00c12983          	lw	s3,12(sp)
   14b48:	00812a03          	lw	s4,8(sp)
   14b4c:	00412a83          	lw	s5,4(sp)
   14b50:	02010113          	addi	sp,sp,32
   14b54:	00008067          	ret
   14b58:	00058493          	mv	s1,a1
   14b5c:	00f00913          	li	s2,15
   14b60:	f9dff06f          	j	14afc <eshift.part.3+0xd0>
   14b64:	00098513          	mv	a0,s3
   14b68:	aadff0ef          	jal	ra,14614 <eshup8>
   14b6c:	ff848493          	addi	s1,s1,-8
   14b70:	fa9ff06f          	j	14b18 <eshift.part.3+0xec>
   14b74:	00098513          	mv	a0,s3
   14b78:	a15ff0ef          	jal	ra,1458c <eshup1>
   14b7c:	fff40413          	addi	s0,s0,-1
   14b80:	fadff06f          	j	14b2c <eshift.part.3+0x100>

00014b84 <enormlz>:
   14b84:	00455783          	lhu	a5,4(a0)
   14b88:	ff010113          	addi	sp,sp,-16
   14b8c:	00912223          	sw	s1,4(sp)
   14b90:	00112623          	sw	ra,12(sp)
   14b94:	00812423          	sw	s0,8(sp)
   14b98:	01212023          	sw	s2,0(sp)
   14b9c:	00050493          	mv	s1,a0
   14ba0:	02078063          	beqz	a5,14bc0 <enormlz+0x3c>
   14ba4:	f007f793          	andi	a5,a5,-256
   14ba8:	00000413          	li	s0,0
   14bac:	00078663          	beqz	a5,14bb8 <enormlz+0x34>
   14bb0:	a31ff0ef          	jal	ra,145e0 <eshdn8>
   14bb4:	ff800413          	li	s0,-8
   14bb8:	f6f00913          	li	s2,-145
   14bbc:	0940006f          	j	14c50 <enormlz+0xcc>
   14bc0:	00651783          	lh	a5,6(a0)
   14bc4:	00000413          	li	s0,0
   14bc8:	0a000913          	li	s2,160
   14bcc:	0207d863          	bgez	a5,14bfc <enormlz+0x78>
   14bd0:	00040513          	mv	a0,s0
   14bd4:	00c12083          	lw	ra,12(sp)
   14bd8:	00812403          	lw	s0,8(sp)
   14bdc:	00412483          	lw	s1,4(sp)
   14be0:	00012903          	lw	s2,0(sp)
   14be4:	01010113          	addi	sp,sp,16
   14be8:	00008067          	ret
   14bec:	00048513          	mv	a0,s1
   14bf0:	01040413          	addi	s0,s0,16
   14bf4:	a49ff0ef          	jal	ra,1463c <eshup6>
   14bf8:	fd240ce3          	beq	s0,s2,14bd0 <enormlz+0x4c>
   14bfc:	0064d783          	lhu	a5,6(s1)
   14c00:	fe0786e3          	beqz	a5,14bec <enormlz+0x68>
   14c04:	0064d783          	lhu	a5,6(s1)
   14c08:	f007f793          	andi	a5,a5,-256
   14c0c:	02078263          	beqz	a5,14c30 <enormlz+0xac>
   14c10:	0a000913          	li	s2,160
   14c14:	00649783          	lh	a5,6(s1)
   14c18:	fa07cce3          	bltz	a5,14bd0 <enormlz+0x4c>
   14c1c:	00048513          	mv	a0,s1
   14c20:	00140413          	addi	s0,s0,1
   14c24:	969ff0ef          	jal	ra,1458c <eshup1>
   14c28:	fe8956e3          	ble	s0,s2,14c14 <enormlz+0x90>
   14c2c:	fa5ff06f          	j	14bd0 <enormlz+0x4c>
   14c30:	00048513          	mv	a0,s1
   14c34:	9e1ff0ef          	jal	ra,14614 <eshup8>
   14c38:	00840413          	addi	s0,s0,8
   14c3c:	fc9ff06f          	j	14c04 <enormlz+0x80>
   14c40:	00048513          	mv	a0,s1
   14c44:	fff40413          	addi	s0,s0,-1
   14c48:	8f5ff0ef          	jal	ra,1453c <eshdn1>
   14c4c:	f92402e3          	beq	s0,s2,14bd0 <enormlz+0x4c>
   14c50:	0044d783          	lhu	a5,4(s1)
   14c54:	fe0796e3          	bnez	a5,14c40 <enormlz+0xbc>
   14c58:	f79ff06f          	j	14bd0 <enormlz+0x4c>

00014c5c <enan.constprop.12>:
   14c5c:	01050713          	addi	a4,a0,16
   14c60:	00050793          	mv	a5,a0
   14c64:	00278793          	addi	a5,a5,2
   14c68:	fe079f23          	sh	zero,-2(a5)
   14c6c:	fee79ce3          	bne	a5,a4,14c64 <enan.constprop.12+0x8>
   14c70:	7fffc7b7          	lui	a5,0x7fffc
   14c74:	00f52823          	sw	a5,16(a0)
   14c78:	00008067          	ret

00014c7c <emovo.isra.6>:
   14c7c:	00050713          	mv	a4,a0
   14c80:	00075683          	lhu	a3,0(a4)
   14c84:	00058513          	mv	a0,a1
   14c88:	00275783          	lhu	a5,2(a4)
   14c8c:	00068663          	beqz	a3,14c98 <emovo.isra.6+0x1c>
   14c90:	ffff86b7          	lui	a3,0xffff8
   14c94:	00d7e7b3          	or	a5,a5,a3
   14c98:	00f51923          	sh	a5,18(a0)
   14c9c:	00275603          	lhu	a2,2(a4)
   14ca0:	000086b7          	lui	a3,0x8
   14ca4:	fff68693          	addi	a3,a3,-1 # 7fff <_start-0x8001>
   14ca8:	00670793          	addi	a5,a4,6
   14cac:	00d61e63          	bne	a2,a3,14cc8 <emovo.isra.6+0x4c>
   14cb0:	01a70713          	addi	a4,a4,26
   14cb4:	0007d683          	lhu	a3,0(a5) # 7fffc000 <_end+0x7ffd5b20>
   14cb8:	02069863          	bnez	a3,14ce8 <emovo.isra.6+0x6c>
   14cbc:	00278793          	addi	a5,a5,2
   14cc0:	fee79ae3          	bne	a5,a4,14cb4 <emovo.isra.6+0x38>
   14cc4:	d3dff06f          	j	14a00 <einfin.isra.2>
   14cc8:	01050513          	addi	a0,a0,16
   14ccc:	01870713          	addi	a4,a4,24
   14cd0:	00278793          	addi	a5,a5,2
   14cd4:	ffe7d683          	lhu	a3,-2(a5)
   14cd8:	ffe50513          	addi	a0,a0,-2
   14cdc:	00d51123          	sh	a3,2(a0)
   14ce0:	fee798e3          	bne	a5,a4,14cd0 <emovo.isra.6+0x54>
   14ce4:	00008067          	ret
   14ce8:	f75ff06f          	j	14c5c <enan.constprop.12>

00014cec <e113toe.isra.8>:
   14cec:	fd010113          	addi	sp,sp,-48
   14cf0:	02912223          	sw	s1,36(sp)
   14cf4:	00050493          	mv	s1,a0
   14cf8:	00410513          	addi	a0,sp,4
   14cfc:	02812423          	sw	s0,40(sp)
   14d00:	02112623          	sw	ra,44(sp)
   14d04:	00058413          	mv	s0,a1
   14d08:	fbcff0ef          	jal	ra,144c4 <ecleaz>
   14d0c:	00e4d703          	lhu	a4,14(s1)
   14d10:	01071793          	slli	a5,a4,0x10
   14d14:	4107d793          	srai	a5,a5,0x10
   14d18:	0407c263          	bltz	a5,14d5c <e113toe.isra.8+0x70>
   14d1c:	00011223          	sh	zero,4(sp)
   14d20:	000086b7          	lui	a3,0x8
   14d24:	fff68693          	addi	a3,a3,-1 # 7fff <_start-0x8001>
   14d28:	00d77733          	and	a4,a4,a3
   14d2c:	00e48793          	addi	a5,s1,14
   14d30:	06d71c63          	bne	a4,a3,14da8 <e113toe.isra.8+0xbc>
   14d34:	00048713          	mv	a4,s1
   14d38:	00075683          	lhu	a3,0(a4)
   14d3c:	02068663          	beqz	a3,14d68 <e113toe.isra.8+0x7c>
   14d40:	00040513          	mv	a0,s0
   14d44:	f19ff0ef          	jal	ra,14c5c <enan.constprop.12>
   14d48:	02c12083          	lw	ra,44(sp)
   14d4c:	02812403          	lw	s0,40(sp)
   14d50:	02412483          	lw	s1,36(sp)
   14d54:	03010113          	addi	sp,sp,48
   14d58:	00008067          	ret
   14d5c:	fff00793          	li	a5,-1
   14d60:	00f11223          	sh	a5,4(sp)
   14d64:	fbdff06f          	j	14d20 <e113toe.isra.8+0x34>
   14d68:	00270713          	addi	a4,a4,2
   14d6c:	fce796e3          	bne	a5,a4,14d38 <e113toe.isra.8+0x4c>
   14d70:	00040513          	mv	a0,s0
   14d74:	f18ff0ef          	jal	ra,1448c <eclear>
   14d78:	00040513          	mv	a0,s0
   14d7c:	c85ff0ef          	jal	ra,14a00 <einfin.isra.2>
   14d80:	00e49783          	lh	a5,14(s1)
   14d84:	fc07d2e3          	bgez	a5,14d48 <e113toe.isra.8+0x5c>
   14d88:	00040513          	mv	a0,s0
   14d8c:	9fdff0ef          	jal	ra,14788 <eisnan>
   14d90:	fa051ce3          	bnez	a0,14d48 <e113toe.isra.8+0x5c>
   14d94:	01245783          	lhu	a5,18(s0)
   14d98:	ffff8737          	lui	a4,0xffff8
   14d9c:	00e7c7b3          	xor	a5,a5,a4
   14da0:	00f41923          	sh	a5,18(s0)
   14da4:	fa5ff06f          	j	14d48 <e113toe.isra.8+0x5c>
   14da8:	00e11323          	sh	a4,6(sp)
   14dac:	00410693          	addi	a3,sp,4
   14db0:	ffe78793          	addi	a5,a5,-2
   14db4:	0007d603          	lhu	a2,0(a5)
   14db8:	00268693          	addi	a3,a3,2
   14dbc:	00c69223          	sh	a2,4(a3)
   14dc0:	fef498e3          	bne	s1,a5,14db0 <e113toe.isra.8+0xc4>
   14dc4:	00071c63          	bnez	a4,14ddc <e113toe.isra.8+0xf0>
   14dc8:	00011423          	sh	zero,8(sp)
   14dcc:	00040593          	mv	a1,s0
   14dd0:	00410513          	addi	a0,sp,4
   14dd4:	ea9ff0ef          	jal	ra,14c7c <emovo.isra.6>
   14dd8:	f71ff06f          	j	14d48 <e113toe.isra.8+0x5c>
   14ddc:	00100793          	li	a5,1
   14de0:	fff00593          	li	a1,-1
   14de4:	00410513          	addi	a0,sp,4
   14de8:	00f11423          	sh	a5,8(sp)
   14dec:	c41ff0ef          	jal	ra,14a2c <eshift.part.3>
   14df0:	fddff06f          	j	14dcc <e113toe.isra.8+0xe0>

00014df4 <emdnorm>:
   14df4:	fe010113          	addi	sp,sp,-32
   14df8:	00812c23          	sw	s0,24(sp)
   14dfc:	00912a23          	sw	s1,20(sp)
   14e00:	01212823          	sw	s2,16(sp)
   14e04:	01312623          	sw	s3,12(sp)
   14e08:	01412423          	sw	s4,8(sp)
   14e0c:	01512223          	sw	s5,4(sp)
   14e10:	00068913          	mv	s2,a3
   14e14:	00078413          	mv	s0,a5
   14e18:	00112e23          	sw	ra,28(sp)
   14e1c:	00050493          	mv	s1,a0
   14e20:	00058993          	mv	s3,a1
   14e24:	00060a13          	mv	s4,a2
   14e28:	00070a93          	mv	s5,a4
   14e2c:	d59ff0ef          	jal	ra,14b84 <enormlz>
   14e30:	09000793          	li	a5,144
   14e34:	40a90933          	sub	s2,s2,a0
   14e38:	04a7d463          	ble	a0,a5,14e80 <emdnorm+0x8c>
   14e3c:	000087b7          	lui	a5,0x8
   14e40:	ffe78793          	addi	a5,a5,-2 # 7ffe <_start-0x8002>
   14e44:	0527cc63          	blt	a5,s2,14e9c <emdnorm+0xa8>
   14e48:	00248793          	addi	a5,s1,2
   14e4c:	01a48493          	addi	s1,s1,26
   14e50:	00278793          	addi	a5,a5,2
   14e54:	fe079f23          	sh	zero,-2(a5)
   14e58:	fe979ce3          	bne	a5,s1,14e50 <emdnorm+0x5c>
   14e5c:	01c12083          	lw	ra,28(sp)
   14e60:	01812403          	lw	s0,24(sp)
   14e64:	01412483          	lw	s1,20(sp)
   14e68:	01012903          	lw	s2,16(sp)
   14e6c:	00c12983          	lw	s3,12(sp)
   14e70:	00812a03          	lw	s4,8(sp)
   14e74:	00412a83          	lw	s5,4(sp)
   14e78:	02010113          	addi	sp,sp,32
   14e7c:	00008067          	ret
   14e80:	00095e63          	bgez	s2,14e9c <emdnorm+0xa8>
   14e84:	f7000793          	li	a5,-144
   14e88:	18f94463          	blt	s2,a5,15010 <emdnorm+0x21c>
   14e8c:	00090593          	mv	a1,s2
   14e90:	00048513          	mv	a0,s1
   14e94:	b99ff0ef          	jal	ra,14a2c <eshift.part.3>
   14e98:	18051863          	bnez	a0,15028 <emdnorm+0x234>
   14e9c:	140a8063          	beqz	s5,14fdc <emdnorm+0x1e8>
   14ea0:	00442703          	lw	a4,4(s0)
   14ea4:	00042783          	lw	a5,0(s0)
   14ea8:	06f70663          	beq	a4,a5,14f14 <emdnorm+0x120>
   14eac:	01a40513          	addi	a0,s0,26
   14eb0:	e14ff0ef          	jal	ra,144c4 <ecleaz>
   14eb4:	00442783          	lw	a5,4(s0)
   14eb8:	03800713          	li	a4,56
   14ebc:	1ce78663          	beq	a5,a4,15088 <emdnorm+0x294>
   14ec0:	16f74863          	blt	a4,a5,15030 <emdnorm+0x23c>
   14ec4:	01800713          	li	a4,24
   14ec8:	1ee78e63          	beq	a5,a4,150c4 <emdnorm+0x2d0>
   14ecc:	03500713          	li	a4,53
   14ed0:	1ce78a63          	beq	a5,a4,150a4 <emdnorm+0x2b0>
   14ed4:	00c00713          	li	a4,12
   14ed8:	00e42423          	sw	a4,8(s0)
   14edc:	80010737          	lui	a4,0x80010
   14ee0:	fff70713          	addi	a4,a4,-1 # 8000ffff <_end+0x7ffe9b1f>
   14ee4:	00e42a23          	sw	a4,20(s0)
   14ee8:	00100713          	li	a4,1
   14eec:	00e41c23          	sh	a4,24(s0)
   14ef0:	00b00713          	li	a4,11
   14ef4:	00e42623          	sw	a4,12(s0)
   14ef8:	00c42703          	lw	a4,12(s0)
   14efc:	01845683          	lhu	a3,24(s0)
   14f00:	00870713          	addi	a4,a4,8
   14f04:	00171713          	slli	a4,a4,0x1
   14f08:	00e40733          	add	a4,s0,a4
   14f0c:	00d71523          	sh	a3,10(a4)
   14f10:	00f42023          	sw	a5,0(s0)
   14f14:	03204263          	bgtz	s2,14f38 <emdnorm+0x144>
   14f18:	00442703          	lw	a4,4(s0)
   14f1c:	09000793          	li	a5,144
   14f20:	00f70c63          	beq	a4,a5,14f38 <emdnorm+0x144>
   14f24:	0184d783          	lhu	a5,24(s1)
   14f28:	00048513          	mv	a0,s1
   14f2c:	0017f793          	andi	a5,a5,1
   14f30:	00f9e9b3          	or	s3,s3,a5
   14f34:	e08ff0ef          	jal	ra,1453c <eshdn1>
   14f38:	00842683          	lw	a3,8(s0)
   14f3c:	01445603          	lhu	a2,20(s0)
   14f40:	00442583          	lw	a1,4(s0)
   14f44:	00169713          	slli	a4,a3,0x1
   14f48:	00e48733          	add	a4,s1,a4
   14f4c:	00075783          	lhu	a5,0(a4)
   14f50:	00c7f7b3          	and	a5,a5,a2
   14f54:	08f00613          	li	a2,143
   14f58:	00b64a63          	blt	a2,a1,14f6c <emdnorm+0x178>
   14f5c:	00168693          	addi	a3,a3,1
   14f60:	00070613          	mv	a2,a4
   14f64:	00c00593          	li	a1,12
   14f68:	16d5d263          	ble	a3,a1,150cc <emdnorm+0x2d8>
   14f6c:	01445683          	lhu	a3,20(s0)
   14f70:	00075603          	lhu	a2,0(a4)
   14f74:	fff6c693          	not	a3,a3
   14f78:	00c6f6b3          	and	a3,a3,a2
   14f7c:	00d71023          	sh	a3,0(a4)
   14f80:	01645703          	lhu	a4,22(s0)
   14f84:	00f776b3          	and	a3,a4,a5
   14f88:	02068463          	beqz	a3,14fb0 <emdnorm+0x1bc>
   14f8c:	16f71063          	bne	a4,a5,150ec <emdnorm+0x2f8>
   14f90:	14099c63          	bnez	s3,150e8 <emdnorm+0x2f4>
   14f94:	00c42783          	lw	a5,12(s0)
   14f98:	01845703          	lhu	a4,24(s0)
   14f9c:	00179793          	slli	a5,a5,0x1
   14fa0:	00f487b3          	add	a5,s1,a5
   14fa4:	0007d783          	lhu	a5,0(a5)
   14fa8:	00e7f7b3          	and	a5,a5,a4
   14fac:	14079063          	bnez	a5,150ec <emdnorm+0x2f8>
   14fb0:	01204c63          	bgtz	s2,14fc8 <emdnorm+0x1d4>
   14fb4:	00442703          	lw	a4,4(s0)
   14fb8:	09000793          	li	a5,144
   14fbc:	00f70663          	beq	a4,a5,14fc8 <emdnorm+0x1d4>
   14fc0:	00048513          	mv	a0,s1
   14fc4:	dc8ff0ef          	jal	ra,1458c <eshup1>
   14fc8:	0044d783          	lhu	a5,4(s1)
   14fcc:	00078863          	beqz	a5,14fdc <emdnorm+0x1e8>
   14fd0:	00048513          	mv	a0,s1
   14fd4:	d68ff0ef          	jal	ra,1453c <eshdn1>
   14fd8:	00190913          	addi	s2,s2,1
   14fdc:	000087b7          	lui	a5,0x8
   14fe0:	00049c23          	sh	zero,24(s1)
   14fe4:	ffe78793          	addi	a5,a5,-2 # 7ffe <_start-0x8002>
   14fe8:	1127da63          	ble	s2,a5,150fc <emdnorm+0x308>
   14fec:	ffff87b7          	lui	a5,0xffff8
   14ff0:	fff7c793          	not	a5,a5
   14ff4:	00f49123          	sh	a5,2(s1)
   14ff8:	00448793          	addi	a5,s1,4
   14ffc:	01848493          	addi	s1,s1,24
   15000:	00079023          	sh	zero,0(a5) # ffff8000 <_end+0xfffd1b20>
   15004:	00278793          	addi	a5,a5,2
   15008:	fef49ce3          	bne	s1,a5,15000 <emdnorm+0x20c>
   1500c:	e51ff06f          	j	14e5c <emdnorm+0x68>
   15010:	00248793          	addi	a5,s1,2
   15014:	01a48493          	addi	s1,s1,26
   15018:	00278793          	addi	a5,a5,2
   1501c:	fe079f23          	sh	zero,-2(a5)
   15020:	fe979ce3          	bne	a5,s1,15018 <emdnorm+0x224>
   15024:	e39ff06f          	j	14e5c <emdnorm+0x68>
   15028:	00100993          	li	s3,1
   1502c:	e71ff06f          	j	14e9c <emdnorm+0xa8>
   15030:	04000713          	li	a4,64
   15034:	02e78863          	beq	a5,a4,15064 <emdnorm+0x270>
   15038:	07100713          	li	a4,113
   1503c:	e8e79ce3          	bne	a5,a4,14ed4 <emdnorm+0xe0>
   15040:	40008737          	lui	a4,0x40008
   15044:	fff70713          	addi	a4,a4,-1 # 40007fff <_end+0x3ffe1b1f>
   15048:	00a00693          	li	a3,10
   1504c:	00e42a23          	sw	a4,20(s0)
   15050:	00d42423          	sw	a3,8(s0)
   15054:	ffff8737          	lui	a4,0xffff8
   15058:	00e41c23          	sh	a4,24(s0)
   1505c:	00d42623          	sw	a3,12(s0)
   15060:	e99ff06f          	j	14ef8 <emdnorm+0x104>
   15064:	00700713          	li	a4,7
   15068:	00e42423          	sw	a4,8(s0)
   1506c:	80010737          	lui	a4,0x80010
   15070:	fff70713          	addi	a4,a4,-1 # 8000ffff <_end+0x7ffe9b1f>
   15074:	00e42a23          	sw	a4,20(s0)
   15078:	00100713          	li	a4,1
   1507c:	00e41c23          	sh	a4,24(s0)
   15080:	00600713          	li	a4,6
   15084:	e71ff06f          	j	14ef4 <emdnorm+0x100>
   15088:	00600693          	li	a3,6
   1508c:	00800737          	lui	a4,0x800
   15090:	0ff70713          	addi	a4,a4,255 # 8000ff <_end+0x7d9c1f>
   15094:	00e42a23          	sw	a4,20(s0)
   15098:	00d42423          	sw	a3,8(s0)
   1509c:	10000713          	li	a4,256
   150a0:	fb9ff06f          	j	15058 <emdnorm+0x264>
   150a4:	04000737          	lui	a4,0x4000
   150a8:	7ff70713          	addi	a4,a4,2047 # 40007ff <_end+0x3fda31f>
   150ac:	00600693          	li	a3,6
   150b0:	00e42a23          	sw	a4,20(s0)
   150b4:	00001737          	lui	a4,0x1
   150b8:	00d42423          	sw	a3,8(s0)
   150bc:	80070713          	addi	a4,a4,-2048 # 800 <_start-0xf800>
   150c0:	f99ff06f          	j	15058 <emdnorm+0x264>
   150c4:	00400693          	li	a3,4
   150c8:	fc5ff06f          	j	1508c <emdnorm+0x298>
   150cc:	00265503          	lhu	a0,2(a2)
   150d0:	00050463          	beqz	a0,150d8 <emdnorm+0x2e4>
   150d4:	0017e793          	ori	a5,a5,1
   150d8:	00061123          	sh	zero,2(a2)
   150dc:	00168693          	addi	a3,a3,1
   150e0:	00260613          	addi	a2,a2,2
   150e4:	e85ff06f          	j	14f68 <emdnorm+0x174>
   150e8:	ec0a14e3          	bnez	s4,14fb0 <emdnorm+0x1bc>
   150ec:	00048593          	mv	a1,s1
   150f0:	01a40513          	addi	a0,s0,26
   150f4:	d88ff0ef          	jal	ra,1467c <eaddm>
   150f8:	eb9ff06f          	j	14fb0 <emdnorm+0x1bc>
   150fc:	00095663          	bgez	s2,15108 <emdnorm+0x314>
   15100:	00049123          	sh	zero,2(s1)
   15104:	d59ff06f          	j	14e5c <emdnorm+0x68>
   15108:	01249123          	sh	s2,2(s1)
   1510c:	d51ff06f          	j	14e5c <emdnorm+0x68>

00015110 <eiremain>:
   15110:	fe010113          	addi	sp,sp,-32
   15114:	01412423          	sw	s4,8(sp)
   15118:	00255a03          	lhu	s4,2(a0)
   1511c:	00812c23          	sw	s0,24(sp)
   15120:	00058413          	mv	s0,a1
   15124:	00112e23          	sw	ra,28(sp)
   15128:	00912a23          	sw	s1,20(sp)
   1512c:	01212823          	sw	s2,16(sp)
   15130:	01512223          	sw	s5,4(sp)
   15134:	01612023          	sw	s6,0(sp)
   15138:	00060913          	mv	s2,a2
   1513c:	03460b13          	addi	s6,a2,52
   15140:	01312623          	sw	s3,12(sp)
   15144:	00050a93          	mv	s5,a0
   15148:	a3dff0ef          	jal	ra,14b84 <enormlz>
   1514c:	00245483          	lhu	s1,2(s0)
   15150:	40aa0a33          	sub	s4,s4,a0
   15154:	00040513          	mv	a0,s0
   15158:	a2dff0ef          	jal	ra,14b84 <enormlz>
   1515c:	40a484b3          	sub	s1,s1,a0
   15160:	000b0513          	mv	a0,s6
   15164:	b60ff0ef          	jal	ra,144c4 <ecleaz>
   15168:	0544d263          	ble	s4,s1,151ac <eiremain+0x9c>
   1516c:	00040513          	mv	a0,s0
   15170:	01812403          	lw	s0,24(sp)
   15174:	01c12083          	lw	ra,28(sp)
   15178:	00c12983          	lw	s3,12(sp)
   1517c:	00812a03          	lw	s4,8(sp)
   15180:	00412a83          	lw	s5,4(sp)
   15184:	00012b03          	lw	s6,0(sp)
   15188:	00090793          	mv	a5,s2
   1518c:	00048693          	mv	a3,s1
   15190:	01012903          	lw	s2,16(sp)
   15194:	01412483          	lw	s1,20(sp)
   15198:	00000713          	li	a4,0
   1519c:	00000613          	li	a2,0
   151a0:	00000593          	li	a1,0
   151a4:	02010113          	addi	sp,sp,32
   151a8:	c4dff06f          	j	14df4 <emdnorm>
   151ac:	00040593          	mv	a1,s0
   151b0:	000a8513          	mv	a0,s5
   151b4:	b4cff0ef          	jal	ra,14500 <ecmpm>
   151b8:	00000993          	li	s3,0
   151bc:	00a04a63          	bgtz	a0,151d0 <eiremain+0xc0>
   151c0:	00040593          	mv	a1,s0
   151c4:	000a8513          	mv	a0,s5
   151c8:	cecff0ef          	jal	ra,146b4 <esubm>
   151cc:	00100993          	li	s3,1
   151d0:	000b0513          	mv	a0,s6
   151d4:	bb8ff0ef          	jal	ra,1458c <eshup1>
   151d8:	04c95783          	lhu	a5,76(s2)
   151dc:	00040513          	mv	a0,s0
   151e0:	fff48493          	addi	s1,s1,-1
   151e4:	00f9e9b3          	or	s3,s3,a5
   151e8:	05391623          	sh	s3,76(s2)
   151ec:	ba0ff0ef          	jal	ra,1458c <eshup1>
   151f0:	f79ff06f          	j	15168 <eiremain+0x58>

000151f4 <emul>:
   151f4:	f7010113          	addi	sp,sp,-144
   151f8:	08812423          	sw	s0,136(sp)
   151fc:	08912223          	sw	s1,132(sp)
   15200:	07312e23          	sw	s3,124(sp)
   15204:	07412c23          	sw	s4,120(sp)
   15208:	08112623          	sw	ra,140(sp)
   1520c:	09212023          	sw	s2,128(sp)
   15210:	07512a23          	sw	s5,116(sp)
   15214:	07612823          	sw	s6,112(sp)
   15218:	07712623          	sw	s7,108(sp)
   1521c:	07812423          	sw	s8,104(sp)
   15220:	00050493          	mv	s1,a0
   15224:	00058413          	mv	s0,a1
   15228:	00060993          	mv	s3,a2
   1522c:	00068a13          	mv	s4,a3
   15230:	d58ff0ef          	jal	ra,14788 <eisnan>
   15234:	04050063          	beqz	a0,15274 <emul+0x80>
   15238:	00098593          	mv	a1,s3
   1523c:	00048513          	mv	a0,s1
   15240:	a60ff0ef          	jal	ra,144a0 <emov>
   15244:	08c12083          	lw	ra,140(sp)
   15248:	08812403          	lw	s0,136(sp)
   1524c:	08412483          	lw	s1,132(sp)
   15250:	08012903          	lw	s2,128(sp)
   15254:	07c12983          	lw	s3,124(sp)
   15258:	07812a03          	lw	s4,120(sp)
   1525c:	07412a83          	lw	s5,116(sp)
   15260:	07012b03          	lw	s6,112(sp)
   15264:	06c12b83          	lw	s7,108(sp)
   15268:	06812c03          	lw	s8,104(sp)
   1526c:	09010113          	addi	sp,sp,144
   15270:	00008067          	ret
   15274:	00040513          	mv	a0,s0
   15278:	d10ff0ef          	jal	ra,14788 <eisnan>
   1527c:	00050863          	beqz	a0,1528c <emul+0x98>
   15280:	00098593          	mv	a1,s3
   15284:	00040513          	mv	a0,s0
   15288:	fb9ff06f          	j	15240 <emul+0x4c>
   1528c:	00048513          	mv	a0,s1
   15290:	f3cff0ef          	jal	ra,149cc <eisinf>
   15294:	06051463          	bnez	a0,152fc <emul+0x108>
   15298:	00040513          	mv	a0,s0
   1529c:	f30ff0ef          	jal	ra,149cc <eisinf>
   152a0:	00050c63          	beqz	a0,152b8 <emul+0xc4>
   152a4:	000215b7          	lui	a1,0x21
   152a8:	74858593          	addi	a1,a1,1864 # 21748 <ezero>
   152ac:	00048513          	mv	a0,s1
   152b0:	e14ff0ef          	jal	ra,148c4 <ecmp>
   152b4:	04050e63          	beqz	a0,15310 <emul+0x11c>
   152b8:	00048513          	mv	a0,s1
   152bc:	f10ff0ef          	jal	ra,149cc <eisinf>
   152c0:	00051863          	bnez	a0,152d0 <emul+0xdc>
   152c4:	00040513          	mv	a0,s0
   152c8:	f04ff0ef          	jal	ra,149cc <eisinf>
   152cc:	04050c63          	beqz	a0,15324 <emul+0x130>
   152d0:	00048513          	mv	a0,s1
   152d4:	ce8ff0ef          	jal	ra,147bc <eisneg>
   152d8:	00050493          	mv	s1,a0
   152dc:	00040513          	mv	a0,s0
   152e0:	cdcff0ef          	jal	ra,147bc <eisneg>
   152e4:	02a48c63          	beq	s1,a0,1531c <emul+0x128>
   152e8:	ffff87b7          	lui	a5,0xffff8
   152ec:	00f99923          	sh	a5,18(s3)
   152f0:	00098513          	mv	a0,s3
   152f4:	f0cff0ef          	jal	ra,14a00 <einfin.isra.2>
   152f8:	f4dff06f          	j	15244 <emul+0x50>
   152fc:	000215b7          	lui	a1,0x21
   15300:	74858593          	addi	a1,a1,1864 # 21748 <ezero>
   15304:	00040513          	mv	a0,s0
   15308:	dbcff0ef          	jal	ra,148c4 <ecmp>
   1530c:	f80516e3          	bnez	a0,15298 <emul+0xa4>
   15310:	00098513          	mv	a0,s3
   15314:	949ff0ef          	jal	ra,14c5c <enan.constprop.12>
   15318:	f2dff06f          	j	15244 <emul+0x50>
   1531c:	00099923          	sh	zero,18(s3)
   15320:	fd1ff06f          	j	152f0 <emul+0xfc>
   15324:	00048513          	mv	a0,s1
   15328:	00c10593          	addi	a1,sp,12
   1532c:	cc8ff0ef          	jal	ra,147f4 <emovi>
   15330:	00040513          	mv	a0,s0
   15334:	02810593          	addi	a1,sp,40
   15338:	cbcff0ef          	jal	ra,147f4 <emovi>
   1533c:	00e15403          	lhu	s0,14(sp)
   15340:	02a15483          	lhu	s1,42(sp)
   15344:	0e040a63          	beqz	s0,15438 <emul+0x244>
   15348:	02a15783          	lhu	a5,42(sp)
   1534c:	00048b13          	mv	s6,s1
   15350:	10078063          	beqz	a5,15450 <emul+0x25c>
   15354:	02812783          	lw	a5,40(sp)
   15358:	034a0913          	addi	s2,s4,52
   1535c:	04ea0b93          	addi	s7,s4,78
   15360:	02fa2a23          	sw	a5,52(s4)
   15364:	038a0793          	addi	a5,s4,56
   15368:	00079023          	sh	zero,0(a5) # ffff8000 <_end+0xfffd1b20>
   1536c:	00278793          	addi	a5,a5,2
   15370:	ff779ce3          	bne	a5,s7,15368 <emul+0x174>
   15374:	00c10493          	addi	s1,sp,12
   15378:	ff810c13          	addi	s8,sp,-8
   1537c:	00000a93          	li	s5,0
   15380:	0184d503          	lhu	a0,24(s1)
   15384:	00050e63          	beqz	a0,153a0 <emul+0x1ac>
   15388:	02810593          	addi	a1,sp,40
   1538c:	04410613          	addi	a2,sp,68
   15390:	b5cff0ef          	jal	ra,146ec <m16m>
   15394:	00090593          	mv	a1,s2
   15398:	04410513          	addi	a0,sp,68
   1539c:	ae0ff0ef          	jal	ra,1467c <eaddm>
   153a0:	04ca5783          	lhu	a5,76(s4)
   153a4:	00090513          	mv	a0,s2
   153a8:	ffe48493          	addi	s1,s1,-2
   153ac:	00faeab3          	or	s5,s5,a5
   153b0:	aacff0ef          	jal	ra,1465c <eshdn6>
   153b4:	fc9c16e3          	bne	s8,s1,15380 <emul+0x18c>
   153b8:	00090593          	mv	a1,s2
   153bc:	02810793          	addi	a5,sp,40
   153c0:	0005d703          	lhu	a4,0(a1)
   153c4:	00258593          	addi	a1,a1,2
   153c8:	00278793          	addi	a5,a5,2
   153cc:	fee79f23          	sh	a4,-2(a5)
   153d0:	ff7598e3          	bne	a1,s7,153c0 <emul+0x1cc>
   153d4:	ffffc6b7          	lui	a3,0xffffc
   153d8:	01640433          	add	s0,s0,s6
   153dc:	00268693          	addi	a3,a3,2 # ffffc002 <_end+0xfffd5b22>
   153e0:	000a0793          	mv	a5,s4
   153e4:	04000713          	li	a4,64
   153e8:	00d406b3          	add	a3,s0,a3
   153ec:	00000613          	li	a2,0
   153f0:	000a8593          	mv	a1,s5
   153f4:	02810513          	addi	a0,sp,40
   153f8:	9fdff0ef          	jal	ra,14df4 <emdnorm>
   153fc:	00c15703          	lhu	a4,12(sp)
   15400:	02815783          	lhu	a5,40(sp)
   15404:	06f71a63          	bne	a4,a5,15478 <emul+0x284>
   15408:	02011423          	sh	zero,40(sp)
   1540c:	00098593          	mv	a1,s3
   15410:	02810513          	addi	a0,sp,40
   15414:	869ff0ef          	jal	ra,14c7c <emovo.isra.6>
   15418:	e2dff06f          	j	15244 <emul+0x50>
   1541c:	00278793          	addi	a5,a5,2
   15420:	0027d683          	lhu	a3,2(a5)
   15424:	00068e63          	beqz	a3,15440 <emul+0x24c>
   15428:	00c10513          	addi	a0,sp,12
   1542c:	f58ff0ef          	jal	ra,14b84 <enormlz>
   15430:	40a00433          	neg	s0,a0
   15434:	f15ff06f          	j	15348 <emul+0x154>
   15438:	00c10793          	addi	a5,sp,12
   1543c:	02010713          	addi	a4,sp,32
   15440:	fce79ee3          	bne	a5,a4,1541c <emul+0x228>
   15444:	00098513          	mv	a0,s3
   15448:	844ff0ef          	jal	ra,1448c <eclear>
   1544c:	df9ff06f          	j	15244 <emul+0x50>
   15450:	02810793          	addi	a5,sp,40
   15454:	03c10713          	addi	a4,sp,60
   15458:	fee786e3          	beq	a5,a4,15444 <emul+0x250>
   1545c:	00278793          	addi	a5,a5,2
   15460:	0027d683          	lhu	a3,2(a5)
   15464:	fe068ae3          	beqz	a3,15458 <emul+0x264>
   15468:	02810513          	addi	a0,sp,40
   1546c:	f18ff0ef          	jal	ra,14b84 <enormlz>
   15470:	40a48b33          	sub	s6,s1,a0
   15474:	ee1ff06f          	j	15354 <emul+0x160>
   15478:	fff00793          	li	a5,-1
   1547c:	02f11423          	sh	a5,40(sp)
   15480:	f8dff06f          	j	1540c <emul+0x218>

00015484 <ediv>:
   15484:	f7010113          	addi	sp,sp,-144
   15488:	08812423          	sw	s0,136(sp)
   1548c:	08912223          	sw	s1,132(sp)
   15490:	09212023          	sw	s2,128(sp)
   15494:	07512a23          	sw	s5,116(sp)
   15498:	08112623          	sw	ra,140(sp)
   1549c:	07312e23          	sw	s3,124(sp)
   154a0:	07412c23          	sw	s4,120(sp)
   154a4:	07612823          	sw	s6,112(sp)
   154a8:	07712623          	sw	s7,108(sp)
   154ac:	07812423          	sw	s8,104(sp)
   154b0:	07912223          	sw	s9,100(sp)
   154b4:	00050493          	mv	s1,a0
   154b8:	00058413          	mv	s0,a1
   154bc:	00060913          	mv	s2,a2
   154c0:	00068a93          	mv	s5,a3
   154c4:	ac4ff0ef          	jal	ra,14788 <eisnan>
   154c8:	04050263          	beqz	a0,1550c <ediv+0x88>
   154cc:	00090593          	mv	a1,s2
   154d0:	00048513          	mv	a0,s1
   154d4:	fcdfe0ef          	jal	ra,144a0 <emov>
   154d8:	08c12083          	lw	ra,140(sp)
   154dc:	08812403          	lw	s0,136(sp)
   154e0:	08412483          	lw	s1,132(sp)
   154e4:	08012903          	lw	s2,128(sp)
   154e8:	07c12983          	lw	s3,124(sp)
   154ec:	07812a03          	lw	s4,120(sp)
   154f0:	07412a83          	lw	s5,116(sp)
   154f4:	07012b03          	lw	s6,112(sp)
   154f8:	06c12b83          	lw	s7,108(sp)
   154fc:	06812c03          	lw	s8,104(sp)
   15500:	06412c83          	lw	s9,100(sp)
   15504:	09010113          	addi	sp,sp,144
   15508:	00008067          	ret
   1550c:	00040513          	mv	a0,s0
   15510:	a78ff0ef          	jal	ra,14788 <eisnan>
   15514:	00050863          	beqz	a0,15524 <ediv+0xa0>
   15518:	00090593          	mv	a1,s2
   1551c:	00040513          	mv	a0,s0
   15520:	fb5ff06f          	j	154d4 <ediv+0x50>
   15524:	000219b7          	lui	s3,0x21
   15528:	74898593          	addi	a1,s3,1864 # 21748 <ezero>
   1552c:	00048513          	mv	a0,s1
   15530:	b94ff0ef          	jal	ra,148c4 <ecmp>
   15534:	04050663          	beqz	a0,15580 <ediv+0xfc>
   15538:	00048513          	mv	a0,s1
   1553c:	c90ff0ef          	jal	ra,149cc <eisinf>
   15540:	00050993          	mv	s3,a0
   15544:	00040513          	mv	a0,s0
   15548:	c84ff0ef          	jal	ra,149cc <eisinf>
   1554c:	04099863          	bnez	s3,1559c <ediv+0x118>
   15550:	04050e63          	beqz	a0,155ac <ediv+0x128>
   15554:	00048513          	mv	a0,s1
   15558:	a64ff0ef          	jal	ra,147bc <eisneg>
   1555c:	00050493          	mv	s1,a0
   15560:	00040513          	mv	a0,s0
   15564:	a58ff0ef          	jal	ra,147bc <eisneg>
   15568:	20a48a63          	beq	s1,a0,1577c <ediv+0x2f8>
   1556c:	ffff87b7          	lui	a5,0xffff8
   15570:	00f91923          	sh	a5,18(s2)
   15574:	00090513          	mv	a0,s2
   15578:	c88ff0ef          	jal	ra,14a00 <einfin.isra.2>
   1557c:	f5dff06f          	j	154d8 <ediv+0x54>
   15580:	74898593          	addi	a1,s3,1864
   15584:	00040513          	mv	a0,s0
   15588:	b3cff0ef          	jal	ra,148c4 <ecmp>
   1558c:	fa0516e3          	bnez	a0,15538 <ediv+0xb4>
   15590:	00090513          	mv	a0,s2
   15594:	ec8ff0ef          	jal	ra,14c5c <enan.constprop.12>
   15598:	f41ff06f          	j	154d8 <ediv+0x54>
   1559c:	fe051ae3          	bnez	a0,15590 <ediv+0x10c>
   155a0:	00090513          	mv	a0,s2
   155a4:	ee9fe0ef          	jal	ra,1448c <eclear>
   155a8:	f31ff06f          	j	154d8 <ediv+0x54>
   155ac:	00048513          	mv	a0,s1
   155b0:	00c10593          	addi	a1,sp,12
   155b4:	a40ff0ef          	jal	ra,147f4 <emovi>
   155b8:	00040513          	mv	a0,s0
   155bc:	02810593          	addi	a1,sp,40
   155c0:	a34ff0ef          	jal	ra,147f4 <emovi>
   155c4:	02a15483          	lhu	s1,42(sp)
   155c8:	00e15403          	lhu	s0,14(sp)
   155cc:	14048a63          	beqz	s1,15720 <ediv+0x29c>
   155d0:	00e15783          	lhu	a5,14(sp)
   155d4:	00040b93          	mv	s7,s0
   155d8:	18078663          	beqz	a5,15764 <ediv+0x2e0>
   155dc:	02812703          	lw	a4,40(sp)
   155e0:	038a8793          	addi	a5,s5,56
   155e4:	04ea8b13          	addi	s6,s5,78
   155e8:	02eaaa23          	sw	a4,52(s5)
   155ec:	00078993          	mv	s3,a5
   155f0:	00278793          	addi	a5,a5,2 # ffff8002 <_end+0xfffd1b22>
   155f4:	fe079f23          	sh	zero,-2(a5)
   155f8:	ff679ce3          	bne	a5,s6,155f0 <ediv+0x16c>
   155fc:	02810513          	addi	a0,sp,40
   15600:	f3dfe0ef          	jal	ra,1453c <eshdn1>
   15604:	01215c03          	lhu	s8,18(sp)
   15608:	00010a37          	lui	s4,0x10
   1560c:	fffa0a13          	addi	s4,s4,-1 # ffff <_start-0x1>
   15610:	034c0cb3          	mul	s9,s8,s4
   15614:	02c15783          	lhu	a5,44(sp)
   15618:	02e15403          	lhu	s0,46(sp)
   1561c:	01079793          	slli	a5,a5,0x10
   15620:	008787b3          	add	a5,a5,s0
   15624:	000a0413          	mv	s0,s4
   15628:	00fce863          	bltu	s9,a5,15638 <ediv+0x1b4>
   1562c:	0387d433          	divu	s0,a5,s8
   15630:	01041413          	slli	s0,s0,0x10
   15634:	01045413          	srli	s0,s0,0x10
   15638:	00c10593          	addi	a1,sp,12
   1563c:	00040513          	mv	a0,s0
   15640:	04410613          	addi	a2,sp,68
   15644:	8a8ff0ef          	jal	ra,146ec <m16m>
   15648:	02810593          	addi	a1,sp,40
   1564c:	04410513          	addi	a0,sp,68
   15650:	eb1fe0ef          	jal	ra,14500 <ecmpm>
   15654:	02a05663          	blez	a0,15680 <ediv+0x1fc>
   15658:	04410593          	addi	a1,sp,68
   1565c:	00c10513          	addi	a0,sp,12
   15660:	854ff0ef          	jal	ra,146b4 <esubm>
   15664:	02810593          	addi	a1,sp,40
   15668:	04410513          	addi	a0,sp,68
   1566c:	e95fe0ef          	jal	ra,14500 <ecmpm>
   15670:	10a04a63          	bgtz	a0,15784 <ediv+0x300>
   15674:	fff40413          	addi	s0,s0,-1
   15678:	01041413          	slli	s0,s0,0x10
   1567c:	01045413          	srli	s0,s0,0x10
   15680:	02810593          	addi	a1,sp,40
   15684:	04410513          	addi	a0,sp,68
   15688:	82cff0ef          	jal	ra,146b4 <esubm>
   1568c:	02810513          	addi	a0,sp,40
   15690:	00899023          	sh	s0,0(s3)
   15694:	00298993          	addi	s3,s3,2
   15698:	fa5fe0ef          	jal	ra,1463c <eshup6>
   1569c:	f73b1ce3          	bne	s6,s3,15614 <ediv+0x190>
   156a0:	02810713          	addi	a4,sp,40
   156a4:	03e10693          	addi	a3,sp,62
   156a8:	00070793          	mv	a5,a4
   156ac:	00000593          	li	a1,0
   156b0:	0047d603          	lhu	a2,4(a5)
   156b4:	00278793          	addi	a5,a5,2
   156b8:	00c5e5b3          	or	a1,a1,a2
   156bc:	fef69ae3          	bne	a3,a5,156b0 <ediv+0x22c>
   156c0:	00b035b3          	snez	a1,a1
   156c4:	034a8793          	addi	a5,s5,52
   156c8:	0007d683          	lhu	a3,0(a5)
   156cc:	00278793          	addi	a5,a5,2
   156d0:	00270713          	addi	a4,a4,2
   156d4:	fed71f23          	sh	a3,-2(a4)
   156d8:	fefb18e3          	bne	s6,a5,156c8 <ediv+0x244>
   156dc:	000046b7          	lui	a3,0x4
   156e0:	417484b3          	sub	s1,s1,s7
   156e4:	fff68693          	addi	a3,a3,-1 # 3fff <_start-0xc001>
   156e8:	000a8793          	mv	a5,s5
   156ec:	04000713          	li	a4,64
   156f0:	00d486b3          	add	a3,s1,a3
   156f4:	00000613          	li	a2,0
   156f8:	02810513          	addi	a0,sp,40
   156fc:	ef8ff0ef          	jal	ra,14df4 <emdnorm>
   15700:	00c15703          	lhu	a4,12(sp)
   15704:	02815783          	lhu	a5,40(sp)
   15708:	08f71c63          	bne	a4,a5,157a0 <ediv+0x31c>
   1570c:	02011423          	sh	zero,40(sp)
   15710:	00090593          	mv	a1,s2
   15714:	02810513          	addi	a0,sp,40
   15718:	d64ff0ef          	jal	ra,14c7c <emovo.isra.6>
   1571c:	dbdff06f          	j	154d8 <ediv+0x54>
   15720:	02810793          	addi	a5,sp,40
   15724:	03c10713          	addi	a4,sp,60
   15728:	e6e78ce3          	beq	a5,a4,155a0 <ediv+0x11c>
   1572c:	00278793          	addi	a5,a5,2
   15730:	0027d683          	lhu	a3,2(a5)
   15734:	fe068ae3          	beqz	a3,15728 <ediv+0x2a4>
   15738:	02810513          	addi	a0,sp,40
   1573c:	c48ff0ef          	jal	ra,14b84 <enormlz>
   15740:	40a004b3          	neg	s1,a0
   15744:	e8dff06f          	j	155d0 <ediv+0x14c>
   15748:	00278793          	addi	a5,a5,2
   1574c:	0027d683          	lhu	a3,2(a5)
   15750:	00068e63          	beqz	a3,1576c <ediv+0x2e8>
   15754:	00c10513          	addi	a0,sp,12
   15758:	c2cff0ef          	jal	ra,14b84 <enormlz>
   1575c:	40a40bb3          	sub	s7,s0,a0
   15760:	e7dff06f          	j	155dc <ediv+0x158>
   15764:	00c10793          	addi	a5,sp,12
   15768:	02010713          	addi	a4,sp,32
   1576c:	fce79ee3          	bne	a5,a4,15748 <ediv+0x2c4>
   15770:	00c15703          	lhu	a4,12(sp)
   15774:	02815783          	lhu	a5,40(sp)
   15778:	def71ae3          	bne	a4,a5,1556c <ediv+0xe8>
   1577c:	00091923          	sh	zero,18(s2)
   15780:	df5ff06f          	j	15574 <ediv+0xf0>
   15784:	ffe40413          	addi	s0,s0,-2
   15788:	01041413          	slli	s0,s0,0x10
   1578c:	04410593          	addi	a1,sp,68
   15790:	00c10513          	addi	a0,sp,12
   15794:	01045413          	srli	s0,s0,0x10
   15798:	f1dfe0ef          	jal	ra,146b4 <esubm>
   1579c:	ee5ff06f          	j	15680 <ediv+0x1fc>
   157a0:	fff00793          	li	a5,-1
   157a4:	02f11423          	sh	a5,40(sp)
   157a8:	f69ff06f          	j	15710 <ediv+0x28c>

000157ac <_ldtoa_r>:
   157ac:	0005ae03          	lw	t3,0(a1)
   157b0:	0045a303          	lw	t1,4(a1)
   157b4:	0085a883          	lw	a7,8(a1)
   157b8:	00c5a583          	lw	a1,12(a1)
   157bc:	e2010113          	addi	sp,sp,-480
   157c0:	1c812c23          	sw	s0,472(sp)
   157c4:	02b12623          	sw	a1,44(sp)
   157c8:	00078413          	mv	s0,a5
   157cc:	04052583          	lw	a1,64(a0)
   157d0:	fff00793          	li	a5,-1
   157d4:	14f12823          	sw	a5,336(sp)
   157d8:	09000793          	li	a5,144
   157dc:	1d412423          	sw	s4,456(sp)
   157e0:	1d612023          	sw	s6,448(sp)
   157e4:	1b912a23          	sw	s9,436(sp)
   157e8:	1ba12823          	sw	s10,432(sp)
   157ec:	1c112e23          	sw	ra,476(sp)
   157f0:	1c912a23          	sw	s1,468(sp)
   157f4:	1d212823          	sw	s2,464(sp)
   157f8:	1d312623          	sw	s3,460(sp)
   157fc:	1d512223          	sw	s5,452(sp)
   15800:	1b712e23          	sw	s7,444(sp)
   15804:	1b812c23          	sw	s8,440(sp)
   15808:	1bb12623          	sw	s11,428(sp)
   1580c:	01012823          	sw	a6,16(sp)
   15810:	03c12023          	sw	t3,32(sp)
   15814:	02612223          	sw	t1,36(sp)
   15818:	03112423          	sw	a7,40(sp)
   1581c:	14f12a23          	sw	a5,340(sp)
   15820:	00050a13          	mv	s4,a0
   15824:	00060b13          	mv	s6,a2
   15828:	00068c93          	mv	s9,a3
   1582c:	00070d13          	mv	s10,a4
   15830:	02058063          	beqz	a1,15850 <_ldtoa_r+0xa4>
   15834:	04452783          	lw	a5,68(a0)
   15838:	00100713          	li	a4,1
   1583c:	00f71733          	sll	a4,a4,a5
   15840:	00f5a223          	sw	a5,4(a1)
   15844:	00e5a423          	sw	a4,8(a1)
   15848:	0c4010ef          	jal	ra,1690c <_Bfree>
   1584c:	040a2023          	sw	zero,64(s4)
   15850:	02010513          	addi	a0,sp,32
   15854:	05010593          	addi	a1,sp,80
   15858:	c94ff0ef          	jal	ra,14cec <e113toe.isra.8>
   1585c:	05010513          	addi	a0,sp,80
   15860:	f5dfe0ef          	jal	ra,147bc <eisneg>
   15864:	0e050063          	beqz	a0,15944 <_ldtoa_r+0x198>
   15868:	00100793          	li	a5,1
   1586c:	00f42023          	sw	a5,0(s0)
   15870:	00300793          	li	a5,3
   15874:	0cfb0c63          	beq	s6,a5,1594c <_ldtoa_r+0x1a0>
   15878:	01400993          	li	s3,20
   1587c:	000b0a63          	beqz	s6,15890 <_ldtoa_r+0xe4>
   15880:	fffc8993          	addi	s3,s9,-1
   15884:	02a00793          	li	a5,42
   15888:	0137d463          	ble	s3,a5,15890 <_ldtoa_r+0xe4>
   1588c:	02a00993          	li	s3,42
   15890:	15412783          	lw	a5,340(sp)
   15894:	05010513          	addi	a0,sp,80
   15898:	00f12a23          	sw	a5,20(sp)
   1589c:	eedfe0ef          	jal	ra,14788 <eisnan>
   158a0:	00050b93          	mv	s7,a0
   158a4:	0a050863          	beqz	a0,15954 <_ldtoa_r+0x1a8>
   158a8:	000225b7          	lui	a1,0x22
   158ac:	99c58593          	addi	a1,a1,-1636 # 2199c <emtens+0x104>
   158b0:	11410513          	addi	a0,sp,276
   158b4:	00002437          	lui	s0,0x2
   158b8:	5dc020ef          	jal	ra,17e94 <sprintf>
   158bc:	70f40413          	addi	s0,s0,1807 # 270f <_start-0xd8f1>
   158c0:	01412783          	lw	a5,20(sp)
   158c4:	05010513          	addi	a0,sp,80
   158c8:	16812023          	sw	s0,352(sp)
   158cc:	14f12a23          	sw	a5,340(sp)
   158d0:	8fcff0ef          	jal	ra,149cc <eisinf>
   158d4:	11410913          	addi	s2,sp,276
   158d8:	00051863          	bnez	a0,158e8 <_ldtoa_r+0x13c>
   158dc:	05010513          	addi	a0,sp,80
   158e0:	ea9fe0ef          	jal	ra,14788 <eisnan>
   158e4:	14050ee3          	beqz	a0,16240 <_ldtoa_r+0xa94>
   158e8:	000027b7          	lui	a5,0x2
   158ec:	70f78793          	addi	a5,a5,1807 # 270f <_start-0xd8f1>
   158f0:	00fd2023          	sw	a5,0(s10)
   158f4:	00090793          	mv	a5,s2
   158f8:	02000613          	li	a2,32
   158fc:	02d00693          	li	a3,45
   15900:	0007c703          	lbu	a4,0(a5)
   15904:	18c70ce3          	beq	a4,a2,1629c <_ldtoa_r+0xaf0>
   15908:	18d70ae3          	beq	a4,a3,1629c <_ldtoa_r+0xaf0>
   1590c:	00090493          	mv	s1,s2
   15910:	00178793          	addi	a5,a5,1
   15914:	fff7c703          	lbu	a4,-1(a5)
   15918:	00148693          	addi	a3,s1,1
   1591c:	fee68fa3          	sb	a4,-1(a3)
   15920:	180712e3          	bnez	a4,162a4 <_ldtoa_r+0xaf8>
   15924:	00200713          	li	a4,2
   15928:	00100793          	li	a5,1
   1592c:	00eb0863          	beq	s6,a4,1593c <_ldtoa_r+0x190>
   15930:	00098793          	mv	a5,s3
   15934:	0089d463          	ble	s0,s3,1593c <_ldtoa_r+0x190>
   15938:	00040793          	mv	a5,s0
   1593c:	03000693          	li	a3,48
   15940:	1750006f          	j	162b4 <_ldtoa_r+0xb08>
   15944:	00042023          	sw	zero,0(s0)
   15948:	f29ff06f          	j	15870 <_ldtoa_r+0xc4>
   1594c:	000c8993          	mv	s3,s9
   15950:	f35ff06f          	j	15884 <_ldtoa_r+0xd8>
   15954:	09000793          	li	a5,144
   15958:	06c10593          	addi	a1,sp,108
   1595c:	05010513          	addi	a0,sp,80
   15960:	14f12a23          	sw	a5,340(sp)
   15964:	b3dfe0ef          	jal	ra,144a0 <emov>
   15968:	07e15783          	lhu	a5,126(sp)
   1596c:	00012023          	sw	zero,0(sp)
   15970:	01079713          	slli	a4,a5,0x10
   15974:	41075713          	srai	a4,a4,0x10
   15978:	00075e63          	bgez	a4,15994 <_ldtoa_r+0x1e8>
   1597c:	01179793          	slli	a5,a5,0x11
   15980:	0117d793          	srli	a5,a5,0x11
   15984:	06f11f23          	sh	a5,126(sp)
   15988:	000107b7          	lui	a5,0x10
   1598c:	fff78793          	addi	a5,a5,-1 # ffff <_start-0x1>
   15990:	00f12023          	sw	a5,0(sp)
   15994:	00021437          	lui	s0,0x21
   15998:	74840513          	addi	a0,s0,1864 # 21748 <ezero>
   1599c:	08810593          	addi	a1,sp,136
   159a0:	11850513          	addi	a0,a0,280
   159a4:	afdfe0ef          	jal	ra,144a0 <emov>
   159a8:	07e15703          	lhu	a4,126(sp)
   159ac:	00022937          	lui	s2,0x22
   159b0:	00812423          	sw	s0,8(sp)
   159b4:	74840493          	addi	s1,s0,1864
   159b8:	86090913          	addi	s2,s2,-1952 # 21860 <eone>
   159bc:	1c0712e3          	bnez	a4,16380 <_ldtoa_r+0xbd4>
   159c0:	06c10793          	addi	a5,sp,108
   159c4:	07e10713          	addi	a4,sp,126
   159c8:	0007d683          	lhu	a3,0(a5)
   159cc:	10069463          	bnez	a3,15ad4 <_ldtoa_r+0x328>
   159d0:	00278793          	addi	a5,a5,2
   159d4:	fef71ae3          	bne	a4,a5,159c8 <_ldtoa_r+0x21c>
   159d8:	00000413          	li	s0,0
   159dc:	0c010593          	addi	a1,sp,192
   159e0:	08810513          	addi	a0,sp,136
   159e4:	e11fe0ef          	jal	ra,147f4 <emovi>
   159e8:	08810593          	addi	a1,sp,136
   159ec:	0c010513          	addi	a0,sp,192
   159f0:	ae9fe0ef          	jal	ra,144d8 <emovz>
   159f4:	0c010593          	addi	a1,sp,192
   159f8:	06c10513          	addi	a0,sp,108
   159fc:	df9fe0ef          	jal	ra,147f4 <emovi>
   15a00:	06c10593          	addi	a1,sp,108
   15a04:	0c010513          	addi	a0,sp,192
   15a08:	ad1fe0ef          	jal	ra,144d8 <emovz>
   15a0c:	15010613          	addi	a2,sp,336
   15a10:	06c10593          	addi	a1,sp,108
   15a14:	08810513          	addi	a0,sp,136
   15a18:	ef8ff0ef          	jal	ra,15110 <eiremain>
   15a1c:	19c15483          	lhu	s1,412(sp)
   15a20:	00049c63          	bnez	s1,15a38 <_ldtoa_r+0x28c>
   15a24:	00812783          	lw	a5,8(sp)
   15a28:	06c10513          	addi	a0,sp,108
   15a2c:	74878593          	addi	a1,a5,1864
   15a30:	e95fe0ef          	jal	ra,148c4 <ecmp>
   15a34:	66051c63          	bnez	a0,160ac <_ldtoa_r+0x900>
   15a38:	00012783          	lw	a5,0(sp)
   15a3c:	6a078e63          	beqz	a5,160f8 <_ldtoa_r+0x94c>
   15a40:	02d00793          	li	a5,45
   15a44:	10f10a23          	sb	a5,276(sp)
   15a48:	00300793          	li	a5,3
   15a4c:	00098913          	mv	s2,s3
   15a50:	00fb1a63          	bne	s6,a5,15a64 <_ldtoa_r+0x2b8>
   15a54:	00898933          	add	s2,s3,s0
   15a58:	02a00793          	li	a5,42
   15a5c:	0127d463          	ble	s2,a5,15a64 <_ldtoa_r+0x2b8>
   15a60:	02a00913          	li	s2,42
   15a64:	00a00793          	li	a5,10
   15a68:	68f49c63          	bne	s1,a5,16100 <_ldtoa_r+0x954>
   15a6c:	03100793          	li	a5,49
   15a70:	10f10aa3          	sb	a5,277(sp)
   15a74:	02e00793          	li	a5,46
   15a78:	10f10b23          	sb	a5,278(sp)
   15a7c:	11710493          	addi	s1,sp,279
   15a80:	01205a63          	blez	s2,15a94 <_ldtoa_r+0x2e8>
   15a84:	03000793          	li	a5,48
   15a88:	10f10ba3          	sb	a5,279(sp)
   15a8c:	fff90913          	addi	s2,s2,-1
   15a90:	11810493          	addi	s1,sp,280
   15a94:	00140413          	addi	s0,s0,1
   15a98:	66095e63          	bgez	s2,16114 <_ldtoa_r+0x968>
   15a9c:	000225b7          	lui	a1,0x22
   15aa0:	00040613          	mv	a2,s0
   15aa4:	9c058593          	addi	a1,a1,-1600 # 219c0 <emtens+0x128>
   15aa8:	00048513          	mv	a0,s1
   15aac:	3e8020ef          	jal	ra,17e94 <sprintf>
   15ab0:	e11ff06f          	j	158c0 <_ldtoa_r+0x114>
   15ab4:	000225b7          	lui	a1,0x22
   15ab8:	9b058593          	addi	a1,a1,-1616 # 219b0 <emtens+0x118>
   15abc:	df5ff06f          	j	158b0 <_ldtoa_r+0x104>
   15ac0:	07c11783          	lh	a5,124(sp)
   15ac4:	0007c863          	bltz	a5,15ad4 <_ldtoa_r+0x328>
   15ac8:	000225b7          	lui	a1,0x22
   15acc:	9bc58593          	addi	a1,a1,-1604 # 219bc <emtens+0x124>
   15ad0:	de1ff06f          	j	158b0 <_ldtoa_r+0x104>
   15ad4:	06c10593          	addi	a1,sp,108
   15ad8:	00090513          	mv	a0,s2
   15adc:	de9fe0ef          	jal	ra,148c4 <ecmp>
   15ae0:	ee050ce3          	beqz	a0,159d8 <_ldtoa_r+0x22c>
   15ae4:	42055a63          	bgez	a0,15f18 <_ldtoa_r+0x76c>
   15ae8:	0a410593          	addi	a1,sp,164
   15aec:	06c10513          	addi	a0,sp,108
   15af0:	9b1fe0ef          	jal	ra,144a0 <emov>
   15af4:	000047b7          	lui	a5,0x4
   15af8:	08e78793          	addi	a5,a5,142 # 408e <_start-0xbf72>
   15afc:	0af11b23          	sh	a5,182(sp)
   15b00:	01000793          	li	a5,16
   15b04:	00f12223          	sw	a5,4(sp)
   15b08:	000087b7          	lui	a5,0x8
   15b0c:	fff78793          	addi	a5,a5,-1 # 7fff <_start-0x8001>
   15b10:	00f12c23          	sw	a5,24(sp)
   15b14:	ffffc7b7          	lui	a5,0xffffc
   15b18:	00278793          	addi	a5,a5,2 # ffffc002 <_end+0xfffd5b22>
   15b1c:	00000413          	li	s0,0
   15b20:	0b448c13          	addi	s8,s1,180
   15b24:	00f12e23          	sw	a5,28(sp)
   15b28:	15010693          	addi	a3,sp,336
   15b2c:	08810613          	addi	a2,sp,136
   15b30:	0a410593          	addi	a1,sp,164
   15b34:	000c0513          	mv	a0,s8
   15b38:	94dff0ef          	jal	ra,15484 <ediv>
   15b3c:	03c10593          	addi	a1,sp,60
   15b40:	08810513          	addi	a0,sp,136
   15b44:	95dfe0ef          	jal	ra,144a0 <emov>
   15b48:	01812783          	lw	a5,24(sp)
   15b4c:	04e15a83          	lhu	s5,78(sp)
   15b50:	00fafdb3          	and	s11,s5,a5
   15b54:	01c12783          	lw	a5,28(sp)
   15b58:	00fd8db3          	add	s11,s11,a5
   15b5c:	05b04a63          	bgtz	s11,15bb0 <_ldtoa_r+0x404>
   15b60:	0c010513          	addi	a0,sp,192
   15b64:	929fe0ef          	jal	ra,1448c <eclear>
   15b68:	010a9a93          	slli	s5,s5,0x10
   15b6c:	410ada93          	srai	s5,s5,0x10
   15b70:	100ad463          	bgez	s5,15c78 <_ldtoa_r+0x4cc>
   15b74:	00000793          	li	a5,0
   15b78:	03c10713          	addi	a4,sp,60
   15b7c:	00f70733          	add	a4,a4,a5
   15b80:	00075683          	lhu	a3,0(a4)
   15b84:	0c010713          	addi	a4,sp,192
   15b88:	00f70733          	add	a4,a4,a5
   15b8c:	00075703          	lhu	a4,0(a4)
   15b90:	36e68c63          	beq	a3,a4,15f08 <_ldtoa_r+0x75c>
   15b94:	00090513          	mv	a0,s2
   15b98:	bf1fe0ef          	jal	ra,14788 <eisnan>
   15b9c:	08050263          	beqz	a0,15c20 <_ldtoa_r+0x474>
   15ba0:	0c010593          	addi	a1,sp,192
   15ba4:	00090513          	mv	a0,s2
   15ba8:	8f9fe0ef          	jal	ra,144a0 <emov>
   15bac:	0cc0006f          	j	15c78 <_ldtoa_r+0x4cc>
   15bb0:	09000793          	li	a5,144
   15bb4:	41b78db3          	sub	s11,a5,s11
   15bb8:	0c010593          	addi	a1,sp,192
   15bbc:	03c10513          	addi	a0,sp,60
   15bc0:	8e1fe0ef          	jal	ra,144a0 <emov>
   15bc4:	0bb05a63          	blez	s11,15c78 <_ldtoa_r+0x4cc>
   15bc8:	0c010713          	addi	a4,sp,192
   15bcc:	000d8793          	mv	a5,s11
   15bd0:	00f00693          	li	a3,15
   15bd4:	02f6ce63          	blt	a3,a5,15c10 <_ldtoa_r+0x464>
   15bd8:	004dd793          	srli	a5,s11,0x4
   15bdc:	00179713          	slli	a4,a5,0x1
   15be0:	0c010693          	addi	a3,sp,192
   15be4:	00e68733          	add	a4,a3,a4
   15be8:	ff000693          	li	a3,-16
   15bec:	02d787b3          	mul	a5,a5,a3
   15bf0:	00075683          	lhu	a3,0(a4)
   15bf4:	01b787b3          	add	a5,a5,s11
   15bf8:	00179793          	slli	a5,a5,0x1
   15bfc:	00f487b3          	add	a5,s1,a5
   15c00:	12c7d783          	lhu	a5,300(a5)
   15c04:	00d7f7b3          	and	a5,a5,a3
   15c08:	00f71023          	sh	a5,0(a4)
   15c0c:	f5dff06f          	j	15b68 <_ldtoa_r+0x3bc>
   15c10:	00071023          	sh	zero,0(a4)
   15c14:	ff078793          	addi	a5,a5,-16
   15c18:	00270713          	addi	a4,a4,2
   15c1c:	fb9ff06f          	j	15bd4 <_ldtoa_r+0x428>
   15c20:	0c010513          	addi	a0,sp,192
   15c24:	b65fe0ef          	jal	ra,14788 <eisnan>
   15c28:	00050863          	beqz	a0,15c38 <_ldtoa_r+0x48c>
   15c2c:	0c010593          	addi	a1,sp,192
   15c30:	00058513          	mv	a0,a1
   15c34:	f75ff06f          	j	15ba8 <_ldtoa_r+0x3fc>
   15c38:	00090513          	mv	a0,s2
   15c3c:	d91fe0ef          	jal	ra,149cc <eisinf>
   15c40:	00050a93          	mv	s5,a0
   15c44:	0c010513          	addi	a0,sp,192
   15c48:	d85fe0ef          	jal	ra,149cc <eisinf>
   15c4c:	00050d93          	mv	s11,a0
   15c50:	140a8463          	beqz	s5,15d98 <_ldtoa_r+0x5ec>
   15c54:	10050c63          	beqz	a0,15d6c <_ldtoa_r+0x5c0>
   15c58:	00090513          	mv	a0,s2
   15c5c:	b61fe0ef          	jal	ra,147bc <eisneg>
   15c60:	00050a93          	mv	s5,a0
   15c64:	0c010513          	addi	a0,sp,192
   15c68:	b55fe0ef          	jal	ra,147bc <eisneg>
   15c6c:	10aa9063          	bne	s5,a0,15d6c <_ldtoa_r+0x5c0>
   15c70:	0c010513          	addi	a0,sp,192
   15c74:	fe9fe0ef          	jal	ra,14c5c <enan.constprop.12>
   15c78:	00000793          	li	a5,0
   15c7c:	08810713          	addi	a4,sp,136
   15c80:	00f70733          	add	a4,a4,a5
   15c84:	00075683          	lhu	a3,0(a4)
   15c88:	0c010713          	addi	a4,sp,192
   15c8c:	00f70733          	add	a4,a4,a5
   15c90:	00075703          	lhu	a4,0(a4)
   15c94:	02e69263          	bne	a3,a4,15cb8 <_ldtoa_r+0x50c>
   15c98:	00278793          	addi	a5,a5,2
   15c9c:	01200713          	li	a4,18
   15ca0:	fce79ee3          	bne	a5,a4,15c7c <_ldtoa_r+0x4d0>
   15ca4:	0a410593          	addi	a1,sp,164
   15ca8:	08810513          	addi	a0,sp,136
   15cac:	ff4fe0ef          	jal	ra,144a0 <emov>
   15cb0:	00412783          	lw	a5,4(sp)
   15cb4:	00f40433          	add	s0,s0,a5
   15cb8:	00412783          	lw	a5,4(sp)
   15cbc:	014c0c13          	addi	s8,s8,20
   15cc0:	01448d93          	addi	s11,s1,20
   15cc4:	0017d793          	srli	a5,a5,0x1
   15cc8:	00f12223          	sw	a5,4(sp)
   15ccc:	11848793          	addi	a5,s1,280
   15cd0:	e4fc1ce3          	bne	s8,a5,15b28 <_ldtoa_r+0x37c>
   15cd4:	0b615783          	lhu	a5,182(sp)
   15cd8:	07e15703          	lhu	a4,126(sp)
   15cdc:	06c10593          	addi	a1,sp,108
   15ce0:	0a410513          	addi	a0,sp,164
   15ce4:	00e787b3          	add	a5,a5,a4
   15ce8:	ffffc737          	lui	a4,0xffffc
   15cec:	f7270713          	addi	a4,a4,-142 # ffffbf72 <_end+0xfffd5a92>
   15cf0:	00e787b3          	add	a5,a5,a4
   15cf4:	0af11b23          	sh	a5,182(sp)
   15cf8:	fa8fe0ef          	jal	ra,144a0 <emov>
   15cfc:	08810593          	addi	a1,sp,136
   15d00:	000c0513          	mv	a0,s8
   15d04:	f9cfe0ef          	jal	ra,144a0 <emov>
   15d08:	00001ab7          	lui	s5,0x1
   15d0c:	10448493          	addi	s1,s1,260
   15d10:	0a410593          	addi	a1,sp,164
   15d14:	00048513          	mv	a0,s1
   15d18:	badfe0ef          	jal	ra,148c4 <ecmp>
   15d1c:	cca040e3          	bgtz	a0,159dc <_ldtoa_r+0x230>
   15d20:	0a410593          	addi	a1,sp,164
   15d24:	000d8513          	mv	a0,s11
   15d28:	b9dfe0ef          	jal	ra,148c4 <ecmp>
   15d2c:	02a04863          	bgtz	a0,15d5c <_ldtoa_r+0x5b0>
   15d30:	0a410613          	addi	a2,sp,164
   15d34:	00060593          	mv	a1,a2
   15d38:	15010693          	addi	a3,sp,336
   15d3c:	000d8513          	mv	a0,s11
   15d40:	f44ff0ef          	jal	ra,15484 <ediv>
   15d44:	08810613          	addi	a2,sp,136
   15d48:	15010693          	addi	a3,sp,336
   15d4c:	00060593          	mv	a1,a2
   15d50:	000d8513          	mv	a0,s11
   15d54:	ca0ff0ef          	jal	ra,151f4 <emul>
   15d58:	01540433          	add	s0,s0,s5
   15d5c:	001ada93          	srli	s5,s5,0x1
   15d60:	c69d8ee3          	beq	s11,s1,159dc <_ldtoa_r+0x230>
   15d64:	014d8d93          	addi	s11,s11,20
   15d68:	fa9ff06f          	j	15d10 <_ldtoa_r+0x564>
   15d6c:	00090513          	mv	a0,s2
   15d70:	0c010593          	addi	a1,sp,192
   15d74:	f2cfe0ef          	jal	ra,144a0 <emov>
   15d78:	0c010513          	addi	a0,sp,192
   15d7c:	a0dfe0ef          	jal	ra,14788 <eisnan>
   15d80:	ee051ce3          	bnez	a0,15c78 <_ldtoa_r+0x4cc>
   15d84:	0d215783          	lhu	a5,210(sp)
   15d88:	ffff8737          	lui	a4,0xffff8
   15d8c:	00e7c7b3          	xor	a5,a5,a4
   15d90:	0cf11923          	sh	a5,210(sp)
   15d94:	ee5ff06f          	j	15c78 <_ldtoa_r+0x4cc>
   15d98:	e8051ae3          	bnez	a0,15c2c <_ldtoa_r+0x480>
   15d9c:	0dc10593          	addi	a1,sp,220
   15da0:	00090513          	mv	a0,s2
   15da4:	a51fe0ef          	jal	ra,147f4 <emovi>
   15da8:	0f810593          	addi	a1,sp,248
   15dac:	0c010513          	addi	a0,sp,192
   15db0:	a45fe0ef          	jal	ra,147f4 <emovi>
   15db4:	0dc15783          	lhu	a5,220(sp)
   15db8:	0fa15a83          	lhu	s5,250(sp)
   15dbc:	fff7c793          	not	a5,a5
   15dc0:	0cf11e23          	sh	a5,220(sp)
   15dc4:	0de15783          	lhu	a5,222(sp)
   15dc8:	415785b3          	sub	a1,a5,s5
   15dcc:	00f12623          	sw	a5,12(sp)
   15dd0:	02b05a63          	blez	a1,15e04 <_ldtoa_r+0x658>
   15dd4:	11410593          	addi	a1,sp,276
   15dd8:	0f810513          	addi	a0,sp,248
   15ddc:	efcfe0ef          	jal	ra,144d8 <emovz>
   15de0:	0f810593          	addi	a1,sp,248
   15de4:	0dc10513          	addi	a0,sp,220
   15de8:	ef0fe0ef          	jal	ra,144d8 <emovz>
   15dec:	0dc10593          	addi	a1,sp,220
   15df0:	11410513          	addi	a0,sp,276
   15df4:	ee4fe0ef          	jal	ra,144d8 <emovz>
   15df8:	00c12783          	lw	a5,12(sp)
   15dfc:	40fa85b3          	sub	a1,s5,a5
   15e00:	0fa15a83          	lhu	s5,250(sp)
   15e04:	04058863          	beqz	a1,15e54 <_ldtoa_r+0x6a8>
   15e08:	f6f00793          	li	a5,-145
   15e0c:	08f5c463          	blt	a1,a5,15e94 <_ldtoa_r+0x6e8>
   15e10:	0dc10513          	addi	a0,sp,220
   15e14:	c19fe0ef          	jal	ra,14a2c <eshift.part.3>
   15e18:	00a12623          	sw	a0,12(sp)
   15e1c:	0dc15703          	lhu	a4,220(sp)
   15e20:	0f815783          	lhu	a5,248(sp)
   15e24:	0f810593          	addi	a1,sp,248
   15e28:	0dc10513          	addi	a0,sp,220
   15e2c:	0cf71863          	bne	a4,a5,15efc <_ldtoa_r+0x750>
   15e30:	84dfe0ef          	jal	ra,1467c <eaddm>
   15e34:	00c12583          	lw	a1,12(sp)
   15e38:	15010793          	addi	a5,sp,336
   15e3c:	04000713          	li	a4,64
   15e40:	000a8693          	mv	a3,s5
   15e44:	000d8613          	mv	a2,s11
   15e48:	0f810513          	addi	a0,sp,248
   15e4c:	fa9fe0ef          	jal	ra,14df4 <emdnorm>
   15e50:	0440006f          	j	15e94 <_ldtoa_r+0x6e8>
   15e54:	0f810593          	addi	a1,sp,248
   15e58:	0dc10513          	addi	a0,sp,220
   15e5c:	ea4fe0ef          	jal	ra,14500 <ecmpm>
   15e60:	06051663          	bnez	a0,15ecc <_ldtoa_r+0x720>
   15e64:	0dc15703          	lhu	a4,220(sp)
   15e68:	0f815783          	lhu	a5,248(sp)
   15e6c:	00f70863          	beq	a4,a5,15e7c <_ldtoa_r+0x6d0>
   15e70:	0c010513          	addi	a0,sp,192
   15e74:	e18fe0ef          	jal	ra,1448c <eclear>
   15e78:	e01ff06f          	j	15c78 <_ldtoa_r+0x4cc>
   15e7c:	0fa15783          	lhu	a5,250(sp)
   15e80:	02079263          	bnez	a5,15ea4 <_ldtoa_r+0x6f8>
   15e84:	0fe11783          	lh	a5,254(sp)
   15e88:	0007ce63          	bltz	a5,15ea4 <_ldtoa_r+0x6f8>
   15e8c:	0f810513          	addi	a0,sp,248
   15e90:	efcfe0ef          	jal	ra,1458c <eshup1>
   15e94:	0c010593          	addi	a1,sp,192
   15e98:	0f810513          	addi	a0,sp,248
   15e9c:	de1fe0ef          	jal	ra,14c7c <emovo.isra.6>
   15ea0:	dd9ff06f          	j	15c78 <_ldtoa_r+0x4cc>
   15ea4:	0f810793          	addi	a5,sp,248
   15ea8:	10e10713          	addi	a4,sp,270
   15eac:	0027d683          	lhu	a3,2(a5)
   15eb0:	00068863          	beqz	a3,15ec0 <_ldtoa_r+0x714>
   15eb4:	001a8a93          	addi	s5,s5,1 # 1001 <_start-0xefff>
   15eb8:	0f511d23          	sh	s5,250(sp)
   15ebc:	fd9ff06f          	j	15e94 <_ldtoa_r+0x6e8>
   15ec0:	00278793          	addi	a5,a5,2
   15ec4:	fef714e3          	bne	a4,a5,15eac <_ldtoa_r+0x700>
   15ec8:	ff1ff06f          	j	15eb8 <_ldtoa_r+0x70c>
   15ecc:	00012623          	sw	zero,12(sp)
   15ed0:	f4a056e3          	blez	a0,15e1c <_ldtoa_r+0x670>
   15ed4:	11410593          	addi	a1,sp,276
   15ed8:	0f810513          	addi	a0,sp,248
   15edc:	dfcfe0ef          	jal	ra,144d8 <emovz>
   15ee0:	0f810593          	addi	a1,sp,248
   15ee4:	0dc10513          	addi	a0,sp,220
   15ee8:	df0fe0ef          	jal	ra,144d8 <emovz>
   15eec:	0dc10593          	addi	a1,sp,220
   15ef0:	11410513          	addi	a0,sp,276
   15ef4:	de4fe0ef          	jal	ra,144d8 <emovz>
   15ef8:	f25ff06f          	j	15e1c <_ldtoa_r+0x670>
   15efc:	fb8fe0ef          	jal	ra,146b4 <esubm>
   15f00:	00100d93          	li	s11,1
   15f04:	f31ff06f          	j	15e34 <_ldtoa_r+0x688>
   15f08:	00278793          	addi	a5,a5,2
   15f0c:	01200713          	li	a4,18
   15f10:	c6e794e3          	bne	a5,a4,15b78 <_ldtoa_r+0x3cc>
   15f14:	d65ff06f          	j	15c78 <_ldtoa_r+0x4cc>
   15f18:	07e15783          	lhu	a5,126(sp)
   15f1c:	00000413          	li	s0,0
   15f20:	10448a93          	addi	s5,s1,260
   15f24:	0a078863          	beqz	a5,15fd4 <_ldtoa_r+0x828>
   15f28:	0c010593          	addi	a1,sp,192
   15f2c:	06c10513          	addi	a0,sp,108
   15f30:	00004ab7          	lui	s5,0x4
   15f34:	8c1fe0ef          	jal	ra,147f4 <emovi>
   15f38:	ffea8a93          	addi	s5,s5,-2 # 3ffe <_start-0xc002>
   15f3c:	fd500c13          	li	s8,-43
   15f40:	0d815783          	lhu	a5,216(sp)
   15f44:	0077f793          	andi	a5,a5,7
   15f48:	06079263          	bnez	a5,15fac <_ldtoa_r+0x800>
   15f4c:	0a410593          	addi	a1,sp,164
   15f50:	0c010513          	addi	a0,sp,192
   15f54:	d84fe0ef          	jal	ra,144d8 <emovz>
   15f58:	0a410513          	addi	a0,sp,164
   15f5c:	de0fe0ef          	jal	ra,1453c <eshdn1>
   15f60:	0a410513          	addi	a0,sp,164
   15f64:	dd8fe0ef          	jal	ra,1453c <eshdn1>
   15f68:	0a410593          	addi	a1,sp,164
   15f6c:	0c010513          	addi	a0,sp,192
   15f70:	f0cfe0ef          	jal	ra,1467c <eaddm>
   15f74:	0a615783          	lhu	a5,166(sp)
   15f78:	00378793          	addi	a5,a5,3
   15f7c:	0af11323          	sh	a5,166(sp)
   15f80:	0a815783          	lhu	a5,168(sp)
   15f84:	10079a63          	bnez	a5,16098 <_ldtoa_r+0x8ec>
   15f88:	0bc15783          	lhu	a5,188(sp)
   15f8c:	02079063          	bnez	a5,15fac <_ldtoa_r+0x800>
   15f90:	0a615783          	lhu	a5,166(sp)
   15f94:	00faec63          	bltu	s5,a5,15fac <_ldtoa_r+0x800>
   15f98:	0c010593          	addi	a1,sp,192
   15f9c:	0a410513          	addi	a0,sp,164
   15fa0:	fff40413          	addi	s0,s0,-1
   15fa4:	d34fe0ef          	jal	ra,144d8 <emovz>
   15fa8:	f9841ce3          	bne	s0,s8,15f40 <_ldtoa_r+0x794>
   15fac:	06c10593          	addi	a1,sp,108
   15fb0:	0c010513          	addi	a0,sp,192
   15fb4:	cc9fe0ef          	jal	ra,14c7c <emovo.isra.6>
   15fb8:	0240006f          	j	15fdc <_ldtoa_r+0x830>
   15fbc:	06c10613          	addi	a2,sp,108
   15fc0:	15010693          	addi	a3,sp,336
   15fc4:	00060593          	mv	a1,a2
   15fc8:	000a8513          	mv	a0,s5
   15fcc:	a28ff0ef          	jal	ra,151f4 <emul>
   15fd0:	fff40413          	addi	s0,s0,-1
   15fd4:	07c11783          	lh	a5,124(sp)
   15fd8:	fe07d2e3          	bgez	a5,15fbc <_ldtoa_r+0x810>
   15fdc:	0c010593          	addi	a1,sp,192
   15fe0:	06c10513          	addi	a0,sp,108
   15fe4:	cbcfe0ef          	jal	ra,144a0 <emov>
   15fe8:	08810593          	addi	a1,sp,136
   15fec:	00090513          	mv	a0,s2
   15ff0:	cb0fe0ef          	jal	ra,144a0 <emov>
   15ff4:	01448793          	addi	a5,s1,20
   15ff8:	00000c13          	li	s8,0
   15ffc:	fffffab7          	lui	s5,0xfffff
   16000:	00f12223          	sw	a5,4(sp)
   16004:	00200d93          	li	s11,2
   16008:	000227b7          	lui	a5,0x22
   1600c:	89878793          	addi	a5,a5,-1896 # 21898 <emtens>
   16010:	01878733          	add	a4,a5,s8
   16014:	00412783          	lw	a5,4(sp)
   16018:	0c010593          	addi	a1,sp,192
   1601c:	00090513          	mv	a0,s2
   16020:	00e12623          	sw	a4,12(sp)
   16024:	018784b3          	add	s1,a5,s8
   16028:	89dfe0ef          	jal	ra,148c4 <ecmp>
   1602c:	00c12703          	lw	a4,12(sp)
   16030:	04a05863          	blez	a0,16080 <_ldtoa_r+0x8d4>
   16034:	0c010593          	addi	a1,sp,192
   16038:	00070513          	mv	a0,a4
   1603c:	889fe0ef          	jal	ra,148c4 <ecmp>
   16040:	02054863          	bltz	a0,16070 <_ldtoa_r+0x8c4>
   16044:	0c010613          	addi	a2,sp,192
   16048:	00060593          	mv	a1,a2
   1604c:	15010693          	addi	a3,sp,336
   16050:	00048513          	mv	a0,s1
   16054:	9a0ff0ef          	jal	ra,151f4 <emul>
   16058:	08810613          	addi	a2,sp,136
   1605c:	15010693          	addi	a3,sp,336
   16060:	00060593          	mv	a1,a2
   16064:	00048513          	mv	a0,s1
   16068:	98cff0ef          	jal	ra,151f4 <emul>
   1606c:	01540433          	add	s0,s0,s5
   16070:	014c0c13          	addi	s8,s8,20
   16074:	10400793          	li	a5,260
   16078:	03bacab3          	div	s5,s5,s11
   1607c:	f8fc16e3          	bne	s8,a5,16008 <_ldtoa_r+0x85c>
   16080:	08810613          	addi	a2,sp,136
   16084:	15010693          	addi	a3,sp,336
   16088:	00090593          	mv	a1,s2
   1608c:	00060513          	mv	a0,a2
   16090:	bf4ff0ef          	jal	ra,15484 <ediv>
   16094:	949ff06f          	j	159dc <_ldtoa_r+0x230>
   16098:	0a410513          	addi	a0,sp,164
   1609c:	ca0fe0ef          	jal	ra,1453c <eshdn1>
   160a0:	0a615783          	lhu	a5,166(sp)
   160a4:	00178793          	addi	a5,a5,1
   160a8:	ed5ff06f          	j	15f7c <_ldtoa_r+0x7d0>
   160ac:	06c10513          	addi	a0,sp,108
   160b0:	cdcfe0ef          	jal	ra,1458c <eshup1>
   160b4:	0a410593          	addi	a1,sp,164
   160b8:	06c10513          	addi	a0,sp,108
   160bc:	c1cfe0ef          	jal	ra,144d8 <emovz>
   160c0:	0a410513          	addi	a0,sp,164
   160c4:	cc8fe0ef          	jal	ra,1458c <eshup1>
   160c8:	0a410513          	addi	a0,sp,164
   160cc:	cc0fe0ef          	jal	ra,1458c <eshup1>
   160d0:	06c10593          	addi	a1,sp,108
   160d4:	0a410513          	addi	a0,sp,164
   160d8:	da4fe0ef          	jal	ra,1467c <eaddm>
   160dc:	15010613          	addi	a2,sp,336
   160e0:	06c10593          	addi	a1,sp,108
   160e4:	08810513          	addi	a0,sp,136
   160e8:	828ff0ef          	jal	ra,15110 <eiremain>
   160ec:	fff40413          	addi	s0,s0,-1
   160f0:	19c15483          	lhu	s1,412(sp)
   160f4:	92dff06f          	j	15a20 <_ldtoa_r+0x274>
   160f8:	02000793          	li	a5,32
   160fc:	949ff06f          	j	15a44 <_ldtoa_r+0x298>
   16100:	03048493          	addi	s1,s1,48
   16104:	02e00793          	li	a5,46
   16108:	10910aa3          	sb	s1,277(sp)
   1610c:	10f10b23          	sb	a5,278(sp)
   16110:	11710493          	addi	s1,sp,279
   16114:	01748ab3          	add	s5,s1,s7
   16118:	05795663          	ble	s7,s2,16164 <_ldtoa_r+0x9b8>
   1611c:	19c15783          	lhu	a5,412(sp)
   16120:	00400713          	li	a4,4
   16124:	fffa8493          	addi	s1,s5,-1 # ffffefff <_end+0xfffd8b1f>
   16128:	96f75ae3          	ble	a5,a4,15a9c <_ldtoa_r+0x2f0>
   1612c:	00500713          	li	a4,5
   16130:	08e78463          	beq	a5,a4,161b8 <_ldtoa_r+0xa0c>
   16134:	00048793          	mv	a5,s1
   16138:	02e00613          	li	a2,46
   1613c:	03800593          	li	a1,56
   16140:	03000693          	li	a3,48
   16144:	fff78793          	addi	a5,a5,-1
   16148:	0007c703          	lbu	a4,0(a5)
   1614c:	07f77713          	andi	a4,a4,127
   16150:	0a095863          	bgez	s2,16200 <_ldtoa_r+0xa54>
   16154:	03100713          	li	a4,49
   16158:	00e78023          	sb	a4,0(a5)
   1615c:	00140413          	addi	s0,s0,1
   16160:	93dff06f          	j	15a9c <_ldtoa_r+0x2f0>
   16164:	06c10513          	addi	a0,sp,108
   16168:	c24fe0ef          	jal	ra,1458c <eshup1>
   1616c:	0a410593          	addi	a1,sp,164
   16170:	06c10513          	addi	a0,sp,108
   16174:	b64fe0ef          	jal	ra,144d8 <emovz>
   16178:	0a410513          	addi	a0,sp,164
   1617c:	c10fe0ef          	jal	ra,1458c <eshup1>
   16180:	0a410513          	addi	a0,sp,164
   16184:	c08fe0ef          	jal	ra,1458c <eshup1>
   16188:	06c10593          	addi	a1,sp,108
   1618c:	0a410513          	addi	a0,sp,164
   16190:	cecfe0ef          	jal	ra,1467c <eaddm>
   16194:	15010613          	addi	a2,sp,336
   16198:	06c10593          	addi	a1,sp,108
   1619c:	08810513          	addi	a0,sp,136
   161a0:	f71fe0ef          	jal	ra,15110 <eiremain>
   161a4:	19c14783          	lbu	a5,412(sp)
   161a8:	001b8b93          	addi	s7,s7,1 # 80000001 <_end+0x7ffd9b21>
   161ac:	03078793          	addi	a5,a5,48
   161b0:	00fa8023          	sb	a5,0(s5)
   161b4:	f61ff06f          	j	16114 <_ldtoa_r+0x968>
   161b8:	08810593          	addi	a1,sp,136
   161bc:	06c10513          	addi	a0,sp,108
   161c0:	abdfe0ef          	jal	ra,14c7c <emovo.isra.6>
   161c4:	00812783          	lw	a5,8(sp)
   161c8:	08810513          	addi	a0,sp,136
   161cc:	74878593          	addi	a1,a5,1864
   161d0:	ef4fe0ef          	jal	ra,148c4 <ecmp>
   161d4:	f60510e3          	bnez	a0,16134 <_ldtoa_r+0x988>
   161d8:	8c0942e3          	bltz	s2,15a9c <_ldtoa_r+0x2f0>
   161dc:	ffeac783          	lbu	a5,-2(s5)
   161e0:	fd278793          	addi	a5,a5,-46
   161e4:	0017b793          	seqz	a5,a5
   161e8:	fff7c793          	not	a5,a5
   161ec:	00f487b3          	add	a5,s1,a5
   161f0:	0007c783          	lbu	a5,0(a5)
   161f4:	0017f793          	andi	a5,a5,1
   161f8:	f2079ee3          	bnez	a5,16134 <_ldtoa_r+0x988>
   161fc:	8a1ff06f          	j	15a9c <_ldtoa_r+0x2f0>
   16200:	02c71463          	bne	a4,a2,16228 <_ldtoa_r+0xa7c>
   16204:	fff7c703          	lbu	a4,-1(a5)
   16208:	03800693          	li	a3,56
   1620c:	00e6e863          	bltu	a3,a4,1621c <_ldtoa_r+0xa70>
   16210:	00170713          	addi	a4,a4,1 # ffff8001 <_end+0xfffd1b21>
   16214:	fee78fa3          	sb	a4,-1(a5)
   16218:	885ff06f          	j	15a9c <_ldtoa_r+0x2f0>
   1621c:	00140413          	addi	s0,s0,1
   16220:	03100713          	li	a4,49
   16224:	ff1ff06f          	j	16214 <_ldtoa_r+0xa68>
   16228:	00e5e863          	bltu	a1,a4,16238 <_ldtoa_r+0xa8c>
   1622c:	00170713          	addi	a4,a4,1
   16230:	00e78023          	sb	a4,0(a5)
   16234:	869ff06f          	j	15a9c <_ldtoa_r+0x2f0>
   16238:	00d78023          	sb	a3,0(a5)
   1623c:	f09ff06f          	j	16144 <_ldtoa_r+0x998>
   16240:	00140793          	addi	a5,s0,1
   16244:	00fd2023          	sw	a5,0(s10)
   16248:	02e00693          	li	a3,46
   1624c:	00090793          	mv	a5,s2
   16250:	0007c703          	lbu	a4,0(a5)
   16254:	00071663          	bnez	a4,16260 <_ldtoa_r+0xab4>
   16258:	04500713          	li	a4,69
   1625c:	02c0006f          	j	16288 <_ldtoa_r+0xadc>
   16260:	00178613          	addi	a2,a5,1
   16264:	00d70663          	beq	a4,a3,16270 <_ldtoa_r+0xac4>
   16268:	00060793          	mv	a5,a2
   1626c:	fe5ff06f          	j	16250 <_ldtoa_r+0xaa4>
   16270:	0017c703          	lbu	a4,1(a5)
   16274:	00178793          	addi	a5,a5,1
   16278:	fee78fa3          	sb	a4,-1(a5)
   1627c:	fe071ae3          	bnez	a4,16270 <_ldtoa_r+0xac4>
   16280:	fd9ff06f          	j	16258 <_ldtoa_r+0xaac>
   16284:	fff78793          	addi	a5,a5,-1
   16288:	0007c683          	lbu	a3,0(a5)
   1628c:	00e68463          	beq	a3,a4,16294 <_ldtoa_r+0xae8>
   16290:	fef96ae3          	bltu	s2,a5,16284 <_ldtoa_r+0xad8>
   16294:	00078023          	sb	zero,0(a5)
   16298:	e5cff06f          	j	158f4 <_ldtoa_r+0x148>
   1629c:	00178793          	addi	a5,a5,1
   162a0:	e60ff06f          	j	15900 <_ldtoa_r+0x154>
   162a4:	00068493          	mv	s1,a3
   162a8:	e68ff06f          	j	15910 <_ldtoa_r+0x164>
   162ac:	fff48493          	addi	s1,s1,-1
   162b0:	00048023          	sb	zero,0(s1)
   162b4:	fff4c703          	lbu	a4,-1(s1)
   162b8:	00d71663          	bne	a4,a3,162c4 <_ldtoa_r+0xb18>
   162bc:	41248733          	sub	a4,s1,s2
   162c0:	fee7c6e3          	blt	a5,a4,162ac <_ldtoa_r+0xb00>
   162c4:	00300713          	li	a4,3
   162c8:	009c8793          	addi	a5,s9,9
   162cc:	02eb1263          	bne	s6,a4,162f0 <_ldtoa_r+0xb44>
   162d0:	00898433          	add	s0,s3,s0
   162d4:	00045863          	bgez	s0,162e4 <_ldtoa_r+0xb38>
   162d8:	10010a23          	sb	zero,276(sp)
   162dc:	000d2023          	sw	zero,0(s10)
   162e0:	00090493          	mv	s1,s2
   162e4:	000d2783          	lw	a5,0(s10)
   162e8:	00fc8cb3          	add	s9,s9,a5
   162ec:	003c8793          	addi	a5,s9,3
   162f0:	040a2223          	sw	zero,68(s4)
   162f4:	00400713          	li	a4,4
   162f8:	01470693          	addi	a3,a4,20
   162fc:	044a2583          	lw	a1,68(s4)
   16300:	06d7f863          	bleu	a3,a5,16370 <_ldtoa_r+0xbc4>
   16304:	000a0513          	mv	a0,s4
   16308:	55c000ef          	jal	ra,16864 <_Balloc>
   1630c:	04aa2023          	sw	a0,64(s4)
   16310:	00090593          	mv	a1,s2
   16314:	00050413          	mv	s0,a0
   16318:	529010ef          	jal	ra,18040 <strcpy>
   1631c:	01012783          	lw	a5,16(sp)
   16320:	00078863          	beqz	a5,16330 <_ldtoa_r+0xb84>
   16324:	412484b3          	sub	s1,s1,s2
   16328:	009404b3          	add	s1,s0,s1
   1632c:	0097a023          	sw	s1,0(a5)
   16330:	00040513          	mv	a0,s0
   16334:	1dc12083          	lw	ra,476(sp)
   16338:	1d812403          	lw	s0,472(sp)
   1633c:	1d412483          	lw	s1,468(sp)
   16340:	1d012903          	lw	s2,464(sp)
   16344:	1cc12983          	lw	s3,460(sp)
   16348:	1c812a03          	lw	s4,456(sp)
   1634c:	1c412a83          	lw	s5,452(sp)
   16350:	1c012b03          	lw	s6,448(sp)
   16354:	1bc12b83          	lw	s7,444(sp)
   16358:	1b812c03          	lw	s8,440(sp)
   1635c:	1b412c83          	lw	s9,436(sp)
   16360:	1b012d03          	lw	s10,432(sp)
   16364:	1ac12d83          	lw	s11,428(sp)
   16368:	1e010113          	addi	sp,sp,480
   1636c:	00008067          	ret
   16370:	00158593          	addi	a1,a1,1
   16374:	04ba2223          	sw	a1,68(s4)
   16378:	00171713          	slli	a4,a4,0x1
   1637c:	f7dff06f          	j	162f8 <_ldtoa_r+0xb4c>
   16380:	000087b7          	lui	a5,0x8
   16384:	fff78793          	addi	a5,a5,-1 # 7fff <_start-0x8001>
   16388:	f2f71c63          	bne	a4,a5,15ac0 <_ldtoa_r+0x314>
   1638c:	00012783          	lw	a5,0(sp)
   16390:	f2078263          	beqz	a5,15ab4 <_ldtoa_r+0x308>
   16394:	000225b7          	lui	a1,0x22
   16398:	9a458593          	addi	a1,a1,-1628 # 219a4 <emtens+0x10c>
   1639c:	d14ff06f          	j	158b0 <_ldtoa_r+0x104>

000163a0 <_ldcheck>:
   163a0:	00052783          	lw	a5,0(a0)
   163a4:	fc010113          	addi	sp,sp,-64
   163a8:	01410593          	addi	a1,sp,20
   163ac:	00f12023          	sw	a5,0(sp)
   163b0:	00452783          	lw	a5,4(a0)
   163b4:	02112e23          	sw	ra,60(sp)
   163b8:	00f12223          	sw	a5,4(sp)
   163bc:	00852783          	lw	a5,8(a0)
   163c0:	00f12423          	sw	a5,8(sp)
   163c4:	00c52783          	lw	a5,12(a0)
   163c8:	00010513          	mv	a0,sp
   163cc:	00f12623          	sw	a5,12(sp)
   163d0:	91dfe0ef          	jal	ra,14cec <e113toe.isra.8>
   163d4:	02615783          	lhu	a5,38(sp)
   163d8:	00000513          	li	a0,0
   163dc:	fff7c793          	not	a5,a5
   163e0:	01179713          	slli	a4,a5,0x11
   163e4:	00071a63          	bnez	a4,163f8 <_ldcheck+0x58>
   163e8:	01410513          	addi	a0,sp,20
   163ec:	b9cfe0ef          	jal	ra,14788 <eisnan>
   163f0:	00153513          	seqz	a0,a0
   163f4:	00150513          	addi	a0,a0,1
   163f8:	03c12083          	lw	ra,60(sp)
   163fc:	04010113          	addi	sp,sp,64
   16400:	00008067          	ret

00016404 <__localeconv_l>:
   16404:	0f050513          	addi	a0,a0,240
   16408:	00008067          	ret

0001640c <_localeconv_r>:
   1640c:	8201a783          	lw	a5,-2016(gp) # 23c68 <_impure_ptr>
   16410:	0347a503          	lw	a0,52(a5)
   16414:	00051663          	bnez	a0,16420 <_localeconv_r+0x14>
   16418:	00024537          	lui	a0,0x24
   1641c:	ad850513          	addi	a0,a0,-1320 # 23ad8 <__global_locale>
   16420:	0f050513          	addi	a0,a0,240
   16424:	00008067          	ret

00016428 <localeconv>:
   16428:	8201a783          	lw	a5,-2016(gp) # 23c68 <_impure_ptr>
   1642c:	0347a503          	lw	a0,52(a5)
   16430:	00051663          	bnez	a0,1643c <localeconv+0x14>
   16434:	00024537          	lui	a0,0x24
   16438:	ad850513          	addi	a0,a0,-1320 # 23ad8 <__global_locale>
   1643c:	0f050513          	addi	a0,a0,240
   16440:	00008067          	ret

00016444 <_setlocale_r>:
   16444:	ff010113          	addi	sp,sp,-16
   16448:	00912223          	sw	s1,4(sp)
   1644c:	00112623          	sw	ra,12(sp)
   16450:	00812423          	sw	s0,8(sp)
   16454:	000224b7          	lui	s1,0x22
   16458:	00061e63          	bnez	a2,16474 <_setlocale_r+0x30>
   1645c:	9c448513          	addi	a0,s1,-1596 # 219c4 <emtens+0x12c>
   16460:	00c12083          	lw	ra,12(sp)
   16464:	00812403          	lw	s0,8(sp)
   16468:	00412483          	lw	s1,4(sp)
   1646c:	01010113          	addi	sp,sp,16
   16470:	00008067          	ret
   16474:	000225b7          	lui	a1,0x22
   16478:	9c858593          	addi	a1,a1,-1592 # 219c8 <emtens+0x130>
   1647c:	00060513          	mv	a0,a2
   16480:	00060413          	mv	s0,a2
   16484:	bddfa0ef          	jal	ra,11060 <strcmp>
   16488:	fc050ae3          	beqz	a0,1645c <_setlocale_r+0x18>
   1648c:	9c448593          	addi	a1,s1,-1596
   16490:	00040513          	mv	a0,s0
   16494:	bcdfa0ef          	jal	ra,11060 <strcmp>
   16498:	fc0502e3          	beqz	a0,1645c <_setlocale_r+0x18>
   1649c:	000215b7          	lui	a1,0x21
   164a0:	16858593          	addi	a1,a1,360 # 21168 <main+0x9dc>
   164a4:	00040513          	mv	a0,s0
   164a8:	bb9fa0ef          	jal	ra,11060 <strcmp>
   164ac:	fa0508e3          	beqz	a0,1645c <_setlocale_r+0x18>
   164b0:	00000513          	li	a0,0
   164b4:	fadff06f          	j	16460 <_setlocale_r+0x1c>

000164b8 <__locale_mb_cur_max>:
   164b8:	8201a783          	lw	a5,-2016(gp) # 23c68 <_impure_ptr>
   164bc:	0347a783          	lw	a5,52(a5)
   164c0:	00079663          	bnez	a5,164cc <__locale_mb_cur_max+0x14>
   164c4:	000247b7          	lui	a5,0x24
   164c8:	ad878793          	addi	a5,a5,-1320 # 23ad8 <__global_locale>
   164cc:	1287c503          	lbu	a0,296(a5)
   164d0:	00008067          	ret

000164d4 <__locale_ctype_ptr_l>:
   164d4:	0ec52503          	lw	a0,236(a0)
   164d8:	00008067          	ret

000164dc <__locale_ctype_ptr>:
   164dc:	8201a783          	lw	a5,-2016(gp) # 23c68 <_impure_ptr>
   164e0:	0347a783          	lw	a5,52(a5)
   164e4:	00079663          	bnez	a5,164f0 <__locale_ctype_ptr+0x14>
   164e8:	000247b7          	lui	a5,0x24
   164ec:	ad878793          	addi	a5,a5,-1320 # 23ad8 <__global_locale>
   164f0:	0ec7a503          	lw	a0,236(a5)
   164f4:	00008067          	ret

000164f8 <setlocale>:
   164f8:	00058613          	mv	a2,a1
   164fc:	00050593          	mv	a1,a0
   16500:	8201a503          	lw	a0,-2016(gp) # 23c68 <_impure_ptr>
   16504:	f41ff06f          	j	16444 <_setlocale_r>

00016508 <__swhatbuf_r>:
   16508:	f8010113          	addi	sp,sp,-128
   1650c:	06912a23          	sw	s1,116(sp)
   16510:	00058493          	mv	s1,a1
   16514:	00e59583          	lh	a1,14(a1)
   16518:	06812c23          	sw	s0,120(sp)
   1651c:	06112e23          	sw	ra,124(sp)
   16520:	00060413          	mv	s0,a2
   16524:	0005de63          	bgez	a1,16540 <__swhatbuf_r+0x38>
   16528:	00c4d783          	lhu	a5,12(s1)
   1652c:	0006a023          	sw	zero,0(a3)
   16530:	0807f793          	andi	a5,a5,128
   16534:	04079863          	bnez	a5,16584 <__swhatbuf_r+0x7c>
   16538:	40000793          	li	a5,1024
   1653c:	04c0006f          	j	16588 <__swhatbuf_r+0x80>
   16540:	01810613          	addi	a2,sp,24
   16544:	00d12623          	sw	a3,12(sp)
   16548:	4bd040ef          	jal	ra,1b204 <_fstat_r>
   1654c:	00c12683          	lw	a3,12(sp)
   16550:	fc054ce3          	bltz	a0,16528 <__swhatbuf_r+0x20>
   16554:	01c12703          	lw	a4,28(sp)
   16558:	0000f7b7          	lui	a5,0xf
   1655c:	00001537          	lui	a0,0x1
   16560:	00e7f7b3          	and	a5,a5,a4
   16564:	ffffe737          	lui	a4,0xffffe
   16568:	00e787b3          	add	a5,a5,a4
   1656c:	0017b793          	seqz	a5,a5
   16570:	00f6a023          	sw	a5,0(a3)
   16574:	40000793          	li	a5,1024
   16578:	00f42023          	sw	a5,0(s0)
   1657c:	80050513          	addi	a0,a0,-2048 # 800 <_start-0xf800>
   16580:	0100006f          	j	16590 <__swhatbuf_r+0x88>
   16584:	04000793          	li	a5,64
   16588:	00f42023          	sw	a5,0(s0)
   1658c:	00000513          	li	a0,0
   16590:	07c12083          	lw	ra,124(sp)
   16594:	07812403          	lw	s0,120(sp)
   16598:	07412483          	lw	s1,116(sp)
   1659c:	08010113          	addi	sp,sp,128
   165a0:	00008067          	ret

000165a4 <__smakebuf_r>:
   165a4:	00c5d783          	lhu	a5,12(a1)
   165a8:	fe010113          	addi	sp,sp,-32
   165ac:	00812c23          	sw	s0,24(sp)
   165b0:	00112e23          	sw	ra,28(sp)
   165b4:	00912a23          	sw	s1,20(sp)
   165b8:	01212823          	sw	s2,16(sp)
   165bc:	0027f793          	andi	a5,a5,2
   165c0:	00058413          	mv	s0,a1
   165c4:	02078863          	beqz	a5,165f4 <__smakebuf_r+0x50>
   165c8:	04340793          	addi	a5,s0,67
   165cc:	00f42023          	sw	a5,0(s0)
   165d0:	00f42823          	sw	a5,16(s0)
   165d4:	00100793          	li	a5,1
   165d8:	00f42a23          	sw	a5,20(s0)
   165dc:	01c12083          	lw	ra,28(sp)
   165e0:	01812403          	lw	s0,24(sp)
   165e4:	01412483          	lw	s1,20(sp)
   165e8:	01012903          	lw	s2,16(sp)
   165ec:	02010113          	addi	sp,sp,32
   165f0:	00008067          	ret
   165f4:	00c10693          	addi	a3,sp,12
   165f8:	00810613          	addi	a2,sp,8
   165fc:	00050493          	mv	s1,a0
   16600:	f09ff0ef          	jal	ra,16508 <__swhatbuf_r>
   16604:	00812583          	lw	a1,8(sp)
   16608:	00050913          	mv	s2,a0
   1660c:	00048513          	mv	a0,s1
   16610:	8a8fa0ef          	jal	ra,106b8 <_malloc_r>
   16614:	02051063          	bnez	a0,16634 <__smakebuf_r+0x90>
   16618:	00c41783          	lh	a5,12(s0)
   1661c:	2007f713          	andi	a4,a5,512
   16620:	fa071ee3          	bnez	a4,165dc <__smakebuf_r+0x38>
   16624:	ffc7f793          	andi	a5,a5,-4
   16628:	0027e793          	ori	a5,a5,2
   1662c:	00f41623          	sh	a5,12(s0)
   16630:	f99ff06f          	j	165c8 <__smakebuf_r+0x24>
   16634:	000147b7          	lui	a5,0x14
   16638:	94c78793          	addi	a5,a5,-1716 # 1394c <_cleanup_r>
   1663c:	02f4ae23          	sw	a5,60(s1)
   16640:	00c45783          	lhu	a5,12(s0)
   16644:	00a42023          	sw	a0,0(s0)
   16648:	00a42823          	sw	a0,16(s0)
   1664c:	0807e793          	ori	a5,a5,128
   16650:	00f41623          	sh	a5,12(s0)
   16654:	00812783          	lw	a5,8(sp)
   16658:	00f42a23          	sw	a5,20(s0)
   1665c:	00c12783          	lw	a5,12(sp)
   16660:	02078263          	beqz	a5,16684 <__smakebuf_r+0xe0>
   16664:	00e41583          	lh	a1,14(s0)
   16668:	00048513          	mv	a0,s1
   1666c:	3e9040ef          	jal	ra,1b254 <_isatty_r>
   16670:	00050a63          	beqz	a0,16684 <__smakebuf_r+0xe0>
   16674:	00c45783          	lhu	a5,12(s0)
   16678:	ffc7f793          	andi	a5,a5,-4
   1667c:	0017e793          	ori	a5,a5,1
   16680:	00f41623          	sh	a5,12(s0)
   16684:	00c45783          	lhu	a5,12(s0)
   16688:	00f96933          	or	s2,s2,a5
   1668c:	01241623          	sh	s2,12(s0)
   16690:	f4dff06f          	j	165dc <__smakebuf_r+0x38>

00016694 <_mbtowc_r>:
   16694:	8201a783          	lw	a5,-2016(gp) # 23c68 <_impure_ptr>
   16698:	0347a783          	lw	a5,52(a5)
   1669c:	00079663          	bnez	a5,166a8 <_mbtowc_r+0x14>
   166a0:	000247b7          	lui	a5,0x24
   166a4:	ad878793          	addi	a5,a5,-1320 # 23ad8 <__global_locale>
   166a8:	0e47a303          	lw	t1,228(a5)
   166ac:	00030067          	jr	t1

000166b0 <__ascii_mbtowc>:
   166b0:	02059a63          	bnez	a1,166e4 <__ascii_mbtowc+0x34>
   166b4:	ff010113          	addi	sp,sp,-16
   166b8:	00c10593          	addi	a1,sp,12
   166bc:	00000513          	li	a0,0
   166c0:	00060e63          	beqz	a2,166dc <__ascii_mbtowc+0x2c>
   166c4:	ffe00513          	li	a0,-2
   166c8:	00068a63          	beqz	a3,166dc <__ascii_mbtowc+0x2c>
   166cc:	00064783          	lbu	a5,0(a2)
   166d0:	00f5a023          	sw	a5,0(a1)
   166d4:	00064503          	lbu	a0,0(a2)
   166d8:	00a03533          	snez	a0,a0
   166dc:	01010113          	addi	sp,sp,16
   166e0:	00008067          	ret
   166e4:	00000513          	li	a0,0
   166e8:	02060063          	beqz	a2,16708 <__ascii_mbtowc+0x58>
   166ec:	ffe00513          	li	a0,-2
   166f0:	00068c63          	beqz	a3,16708 <__ascii_mbtowc+0x58>
   166f4:	00064783          	lbu	a5,0(a2)
   166f8:	00f5a023          	sw	a5,0(a1)
   166fc:	00064503          	lbu	a0,0(a2)
   16700:	00a03533          	snez	a0,a0
   16704:	00008067          	ret
   16708:	00008067          	ret

0001670c <memchr>:
   1670c:	0ff5f593          	andi	a1,a1,255
   16710:	00c50633          	add	a2,a0,a2
   16714:	00c51663          	bne	a0,a2,16720 <memchr+0x14> <<<< 2nd hottest instrcution
   16718:	00000513          	li	a0,0
   1671c:	00008067          	ret
   16720:	00054783          	lbu	a5,0(a0)
   16724:	feb78ce3          	beq	a5,a1,1671c <memchr+0x10>
   16728:	00150513          	addi	a0,a0,1
   1672c:	fe9ff06f          	j	16714 <memchr+0x8>

00016730 <memcpy>:
   16730:	00a5c7b3          	xor	a5,a1,a0
   16734:	0037f793          	andi	a5,a5,3
   16738:	00c50733          	add	a4,a0,a2
   1673c:	00079663          	bnez	a5,16748 <memcpy+0x18>
   16740:	00300793          	li	a5,3
   16744:	02c7e263          	bltu	a5,a2,16768 <memcpy+0x38>
   16748:	00050793          	mv	a5,a0
   1674c:	0ae57c63          	bleu	a4,a0,16804 <memcpy+0xd4>
   16750:	0005c683          	lbu	a3,0(a1)
   16754:	00178793          	addi	a5,a5,1
   16758:	00158593          	addi	a1,a1,1
   1675c:	fed78fa3          	sb	a3,-1(a5)
   16760:	fee7e8e3          	bltu	a5,a4,16750 <memcpy+0x20>
   16764:	00008067          	ret
   16768:	00357693          	andi	a3,a0,3
   1676c:	00050793          	mv	a5,a0
   16770:	00068e63          	beqz	a3,1678c <memcpy+0x5c>
   16774:	0005c683          	lbu	a3,0(a1)
   16778:	00178793          	addi	a5,a5,1
   1677c:	00158593          	addi	a1,a1,1
   16780:	fed78fa3          	sb	a3,-1(a5)
   16784:	0037f693          	andi	a3,a5,3
   16788:	fe9ff06f          	j	16770 <memcpy+0x40>
   1678c:	ffc77693          	andi	a3,a4,-4
   16790:	fe068613          	addi	a2,a3,-32
   16794:	06c7f463          	bleu	a2,a5,167fc <memcpy+0xcc>
   16798:	0005a383          	lw	t2,0(a1)
   1679c:	0045a283          	lw	t0,4(a1)
   167a0:	0085af83          	lw	t6,8(a1)
   167a4:	00c5af03          	lw	t5,12(a1)
   167a8:	0105ae83          	lw	t4,16(a1)
   167ac:	0145ae03          	lw	t3,20(a1)
   167b0:	0185a303          	lw	t1,24(a1)
   167b4:	01c5a883          	lw	a7,28(a1)
   167b8:	02458593          	addi	a1,a1,36
   167bc:	0077a023          	sw	t2,0(a5)
   167c0:	ffc5a803          	lw	a6,-4(a1)
   167c4:	0057a223          	sw	t0,4(a5)
   167c8:	01f7a423          	sw	t6,8(a5)
   167cc:	01e7a623          	sw	t5,12(a5)
   167d0:	01d7a823          	sw	t4,16(a5)
   167d4:	01c7aa23          	sw	t3,20(a5)
   167d8:	0067ac23          	sw	t1,24(a5)
   167dc:	0117ae23          	sw	a7,28(a5)
   167e0:	02478793          	addi	a5,a5,36
   167e4:	ff07ae23          	sw	a6,-4(a5)
   167e8:	fadff06f          	j	16794 <memcpy+0x64>
   167ec:	0005a603          	lw	a2,0(a1)
   167f0:	00478793          	addi	a5,a5,4
   167f4:	00458593          	addi	a1,a1,4
   167f8:	fec7ae23          	sw	a2,-4(a5)
   167fc:	fed7e8e3          	bltu	a5,a3,167ec <memcpy+0xbc>
   16800:	f4e7e8e3          	bltu	a5,a4,16750 <memcpy+0x20>
   16804:	00008067          	ret

00016808 <memmove>:
   16808:	04a5fa63          	bleu	a0,a1,1685c <memmove+0x54>
   1680c:	00c586b3          	add	a3,a1,a2
   16810:	04d57663          	bleu	a3,a0,1685c <memmove+0x54>
   16814:	fff64593          	not	a1,a2
   16818:	00000793          	li	a5,0
   1681c:	fff78793          	addi	a5,a5,-1
   16820:	00f59463          	bne	a1,a5,16828 <memmove+0x20>
   16824:	00008067          	ret
   16828:	00f68733          	add	a4,a3,a5
   1682c:	00074803          	lbu	a6,0(a4) # ffffe000 <_end+0xfffd7b20>
   16830:	00c78733          	add	a4,a5,a2
   16834:	00e50733          	add	a4,a0,a4
   16838:	01070023          	sb	a6,0(a4)
   1683c:	fe1ff06f          	j	1681c <memmove+0x14>

   16840:	00f58733          	add	a4,a1,a5
   16844:	00074683          	lbu	a3,0(a4)
   16848:	00f50733          	add	a4,a0,a5
   1684c:	00178793          	addi	a5,a5,1
   16850:	00d70023          	sb	a3,0(a4)
   16854:	fef616e3          	bne	a2,a5,16840 <memmove+0x38>  <<< HOTTEST INSTRUCTION

   16858:	00008067          	ret
   1685c:	00000793          	li	a5,0
   16860:	ff5ff06f          	j	16854 <memmove+0x4c>

00016864 <_Balloc>:
   16864:	04c52783          	lw	a5,76(a0)
   16868:	ff010113          	addi	sp,sp,-16
   1686c:	00912223          	sw	s1,4(sp)
   16870:	01212023          	sw	s2,0(sp)
   16874:	00112623          	sw	ra,12(sp)
   16878:	00812423          	sw	s0,8(sp)
   1687c:	00050493          	mv	s1,a0
   16880:	00058913          	mv	s2,a1
   16884:	04078263          	beqz	a5,168c8 <_Balloc+0x64>
   16888:	04c4a703          	lw	a4,76(s1)
   1688c:	00291793          	slli	a5,s2,0x2
   16890:	00f707b3          	add	a5,a4,a5
   16894:	0007a503          	lw	a0,0(a5)
   16898:	06051063          	bnez	a0,168f8 <_Balloc+0x94>
   1689c:	00100413          	li	s0,1
   168a0:	01241433          	sll	s0,s0,s2
   168a4:	00540613          	addi	a2,s0,5
   168a8:	00261613          	slli	a2,a2,0x2
   168ac:	00100593          	li	a1,1
   168b0:	00048513          	mv	a0,s1
   168b4:	5ec040ef          	jal	ra,1aea0 <_calloc_r>
   168b8:	02050263          	beqz	a0,168dc <_Balloc+0x78>
   168bc:	01252223          	sw	s2,4(a0)
   168c0:	00852423          	sw	s0,8(a0)
   168c4:	03c0006f          	j	16900 <_Balloc+0x9c>
   168c8:	02100613          	li	a2,33
   168cc:	00400593          	li	a1,4
   168d0:	5d0040ef          	jal	ra,1aea0 <_calloc_r>
   168d4:	04a4a623          	sw	a0,76(s1)
   168d8:	fa0518e3          	bnez	a0,16888 <_Balloc+0x24>
   168dc:	00000513          	li	a0,0
   168e0:	00c12083          	lw	ra,12(sp)
   168e4:	00812403          	lw	s0,8(sp)
   168e8:	00412483          	lw	s1,4(sp)
   168ec:	00012903          	lw	s2,0(sp)
   168f0:	01010113          	addi	sp,sp,16
   168f4:	00008067          	ret
   168f8:	00052703          	lw	a4,0(a0)
   168fc:	00e7a023          	sw	a4,0(a5)
   16900:	00052823          	sw	zero,16(a0)
   16904:	00052623          	sw	zero,12(a0)
   16908:	fd9ff06f          	j	168e0 <_Balloc+0x7c>

0001690c <_Bfree>:
   1690c:	02058063          	beqz	a1,1692c <_Bfree+0x20>
   16910:	0045a783          	lw	a5,4(a1)
   16914:	00279713          	slli	a4,a5,0x2
   16918:	04c52783          	lw	a5,76(a0)
   1691c:	00e787b3          	add	a5,a5,a4
   16920:	0007a703          	lw	a4,0(a5)
   16924:	00e5a023          	sw	a4,0(a1)
   16928:	00b7a023          	sw	a1,0(a5)
   1692c:	00008067          	ret

00016930 <__multadd>:
   16930:	fd010113          	addi	sp,sp,-48
   16934:	01312e23          	sw	s3,28(sp)
   16938:	00050993          	mv	s3,a0
   1693c:	00010537          	lui	a0,0x10
   16940:	02812423          	sw	s0,40(sp)
   16944:	02912223          	sw	s1,36(sp)
   16948:	00058413          	mv	s0,a1
   1694c:	0105a483          	lw	s1,16(a1)
   16950:	02112623          	sw	ra,44(sp)
   16954:	03212023          	sw	s2,32(sp)
   16958:	01458593          	addi	a1,a1,20
   1695c:	00000813          	li	a6,0
   16960:	fff50513          	addi	a0,a0,-1 # ffff <_start-0x1>
   16964:	0005a783          	lw	a5,0(a1)
   16968:	00458593          	addi	a1,a1,4
   1696c:	00180813          	addi	a6,a6,1
   16970:	00a7f733          	and	a4,a5,a0
   16974:	02c70733          	mul	a4,a4,a2
   16978:	0107d793          	srli	a5,a5,0x10
   1697c:	02c787b3          	mul	a5,a5,a2
   16980:	00d70733          	add	a4,a4,a3
   16984:	01075693          	srli	a3,a4,0x10
   16988:	00a77733          	and	a4,a4,a0
   1698c:	00d787b3          	add	a5,a5,a3
   16990:	0107d693          	srli	a3,a5,0x10
   16994:	01079793          	slli	a5,a5,0x10
   16998:	00e787b3          	add	a5,a5,a4
   1699c:	fef5ae23          	sw	a5,-4(a1)
   169a0:	fc9842e3          	blt	a6,s1,16964 <__multadd+0x34>
   169a4:	06068463          	beqz	a3,16a0c <__multadd+0xdc>
   169a8:	00842783          	lw	a5,8(s0)
   169ac:	04f4c463          	blt	s1,a5,169f4 <__multadd+0xc4>
   169b0:	00442583          	lw	a1,4(s0)
   169b4:	00098513          	mv	a0,s3
   169b8:	00d12623          	sw	a3,12(sp)
   169bc:	00158593          	addi	a1,a1,1
   169c0:	ea5ff0ef          	jal	ra,16864 <_Balloc>
   169c4:	01042603          	lw	a2,16(s0)
   169c8:	00c40593          	addi	a1,s0,12
   169cc:	00050913          	mv	s2,a0
   169d0:	00260613          	addi	a2,a2,2
   169d4:	00261613          	slli	a2,a2,0x2
   169d8:	00c50513          	addi	a0,a0,12
   169dc:	d55ff0ef          	jal	ra,16730 <memcpy>
   169e0:	00040593          	mv	a1,s0
   169e4:	00098513          	mv	a0,s3
   169e8:	f25ff0ef          	jal	ra,1690c <_Bfree>
   169ec:	00c12683          	lw	a3,12(sp)
   169f0:	00090413          	mv	s0,s2
   169f4:	00448793          	addi	a5,s1,4
   169f8:	00279793          	slli	a5,a5,0x2
   169fc:	00f407b3          	add	a5,s0,a5
   16a00:	00d7a223          	sw	a3,4(a5)
   16a04:	00148493          	addi	s1,s1,1
   16a08:	00942823          	sw	s1,16(s0)
   16a0c:	00040513          	mv	a0,s0
   16a10:	02c12083          	lw	ra,44(sp)
   16a14:	02812403          	lw	s0,40(sp)
   16a18:	02412483          	lw	s1,36(sp)
   16a1c:	02012903          	lw	s2,32(sp)
   16a20:	01c12983          	lw	s3,28(sp)
   16a24:	03010113          	addi	sp,sp,48
   16a28:	00008067          	ret

00016a2c <__s2b>:
   16a2c:	fd010113          	addi	sp,sp,-48
   16a30:	00868793          	addi	a5,a3,8
   16a34:	01412c23          	sw	s4,24(sp)
   16a38:	00068a13          	mv	s4,a3
   16a3c:	00900693          	li	a3,9
   16a40:	02812423          	sw	s0,40(sp)
   16a44:	02912223          	sw	s1,36(sp)
   16a48:	01312e23          	sw	s3,28(sp)
   16a4c:	00058413          	mv	s0,a1
   16a50:	02d7c7b3          	div	a5,a5,a3
   16a54:	02112623          	sw	ra,44(sp)
   16a58:	03212023          	sw	s2,32(sp)
   16a5c:	01512a23          	sw	s5,20(sp)
   16a60:	00050993          	mv	s3,a0
   16a64:	00060493          	mv	s1,a2
   16a68:	00100693          	li	a3,1
   16a6c:	00000593          	li	a1,0
   16a70:	08f6c463          	blt	a3,a5,16af8 <__s2b+0xcc>
   16a74:	00098513          	mv	a0,s3
   16a78:	00e12623          	sw	a4,12(sp)
   16a7c:	de9ff0ef          	jal	ra,16864 <_Balloc>
   16a80:	00c12703          	lw	a4,12(sp)
   16a84:	00100793          	li	a5,1
   16a88:	00f52823          	sw	a5,16(a0)
   16a8c:	00e52a23          	sw	a4,20(a0)
   16a90:	00900793          	li	a5,9
   16a94:	0697d863          	ble	s1,a5,16b04 <__s2b+0xd8>
   16a98:	00940a93          	addi	s5,s0,9
   16a9c:	000a8913          	mv	s2,s5
   16aa0:	00940433          	add	s0,s0,s1
   16aa4:	00190913          	addi	s2,s2,1
   16aa8:	fff94683          	lbu	a3,-1(s2)
   16aac:	00050593          	mv	a1,a0
   16ab0:	00a00613          	li	a2,10
   16ab4:	fd068693          	addi	a3,a3,-48
   16ab8:	00098513          	mv	a0,s3
   16abc:	e75ff0ef          	jal	ra,16930 <__multadd>
   16ac0:	fe8912e3          	bne	s2,s0,16aa4 <__s2b+0x78>
   16ac4:	ff848413          	addi	s0,s1,-8
   16ac8:	008a8433          	add	s0,s5,s0
   16acc:	00048913          	mv	s2,s1
   16ad0:	05494063          	blt	s2,s4,16b10 <__s2b+0xe4>
   16ad4:	02c12083          	lw	ra,44(sp)
   16ad8:	02812403          	lw	s0,40(sp)
   16adc:	02412483          	lw	s1,36(sp)
   16ae0:	02012903          	lw	s2,32(sp)
   16ae4:	01c12983          	lw	s3,28(sp)
   16ae8:	01812a03          	lw	s4,24(sp)
   16aec:	01412a83          	lw	s5,20(sp)
   16af0:	03010113          	addi	sp,sp,48
   16af4:	00008067          	ret
   16af8:	00169693          	slli	a3,a3,0x1
   16afc:	00158593          	addi	a1,a1,1
   16b00:	f71ff06f          	j	16a70 <__s2b+0x44>
   16b04:	00a40413          	addi	s0,s0,10
   16b08:	00900493          	li	s1,9
   16b0c:	fc1ff06f          	j	16acc <__s2b+0xa0>
   16b10:	409907b3          	sub	a5,s2,s1
   16b14:	00f407b3          	add	a5,s0,a5
   16b18:	0007c683          	lbu	a3,0(a5)
   16b1c:	00050593          	mv	a1,a0
   16b20:	00a00613          	li	a2,10
   16b24:	fd068693          	addi	a3,a3,-48
   16b28:	00098513          	mv	a0,s3
   16b2c:	e05ff0ef          	jal	ra,16930 <__multadd>
   16b30:	00190913          	addi	s2,s2,1
   16b34:	f9dff06f          	j	16ad0 <__s2b+0xa4>

00016b38 <__hi0bits>:
   16b38:	ffff0737          	lui	a4,0xffff0
   16b3c:	00e57733          	and	a4,a0,a4
   16b40:	00050793          	mv	a5,a0
   16b44:	00000513          	li	a0,0
   16b48:	00071663          	bnez	a4,16b54 <__hi0bits+0x1c>
   16b4c:	01079793          	slli	a5,a5,0x10
   16b50:	01000513          	li	a0,16
   16b54:	ff000737          	lui	a4,0xff000
   16b58:	00e7f733          	and	a4,a5,a4
   16b5c:	00071663          	bnez	a4,16b68 <__hi0bits+0x30>
   16b60:	00850513          	addi	a0,a0,8
   16b64:	00879793          	slli	a5,a5,0x8
   16b68:	f0000737          	lui	a4,0xf0000
   16b6c:	00e7f733          	and	a4,a5,a4
   16b70:	00071663          	bnez	a4,16b7c <__hi0bits+0x44>
   16b74:	00450513          	addi	a0,a0,4
   16b78:	00479793          	slli	a5,a5,0x4
   16b7c:	c0000737          	lui	a4,0xc0000
   16b80:	00e7f733          	and	a4,a5,a4
   16b84:	00071663          	bnez	a4,16b90 <__hi0bits+0x58>
   16b88:	00250513          	addi	a0,a0,2
   16b8c:	00279793          	slli	a5,a5,0x2
   16b90:	0007ca63          	bltz	a5,16ba4 <__hi0bits+0x6c>
   16b94:	00179713          	slli	a4,a5,0x1
   16b98:	00150513          	addi	a0,a0,1
   16b9c:	00074463          	bltz	a4,16ba4 <__hi0bits+0x6c>
   16ba0:	02000513          	li	a0,32
   16ba4:	00008067          	ret

00016ba8 <__lo0bits>:
   16ba8:	00052783          	lw	a5,0(a0)
   16bac:	0077f713          	andi	a4,a5,7
   16bb0:	02070e63          	beqz	a4,16bec <__lo0bits+0x44>
   16bb4:	0017f693          	andi	a3,a5,1
   16bb8:	00000713          	li	a4,0
   16bbc:	00069c63          	bnez	a3,16bd4 <__lo0bits+0x2c>
   16bc0:	0027f713          	andi	a4,a5,2
   16bc4:	00070c63          	beqz	a4,16bdc <__lo0bits+0x34>
   16bc8:	0017d793          	srli	a5,a5,0x1
   16bcc:	00f52023          	sw	a5,0(a0)
   16bd0:	00100713          	li	a4,1
   16bd4:	00070513          	mv	a0,a4
   16bd8:	00008067          	ret
   16bdc:	0027d793          	srli	a5,a5,0x2
   16be0:	00f52023          	sw	a5,0(a0)
   16be4:	00200713          	li	a4,2
   16be8:	fedff06f          	j	16bd4 <__lo0bits+0x2c>
   16bec:	01079693          	slli	a3,a5,0x10
   16bf0:	0106d693          	srli	a3,a3,0x10
   16bf4:	00000713          	li	a4,0
   16bf8:	00069663          	bnez	a3,16c04 <__lo0bits+0x5c>
   16bfc:	0107d793          	srli	a5,a5,0x10
   16c00:	01000713          	li	a4,16
   16c04:	0ff7f693          	andi	a3,a5,255
   16c08:	00069663          	bnez	a3,16c14 <__lo0bits+0x6c>
   16c0c:	00870713          	addi	a4,a4,8 # c0000008 <_end+0xbffd9b28>
   16c10:	0087d793          	srli	a5,a5,0x8
   16c14:	00f7f693          	andi	a3,a5,15
   16c18:	00069663          	bnez	a3,16c24 <__lo0bits+0x7c>
   16c1c:	00470713          	addi	a4,a4,4
   16c20:	0047d793          	srli	a5,a5,0x4
   16c24:	0037f693          	andi	a3,a5,3
   16c28:	00069663          	bnez	a3,16c34 <__lo0bits+0x8c>
   16c2c:	00270713          	addi	a4,a4,2
   16c30:	0027d793          	srli	a5,a5,0x2
   16c34:	0017f693          	andi	a3,a5,1
   16c38:	00069863          	bnez	a3,16c48 <__lo0bits+0xa0>
   16c3c:	0017d793          	srli	a5,a5,0x1
   16c40:	00170713          	addi	a4,a4,1
   16c44:	00078663          	beqz	a5,16c50 <__lo0bits+0xa8>
   16c48:	00f52023          	sw	a5,0(a0)
   16c4c:	f89ff06f          	j	16bd4 <__lo0bits+0x2c>
   16c50:	02000713          	li	a4,32
   16c54:	f81ff06f          	j	16bd4 <__lo0bits+0x2c>

00016c58 <__i2b>:
   16c58:	ff010113          	addi	sp,sp,-16
   16c5c:	00812423          	sw	s0,8(sp)
   16c60:	00058413          	mv	s0,a1
   16c64:	00100593          	li	a1,1
   16c68:	00112623          	sw	ra,12(sp)
   16c6c:	bf9ff0ef          	jal	ra,16864 <_Balloc>
   16c70:	00852a23          	sw	s0,20(a0)
   16c74:	00c12083          	lw	ra,12(sp)
   16c78:	00812403          	lw	s0,8(sp)
   16c7c:	00100713          	li	a4,1
   16c80:	00e52823          	sw	a4,16(a0)
   16c84:	01010113          	addi	sp,sp,16
   16c88:	00008067          	ret

00016c8c <__multiply>:
   16c8c:	0105a703          	lw	a4,16(a1)
   16c90:	01062783          	lw	a5,16(a2)
   16c94:	fd010113          	addi	sp,sp,-48
   16c98:	02912223          	sw	s1,36(sp)
   16c9c:	02112623          	sw	ra,44(sp)
   16ca0:	02812423          	sw	s0,40(sp)
   16ca4:	03212023          	sw	s2,32(sp)
   16ca8:	01312e23          	sw	s3,28(sp)
   16cac:	00058493          	mv	s1,a1
   16cb0:	00f75663          	ble	a5,a4,16cbc <__multiply+0x30>
   16cb4:	00060493          	mv	s1,a2
   16cb8:	00058613          	mv	a2,a1
   16cbc:	0104a983          	lw	s3,16(s1)
   16cc0:	01062903          	lw	s2,16(a2)
   16cc4:	0084a783          	lw	a5,8(s1)
   16cc8:	0044a583          	lw	a1,4(s1)
   16ccc:	01298433          	add	s0,s3,s2
   16cd0:	0087d463          	ble	s0,a5,16cd8 <__multiply+0x4c>
   16cd4:	00158593          	addi	a1,a1,1
   16cd8:	00c12623          	sw	a2,12(sp)
   16cdc:	b89ff0ef          	jal	ra,16864 <_Balloc>
   16ce0:	00c12603          	lw	a2,12(sp)
   16ce4:	01450813          	addi	a6,a0,20
   16ce8:	00241313          	slli	t1,s0,0x2
   16cec:	00680333          	add	t1,a6,t1
   16cf0:	00080793          	mv	a5,a6
   16cf4:	0467ec63          	bltu	a5,t1,16d4c <__multiply+0xc0>
   16cf8:	01448593          	addi	a1,s1,20
   16cfc:	00299893          	slli	a7,s3,0x2
   16d00:	01460613          	addi	a2,a2,20
   16d04:	00291e13          	slli	t3,s2,0x2
   16d08:	000106b7          	lui	a3,0x10
   16d0c:	011588b3          	add	a7,a1,a7
   16d10:	01c60e33          	add	t3,a2,t3
   16d14:	fff68693          	addi	a3,a3,-1 # ffff <_start-0x1>
   16d18:	05c66063          	bltu	a2,t3,16d58 <__multiply+0xcc>
   16d1c:	00805863          	blez	s0,16d2c <__multiply+0xa0>
   16d20:	ffc30313          	addi	t1,t1,-4
   16d24:	00032783          	lw	a5,0(t1)
   16d28:	10078e63          	beqz	a5,16e44 <__multiply+0x1b8>
   16d2c:	00852823          	sw	s0,16(a0)
   16d30:	02c12083          	lw	ra,44(sp)
   16d34:	02812403          	lw	s0,40(sp)
   16d38:	02412483          	lw	s1,36(sp)
   16d3c:	02012903          	lw	s2,32(sp)
   16d40:	01c12983          	lw	s3,28(sp)
   16d44:	03010113          	addi	sp,sp,48
   16d48:	00008067          	ret
   16d4c:	0007a023          	sw	zero,0(a5)
   16d50:	00478793          	addi	a5,a5,4
   16d54:	fa1ff06f          	j	16cf4 <__multiply+0x68>
   16d58:	00062f83          	lw	t6,0(a2)
   16d5c:	00dfffb3          	and	t6,t6,a3
   16d60:	060f8463          	beqz	t6,16dc8 <__multiply+0x13c>
   16d64:	00080f13          	mv	t5,a6
   16d68:	00058293          	mv	t0,a1
   16d6c:	00000493          	li	s1,0
   16d70:	0002a703          	lw	a4,0(t0) # 10dcc <memset+0xb4>
   16d74:	000f2383          	lw	t2,0(t5)
   16d78:	004f0f13          	addi	t5,t5,4
   16d7c:	00d77eb3          	and	t4,a4,a3
   16d80:	03fe8eb3          	mul	t4,t4,t6
   16d84:	00d3f7b3          	and	a5,t2,a3
   16d88:	0103d393          	srli	t2,t2,0x10
   16d8c:	00428293          	addi	t0,t0,4
   16d90:	00fe8eb3          	add	t4,t4,a5
   16d94:	01075793          	srli	a5,a4,0x10
   16d98:	03f787b3          	mul	a5,a5,t6
   16d9c:	009e8eb3          	add	t4,t4,s1
   16da0:	010ed713          	srli	a4,t4,0x10
   16da4:	00defeb3          	and	t4,t4,a3
   16da8:	007787b3          	add	a5,a5,t2
   16dac:	00e787b3          	add	a5,a5,a4
   16db0:	0107d493          	srli	s1,a5,0x10
   16db4:	01079793          	slli	a5,a5,0x10
   16db8:	01d7e7b3          	or	a5,a5,t4
   16dbc:	feff2e23          	sw	a5,-4(t5)
   16dc0:	fb12e8e3          	bltu	t0,a7,16d70 <__multiply+0xe4>
   16dc4:	009f2023          	sw	s1,0(t5)
   16dc8:	00265283          	lhu	t0,2(a2)
   16dcc:	06028663          	beqz	t0,16e38 <__multiply+0x1ac>
   16dd0:	00082783          	lw	a5,0(a6)
   16dd4:	00080e93          	mv	t4,a6
   16dd8:	00058f13          	mv	t5,a1
   16ddc:	00000f93          	li	t6,0
   16de0:	000f2703          	lw	a4,0(t5)
   16de4:	002ed383          	lhu	t2,2(t4)
   16de8:	00d7f7b3          	and	a5,a5,a3
   16dec:	00d77733          	and	a4,a4,a3
   16df0:	02570733          	mul	a4,a4,t0
   16df4:	004e8e93          	addi	t4,t4,4
   16df8:	004f0f13          	addi	t5,t5,4
   16dfc:	00770733          	add	a4,a4,t2
   16e00:	01f70733          	add	a4,a4,t6
   16e04:	01071f93          	slli	t6,a4,0x10
   16e08:	00ffe7b3          	or	a5,t6,a5
   16e0c:	fefeae23          	sw	a5,-4(t4)
   16e10:	ffef5783          	lhu	a5,-2(t5)
   16e14:	000eaf83          	lw	t6,0(t4)
   16e18:	01075713          	srli	a4,a4,0x10
   16e1c:	025787b3          	mul	a5,a5,t0
   16e20:	00dfffb3          	and	t6,t6,a3
   16e24:	01f787b3          	add	a5,a5,t6
   16e28:	00e787b3          	add	a5,a5,a4
   16e2c:	0107df93          	srli	t6,a5,0x10
   16e30:	fb1f68e3          	bltu	t5,a7,16de0 <__multiply+0x154>
   16e34:	00fea023          	sw	a5,0(t4)
   16e38:	00460613          	addi	a2,a2,4
   16e3c:	00480813          	addi	a6,a6,4
   16e40:	ed9ff06f          	j	16d18 <__multiply+0x8c>
   16e44:	fff40413          	addi	s0,s0,-1
   16e48:	ed5ff06f          	j	16d1c <__multiply+0x90>

00016e4c <__pow5mult>:
   16e4c:	fe010113          	addi	sp,sp,-32
   16e50:	00912a23          	sw	s1,20(sp)
   16e54:	01212823          	sw	s2,16(sp)
   16e58:	01312623          	sw	s3,12(sp)
   16e5c:	00112e23          	sw	ra,28(sp)
   16e60:	00812c23          	sw	s0,24(sp)
   16e64:	01412423          	sw	s4,8(sp)
   16e68:	00367793          	andi	a5,a2,3
   16e6c:	00050913          	mv	s2,a0
   16e70:	00060493          	mv	s1,a2
   16e74:	00058993          	mv	s3,a1
   16e78:	02078463          	beqz	a5,16ea0 <__pow5mult+0x54>
   16e7c:	fff78793          	addi	a5,a5,-1
   16e80:	00022737          	lui	a4,0x22
   16e84:	9d870713          	addi	a4,a4,-1576 # 219d8 <p05.3308>
   16e88:	00279793          	slli	a5,a5,0x2
   16e8c:	00f707b3          	add	a5,a4,a5
   16e90:	0007a603          	lw	a2,0(a5)
   16e94:	00000693          	li	a3,0
   16e98:	a99ff0ef          	jal	ra,16930 <__multadd>
   16e9c:	00050993          	mv	s3,a0
   16ea0:	4024d493          	srai	s1,s1,0x2
   16ea4:	08048063          	beqz	s1,16f24 <__pow5mult+0xd8>
   16ea8:	04892403          	lw	s0,72(s2)
   16eac:	00041e63          	bnez	s0,16ec8 <__pow5mult+0x7c>
   16eb0:	27100593          	li	a1,625
   16eb4:	00090513          	mv	a0,s2
   16eb8:	da1ff0ef          	jal	ra,16c58 <__i2b>
   16ebc:	04a92423          	sw	a0,72(s2)
   16ec0:	00050413          	mv	s0,a0
   16ec4:	00052023          	sw	zero,0(a0)
   16ec8:	0014f793          	andi	a5,s1,1
   16ecc:	02078463          	beqz	a5,16ef4 <__pow5mult+0xa8>
   16ed0:	00098593          	mv	a1,s3
   16ed4:	00040613          	mv	a2,s0
   16ed8:	00090513          	mv	a0,s2
   16edc:	db1ff0ef          	jal	ra,16c8c <__multiply>
   16ee0:	00050a13          	mv	s4,a0
   16ee4:	00098593          	mv	a1,s3
   16ee8:	00090513          	mv	a0,s2
   16eec:	a21ff0ef          	jal	ra,1690c <_Bfree>
   16ef0:	000a0993          	mv	s3,s4
   16ef4:	4014d493          	srai	s1,s1,0x1
   16ef8:	02048663          	beqz	s1,16f24 <__pow5mult+0xd8>
   16efc:	00042503          	lw	a0,0(s0)
   16f00:	00051e63          	bnez	a0,16f1c <__pow5mult+0xd0>
   16f04:	00040613          	mv	a2,s0
   16f08:	00040593          	mv	a1,s0
   16f0c:	00090513          	mv	a0,s2
   16f10:	d7dff0ef          	jal	ra,16c8c <__multiply>
   16f14:	00a42023          	sw	a0,0(s0)
   16f18:	00052023          	sw	zero,0(a0)
   16f1c:	00050413          	mv	s0,a0
   16f20:	fa9ff06f          	j	16ec8 <__pow5mult+0x7c>
   16f24:	01c12083          	lw	ra,28(sp)
   16f28:	01812403          	lw	s0,24(sp)
   16f2c:	00098513          	mv	a0,s3
   16f30:	01412483          	lw	s1,20(sp)
   16f34:	01012903          	lw	s2,16(sp)
   16f38:	00c12983          	lw	s3,12(sp)
   16f3c:	00812a03          	lw	s4,8(sp)
   16f40:	02010113          	addi	sp,sp,32
   16f44:	00008067          	ret

00016f48 <__lshift>:
   16f48:	fd010113          	addi	sp,sp,-48
   16f4c:	02912223          	sw	s1,36(sp)
   16f50:	00058493          	mv	s1,a1
   16f54:	01312e23          	sw	s3,28(sp)
   16f58:	0104a983          	lw	s3,16(s1)
   16f5c:	02812423          	sw	s0,40(sp)
   16f60:	0045a583          	lw	a1,4(a1)
   16f64:	40565413          	srai	s0,a2,0x5
   16f68:	0084a783          	lw	a5,8(s1)
   16f6c:	013409b3          	add	s3,s0,s3
   16f70:	03212023          	sw	s2,32(sp)
   16f74:	01512a23          	sw	s5,20(sp)
   16f78:	02112623          	sw	ra,44(sp)
   16f7c:	01412c23          	sw	s4,24(sp)
   16f80:	00050a93          	mv	s5,a0
   16f84:	00198913          	addi	s2,s3,1
   16f88:	0d27c663          	blt	a5,s2,17054 <__lshift+0x10c>
   16f8c:	000a8513          	mv	a0,s5
   16f90:	00c12623          	sw	a2,12(sp)
   16f94:	8d1ff0ef          	jal	ra,16864 <_Balloc>
   16f98:	00c12603          	lw	a2,12(sp)
   16f9c:	01450793          	addi	a5,a0,20
   16fa0:	00050a13          	mv	s4,a0
   16fa4:	00078693          	mv	a3,a5
   16fa8:	00000713          	li	a4,0
   16fac:	00468693          	addi	a3,a3,4
   16fb0:	0a874863          	blt	a4,s0,17060 <__lshift+0x118>
   16fb4:	00045463          	bgez	s0,16fbc <__lshift+0x74>
   16fb8:	00000413          	li	s0,0
   16fbc:	0104a683          	lw	a3,16(s1)
   16fc0:	00241413          	slli	s0,s0,0x2
   16fc4:	00878733          	add	a4,a5,s0
   16fc8:	00269693          	slli	a3,a3,0x2
   16fcc:	01448793          	addi	a5,s1,20
   16fd0:	01f67613          	andi	a2,a2,31
   16fd4:	00d786b3          	add	a3,a5,a3
   16fd8:	08060a63          	beqz	a2,1706c <__lshift+0x124>
   16fdc:	02000813          	li	a6,32
   16fe0:	40c80833          	sub	a6,a6,a2
   16fe4:	00000593          	li	a1,0
   16fe8:	0007a503          	lw	a0,0(a5)
   16fec:	00470713          	addi	a4,a4,4
   16ff0:	00478793          	addi	a5,a5,4
   16ff4:	00c51533          	sll	a0,a0,a2
   16ff8:	00b565b3          	or	a1,a0,a1
   16ffc:	feb72e23          	sw	a1,-4(a4)
   17000:	ffc7a583          	lw	a1,-4(a5)
   17004:	0105d5b3          	srl	a1,a1,a6
   17008:	fed7e0e3          	bltu	a5,a3,16fe8 <__lshift+0xa0>
   1700c:	00b72023          	sw	a1,0(a4)
   17010:	00058463          	beqz	a1,17018 <__lshift+0xd0>
   17014:	00298913          	addi	s2,s3,2
   17018:	fff90913          	addi	s2,s2,-1
   1701c:	012a2823          	sw	s2,16(s4)
   17020:	000a8513          	mv	a0,s5
   17024:	00048593          	mv	a1,s1
   17028:	8e5ff0ef          	jal	ra,1690c <_Bfree>
   1702c:	02c12083          	lw	ra,44(sp)
   17030:	02812403          	lw	s0,40(sp)
   17034:	000a0513          	mv	a0,s4
   17038:	02412483          	lw	s1,36(sp)
   1703c:	02012903          	lw	s2,32(sp)
   17040:	01c12983          	lw	s3,28(sp)
   17044:	01812a03          	lw	s4,24(sp)
   17048:	01412a83          	lw	s5,20(sp)
   1704c:	03010113          	addi	sp,sp,48
   17050:	00008067          	ret
   17054:	00158593          	addi	a1,a1,1
   17058:	00179793          	slli	a5,a5,0x1
   1705c:	f2dff06f          	j	16f88 <__lshift+0x40>
   17060:	fe06ae23          	sw	zero,-4(a3)
   17064:	00170713          	addi	a4,a4,1
   17068:	f45ff06f          	j	16fac <__lshift+0x64>
   1706c:	00478793          	addi	a5,a5,4
   17070:	ffc7a603          	lw	a2,-4(a5)
   17074:	00470713          	addi	a4,a4,4
   17078:	fec72e23          	sw	a2,-4(a4)
   1707c:	fed7e8e3          	bltu	a5,a3,1706c <__lshift+0x124>
   17080:	f99ff06f          	j	17018 <__lshift+0xd0>

00017084 <__mcmp>:
   17084:	01052783          	lw	a5,16(a0)
   17088:	0105a703          	lw	a4,16(a1)
   1708c:	40e787b3          	sub	a5,a5,a4
   17090:	02079c63          	bnez	a5,170c8 <__mcmp+0x44>
   17094:	00271713          	slli	a4,a4,0x2
   17098:	01450513          	addi	a0,a0,20
   1709c:	01458593          	addi	a1,a1,20
   170a0:	00e506b3          	add	a3,a0,a4
   170a4:	00e585b3          	add	a1,a1,a4
   170a8:	ffc68693          	addi	a3,a3,-4
   170ac:	ffc58593          	addi	a1,a1,-4
   170b0:	0006a603          	lw	a2,0(a3)
   170b4:	0005a703          	lw	a4,0(a1)
   170b8:	00e60c63          	beq	a2,a4,170d0 <__mcmp+0x4c>
   170bc:	fff00793          	li	a5,-1
   170c0:	00e66463          	bltu	a2,a4,170c8 <__mcmp+0x44>
   170c4:	00100793          	li	a5,1
   170c8:	00078513          	mv	a0,a5
   170cc:	00008067          	ret
   170d0:	fcd56ce3          	bltu	a0,a3,170a8 <__mcmp+0x24>
   170d4:	ff5ff06f          	j	170c8 <__mcmp+0x44>

000170d8 <__mdiff>:
   170d8:	fe010113          	addi	sp,sp,-32
   170dc:	00912a23          	sw	s1,20(sp)
   170e0:	00058493          	mv	s1,a1
   170e4:	01312623          	sw	s3,12(sp)
   170e8:	00060593          	mv	a1,a2
   170ec:	00050993          	mv	s3,a0
   170f0:	00048513          	mv	a0,s1
   170f4:	00812c23          	sw	s0,24(sp)
   170f8:	00112e23          	sw	ra,28(sp)
   170fc:	01212823          	sw	s2,16(sp)
   17100:	00060413          	mv	s0,a2
   17104:	f81ff0ef          	jal	ra,17084 <__mcmp>
   17108:	02051c63          	bnez	a0,17140 <__mdiff+0x68>
   1710c:	00000593          	li	a1,0
   17110:	00098513          	mv	a0,s3
   17114:	f50ff0ef          	jal	ra,16864 <_Balloc>
   17118:	00100793          	li	a5,1
   1711c:	00f52823          	sw	a5,16(a0)
   17120:	00052a23          	sw	zero,20(a0)
   17124:	01c12083          	lw	ra,28(sp)
   17128:	01812403          	lw	s0,24(sp)
   1712c:	01412483          	lw	s1,20(sp)
   17130:	01012903          	lw	s2,16(sp)
   17134:	00c12983          	lw	s3,12(sp)
   17138:	02010113          	addi	sp,sp,32
   1713c:	00008067          	ret
   17140:	00100913          	li	s2,1
   17144:	00054a63          	bltz	a0,17158 <__mdiff+0x80>
   17148:	00040793          	mv	a5,s0
   1714c:	00000913          	li	s2,0
   17150:	00048413          	mv	s0,s1
   17154:	00078493          	mv	s1,a5
   17158:	00442583          	lw	a1,4(s0)
   1715c:	00098513          	mv	a0,s3
   17160:	f04ff0ef          	jal	ra,16864 <_Balloc>
   17164:	01042303          	lw	t1,16(s0)
   17168:	0104a883          	lw	a7,16(s1)
   1716c:	01440613          	addi	a2,s0,20
   17170:	00231e13          	slli	t3,t1,0x2
   17174:	01448813          	addi	a6,s1,20
   17178:	00289893          	slli	a7,a7,0x2
   1717c:	00010eb7          	lui	t4,0x10
   17180:	01252623          	sw	s2,12(a0)
   17184:	01c60e33          	add	t3,a2,t3
   17188:	011808b3          	add	a7,a6,a7
   1718c:	01450693          	addi	a3,a0,20
   17190:	00000f13          	li	t5,0
   17194:	fffe8e93          	addi	t4,t4,-1 # ffff <_start-0x1>
   17198:	00062703          	lw	a4,0(a2)
   1719c:	00082f83          	lw	t6,0(a6)
   171a0:	00468693          	addi	a3,a3,4
   171a4:	01d775b3          	and	a1,a4,t4
   171a8:	01dff7b3          	and	a5,t6,t4
   171ac:	01e585b3          	add	a1,a1,t5
   171b0:	40f585b3          	sub	a1,a1,a5
   171b4:	010fdf93          	srli	t6,t6,0x10
   171b8:	01075793          	srli	a5,a4,0x10
   171bc:	41f787b3          	sub	a5,a5,t6
   171c0:	4105d713          	srai	a4,a1,0x10
   171c4:	00e787b3          	add	a5,a5,a4
   171c8:	4107df13          	srai	t5,a5,0x10
   171cc:	01d5f5b3          	and	a1,a1,t4
   171d0:	01079793          	slli	a5,a5,0x10
   171d4:	00b7e7b3          	or	a5,a5,a1
   171d8:	00480813          	addi	a6,a6,4
   171dc:	fef6ae23          	sw	a5,-4(a3)
   171e0:	00460613          	addi	a2,a2,4
   171e4:	fb186ae3          	bltu	a6,a7,17198 <__mdiff+0xc0>
   171e8:	000105b7          	lui	a1,0x10
   171ec:	fff58593          	addi	a1,a1,-1 # ffff <_start-0x1>
   171f0:	01c66c63          	bltu	a2,t3,17208 <__mdiff+0x130>
   171f4:	ffc68693          	addi	a3,a3,-4
   171f8:	0006a783          	lw	a5,0(a3)
   171fc:	04078263          	beqz	a5,17240 <__mdiff+0x168>
   17200:	00652823          	sw	t1,16(a0)
   17204:	f21ff06f          	j	17124 <__mdiff+0x4c>
   17208:	00062783          	lw	a5,0(a2)
   1720c:	00468693          	addi	a3,a3,4
   17210:	00460613          	addi	a2,a2,4
   17214:	00b7f733          	and	a4,a5,a1
   17218:	01e70733          	add	a4,a4,t5
   1721c:	41075813          	srai	a6,a4,0x10
   17220:	0107d793          	srli	a5,a5,0x10
   17224:	010787b3          	add	a5,a5,a6
   17228:	4107df13          	srai	t5,a5,0x10
   1722c:	00b77733          	and	a4,a4,a1
   17230:	01079793          	slli	a5,a5,0x10
   17234:	00e7e7b3          	or	a5,a5,a4
   17238:	fef6ae23          	sw	a5,-4(a3)
   1723c:	fb5ff06f          	j	171f0 <__mdiff+0x118>
   17240:	fff30313          	addi	t1,t1,-1
   17244:	fb1ff06f          	j	171f4 <__mdiff+0x11c>

00017248 <__ulp>:
   17248:	7ff007b7          	lui	a5,0x7ff00
   1724c:	00b7f5b3          	and	a1,a5,a1
   17250:	fcc007b7          	lui	a5,0xfcc00
   17254:	00f585b3          	add	a1,a1,a5
   17258:	00b05863          	blez	a1,17268 <__ulp+0x20>
   1725c:	00000793          	li	a5,0
   17260:	00078513          	mv	a0,a5
   17264:	00008067          	ret
   17268:	40b005b3          	neg	a1,a1
   1726c:	4145d793          	srai	a5,a1,0x14
   17270:	01300713          	li	a4,19
   17274:	00f74863          	blt	a4,a5,17284 <__ulp+0x3c>
   17278:	000805b7          	lui	a1,0x80
   1727c:	40f5d5b3          	sra	a1,a1,a5
   17280:	fddff06f          	j	1725c <__ulp+0x14>
   17284:	fec78713          	addi	a4,a5,-20 # fcbfffec <_end+0xfcbd9b0c>
   17288:	01e00693          	li	a3,30
   1728c:	00000593          	li	a1,0
   17290:	00100793          	li	a5,1
   17294:	fce6c6e3          	blt	a3,a4,17260 <__ulp+0x18>
   17298:	800007b7          	lui	a5,0x80000
   1729c:	00e7d7b3          	srl	a5,a5,a4
   172a0:	fc1ff06f          	j	17260 <__ulp+0x18>

000172a4 <__b2d>:
   172a4:	fd010113          	addi	sp,sp,-48
   172a8:	02912223          	sw	s1,36(sp)
   172ac:	01052483          	lw	s1,16(a0)
   172b0:	01312e23          	sw	s3,28(sp)
   172b4:	01450993          	addi	s3,a0,20
   172b8:	00249493          	slli	s1,s1,0x2
   172bc:	009984b3          	add	s1,s3,s1
   172c0:	02812423          	sw	s0,40(sp)
   172c4:	ffc4a403          	lw	s0,-4(s1)
   172c8:	03212023          	sw	s2,32(sp)
   172cc:	00b12623          	sw	a1,12(sp)
   172d0:	00040513          	mv	a0,s0
   172d4:	02112623          	sw	ra,44(sp)
   172d8:	861ff0ef          	jal	ra,16b38 <__hi0bits>
   172dc:	00c12583          	lw	a1,12(sp)
   172e0:	02000793          	li	a5,32
   172e4:	40a787b3          	sub	a5,a5,a0
   172e8:	00f5a023          	sw	a5,0(a1) # 80000 <_end+0x59b20>
   172ec:	00a00793          	li	a5,10
   172f0:	ffc48913          	addi	s2,s1,-4
   172f4:	04a7cc63          	blt	a5,a0,1734c <__b2d+0xa8>
   172f8:	00b00793          	li	a5,11
   172fc:	40a787b3          	sub	a5,a5,a0
   17300:	3ff00737          	lui	a4,0x3ff00
   17304:	00f456b3          	srl	a3,s0,a5
   17308:	00e6e6b3          	or	a3,a3,a4
   1730c:	00000713          	li	a4,0
   17310:	0129f463          	bleu	s2,s3,17318 <__b2d+0x74>
   17314:	ff84a703          	lw	a4,-8(s1)
   17318:	01550513          	addi	a0,a0,21
   1731c:	00a41533          	sll	a0,s0,a0
   17320:	00f757b3          	srl	a5,a4,a5
   17324:	00f567b3          	or	a5,a0,a5
   17328:	02c12083          	lw	ra,44(sp)
   1732c:	02812403          	lw	s0,40(sp)
   17330:	02412483          	lw	s1,36(sp)
   17334:	02012903          	lw	s2,32(sp)
   17338:	01c12983          	lw	s3,28(sp)
   1733c:	00078513          	mv	a0,a5
   17340:	00068593          	mv	a1,a3
   17344:	03010113          	addi	sp,sp,48
   17348:	00008067          	ret
   1734c:	00000793          	li	a5,0
   17350:	0129f663          	bleu	s2,s3,1735c <__b2d+0xb8>
   17354:	ff84a783          	lw	a5,-8(s1)
   17358:	ff848913          	addi	s2,s1,-8
   1735c:	ff550513          	addi	a0,a0,-11
   17360:	02050e63          	beqz	a0,1739c <__b2d+0xf8>
   17364:	02000713          	li	a4,32
   17368:	40a70633          	sub	a2,a4,a0
   1736c:	00c7d733          	srl	a4,a5,a2
   17370:	00a41433          	sll	s0,s0,a0
   17374:	00e46433          	or	s0,s0,a4
   17378:	3ff006b7          	lui	a3,0x3ff00
   1737c:	00d466b3          	or	a3,s0,a3
   17380:	00000713          	li	a4,0
   17384:	0129f463          	bleu	s2,s3,1738c <__b2d+0xe8>
   17388:	ffc92703          	lw	a4,-4(s2)
   1738c:	00a797b3          	sll	a5,a5,a0
   17390:	00c75733          	srl	a4,a4,a2
   17394:	00e7e7b3          	or	a5,a5,a4
   17398:	f91ff06f          	j	17328 <__b2d+0x84>
   1739c:	3ff006b7          	lui	a3,0x3ff00
   173a0:	00d466b3          	or	a3,s0,a3
   173a4:	f85ff06f          	j	17328 <__b2d+0x84>

000173a8 <__d2b>:
   173a8:	fd010113          	addi	sp,sp,-48
   173ac:	02812423          	sw	s0,40(sp)
   173b0:	00058413          	mv	s0,a1
   173b4:	00100593          	li	a1,1
   173b8:	02912223          	sw	s1,36(sp)
   173bc:	03212023          	sw	s2,32(sp)
   173c0:	00060493          	mv	s1,a2
   173c4:	01312e23          	sw	s3,28(sp)
   173c8:	01412c23          	sw	s4,24(sp)
   173cc:	00070913          	mv	s2,a4
   173d0:	02112623          	sw	ra,44(sp)
   173d4:	00068a13          	mv	s4,a3
   173d8:	c8cff0ef          	jal	ra,16864 <_Balloc>
   173dc:	00100737          	lui	a4,0x100
   173e0:	fff70793          	addi	a5,a4,-1 # fffff <_end+0xd9b1f>
   173e4:	0097f7b3          	and	a5,a5,s1
   173e8:	0144d493          	srli	s1,s1,0x14
   173ec:	7ff4f493          	andi	s1,s1,2047
   173f0:	00050993          	mv	s3,a0
   173f4:	08049a63          	bnez	s1,17488 <__d2b+0xe0>
   173f8:	00f12623          	sw	a5,12(sp)
   173fc:	08040e63          	beqz	s0,17498 <__d2b+0xf0>
   17400:	00810513          	addi	a0,sp,8
   17404:	00812423          	sw	s0,8(sp)
   17408:	fa0ff0ef          	jal	ra,16ba8 <__lo0bits>
   1740c:	00812683          	lw	a3,8(sp)
   17410:	08050063          	beqz	a0,17490 <__d2b+0xe8>
   17414:	00c12703          	lw	a4,12(sp)
   17418:	02000793          	li	a5,32
   1741c:	40a787b3          	sub	a5,a5,a0
   17420:	00f717b3          	sll	a5,a4,a5
   17424:	00d7e7b3          	or	a5,a5,a3
   17428:	00a75733          	srl	a4,a4,a0
   1742c:	00f9aa23          	sw	a5,20(s3)
   17430:	00e12623          	sw	a4,12(sp)
   17434:	00c12403          	lw	s0,12(sp)
   17438:	0089ac23          	sw	s0,24(s3)
   1743c:	00803433          	snez	s0,s0
   17440:	00140413          	addi	s0,s0,1
   17444:	0089a823          	sw	s0,16(s3)
   17448:	06048a63          	beqz	s1,174bc <__d2b+0x114>
   1744c:	bcd48493          	addi	s1,s1,-1075
   17450:	00a484b3          	add	s1,s1,a0
   17454:	03500793          	li	a5,53
   17458:	009a2023          	sw	s1,0(s4)
   1745c:	40a78533          	sub	a0,a5,a0
   17460:	00a92023          	sw	a0,0(s2)
   17464:	02c12083          	lw	ra,44(sp)
   17468:	02812403          	lw	s0,40(sp)
   1746c:	00098513          	mv	a0,s3
   17470:	02412483          	lw	s1,36(sp)
   17474:	02012903          	lw	s2,32(sp)
   17478:	01c12983          	lw	s3,28(sp)
   1747c:	01812a03          	lw	s4,24(sp)
   17480:	03010113          	addi	sp,sp,48
   17484:	00008067          	ret
   17488:	00e7e7b3          	or	a5,a5,a4
   1748c:	f6dff06f          	j	173f8 <__d2b+0x50>
   17490:	00d9aa23          	sw	a3,20(s3)
   17494:	fa1ff06f          	j	17434 <__d2b+0x8c>
   17498:	00c10513          	addi	a0,sp,12
   1749c:	f0cff0ef          	jal	ra,16ba8 <__lo0bits>
   174a0:	00c12783          	lw	a5,12(sp)
   174a4:	02050513          	addi	a0,a0,32
   174a8:	00100413          	li	s0,1
   174ac:	00f9aa23          	sw	a5,20(s3)
   174b0:	00100793          	li	a5,1
   174b4:	00f9a823          	sw	a5,16(s3)
   174b8:	f91ff06f          	j	17448 <__d2b+0xa0>
   174bc:	00241793          	slli	a5,s0,0x2
   174c0:	bce50513          	addi	a0,a0,-1074
   174c4:	00f987b3          	add	a5,s3,a5
   174c8:	00aa2023          	sw	a0,0(s4)
   174cc:	0107a503          	lw	a0,16(a5) # 80000010 <_end+0x7ffd9b30>
   174d0:	00541413          	slli	s0,s0,0x5
   174d4:	e64ff0ef          	jal	ra,16b38 <__hi0bits>
   174d8:	40a40433          	sub	s0,s0,a0
   174dc:	00892023          	sw	s0,0(s2)
   174e0:	f85ff06f          	j	17464 <__d2b+0xbc>

000174e4 <__ratio>:
   174e4:	fd010113          	addi	sp,sp,-48
   174e8:	03212023          	sw	s2,32(sp)
   174ec:	00058913          	mv	s2,a1
   174f0:	00810593          	addi	a1,sp,8
   174f4:	02112623          	sw	ra,44(sp)
   174f8:	02812423          	sw	s0,40(sp)
   174fc:	02912223          	sw	s1,36(sp)
   17500:	01312e23          	sw	s3,28(sp)
   17504:	01412c23          	sw	s4,24(sp)
   17508:	00050a13          	mv	s4,a0
   1750c:	d99ff0ef          	jal	ra,172a4 <__b2d>
   17510:	00050993          	mv	s3,a0
   17514:	00058493          	mv	s1,a1
   17518:	00058413          	mv	s0,a1
   1751c:	00090513          	mv	a0,s2
   17520:	00c10593          	addi	a1,sp,12
   17524:	d81ff0ef          	jal	ra,172a4 <__b2d>
   17528:	01092783          	lw	a5,16(s2)
   1752c:	010a2703          	lw	a4,16(s4)
   17530:	00812683          	lw	a3,8(sp)
   17534:	40f70733          	sub	a4,a4,a5
   17538:	00c12783          	lw	a5,12(sp)
   1753c:	00571713          	slli	a4,a4,0x5
   17540:	40f686b3          	sub	a3,a3,a5
   17544:	00d707b3          	add	a5,a4,a3
   17548:	04f05463          	blez	a5,17590 <__ratio+0xac>
   1754c:	01479793          	slli	a5,a5,0x14
   17550:	00058613          	mv	a2,a1
   17554:	00978433          	add	s0,a5,s1
   17558:	00060713          	mv	a4,a2
   1755c:	00040593          	mv	a1,s0
   17560:	00050613          	mv	a2,a0
   17564:	00070693          	mv	a3,a4
   17568:	00098513          	mv	a0,s3
   1756c:	4ac050ef          	jal	ra,1ca18 <__divdf3>
   17570:	02c12083          	lw	ra,44(sp)
   17574:	02812403          	lw	s0,40(sp)
   17578:	02412483          	lw	s1,36(sp)
   1757c:	02012903          	lw	s2,32(sp)
   17580:	01c12983          	lw	s3,28(sp)
   17584:	01812a03          	lw	s4,24(sp)
   17588:	03010113          	addi	sp,sp,48
   1758c:	00008067          	ret
   17590:	fff00737          	lui	a4,0xfff00
   17594:	02e787b3          	mul	a5,a5,a4
   17598:	00b78633          	add	a2,a5,a1
   1759c:	fbdff06f          	j	17558 <__ratio+0x74>

000175a0 <_mprec_log10>:
   175a0:	ff010113          	addi	sp,sp,-16
   175a4:	00812423          	sw	s0,8(sp)
   175a8:	00112623          	sw	ra,12(sp)
   175ac:	01212223          	sw	s2,4(sp)
   175b0:	01312023          	sw	s3,0(sp)
   175b4:	01700793          	li	a5,23
   175b8:	00050413          	mv	s0,a0
   175bc:	02a7ca63          	blt	a5,a0,175f0 <_mprec_log10+0x50>
   175c0:	000227b7          	lui	a5,0x22
   175c4:	00351413          	slli	s0,a0,0x3
   175c8:	9d878793          	addi	a5,a5,-1576 # 219d8 <p05.3308>
   175cc:	00878433          	add	s0,a5,s0
   175d0:	01042503          	lw	a0,16(s0)
   175d4:	01442583          	lw	a1,20(s0)
   175d8:	00c12083          	lw	ra,12(sp)
   175dc:	00812403          	lw	s0,8(sp)
   175e0:	00412903          	lw	s2,4(sp)
   175e4:	00012983          	lw	s3,0(sp)
   175e8:	01010113          	addi	sp,sp,16
   175ec:	00008067          	ret
   175f0:	000247b7          	lui	a5,0x24
   175f4:	c487a503          	lw	a0,-952(a5) # 23c48 <__TMC_END__+0x4>
   175f8:	c4c7a583          	lw	a1,-948(a5)
   175fc:	000247b7          	lui	a5,0x24
   17600:	c507a903          	lw	s2,-944(a5) # 23c50 <__TMC_END__+0xc>
   17604:	c547a983          	lw	s3,-940(a5)
   17608:	00090613          	mv	a2,s2
   1760c:	00098693          	mv	a3,s3
   17610:	fff40413          	addi	s0,s0,-1
   17614:	2d5050ef          	jal	ra,1d0e8 <__muldf3>
   17618:	fe0418e3          	bnez	s0,17608 <_mprec_log10+0x68>
   1761c:	fbdff06f          	j	175d8 <_mprec_log10+0x38>

00017620 <__copybits>:
   17620:	fff58793          	addi	a5,a1,-1
   17624:	01062703          	lw	a4,16(a2)
   17628:	4057d793          	srai	a5,a5,0x5
   1762c:	00178793          	addi	a5,a5,1
   17630:	00279793          	slli	a5,a5,0x2
   17634:	01460693          	addi	a3,a2,20
   17638:	00271713          	slli	a4,a4,0x2
   1763c:	00f507b3          	add	a5,a0,a5
   17640:	00e68733          	add	a4,a3,a4
   17644:	00e6e663          	bltu	a3,a4,17650 <__copybits+0x30>
   17648:	00f56e63          	bltu	a0,a5,17664 <__copybits+0x44>
   1764c:	00008067          	ret
   17650:	00468693          	addi	a3,a3,4 # 3ff00004 <_end+0x3fed9b24>
   17654:	ffc6a603          	lw	a2,-4(a3)
   17658:	00450513          	addi	a0,a0,4
   1765c:	fec52e23          	sw	a2,-4(a0)
   17660:	fe5ff06f          	j	17644 <__copybits+0x24>
   17664:	00450513          	addi	a0,a0,4
   17668:	fe052e23          	sw	zero,-4(a0)
   1766c:	fddff06f          	j	17648 <__copybits+0x28>

00017670 <__any_on>:
   17670:	01052683          	lw	a3,16(a0)
   17674:	4055d793          	srai	a5,a1,0x5
   17678:	01450713          	addi	a4,a0,20
   1767c:	04f6c063          	blt	a3,a5,176bc <__any_on+0x4c>
   17680:	02d7d463          	ble	a3,a5,176a8 <__any_on+0x38>
   17684:	01f5f593          	andi	a1,a1,31
   17688:	02058063          	beqz	a1,176a8 <__any_on+0x38>
   1768c:	00279693          	slli	a3,a5,0x2
   17690:	00d706b3          	add	a3,a4,a3
   17694:	0006a603          	lw	a2,0(a3)
   17698:	00100513          	li	a0,1
   1769c:	00b656b3          	srl	a3,a2,a1
   176a0:	00b695b3          	sll	a1,a3,a1
   176a4:	02b61863          	bne	a2,a1,176d4 <__any_on+0x64>
   176a8:	00279793          	slli	a5,a5,0x2
   176ac:	00f707b3          	add	a5,a4,a5
   176b0:	00f76a63          	bltu	a4,a5,176c4 <__any_on+0x54>
   176b4:	00000513          	li	a0,0
   176b8:	00008067          	ret
   176bc:	00068793          	mv	a5,a3
   176c0:	fe9ff06f          	j	176a8 <__any_on+0x38>
   176c4:	ffc78793          	addi	a5,a5,-4
   176c8:	0007a683          	lw	a3,0(a5)
   176cc:	fe0682e3          	beqz	a3,176b0 <__any_on+0x40>
   176d0:	00100513          	li	a0,1
   176d4:	00008067          	ret

000176d8 <_realloc_r>:
   176d8:	fc010113          	addi	sp,sp,-64
   176dc:	02812c23          	sw	s0,56(sp)
   176e0:	02112e23          	sw	ra,60(sp)
   176e4:	00058413          	mv	s0,a1
   176e8:	02912a23          	sw	s1,52(sp)
   176ec:	03212823          	sw	s2,48(sp)
   176f0:	03312623          	sw	s3,44(sp)
   176f4:	03412423          	sw	s4,40(sp)
   176f8:	03512223          	sw	s5,36(sp)
   176fc:	03612023          	sw	s6,32(sp)
   17700:	01712e23          	sw	s7,28(sp)
   17704:	01812c23          	sw	s8,24(sp)
   17708:	00060593          	mv	a1,a2
   1770c:	02041a63          	bnez	s0,17740 <_realloc_r+0x68>
   17710:	03812403          	lw	s0,56(sp)
   17714:	03c12083          	lw	ra,60(sp)
   17718:	03412483          	lw	s1,52(sp)
   1771c:	03012903          	lw	s2,48(sp)
   17720:	02c12983          	lw	s3,44(sp)
   17724:	02812a03          	lw	s4,40(sp)
   17728:	02412a83          	lw	s5,36(sp)
   1772c:	02012b03          	lw	s6,32(sp)
   17730:	01c12b83          	lw	s7,28(sp)
   17734:	01812c03          	lw	s8,24(sp)
   17738:	04010113          	addi	sp,sp,64
   1773c:	f7df806f          	j	106b8 <_malloc_r>
   17740:	00050a93          	mv	s5,a0
   17744:	00c12623          	sw	a2,12(sp)
   17748:	eacf90ef          	jal	ra,10df4 <__malloc_lock>
   1774c:	00c12583          	lw	a1,12(sp)
   17750:	01600793          	li	a5,22
   17754:	00b58993          	addi	s3,a1,11
   17758:	0537f663          	bleu	s3,a5,177a4 <_realloc_r+0xcc>
   1775c:	ff89fb13          	andi	s6,s3,-8
   17760:	040b5463          	bgez	s6,177a8 <_realloc_r+0xd0>
   17764:	00c00793          	li	a5,12
   17768:	00faa023          	sw	a5,0(s5)
   1776c:	00000a13          	li	s4,0
   17770:	03c12083          	lw	ra,60(sp)
   17774:	03812403          	lw	s0,56(sp)
   17778:	000a0513          	mv	a0,s4
   1777c:	03412483          	lw	s1,52(sp)
   17780:	03012903          	lw	s2,48(sp)
   17784:	02c12983          	lw	s3,44(sp)
   17788:	02812a03          	lw	s4,40(sp)
   1778c:	02412a83          	lw	s5,36(sp)
   17790:	02012b03          	lw	s6,32(sp)
   17794:	01c12b83          	lw	s7,28(sp)
   17798:	01812c03          	lw	s8,24(sp)
   1779c:	04010113          	addi	sp,sp,64
   177a0:	00008067          	ret
   177a4:	01000b13          	li	s6,16
   177a8:	fabb6ee3          	bltu	s6,a1,17764 <_realloc_r+0x8c>
   177ac:	ffc42683          	lw	a3,-4(s0)
   177b0:	ff840b93          	addi	s7,s0,-8
   177b4:	ffc6f913          	andi	s2,a3,-4
   177b8:	45695c63          	ble	s6,s2,17c10 <_realloc_r+0x538>
   177bc:	00023c37          	lui	s8,0x23
   177c0:	6d0c0713          	addi	a4,s8,1744 # 236d0 <__malloc_av_>
   177c4:	00872603          	lw	a2,8(a4) # fff00008 <_end+0xffed9b28>
   177c8:	012b87b3          	add	a5,s7,s2
   177cc:	0047a703          	lw	a4,4(a5)
   177d0:	6d0c0c13          	addi	s8,s8,1744
   177d4:	00f60c63          	beq	a2,a5,177ec <_realloc_r+0x114>
   177d8:	ffe77513          	andi	a0,a4,-2
   177dc:	00a78533          	add	a0,a5,a0
   177e0:	00452503          	lw	a0,4(a0)
   177e4:	00157513          	andi	a0,a0,1
   177e8:	06051463          	bnez	a0,17850 <_realloc_r+0x178>
   177ec:	ffc77713          	andi	a4,a4,-4
   177f0:	00e909b3          	add	s3,s2,a4
   177f4:	04f61063          	bne	a2,a5,17834 <_realloc_r+0x15c>
   177f8:	010b0513          	addi	a0,s6,16 # 80000010 <_end+0x7ffd9b30>
   177fc:	04a9ce63          	blt	s3,a0,17858 <_realloc_r+0x180>
   17800:	016b8bb3          	add	s7,s7,s6
   17804:	416989b3          	sub	s3,s3,s6
   17808:	017c2423          	sw	s7,8(s8)
   1780c:	0019e993          	ori	s3,s3,1
   17810:	013ba223          	sw	s3,4(s7)
   17814:	ffc42983          	lw	s3,-4(s0)
   17818:	000a8513          	mv	a0,s5
   1781c:	00040a13          	mv	s4,s0
   17820:	0019f993          	andi	s3,s3,1
   17824:	0169e9b3          	or	s3,s3,s6
   17828:	ff342e23          	sw	s3,-4(s0)
   1782c:	dccf90ef          	jal	ra,10df8 <__malloc_unlock>
   17830:	f41ff06f          	j	17770 <_realloc_r+0x98>
   17834:	0369c263          	blt	s3,s6,17858 <_realloc_r+0x180>
   17838:	00c7a703          	lw	a4,12(a5)
   1783c:	0087a783          	lw	a5,8(a5)
   17840:	00e7a623          	sw	a4,12(a5)
   17844:	00f72423          	sw	a5,8(a4)
   17848:	000b8493          	mv	s1,s7
   1784c:	1900006f          	j	179dc <_realloc_r+0x304>
   17850:	00000713          	li	a4,0
   17854:	00000793          	li	a5,0
   17858:	0016f693          	andi	a3,a3,1
   1785c:	2c069863          	bnez	a3,17b2c <_realloc_r+0x454>
   17860:	ff842483          	lw	s1,-8(s0)
   17864:	409b84b3          	sub	s1,s7,s1
   17868:	0044aa03          	lw	s4,4(s1)
   1786c:	ffca7a13          	andi	s4,s4,-4
   17870:	012a0a33          	add	s4,s4,s2
   17874:	20078263          	beqz	a5,17a78 <_realloc_r+0x3a0>
   17878:	014709b3          	add	s3,a4,s4
   1787c:	0ef61663          	bne	a2,a5,17968 <_realloc_r+0x290>
   17880:	010b0793          	addi	a5,s6,16
   17884:	1ef9ca63          	blt	s3,a5,17a78 <_realloc_r+0x3a0>
   17888:	0084a703          	lw	a4,8(s1)
   1788c:	00c4a783          	lw	a5,12(s1)
   17890:	ffc90613          	addi	a2,s2,-4
   17894:	00848a13          	addi	s4,s1,8
   17898:	00f72623          	sw	a5,12(a4)
   1789c:	00e7a423          	sw	a4,8(a5)
   178a0:	02400713          	li	a4,36
   178a4:	0ac76a63          	bltu	a4,a2,17958 <_realloc_r+0x280>
   178a8:	01300693          	li	a3,19
   178ac:	000a0793          	mv	a5,s4
   178b0:	02c6f263          	bleu	a2,a3,178d4 <_realloc_r+0x1fc>
   178b4:	00042783          	lw	a5,0(s0)
   178b8:	00f4a423          	sw	a5,8(s1)
   178bc:	00442783          	lw	a5,4(s0)
   178c0:	00f4a623          	sw	a5,12(s1)
   178c4:	01b00793          	li	a5,27
   178c8:	04c7ea63          	bltu	a5,a2,1791c <_realloc_r+0x244>
   178cc:	00840413          	addi	s0,s0,8
   178d0:	01048793          	addi	a5,s1,16
   178d4:	00042703          	lw	a4,0(s0)
   178d8:	00e7a023          	sw	a4,0(a5)
   178dc:	00442703          	lw	a4,4(s0)
   178e0:	00e7a223          	sw	a4,4(a5)
   178e4:	00842703          	lw	a4,8(s0)
   178e8:	00e7a423          	sw	a4,8(a5)
   178ec:	016487b3          	add	a5,s1,s6
   178f0:	416989b3          	sub	s3,s3,s6
   178f4:	00fc2423          	sw	a5,8(s8)
   178f8:	0019e993          	ori	s3,s3,1
   178fc:	0137a223          	sw	s3,4(a5)
   17900:	0044a783          	lw	a5,4(s1)
   17904:	0017f793          	andi	a5,a5,1
   17908:	0167e9b3          	or	s3,a5,s6
   1790c:	0134a223          	sw	s3,4(s1)
   17910:	000a8513          	mv	a0,s5
   17914:	ce4f90ef          	jal	ra,10df8 <__malloc_unlock>
   17918:	e59ff06f          	j	17770 <_realloc_r+0x98>
   1791c:	00842783          	lw	a5,8(s0)
   17920:	00f4a823          	sw	a5,16(s1)
   17924:	00c42783          	lw	a5,12(s0)
   17928:	00f4aa23          	sw	a5,20(s1)
   1792c:	00e60863          	beq	a2,a4,1793c <_realloc_r+0x264>
   17930:	01040413          	addi	s0,s0,16
   17934:	01848793          	addi	a5,s1,24
   17938:	f9dff06f          	j	178d4 <_realloc_r+0x1fc>
   1793c:	01042783          	lw	a5,16(s0)
   17940:	01840413          	addi	s0,s0,24
   17944:	00f4ac23          	sw	a5,24(s1)
   17948:	ffc42703          	lw	a4,-4(s0)
   1794c:	02048793          	addi	a5,s1,32
   17950:	00e4ae23          	sw	a4,28(s1)
   17954:	f81ff06f          	j	178d4 <_realloc_r+0x1fc>
   17958:	00040593          	mv	a1,s0
   1795c:	000a0513          	mv	a0,s4
   17960:	ea9fe0ef          	jal	ra,16808 <memmove>
   17964:	f89ff06f          	j	178ec <_realloc_r+0x214>
   17968:	1169c863          	blt	s3,s6,17a78 <_realloc_r+0x3a0>
   1796c:	00c7a703          	lw	a4,12(a5)
   17970:	0087a783          	lw	a5,8(a5)
   17974:	ffc90613          	addi	a2,s2,-4
   17978:	00848513          	addi	a0,s1,8
   1797c:	00e7a623          	sw	a4,12(a5)
   17980:	00f72423          	sw	a5,8(a4)
   17984:	0084a703          	lw	a4,8(s1)
   17988:	00c4a783          	lw	a5,12(s1)
   1798c:	00f72623          	sw	a5,12(a4)
   17990:	00e7a423          	sw	a4,8(a5)
   17994:	02400793          	li	a5,36
   17998:	0cc7ea63          	bltu	a5,a2,17a6c <_realloc_r+0x394>
   1799c:	01300713          	li	a4,19
   179a0:	02c77263          	bleu	a2,a4,179c4 <_realloc_r+0x2ec>
   179a4:	00042703          	lw	a4,0(s0)
   179a8:	00e4a423          	sw	a4,8(s1)
   179ac:	00442703          	lw	a4,4(s0)
   179b0:	00e4a623          	sw	a4,12(s1)
   179b4:	01b00713          	li	a4,27
   179b8:	06c76c63          	bltu	a4,a2,17a30 <_realloc_r+0x358>
   179bc:	00840413          	addi	s0,s0,8
   179c0:	01048513          	addi	a0,s1,16
   179c4:	00042783          	lw	a5,0(s0)
   179c8:	00f52023          	sw	a5,0(a0)
   179cc:	00442783          	lw	a5,4(s0)
   179d0:	00f52223          	sw	a5,4(a0)
   179d4:	00842783          	lw	a5,8(s0)
   179d8:	00f52423          	sw	a5,8(a0)
   179dc:	0044a703          	lw	a4,4(s1)
   179e0:	416986b3          	sub	a3,s3,s6
   179e4:	00f00613          	li	a2,15
   179e8:	00177713          	andi	a4,a4,1
   179ec:	013487b3          	add	a5,s1,s3
   179f0:	22d67463          	bleu	a3,a2,17c18 <_realloc_r+0x540>
   179f4:	00eb69b3          	or	s3,s6,a4
   179f8:	0134a223          	sw	s3,4(s1)
   179fc:	016485b3          	add	a1,s1,s6
   17a00:	0016e693          	ori	a3,a3,1
   17a04:	00d5a223          	sw	a3,4(a1)
   17a08:	0047a703          	lw	a4,4(a5)
   17a0c:	00858593          	addi	a1,a1,8
   17a10:	000a8513          	mv	a0,s5
   17a14:	00176713          	ori	a4,a4,1
   17a18:	00e7a223          	sw	a4,4(a5)
   17a1c:	a60fc0ef          	jal	ra,13c7c <_free_r>
   17a20:	000a8513          	mv	a0,s5
   17a24:	bd4f90ef          	jal	ra,10df8 <__malloc_unlock>
   17a28:	00848a13          	addi	s4,s1,8
   17a2c:	d45ff06f          	j	17770 <_realloc_r+0x98>
   17a30:	00842703          	lw	a4,8(s0)
   17a34:	00e4a823          	sw	a4,16(s1)
   17a38:	00c42703          	lw	a4,12(s0)
   17a3c:	00e4aa23          	sw	a4,20(s1)
   17a40:	00f60863          	beq	a2,a5,17a50 <_realloc_r+0x378>
   17a44:	01040413          	addi	s0,s0,16
   17a48:	01848513          	addi	a0,s1,24
   17a4c:	f79ff06f          	j	179c4 <_realloc_r+0x2ec>
   17a50:	01042783          	lw	a5,16(s0)
   17a54:	02048513          	addi	a0,s1,32
   17a58:	01840413          	addi	s0,s0,24
   17a5c:	00f4ac23          	sw	a5,24(s1)
   17a60:	ffc42783          	lw	a5,-4(s0)
   17a64:	00f4ae23          	sw	a5,28(s1)
   17a68:	f5dff06f          	j	179c4 <_realloc_r+0x2ec>
   17a6c:	00040593          	mv	a1,s0
   17a70:	d99fe0ef          	jal	ra,16808 <memmove>
   17a74:	f69ff06f          	j	179dc <_realloc_r+0x304>
   17a78:	0b6a4a63          	blt	s4,s6,17b2c <_realloc_r+0x454>
   17a7c:	00c4a783          	lw	a5,12(s1)
   17a80:	0084a703          	lw	a4,8(s1)
   17a84:	ffc90613          	addi	a2,s2,-4
   17a88:	00848513          	addi	a0,s1,8
   17a8c:	00f72623          	sw	a5,12(a4)
   17a90:	00e7a423          	sw	a4,8(a5)
   17a94:	02400793          	li	a5,36
   17a98:	08c7e463          	bltu	a5,a2,17b20 <_realloc_r+0x448>
   17a9c:	01300713          	li	a4,19
   17aa0:	02c77263          	bleu	a2,a4,17ac4 <_realloc_r+0x3ec>
   17aa4:	00042703          	lw	a4,0(s0)
   17aa8:	00e4a423          	sw	a4,8(s1)
   17aac:	00442703          	lw	a4,4(s0)
   17ab0:	00e4a623          	sw	a4,12(s1)
   17ab4:	01b00713          	li	a4,27
   17ab8:	02c76663          	bltu	a4,a2,17ae4 <_realloc_r+0x40c>
   17abc:	00840413          	addi	s0,s0,8
   17ac0:	01048513          	addi	a0,s1,16
   17ac4:	00042783          	lw	a5,0(s0)
   17ac8:	00f52023          	sw	a5,0(a0)
   17acc:	00442783          	lw	a5,4(s0)
   17ad0:	00f52223          	sw	a5,4(a0)
   17ad4:	00842783          	lw	a5,8(s0)
   17ad8:	00f52423          	sw	a5,8(a0)
   17adc:	000a0993          	mv	s3,s4
   17ae0:	efdff06f          	j	179dc <_realloc_r+0x304>
   17ae4:	00842703          	lw	a4,8(s0)
   17ae8:	00e4a823          	sw	a4,16(s1)
   17aec:	00c42703          	lw	a4,12(s0)
   17af0:	00e4aa23          	sw	a4,20(s1)
   17af4:	00f60863          	beq	a2,a5,17b04 <_realloc_r+0x42c>
   17af8:	01040413          	addi	s0,s0,16
   17afc:	01848513          	addi	a0,s1,24
   17b00:	fc5ff06f          	j	17ac4 <_realloc_r+0x3ec>
   17b04:	01042783          	lw	a5,16(s0)
   17b08:	02048513          	addi	a0,s1,32
   17b0c:	01840413          	addi	s0,s0,24
   17b10:	00f4ac23          	sw	a5,24(s1)
   17b14:	ffc42783          	lw	a5,-4(s0)
   17b18:	00f4ae23          	sw	a5,28(s1)
   17b1c:	fa9ff06f          	j	17ac4 <_realloc_r+0x3ec>
   17b20:	00040593          	mv	a1,s0
   17b24:	ce5fe0ef          	jal	ra,16808 <memmove>
   17b28:	fb5ff06f          	j	17adc <_realloc_r+0x404>
   17b2c:	000a8513          	mv	a0,s5
   17b30:	b89f80ef          	jal	ra,106b8 <_malloc_r>
   17b34:	00050a13          	mv	s4,a0
   17b38:	dc050ce3          	beqz	a0,17910 <_realloc_r+0x238>
   17b3c:	ffc42783          	lw	a5,-4(s0)
   17b40:	ff850713          	addi	a4,a0,-8
   17b44:	ffe7f793          	andi	a5,a5,-2
   17b48:	00fb87b3          	add	a5,s7,a5
   17b4c:	00e79a63          	bne	a5,a4,17b60 <_realloc_r+0x488>
   17b50:	ffc52983          	lw	s3,-4(a0)
   17b54:	ffc9f993          	andi	s3,s3,-4
   17b58:	012989b3          	add	s3,s3,s2
   17b5c:	cedff06f          	j	17848 <_realloc_r+0x170>
   17b60:	ffc90613          	addi	a2,s2,-4
   17b64:	02400793          	li	a5,36
   17b68:	08c7ee63          	bltu	a5,a2,17c04 <_realloc_r+0x52c>
   17b6c:	01300713          	li	a4,19
   17b70:	08c77463          	bleu	a2,a4,17bf8 <_realloc_r+0x520>
   17b74:	00042703          	lw	a4,0(s0)
   17b78:	00e52023          	sw	a4,0(a0)
   17b7c:	00442703          	lw	a4,4(s0)
   17b80:	00e52223          	sw	a4,4(a0)
   17b84:	01b00713          	li	a4,27
   17b88:	02c76a63          	bltu	a4,a2,17bbc <_realloc_r+0x4e4>
   17b8c:	00840713          	addi	a4,s0,8
   17b90:	00850793          	addi	a5,a0,8
   17b94:	00072683          	lw	a3,0(a4)
   17b98:	00d7a023          	sw	a3,0(a5)
   17b9c:	00472683          	lw	a3,4(a4)
   17ba0:	00d7a223          	sw	a3,4(a5)
   17ba4:	00872703          	lw	a4,8(a4)
   17ba8:	00e7a423          	sw	a4,8(a5)
   17bac:	00040593          	mv	a1,s0
   17bb0:	000a8513          	mv	a0,s5
   17bb4:	8c8fc0ef          	jal	ra,13c7c <_free_r>
   17bb8:	d59ff06f          	j	17910 <_realloc_r+0x238>
   17bbc:	00842703          	lw	a4,8(s0)
   17bc0:	00e52423          	sw	a4,8(a0)
   17bc4:	00c42703          	lw	a4,12(s0)
   17bc8:	00e52623          	sw	a4,12(a0)
   17bcc:	00f60863          	beq	a2,a5,17bdc <_realloc_r+0x504>
   17bd0:	01040713          	addi	a4,s0,16
   17bd4:	01050793          	addi	a5,a0,16
   17bd8:	fbdff06f          	j	17b94 <_realloc_r+0x4bc>
   17bdc:	01042783          	lw	a5,16(s0)
   17be0:	01840713          	addi	a4,s0,24
   17be4:	00f52823          	sw	a5,16(a0)
   17be8:	01442683          	lw	a3,20(s0)
   17bec:	01850793          	addi	a5,a0,24
   17bf0:	00d52a23          	sw	a3,20(a0)
   17bf4:	fa1ff06f          	j	17b94 <_realloc_r+0x4bc>
   17bf8:	00050793          	mv	a5,a0
   17bfc:	00040713          	mv	a4,s0
   17c00:	f95ff06f          	j	17b94 <_realloc_r+0x4bc>
   17c04:	00040593          	mv	a1,s0
   17c08:	c01fe0ef          	jal	ra,16808 <memmove>
   17c0c:	fa1ff06f          	j	17bac <_realloc_r+0x4d4>
   17c10:	00090993          	mv	s3,s2
   17c14:	c35ff06f          	j	17848 <_realloc_r+0x170>
   17c18:	00e9e9b3          	or	s3,s3,a4
   17c1c:	0134a223          	sw	s3,4(s1)
   17c20:	0047a703          	lw	a4,4(a5)
   17c24:	00176713          	ori	a4,a4,1
   17c28:	00e7a223          	sw	a4,4(a5)
   17c2c:	df5ff06f          	j	17a20 <_realloc_r+0x348>

00017c30 <cleanup_glue>:
   17c30:	ff010113          	addi	sp,sp,-16
   17c34:	00812423          	sw	s0,8(sp)
   17c38:	00058413          	mv	s0,a1
   17c3c:	0005a583          	lw	a1,0(a1)
   17c40:	00912223          	sw	s1,4(sp)
   17c44:	00112623          	sw	ra,12(sp)
   17c48:	00050493          	mv	s1,a0
   17c4c:	00058463          	beqz	a1,17c54 <cleanup_glue+0x24>
   17c50:	fe1ff0ef          	jal	ra,17c30 <cleanup_glue>
   17c54:	00040593          	mv	a1,s0
   17c58:	00812403          	lw	s0,8(sp)
   17c5c:	00c12083          	lw	ra,12(sp)
   17c60:	00048513          	mv	a0,s1
   17c64:	00412483          	lw	s1,4(sp)
   17c68:	01010113          	addi	sp,sp,16
   17c6c:	810fc06f          	j	13c7c <_free_r>

00017c70 <_reclaim_reent>:
   17c70:	8201a783          	lw	a5,-2016(gp) # 23c68 <_impure_ptr>
   17c74:	10a78463          	beq	a5,a0,17d7c <_reclaim_reent+0x10c>
   17c78:	04c52783          	lw	a5,76(a0)
   17c7c:	fe010113          	addi	sp,sp,-32
   17c80:	00812c23          	sw	s0,24(sp)
   17c84:	00912a23          	sw	s1,20(sp)
   17c88:	01212823          	sw	s2,16(sp)
   17c8c:	00112e23          	sw	ra,28(sp)
   17c90:	01312623          	sw	s3,12(sp)
   17c94:	00050413          	mv	s0,a0
   17c98:	00000493          	li	s1,0
   17c9c:	08000913          	li	s2,128
   17ca0:	06079a63          	bnez	a5,17d14 <_reclaim_reent+0xa4>
   17ca4:	04042583          	lw	a1,64(s0)
   17ca8:	00058663          	beqz	a1,17cb4 <_reclaim_reent+0x44>
   17cac:	00040513          	mv	a0,s0
   17cb0:	fcdfb0ef          	jal	ra,13c7c <_free_r>
   17cb4:	14842583          	lw	a1,328(s0)
   17cb8:	14c40493          	addi	s1,s0,332
   17cbc:	08059063          	bnez	a1,17d3c <_reclaim_reent+0xcc>
   17cc0:	05442583          	lw	a1,84(s0)
   17cc4:	08059863          	bnez	a1,17d54 <_reclaim_reent+0xe4>
   17cc8:	03842783          	lw	a5,56(s0)
   17ccc:	08078a63          	beqz	a5,17d60 <_reclaim_reent+0xf0>
   17cd0:	03c42783          	lw	a5,60(s0)
   17cd4:	00040513          	mv	a0,s0
   17cd8:	000780e7          	jalr	a5
   17cdc:	2e042583          	lw	a1,736(s0)
   17ce0:	08058063          	beqz	a1,17d60 <_reclaim_reent+0xf0>
   17ce4:	00040513          	mv	a0,s0
   17ce8:	01812403          	lw	s0,24(sp)
   17cec:	01c12083          	lw	ra,28(sp)
   17cf0:	01412483          	lw	s1,20(sp)
   17cf4:	01012903          	lw	s2,16(sp)
   17cf8:	00c12983          	lw	s3,12(sp)
   17cfc:	02010113          	addi	sp,sp,32
   17d00:	f31ff06f          	j	17c30 <cleanup_glue>
   17d04:	009585b3          	add	a1,a1,s1
   17d08:	0005a583          	lw	a1,0(a1)
   17d0c:	00059e63          	bnez	a1,17d28 <_reclaim_reent+0xb8>
   17d10:	00448493          	addi	s1,s1,4
   17d14:	04c42583          	lw	a1,76(s0)
   17d18:	ff2496e3          	bne	s1,s2,17d04 <_reclaim_reent+0x94>
   17d1c:	00040513          	mv	a0,s0
   17d20:	f5dfb0ef          	jal	ra,13c7c <_free_r>
   17d24:	f81ff06f          	j	17ca4 <_reclaim_reent+0x34>
   17d28:	0005a983          	lw	s3,0(a1)
   17d2c:	00040513          	mv	a0,s0
   17d30:	f4dfb0ef          	jal	ra,13c7c <_free_r>
   17d34:	00098593          	mv	a1,s3
   17d38:	fd5ff06f          	j	17d0c <_reclaim_reent+0x9c>
   17d3c:	f89582e3          	beq	a1,s1,17cc0 <_reclaim_reent+0x50>
   17d40:	0005a903          	lw	s2,0(a1)
   17d44:	00040513          	mv	a0,s0
   17d48:	f35fb0ef          	jal	ra,13c7c <_free_r>
   17d4c:	00090593          	mv	a1,s2
   17d50:	fedff06f          	j	17d3c <_reclaim_reent+0xcc>
   17d54:	00040513          	mv	a0,s0
   17d58:	f25fb0ef          	jal	ra,13c7c <_free_r>
   17d5c:	f6dff06f          	j	17cc8 <_reclaim_reent+0x58>
   17d60:	01c12083          	lw	ra,28(sp)
   17d64:	01812403          	lw	s0,24(sp)
   17d68:	01412483          	lw	s1,20(sp)
   17d6c:	01012903          	lw	s2,16(sp)
   17d70:	00c12983          	lw	s3,12(sp)
   17d74:	02010113          	addi	sp,sp,32
   17d78:	00008067          	ret
   17d7c:	00008067          	ret

00017d80 <frexp>:
   17d80:	ff010113          	addi	sp,sp,-16
   17d84:	00912223          	sw	s1,4(sp)
   17d88:	800004b7          	lui	s1,0x80000
   17d8c:	00812423          	sw	s0,8(sp)
   17d90:	00112623          	sw	ra,12(sp)
   17d94:	fff4c493          	not	s1,s1
   17d98:	00b4f733          	and	a4,s1,a1
   17d9c:	00062023          	sw	zero,0(a2)
   17da0:	7ff00837          	lui	a6,0x7ff00
   17da4:	00050693          	mv	a3,a0
   17da8:	00058793          	mv	a5,a1
   17dac:	00060413          	mv	s0,a2
   17db0:	07075263          	ble	a6,a4,17e14 <frexp+0x94>
   17db4:	00a768b3          	or	a7,a4,a0
   17db8:	04088e63          	beqz	a7,17e14 <frexp+0x94>
   17dbc:	0105f833          	and	a6,a1,a6
   17dc0:	00058613          	mv	a2,a1
   17dc4:	02081463          	bnez	a6,17dec <frexp+0x6c>
   17dc8:	000247b7          	lui	a5,0x24
   17dcc:	c587a603          	lw	a2,-936(a5) # 23c58 <__TMC_END__+0x14>
   17dd0:	c5c7a683          	lw	a3,-932(a5)
   17dd4:	314050ef          	jal	ra,1d0e8 <__muldf3>
   17dd8:	fca00793          	li	a5,-54
   17ddc:	00050693          	mv	a3,a0
   17de0:	00058613          	mv	a2,a1
   17de4:	00b4f733          	and	a4,s1,a1
   17de8:	00f42023          	sw	a5,0(s0)
   17dec:	00042783          	lw	a5,0(s0)
   17df0:	41475713          	srai	a4,a4,0x14
   17df4:	c0270713          	addi	a4,a4,-1022
   17df8:	00e78733          	add	a4,a5,a4
   17dfc:	801007b7          	lui	a5,0x80100
   17e00:	fff78793          	addi	a5,a5,-1 # 800fffff <_end+0x800d9b1f>
   17e04:	00f67633          	and	a2,a2,a5
   17e08:	3fe007b7          	lui	a5,0x3fe00
   17e0c:	00e42023          	sw	a4,0(s0)
   17e10:	00f667b3          	or	a5,a2,a5
   17e14:	00c12083          	lw	ra,12(sp)
   17e18:	00812403          	lw	s0,8(sp)
   17e1c:	00412483          	lw	s1,4(sp)
   17e20:	00068513          	mv	a0,a3
   17e24:	00078593          	mv	a1,a5
   17e28:	01010113          	addi	sp,sp,16
   17e2c:	00008067          	ret

00017e30 <_sprintf_r>:
   17e30:	f6010113          	addi	sp,sp,-160
   17e34:	08f12a23          	sw	a5,148(sp)
   17e38:	800007b7          	lui	a5,0x80000
   17e3c:	fff7c793          	not	a5,a5
   17e40:	00f12e23          	sw	a5,28(sp)
   17e44:	00f12823          	sw	a5,16(sp)
   17e48:	ffff07b7          	lui	a5,0xffff0
   17e4c:	08d12623          	sw	a3,140(sp)
   17e50:	00b12423          	sw	a1,8(sp)
   17e54:	00b12c23          	sw	a1,24(sp)
   17e58:	20878793          	addi	a5,a5,520 # ffff0208 <_end+0xfffc9d28>
   17e5c:	08c10693          	addi	a3,sp,140
   17e60:	00810593          	addi	a1,sp,8
   17e64:	06112e23          	sw	ra,124(sp)
   17e68:	00f12a23          	sw	a5,20(sp)
   17e6c:	08e12823          	sw	a4,144(sp)
   17e70:	09012c23          	sw	a6,152(sp)
   17e74:	09112e23          	sw	a7,156(sp)
   17e78:	00d12223          	sw	a3,4(sp)
   17e7c:	218000ef          	jal	ra,18094 <_svfprintf_r>
   17e80:	00812783          	lw	a5,8(sp)
   17e84:	00078023          	sb	zero,0(a5)
   17e88:	07c12083          	lw	ra,124(sp)
   17e8c:	0a010113          	addi	sp,sp,160
   17e90:	00008067          	ret

00017e94 <sprintf>:
   17e94:	f6010113          	addi	sp,sp,-160
   17e98:	08f12a23          	sw	a5,148(sp)
   17e9c:	800007b7          	lui	a5,0x80000
   17ea0:	fff7c793          	not	a5,a5
   17ea4:	00f12e23          	sw	a5,28(sp)
   17ea8:	00f12823          	sw	a5,16(sp)
   17eac:	ffff07b7          	lui	a5,0xffff0
   17eb0:	20878793          	addi	a5,a5,520 # ffff0208 <_end+0xfffc9d28>
   17eb4:	00f12a23          	sw	a5,20(sp)
   17eb8:	00a12423          	sw	a0,8(sp)
   17ebc:	00a12c23          	sw	a0,24(sp)
   17ec0:	8201a503          	lw	a0,-2016(gp) # 23c68 <_impure_ptr>
   17ec4:	08c12423          	sw	a2,136(sp)
   17ec8:	08d12623          	sw	a3,140(sp)
   17ecc:	00058613          	mv	a2,a1
   17ed0:	08810693          	addi	a3,sp,136
   17ed4:	00810593          	addi	a1,sp,8
   17ed8:	06112e23          	sw	ra,124(sp)
   17edc:	08e12823          	sw	a4,144(sp)
   17ee0:	09012c23          	sw	a6,152(sp)
   17ee4:	09112e23          	sw	a7,156(sp)
   17ee8:	00d12223          	sw	a3,4(sp)
   17eec:	1a8000ef          	jal	ra,18094 <_svfprintf_r>
   17ef0:	00812783          	lw	a5,8(sp)
   17ef4:	00078023          	sb	zero,0(a5)
   17ef8:	07c12083          	lw	ra,124(sp)
   17efc:	0a010113          	addi	sp,sp,160
   17f00:	00008067          	ret

00017f04 <__sread>:
   17f04:	ff010113          	addi	sp,sp,-16
   17f08:	00812423          	sw	s0,8(sp)
   17f0c:	00058413          	mv	s0,a1
   17f10:	00e59583          	lh	a1,14(a1)
   17f14:	00112623          	sw	ra,12(sp)
   17f18:	3dc030ef          	jal	ra,1b2f4 <_read_r>
   17f1c:	02054063          	bltz	a0,17f3c <__sread+0x38>
   17f20:	05042783          	lw	a5,80(s0)
   17f24:	00a787b3          	add	a5,a5,a0
   17f28:	04f42823          	sw	a5,80(s0)
   17f2c:	00c12083          	lw	ra,12(sp)
   17f30:	00812403          	lw	s0,8(sp)
   17f34:	01010113          	addi	sp,sp,16
   17f38:	00008067          	ret
   17f3c:	00c45783          	lhu	a5,12(s0)
   17f40:	fffff737          	lui	a4,0xfffff
   17f44:	fff70713          	addi	a4,a4,-1 # ffffefff <_end+0xfffd8b1f>
   17f48:	00e7f7b3          	and	a5,a5,a4
   17f4c:	00f41623          	sh	a5,12(s0)
   17f50:	fddff06f          	j	17f2c <__sread+0x28>

00017f54 <__seofread>:
   17f54:	00000513          	li	a0,0
   17f58:	00008067          	ret

00017f5c <__swrite>:
   17f5c:	00c5d783          	lhu	a5,12(a1)
   17f60:	fe010113          	addi	sp,sp,-32
   17f64:	00812c23          	sw	s0,24(sp)
   17f68:	00912a23          	sw	s1,20(sp)
   17f6c:	01212823          	sw	s2,16(sp)
   17f70:	01312623          	sw	s3,12(sp)
   17f74:	00112e23          	sw	ra,28(sp)
   17f78:	1007f793          	andi	a5,a5,256
   17f7c:	00050493          	mv	s1,a0
   17f80:	00058413          	mv	s0,a1
   17f84:	00060913          	mv	s2,a2
   17f88:	00068993          	mv	s3,a3
   17f8c:	00078a63          	beqz	a5,17fa0 <__swrite+0x44>
   17f90:	00e59583          	lh	a1,14(a1)
   17f94:	00200693          	li	a3,2
   17f98:	00000613          	li	a2,0
   17f9c:	304030ef          	jal	ra,1b2a0 <_lseek_r>
   17fa0:	00c45783          	lhu	a5,12(s0)
   17fa4:	fffff737          	lui	a4,0xfffff
   17fa8:	fff70713          	addi	a4,a4,-1 # ffffefff <_end+0xfffd8b1f>
   17fac:	00e7f7b3          	and	a5,a5,a4
   17fb0:	00f41623          	sh	a5,12(s0)
   17fb4:	00e41583          	lh	a1,14(s0)
   17fb8:	01812403          	lw	s0,24(sp)
   17fbc:	01c12083          	lw	ra,28(sp)
   17fc0:	00098693          	mv	a3,s3
   17fc4:	00090613          	mv	a2,s2
   17fc8:	00c12983          	lw	s3,12(sp)
   17fcc:	01012903          	lw	s2,16(sp)
   17fd0:	00048513          	mv	a0,s1
   17fd4:	01412483          	lw	s1,20(sp)
   17fd8:	02010113          	addi	sp,sp,32
   17fdc:	6710206f          	j	1ae4c <_write_r>

00017fe0 <__sseek>:
   17fe0:	ff010113          	addi	sp,sp,-16
   17fe4:	00812423          	sw	s0,8(sp)
   17fe8:	00058413          	mv	s0,a1
   17fec:	00e59583          	lh	a1,14(a1)
   17ff0:	00112623          	sw	ra,12(sp)
   17ff4:	2ac030ef          	jal	ra,1b2a0 <_lseek_r>
   17ff8:	fff00793          	li	a5,-1
   17ffc:	00c45703          	lhu	a4,12(s0)
   18000:	02f51263          	bne	a0,a5,18024 <__sseek+0x44>
   18004:	fffff7b7          	lui	a5,0xfffff
   18008:	fff78793          	addi	a5,a5,-1 # ffffefff <_end+0xfffd8b1f>
   1800c:	00e7f7b3          	and	a5,a5,a4
   18010:	00f41623          	sh	a5,12(s0)
   18014:	00c12083          	lw	ra,12(sp)
   18018:	00812403          	lw	s0,8(sp)
   1801c:	01010113          	addi	sp,sp,16
   18020:	00008067          	ret
   18024:	000017b7          	lui	a5,0x1
   18028:	00f767b3          	or	a5,a4,a5
   1802c:	00f41623          	sh	a5,12(s0)
   18030:	04a42823          	sw	a0,80(s0)
   18034:	fe1ff06f          	j	18014 <__sseek+0x34>

00018038 <__sclose>:
   18038:	00e59583          	lh	a1,14(a1)
   1803c:	7010206f          	j	1af3c <_close_r>

00018040 <strcpy>:
   18040:	00050793          	mv	a5,a0
   18044:	0005c703          	lbu	a4,0(a1)
   18048:	00178793          	addi	a5,a5,1 # 1001 <_start-0xefff>
   1804c:	00158593          	addi	a1,a1,1
   18050:	fee78fa3          	sb	a4,-1(a5)
   18054:	fe0718e3          	bnez	a4,18044 <strcpy+0x4>
   18058:	00008067          	ret

0001805c <strncpy>:
   1805c:	00050793          	mv	a5,a0
   18060:	00060e63          	beqz	a2,1807c <strncpy+0x20>
   18064:	00158593          	addi	a1,a1,1
   18068:	fff5c703          	lbu	a4,-1(a1)
   1806c:	00178793          	addi	a5,a5,1
   18070:	fff60613          	addi	a2,a2,-1
   18074:	fee78fa3          	sb	a4,-1(a5)
   18078:	fe0714e3          	bnez	a4,18060 <strncpy+0x4>
   1807c:	00c78633          	add	a2,a5,a2
   18080:	00c79463          	bne	a5,a2,18088 <strncpy+0x2c>
   18084:	00008067          	ret
   18088:	00178793          	addi	a5,a5,1
   1808c:	fe078fa3          	sb	zero,-1(a5)
   18090:	ff1ff06f          	j	18080 <strncpy+0x24>

00018094 <_svfprintf_r>:
   18094:	e2010113          	addi	sp,sp,-480
   18098:	1c112e23          	sw	ra,476(sp)
   1809c:	1c912a23          	sw	s1,468(sp)
   180a0:	1d212823          	sw	s2,464(sp)
   180a4:	1d312623          	sw	s3,460(sp)
   180a8:	1d512223          	sw	s5,452(sp)
   180ac:	00058993          	mv	s3,a1
   180b0:	00060493          	mv	s1,a2
   180b4:	00068a93          	mv	s5,a3
   180b8:	1c812c23          	sw	s0,472(sp)
   180bc:	1d412423          	sw	s4,456(sp)
   180c0:	1d612023          	sw	s6,448(sp)
   180c4:	1b712e23          	sw	s7,444(sp)
   180c8:	1b812c23          	sw	s8,440(sp)
   180cc:	1b912a23          	sw	s9,436(sp)
   180d0:	1ba12823          	sw	s10,432(sp)
   180d4:	1bb12623          	sw	s11,428(sp)
   180d8:	00050913          	mv	s2,a0
   180dc:	b30fe0ef          	jal	ra,1640c <_localeconv_r>
   180e0:	00052783          	lw	a5,0(a0)
   180e4:	00078513          	mv	a0,a5
   180e8:	02f12a23          	sw	a5,52(sp)
   180ec:	8f0f90ef          	jal	ra,111dc <strlen>
   180f0:	00c9d783          	lhu	a5,12(s3)
   180f4:	02a12023          	sw	a0,32(sp)
   180f8:	0e012023          	sw	zero,224(sp)
   180fc:	0e012223          	sw	zero,228(sp)
   18100:	0e012423          	sw	zero,232(sp)
   18104:	0e012623          	sw	zero,236(sp)
   18108:	0807f793          	andi	a5,a5,128
   1810c:	04078063          	beqz	a5,1814c <_svfprintf_r+0xb8>
   18110:	0109a783          	lw	a5,16(s3)
   18114:	02079c63          	bnez	a5,1814c <_svfprintf_r+0xb8>
   18118:	04000593          	li	a1,64
   1811c:	00090513          	mv	a0,s2
   18120:	d98f80ef          	jal	ra,106b8 <_malloc_r>
   18124:	00a9a023          	sw	a0,0(s3)
   18128:	00a9a823          	sw	a0,16(s3)
   1812c:	00051c63          	bnez	a0,18144 <_svfprintf_r+0xb0>
   18130:	00c00793          	li	a5,12
   18134:	00f92023          	sw	a5,0(s2)
   18138:	fff00793          	li	a5,-1
   1813c:	02f12223          	sw	a5,36(sp)
   18140:	7c40006f          	j	18904 <_svfprintf_r+0x870>
   18144:	04000793          	li	a5,64
   18148:	00f9aa23          	sw	a5,20(s3)
   1814c:	000227b7          	lui	a5,0x22
   18150:	b0078793          	addi	a5,a5,-1280 # 21b00 <__mprec_bigtens+0x28>
   18154:	00022bb7          	lui	s7,0x22
   18158:	0fc10893          	addi	a7,sp,252
   1815c:	04f12623          	sw	a5,76(sp)
   18160:	c7cb8793          	addi	a5,s7,-900 # 21c7c <zeroes.4499>
   18164:	0d112a23          	sw	a7,212(sp)
   18168:	0c012e23          	sw	zero,220(sp)
   1816c:	0c012c23          	sw	zero,216(sp)
   18170:	00000a13          	li	s4,0
   18174:	00088c13          	mv	s8,a7
   18178:	04012023          	sw	zero,64(sp)
   1817c:	02012e23          	sw	zero,60(sp)
   18180:	00012823          	sw	zero,16(sp)
   18184:	02012823          	sw	zero,48(sp)
   18188:	02012c23          	sw	zero,56(sp)
   1818c:	02012223          	sw	zero,36(sp)
   18190:	00f12a23          	sw	a5,20(sp)
   18194:	00048413          	mv	s0,s1
   18198:	02500713          	li	a4,37
   1819c:	00044783          	lbu	a5,0(s0)
   181a0:	00078463          	beqz	a5,181a8 <_svfprintf_r+0x114>
   181a4:	0ae79c63          	bne	a5,a4,1825c <_svfprintf_r+0x1c8>
   181a8:	40940b33          	sub	s6,s0,s1
   181ac:	040b0a63          	beqz	s6,18200 <_svfprintf_r+0x16c>
   181b0:	0dc12783          	lw	a5,220(sp)
   181b4:	009c2023          	sw	s1,0(s8)
   181b8:	016c2223          	sw	s6,4(s8)
   181bc:	016787b3          	add	a5,a5,s6
   181c0:	0cf12e23          	sw	a5,220(sp)
   181c4:	0d812783          	lw	a5,216(sp)
   181c8:	00700713          	li	a4,7
   181cc:	008c0c13          	addi	s8,s8,8
   181d0:	00178793          	addi	a5,a5,1
   181d4:	0cf12c23          	sw	a5,216(sp)
   181d8:	00f75e63          	ble	a5,a4,181f4 <_svfprintf_r+0x160>
   181dc:	0d410613          	addi	a2,sp,212
   181e0:	00098593          	mv	a1,s3
   181e4:	00090513          	mv	a0,s2
   181e8:	160030ef          	jal	ra,1b348 <__ssprint_r>
   181ec:	70051663          	bnez	a0,188f8 <_svfprintf_r+0x864>
   181f0:	0fc10c13          	addi	s8,sp,252
   181f4:	02412783          	lw	a5,36(sp)
   181f8:	016787b3          	add	a5,a5,s6
   181fc:	02f12223          	sw	a5,36(sp)
   18200:	00044783          	lbu	a5,0(s0)
   18204:	00079463          	bnez	a5,1820c <_svfprintf_r+0x178>
   18208:	5650106f          	j	19f6c <_svfprintf_r+0x1ed8>
   1820c:	00140793          	addi	a5,s0,1
   18210:	0a010ba3          	sb	zero,183(sp)
   18214:	fff00b93          	li	s7,-1
   18218:	02012423          	sw	zero,40(sp)
   1821c:	00000413          	li	s0,0
   18220:	05a00d13          	li	s10,90
   18224:	00a00d93          	li	s11,10
   18228:	00900c93          	li	s9,9
   1822c:	0007cb03          	lbu	s6,0(a5)
   18230:	00178713          	addi	a4,a5,1
   18234:	00e12e23          	sw	a4,28(sp)
   18238:	02a00693          	li	a3,42
   1823c:	fe0b0793          	addi	a5,s6,-32
   18240:	00fd7463          	bleu	a5,s10,18248 <_svfprintf_r+0x1b4>
   18244:	2480106f          	j	1948c <_svfprintf_r+0x13f8>
   18248:	04c12703          	lw	a4,76(sp)
   1824c:	00279793          	slli	a5,a5,0x2
   18250:	00e787b3          	add	a5,a5,a4
   18254:	0007a783          	lw	a5,0(a5)
   18258:	00078067          	jr	a5
   1825c:	00140413          	addi	s0,s0,1
   18260:	f3dff06f          	j	1819c <_svfprintf_r+0x108>
   18264:	00090513          	mv	a0,s2
   18268:	9a4fe0ef          	jal	ra,1640c <_localeconv_r>
   1826c:	00452783          	lw	a5,4(a0)
   18270:	00078513          	mv	a0,a5
   18274:	02f12c23          	sw	a5,56(sp)
   18278:	f65f80ef          	jal	ra,111dc <strlen>
   1827c:	02a12823          	sw	a0,48(sp)
   18280:	00090513          	mv	a0,s2
   18284:	988fe0ef          	jal	ra,1640c <_localeconv_r>
   18288:	00852783          	lw	a5,8(a0)
   1828c:	00f12823          	sw	a5,16(sp)
   18290:	03012783          	lw	a5,48(sp)
   18294:	00078c63          	beqz	a5,182ac <_svfprintf_r+0x218>
   18298:	01012783          	lw	a5,16(sp)
   1829c:	00078863          	beqz	a5,182ac <_svfprintf_r+0x218>
   182a0:	0007c783          	lbu	a5,0(a5)
   182a4:	00078463          	beqz	a5,182ac <_svfprintf_r+0x218>
   182a8:	40046413          	ori	s0,s0,1024
   182ac:	01c12783          	lw	a5,28(sp)
   182b0:	f7dff06f          	j	1822c <_svfprintf_r+0x198>
   182b4:	0b714783          	lbu	a5,183(sp)
   182b8:	fe079ae3          	bnez	a5,182ac <_svfprintf_r+0x218>
   182bc:	02000793          	li	a5,32
   182c0:	0af10ba3          	sb	a5,183(sp)
   182c4:	fe9ff06f          	j	182ac <_svfprintf_r+0x218>
   182c8:	00146413          	ori	s0,s0,1
   182cc:	fe1ff06f          	j	182ac <_svfprintf_r+0x218>
   182d0:	000aa783          	lw	a5,0(s5)
   182d4:	004a8a93          	addi	s5,s5,4
   182d8:	02f12423          	sw	a5,40(sp)
   182dc:	fc07d8e3          	bgez	a5,182ac <_svfprintf_r+0x218>
   182e0:	40f007b3          	neg	a5,a5
   182e4:	02f12423          	sw	a5,40(sp)
   182e8:	00446413          	ori	s0,s0,4
   182ec:	fc1ff06f          	j	182ac <_svfprintf_r+0x218>
   182f0:	02b00793          	li	a5,43
   182f4:	fcdff06f          	j	182c0 <_svfprintf_r+0x22c>
   182f8:	01c12703          	lw	a4,28(sp)
   182fc:	01c12783          	lw	a5,28(sp)
   18300:	00074b03          	lbu	s6,0(a4)
   18304:	00178793          	addi	a5,a5,1
   18308:	04db1063          	bne	s6,a3,18348 <_svfprintf_r+0x2b4>
   1830c:	000aab83          	lw	s7,0(s5)
   18310:	004a8713          	addi	a4,s5,4
   18314:	000bd463          	bgez	s7,1831c <_svfprintf_r+0x288>
   18318:	fff00b93          	li	s7,-1
   1831c:	00070a93          	mv	s5,a4
   18320:	00f12e23          	sw	a5,28(sp)
   18324:	f89ff06f          	j	182ac <_svfprintf_r+0x218>
   18328:	03bb8333          	mul	t1,s7,s11
   1832c:	00178793          	addi	a5,a5,1
   18330:	fff7cb03          	lbu	s6,-1(a5)
   18334:	00e30bb3          	add	s7,t1,a4
   18338:	fd0b0713          	addi	a4,s6,-48
   1833c:	feecf6e3          	bleu	a4,s9,18328 <_svfprintf_r+0x294>
   18340:	00f12e23          	sw	a5,28(sp)
   18344:	ef9ff06f          	j	1823c <_svfprintf_r+0x1a8>
   18348:	00000b93          	li	s7,0
   1834c:	fedff06f          	j	18338 <_svfprintf_r+0x2a4>
   18350:	08046413          	ori	s0,s0,128
   18354:	f59ff06f          	j	182ac <_svfprintf_r+0x218>
   18358:	01c12783          	lw	a5,28(sp)
   1835c:	02012423          	sw	zero,40(sp)
   18360:	02812703          	lw	a4,40(sp)
   18364:	fd0b0b13          	addi	s6,s6,-48
   18368:	00178793          	addi	a5,a5,1
   1836c:	03b70733          	mul	a4,a4,s11
   18370:	00eb0733          	add	a4,s6,a4
   18374:	fff7cb03          	lbu	s6,-1(a5)
   18378:	02e12423          	sw	a4,40(sp)
   1837c:	fd0b0713          	addi	a4,s6,-48
   18380:	feecf0e3          	bleu	a4,s9,18360 <_svfprintf_r+0x2cc>
   18384:	fbdff06f          	j	18340 <_svfprintf_r+0x2ac>
   18388:	00846413          	ori	s0,s0,8
   1838c:	f21ff06f          	j	182ac <_svfprintf_r+0x218>
   18390:	01c12783          	lw	a5,28(sp)
   18394:	0007c703          	lbu	a4,0(a5)
   18398:	06800793          	li	a5,104
   1839c:	00f71c63          	bne	a4,a5,183b4 <_svfprintf_r+0x320>
   183a0:	01c12783          	lw	a5,28(sp)
   183a4:	20046413          	ori	s0,s0,512
   183a8:	00178793          	addi	a5,a5,1
   183ac:	00f12e23          	sw	a5,28(sp)
   183b0:	efdff06f          	j	182ac <_svfprintf_r+0x218>
   183b4:	04046413          	ori	s0,s0,64
   183b8:	ef5ff06f          	j	182ac <_svfprintf_r+0x218>
   183bc:	01c12783          	lw	a5,28(sp)
   183c0:	0007c703          	lbu	a4,0(a5)
   183c4:	06c00793          	li	a5,108
   183c8:	00f71c63          	bne	a4,a5,183e0 <_svfprintf_r+0x34c>
   183cc:	01c12783          	lw	a5,28(sp)
   183d0:	00178793          	addi	a5,a5,1
   183d4:	00f12e23          	sw	a5,28(sp)
   183d8:	02046413          	ori	s0,s0,32
   183dc:	ed1ff06f          	j	182ac <_svfprintf_r+0x218>
   183e0:	01046413          	ori	s0,s0,16
   183e4:	ec9ff06f          	j	182ac <_svfprintf_r+0x218>
   183e8:	004a8793          	addi	a5,s5,4
   183ec:	00f12c23          	sw	a5,24(sp)
   183f0:	000aa783          	lw	a5,0(s5)
   183f4:	0a010ba3          	sb	zero,183(sp)
   183f8:	12f10e23          	sb	a5,316(sp)
   183fc:	00012623          	sw	zero,12(sp)
   18400:	00100b93          	li	s7,1
   18404:	00000a93          	li	s5,0
   18408:	00000d13          	li	s10,0
   1840c:	00000c93          	li	s9,0
   18410:	00000d93          	li	s11,0
   18414:	13c10493          	addi	s1,sp,316
   18418:	03512623          	sw	s5,44(sp)
   1841c:	017ad463          	ble	s7,s5,18424 <_svfprintf_r+0x390>
   18420:	03712623          	sw	s7,44(sp)
   18424:	0b714703          	lbu	a4,183(sp)
   18428:	00070863          	beqz	a4,18438 <_svfprintf_r+0x3a4>
   1842c:	02c12783          	lw	a5,44(sp)
   18430:	00178793          	addi	a5,a5,1
   18434:	02f12623          	sw	a5,44(sp)
   18438:	00247793          	andi	a5,s0,2
   1843c:	04f12223          	sw	a5,68(sp)
   18440:	00078863          	beqz	a5,18450 <_svfprintf_r+0x3bc>
   18444:	02c12783          	lw	a5,44(sp)
   18448:	00278793          	addi	a5,a5,2
   1844c:	02f12623          	sw	a5,44(sp)
   18450:	08447793          	andi	a5,s0,132
   18454:	04f12423          	sw	a5,72(sp)
   18458:	06079c63          	bnez	a5,184d0 <_svfprintf_r+0x43c>
   1845c:	02812783          	lw	a5,40(sp)
   18460:	02c12703          	lw	a4,44(sp)
   18464:	40e78733          	sub	a4,a5,a4
   18468:	06e05463          	blez	a4,184d0 <_svfprintf_r+0x43c>
   1846c:	000227b7          	lui	a5,0x22
   18470:	01000e93          	li	t4,16
   18474:	c6c78e13          	addi	t3,a5,-916 # 21c6c <blanks.4498>
   18478:	00700f13          	li	t5,7
   1847c:	0d812683          	lw	a3,216(sp)
   18480:	01cc2023          	sw	t3,0(s8)
   18484:	0dc12603          	lw	a2,220(sp)
   18488:	00168693          	addi	a3,a3,1
   1848c:	008c0593          	addi	a1,s8,8
   18490:	00eed463          	ble	a4,t4,18498 <_svfprintf_r+0x404>
   18494:	00c0106f          	j	194a0 <_svfprintf_r+0x140c>
   18498:	00ec2223          	sw	a4,4(s8)
   1849c:	00c70733          	add	a4,a4,a2
   184a0:	0ce12e23          	sw	a4,220(sp)
   184a4:	0cd12c23          	sw	a3,216(sp)
   184a8:	00700713          	li	a4,7
   184ac:	00058c13          	mv	s8,a1
   184b0:	02d75063          	ble	a3,a4,184d0 <_svfprintf_r+0x43c>
   184b4:	0d410613          	addi	a2,sp,212
   184b8:	00098593          	mv	a1,s3
   184bc:	00090513          	mv	a0,s2
   184c0:	689020ef          	jal	ra,1b348 <__ssprint_r>
   184c4:	00050463          	beqz	a0,184cc <_svfprintf_r+0x438>
   184c8:	2410106f          	j	19f08 <_svfprintf_r+0x1e74>
   184cc:	0fc10c13          	addi	s8,sp,252
   184d0:	0b714703          	lbu	a4,183(sp)
   184d4:	04070a63          	beqz	a4,18528 <_svfprintf_r+0x494>
   184d8:	0b710713          	addi	a4,sp,183
   184dc:	00ec2023          	sw	a4,0(s8)
   184e0:	00100713          	li	a4,1
   184e4:	00ec2223          	sw	a4,4(s8)
   184e8:	0dc12703          	lw	a4,220(sp)
   184ec:	00700693          	li	a3,7
   184f0:	008c0c13          	addi	s8,s8,8
   184f4:	00170713          	addi	a4,a4,1
   184f8:	0ce12e23          	sw	a4,220(sp)
   184fc:	0d812703          	lw	a4,216(sp)
   18500:	00170713          	addi	a4,a4,1
   18504:	0ce12c23          	sw	a4,216(sp)
   18508:	02e6d063          	ble	a4,a3,18528 <_svfprintf_r+0x494>
   1850c:	0d410613          	addi	a2,sp,212
   18510:	00098593          	mv	a1,s3
   18514:	00090513          	mv	a0,s2
   18518:	631020ef          	jal	ra,1b348 <__ssprint_r>
   1851c:	00050463          	beqz	a0,18524 <_svfprintf_r+0x490>
   18520:	1e90106f          	j	19f08 <_svfprintf_r+0x1e74>
   18524:	0fc10c13          	addi	s8,sp,252
   18528:	04412783          	lw	a5,68(sp)
   1852c:	04078a63          	beqz	a5,18580 <_svfprintf_r+0x4ec>
   18530:	0b810713          	addi	a4,sp,184
   18534:	00ec2023          	sw	a4,0(s8)
   18538:	00200713          	li	a4,2
   1853c:	00ec2223          	sw	a4,4(s8)
   18540:	0dc12703          	lw	a4,220(sp)
   18544:	00700693          	li	a3,7
   18548:	008c0c13          	addi	s8,s8,8
   1854c:	00270713          	addi	a4,a4,2
   18550:	0ce12e23          	sw	a4,220(sp)
   18554:	0d812703          	lw	a4,216(sp)
   18558:	00170713          	addi	a4,a4,1
   1855c:	0ce12c23          	sw	a4,216(sp)
   18560:	02e6d063          	ble	a4,a3,18580 <_svfprintf_r+0x4ec>
   18564:	0d410613          	addi	a2,sp,212
   18568:	00098593          	mv	a1,s3
   1856c:	00090513          	mv	a0,s2
   18570:	5d9020ef          	jal	ra,1b348 <__ssprint_r>
   18574:	00050463          	beqz	a0,1857c <_svfprintf_r+0x4e8>
   18578:	1910106f          	j	19f08 <_svfprintf_r+0x1e74>
   1857c:	0fc10c13          	addi	s8,sp,252
   18580:	04812783          	lw	a5,72(sp)
   18584:	08000713          	li	a4,128
   18588:	06e79863          	bne	a5,a4,185f8 <_svfprintf_r+0x564>
   1858c:	02812783          	lw	a5,40(sp)
   18590:	02c12703          	lw	a4,44(sp)
   18594:	40e787b3          	sub	a5,a5,a4
   18598:	06f05063          	blez	a5,185f8 <_svfprintf_r+0x564>
   1859c:	01000e13          	li	t3,16
   185a0:	00700e93          	li	t4,7
   185a4:	01412583          	lw	a1,20(sp)
   185a8:	0d812683          	lw	a3,216(sp)
   185ac:	0dc12703          	lw	a4,220(sp)
   185b0:	00bc2023          	sw	a1,0(s8)
   185b4:	00168693          	addi	a3,a3,1
   185b8:	008c0613          	addi	a2,s8,8
   185bc:	72fe4ae3          	blt	t3,a5,194f0 <_svfprintf_r+0x145c>
   185c0:	00e78733          	add	a4,a5,a4
   185c4:	00fc2223          	sw	a5,4(s8)
   185c8:	0ce12e23          	sw	a4,220(sp)
   185cc:	0cd12c23          	sw	a3,216(sp)
   185d0:	00700713          	li	a4,7
   185d4:	00060c13          	mv	s8,a2
   185d8:	02d75063          	ble	a3,a4,185f8 <_svfprintf_r+0x564>
   185dc:	0d410613          	addi	a2,sp,212
   185e0:	00098593          	mv	a1,s3
   185e4:	00090513          	mv	a0,s2
   185e8:	561020ef          	jal	ra,1b348 <__ssprint_r>
   185ec:	00050463          	beqz	a0,185f4 <_svfprintf_r+0x560>
   185f0:	1190106f          	j	19f08 <_svfprintf_r+0x1e74>
   185f4:	0fc10c13          	addi	s8,sp,252
   185f8:	417a8ab3          	sub	s5,s5,s7
   185fc:	07505063          	blez	s5,1865c <_svfprintf_r+0x5c8>
   18600:	01000813          	li	a6,16
   18604:	00700e13          	li	t3,7
   18608:	01412783          	lw	a5,20(sp)
   1860c:	0d812703          	lw	a4,216(sp)
   18610:	0dc12683          	lw	a3,220(sp)
   18614:	00fc2023          	sw	a5,0(s8)
   18618:	00170713          	addi	a4,a4,1
   1861c:	008c0613          	addi	a2,s8,8
   18620:	71584ce3          	blt	a6,s5,19538 <_svfprintf_r+0x14a4>
   18624:	015c2223          	sw	s5,4(s8)
   18628:	00da8ab3          	add	s5,s5,a3
   1862c:	0d512e23          	sw	s5,220(sp)
   18630:	0ce12c23          	sw	a4,216(sp)
   18634:	00700693          	li	a3,7
   18638:	00060c13          	mv	s8,a2
   1863c:	02e6d063          	ble	a4,a3,1865c <_svfprintf_r+0x5c8>
   18640:	0d410613          	addi	a2,sp,212
   18644:	00098593          	mv	a1,s3
   18648:	00090513          	mv	a0,s2
   1864c:	4fd020ef          	jal	ra,1b348 <__ssprint_r>
   18650:	00050463          	beqz	a0,18658 <_svfprintf_r+0x5c4>
   18654:	0b50106f          	j	19f08 <_svfprintf_r+0x1e74>
   18658:	0fc10c13          	addi	s8,sp,252
   1865c:	10047693          	andi	a3,s0,256
   18660:	0dc12703          	lw	a4,220(sp)
   18664:	70069ae3          	bnez	a3,19578 <_svfprintf_r+0x14e4>
   18668:	0d812783          	lw	a5,216(sp)
   1866c:	00eb8333          	add	t1,s7,a4
   18670:	009c2023          	sw	s1,0(s8)
   18674:	00178793          	addi	a5,a5,1
   18678:	017c2223          	sw	s7,4(s8)
   1867c:	0c612e23          	sw	t1,220(sp)
   18680:	0cf12c23          	sw	a5,216(sp)
   18684:	00700713          	li	a4,7
   18688:	008c0c13          	addi	s8,s8,8
   1868c:	00f74463          	blt	a4,a5,18694 <_svfprintf_r+0x600>
   18690:	1b00106f          	j	19840 <_svfprintf_r+0x17ac>
   18694:	0d410613          	addi	a2,sp,212
   18698:	00098593          	mv	a1,s3
   1869c:	00090513          	mv	a0,s2
   186a0:	4a9020ef          	jal	ra,1b348 <__ssprint_r>
   186a4:	00050463          	beqz	a0,186ac <_svfprintf_r+0x618>
   186a8:	0610106f          	j	19f08 <_svfprintf_r+0x1e74>
   186ac:	0fc10c13          	addi	s8,sp,252
   186b0:	1900106f          	j	19840 <_svfprintf_r+0x17ac>
   186b4:	01046413          	ori	s0,s0,16
   186b8:	02047793          	andi	a5,s0,32
   186bc:	06078463          	beqz	a5,18724 <_svfprintf_r+0x690>
   186c0:	007a8a93          	addi	s5,s5,7
   186c4:	ff8afa93          	andi	s5,s5,-8
   186c8:	000aad83          	lw	s11,0(s5)
   186cc:	004aad03          	lw	s10,4(s5)
   186d0:	008a8793          	addi	a5,s5,8
   186d4:	00f12c23          	sw	a5,24(sp)
   186d8:	000d4463          	bltz	s10,186e0 <_svfprintf_r+0x64c>
   186dc:	0b10106f          	j	19f8c <_svfprintf_r+0x1ef8>
   186e0:	41b00db3          	neg	s11,s11
   186e4:	01b037b3          	snez	a5,s11
   186e8:	41a00d33          	neg	s10,s10
   186ec:	40fd0d33          	sub	s10,s10,a5
   186f0:	02d00793          	li	a5,45
   186f4:	0af10ba3          	sb	a5,183(sp)
   186f8:	00100793          	li	a5,1
   186fc:	fff00713          	li	a4,-1
   18700:	3eeb8ce3          	beq	s7,a4,192f8 <_svfprintf_r+0x1264>
   18704:	00040713          	mv	a4,s0
   18708:	01ade6b3          	or	a3,s11,s10
   1870c:	f7f47413          	andi	s0,s0,-129
   18710:	3e0694e3          	bnez	a3,192f8 <_svfprintf_r+0x1264>
   18714:	540b8ee3          	beqz	s7,19470 <_svfprintf_r+0x13dc>
   18718:	00100713          	li	a4,1
   1871c:	3ee792e3          	bne	a5,a4,19300 <_svfprintf_r+0x126c>
   18720:	0810106f          	j	19fa0 <_svfprintf_r+0x1f0c>
   18724:	004a8793          	addi	a5,s5,4
   18728:	00f12c23          	sw	a5,24(sp)
   1872c:	01047793          	andi	a5,s0,16
   18730:	00078863          	beqz	a5,18740 <_svfprintf_r+0x6ac>
   18734:	000aad83          	lw	s11,0(s5)
   18738:	41fddd13          	srai	s10,s11,0x1f
   1873c:	f9dff06f          	j	186d8 <_svfprintf_r+0x644>
   18740:	04047793          	andi	a5,s0,64
   18744:	000aad83          	lw	s11,0(s5)
   18748:	00078863          	beqz	a5,18758 <_svfprintf_r+0x6c4>
   1874c:	010d9d93          	slli	s11,s11,0x10
   18750:	410ddd93          	srai	s11,s11,0x10
   18754:	fe5ff06f          	j	18738 <_svfprintf_r+0x6a4>
   18758:	20047793          	andi	a5,s0,512
   1875c:	fc078ee3          	beqz	a5,18738 <_svfprintf_r+0x6a4>
   18760:	018d9d93          	slli	s11,s11,0x18
   18764:	418ddd93          	srai	s11,s11,0x18
   18768:	fd1ff06f          	j	18738 <_svfprintf_r+0x6a4>
   1876c:	00847793          	andi	a5,s0,8
   18770:	0a078863          	beqz	a5,18820 <_svfprintf_r+0x78c>
   18774:	004a8793          	addi	a5,s5,4
   18778:	00f12c23          	sw	a5,24(sp)
   1877c:	000aa783          	lw	a5,0(s5)
   18780:	0007a603          	lw	a2,0(a5)
   18784:	0047a683          	lw	a3,4(a5)
   18788:	0087a703          	lw	a4,8(a5)
   1878c:	00c7a783          	lw	a5,12(a5)
   18790:	0ec12023          	sw	a2,224(sp)
   18794:	0ed12223          	sw	a3,228(sp)
   18798:	0ee12423          	sw	a4,232(sp)
   1879c:	0e010513          	addi	a0,sp,224
   187a0:	0ef12623          	sw	a5,236(sp)
   187a4:	bfdfd0ef          	jal	ra,163a0 <_ldcheck>
   187a8:	0aa12e23          	sw	a0,188(sp)
   187ac:	00200793          	li	a5,2
   187b0:	0af51e63          	bne	a0,a5,1886c <_svfprintf_r+0x7d8>
   187b4:	0e012783          	lw	a5,224(sp)
   187b8:	09010593          	addi	a1,sp,144
   187bc:	0a010513          	addi	a0,sp,160
   187c0:	0af12023          	sw	a5,160(sp)
   187c4:	0e412783          	lw	a5,228(sp)
   187c8:	08012823          	sw	zero,144(sp)
   187cc:	08012a23          	sw	zero,148(sp)
   187d0:	0af12223          	sw	a5,164(sp)
   187d4:	0e812783          	lw	a5,232(sp)
   187d8:	08012c23          	sw	zero,152(sp)
   187dc:	08012e23          	sw	zero,156(sp)
   187e0:	0af12423          	sw	a5,168(sp)
   187e4:	0ec12783          	lw	a5,236(sp)
   187e8:	0af12623          	sw	a5,172(sp)
   187ec:	0d0050ef          	jal	ra,1d8bc <__letf2>
   187f0:	00055663          	bgez	a0,187fc <_svfprintf_r+0x768>
   187f4:	02d00793          	li	a5,45
   187f8:	0af10ba3          	sb	a5,183(sp)
   187fc:	04700793          	li	a5,71
   18800:	0767d063          	ble	s6,a5,18860 <_svfprintf_r+0x7cc>
   18804:	000214b7          	lui	s1,0x21
   18808:	71048493          	addi	s1,s1,1808 # 21710 <zeroes.4514+0x14>
   1880c:	f7f47413          	andi	s0,s0,-129
   18810:	00012623          	sw	zero,12(sp)
   18814:	00300b93          	li	s7,3
   18818:	00000a93          	li	s5,0
   1881c:	3410006f          	j	1935c <_svfprintf_r+0x12c8>
   18820:	007a8a93          	addi	s5,s5,7
   18824:	ff8afa93          	andi	s5,s5,-8
   18828:	000aa583          	lw	a1,0(s5)
   1882c:	004aa603          	lw	a2,4(s5)
   18830:	008a8793          	addi	a5,s5,8
   18834:	0a010513          	addi	a0,sp,160
   18838:	00f12c23          	sw	a5,24(sp)
   1883c:	1c5070ef          	jal	ra,20200 <__extenddftf2>
   18840:	0a012783          	lw	a5,160(sp)
   18844:	0ef12023          	sw	a5,224(sp)
   18848:	0a412783          	lw	a5,164(sp)
   1884c:	0ef12223          	sw	a5,228(sp)
   18850:	0a812783          	lw	a5,168(sp)
   18854:	0ef12423          	sw	a5,232(sp)
   18858:	0ac12783          	lw	a5,172(sp)
   1885c:	f41ff06f          	j	1879c <_svfprintf_r+0x708>
   18860:	000214b7          	lui	s1,0x21
   18864:	70c48493          	addi	s1,s1,1804 # 2170c <zeroes.4514+0x10>
   18868:	fa5ff06f          	j	1880c <_svfprintf_r+0x778>
   1886c:	00100793          	li	a5,1
   18870:	02f51a63          	bne	a0,a5,188a4 <_svfprintf_r+0x810>
   18874:	0ec12783          	lw	a5,236(sp)
   18878:	0007d663          	bgez	a5,18884 <_svfprintf_r+0x7f0>
   1887c:	02d00793          	li	a5,45
   18880:	0af10ba3          	sb	a5,183(sp)
   18884:	04700793          	li	a5,71
   18888:	0167d863          	ble	s6,a5,18898 <_svfprintf_r+0x804>
   1888c:	000214b7          	lui	s1,0x21
   18890:	71848493          	addi	s1,s1,1816 # 21718 <zeroes.4514+0x1c>
   18894:	f79ff06f          	j	1880c <_svfprintf_r+0x778>
   18898:	000214b7          	lui	s1,0x21
   1889c:	71448493          	addi	s1,s1,1812 # 21714 <zeroes.4514+0x18>
   188a0:	f6dff06f          	j	1880c <_svfprintf_r+0x778>
   188a4:	fdfb7c93          	andi	s9,s6,-33
   188a8:	04100793          	li	a5,65
   188ac:	08fc9c63          	bne	s9,a5,18944 <_svfprintf_r+0x8b0>
   188b0:	03000793          	li	a5,48
   188b4:	0af10c23          	sb	a5,184(sp)
   188b8:	06100713          	li	a4,97
   188bc:	07800793          	li	a5,120
   188c0:	00eb0463          	beq	s6,a4,188c8 <_svfprintf_r+0x834>
   188c4:	05800793          	li	a5,88
   188c8:	0af10ca3          	sb	a5,185(sp)
   188cc:	06300793          	li	a5,99
   188d0:	00246413          	ori	s0,s0,2
   188d4:	4d77dc63          	ble	s7,a5,18dac <_svfprintf_r+0xd18>
   188d8:	001b8593          	addi	a1,s7,1
   188dc:	00090513          	mv	a0,s2
   188e0:	dd9f70ef          	jal	ra,106b8 <_malloc_r>
   188e4:	00050493          	mv	s1,a0
   188e8:	4c051863          	bnez	a0,18db8 <_svfprintf_r+0xd24>
   188ec:	00c9d783          	lhu	a5,12(s3)
   188f0:	0407e793          	ori	a5,a5,64
   188f4:	00f99623          	sh	a5,12(s3)
   188f8:	00c9d783          	lhu	a5,12(s3)
   188fc:	0407f793          	andi	a5,a5,64
   18900:	82079ce3          	bnez	a5,18138 <_svfprintf_r+0xa4>
   18904:	1dc12083          	lw	ra,476(sp)
   18908:	1d812403          	lw	s0,472(sp)
   1890c:	02412503          	lw	a0,36(sp)
   18910:	1d412483          	lw	s1,468(sp)
   18914:	1d012903          	lw	s2,464(sp)
   18918:	1cc12983          	lw	s3,460(sp)
   1891c:	1c812a03          	lw	s4,456(sp)
   18920:	1c412a83          	lw	s5,452(sp)
   18924:	1c012b03          	lw	s6,448(sp)
   18928:	1bc12b83          	lw	s7,444(sp)
   1892c:	1b812c03          	lw	s8,440(sp)
   18930:	1b412c83          	lw	s9,436(sp)
   18934:	1b012d03          	lw	s10,432(sp)
   18938:	1ac12d83          	lw	s11,428(sp)
   1893c:	1e010113          	addi	sp,sp,480
   18940:	00008067          	ret
   18944:	fff00793          	li	a5,-1
   18948:	46fb8c63          	beq	s7,a5,18dc0 <_svfprintf_r+0xd2c>
   1894c:	04700793          	li	a5,71
   18950:	00012623          	sw	zero,12(sp)
   18954:	00fc9863          	bne	s9,a5,18964 <_svfprintf_r+0x8d0>
   18958:	000b9663          	bnez	s7,18964 <_svfprintf_r+0x8d0>
   1895c:	01712623          	sw	s7,12(sp)
   18960:	00100b93          	li	s7,1
   18964:	0ec12a03          	lw	s4,236(sp)
   18968:	10046793          	ori	a5,s0,256
   1896c:	02f12623          	sw	a5,44(sp)
   18970:	04012223          	sw	zero,68(sp)
   18974:	0e012e83          	lw	t4,224(sp)
   18978:	0e412e03          	lw	t3,228(sp)
   1897c:	0e812d83          	lw	s11,232(sp)
   18980:	000a5a63          	bgez	s4,18994 <_svfprintf_r+0x900>
   18984:	800007b7          	lui	a5,0x80000
   18988:	0147ca33          	xor	s4,a5,s4
   1898c:	02d00793          	li	a5,45
   18990:	04f12223          	sw	a5,68(sp)
   18994:	04100793          	li	a5,65
   18998:	46fc9e63          	bne	s9,a5,18e14 <_svfprintf_r+0xd80>
   1899c:	0a010513          	addi	a0,sp,160
   189a0:	0bd12023          	sw	t4,160(sp)
   189a4:	0bc12223          	sw	t3,164(sp)
   189a8:	0bb12423          	sw	s11,168(sp)
   189ac:	0b412623          	sw	s4,172(sp)
   189b0:	25d070ef          	jal	ra,2040c <__trunctfdf2>
   189b4:	0bc10613          	addi	a2,sp,188
   189b8:	bc8ff0ef          	jal	ra,17d80 <frexp>
   189bc:	00058613          	mv	a2,a1
   189c0:	00050593          	mv	a1,a0
   189c4:	0a010513          	addi	a0,sp,160
   189c8:	039070ef          	jal	ra,20200 <__extenddftf2>
   189cc:	0a012783          	lw	a5,160(sp)
   189d0:	07010613          	addi	a2,sp,112
   189d4:	08010593          	addi	a1,sp,128
   189d8:	08f12023          	sw	a5,128(sp)
   189dc:	0a412783          	lw	a5,164(sp)
   189e0:	09010513          	addi	a0,sp,144
   189e4:	06012823          	sw	zero,112(sp)
   189e8:	08f12223          	sw	a5,132(sp)
   189ec:	0a812783          	lw	a5,168(sp)
   189f0:	06012a23          	sw	zero,116(sp)
   189f4:	06012c23          	sw	zero,120(sp)
   189f8:	08f12423          	sw	a5,136(sp)
   189fc:	0ac12783          	lw	a5,172(sp)
   18a00:	08f12623          	sw	a5,140(sp)
   18a04:	3ffc07b7          	lui	a5,0x3ffc0
   18a08:	06f12e23          	sw	a5,124(sp)
   18a0c:	7f9040ef          	jal	ra,1da04 <__multf3>
   18a10:	09012803          	lw	a6,144(sp)
   18a14:	09412603          	lw	a2,148(sp)
   18a18:	09812683          	lw	a3,152(sp)
   18a1c:	09c12d83          	lw	s11,156(sp)
   18a20:	09010593          	addi	a1,sp,144
   18a24:	0a010513          	addi	a0,sp,160
   18a28:	0b012023          	sw	a6,160(sp)
   18a2c:	05012a23          	sw	a6,84(sp)
   18a30:	0ac12223          	sw	a2,164(sp)
   18a34:	04c12823          	sw	a2,80(sp)
   18a38:	0ad12423          	sw	a3,168(sp)
   18a3c:	04d12423          	sw	a3,72(sp)
   18a40:	0bb12623          	sw	s11,172(sp)
   18a44:	08012823          	sw	zero,144(sp)
   18a48:	08012a23          	sw	zero,148(sp)
   18a4c:	08012c23          	sw	zero,152(sp)
   18a50:	08012e23          	sw	zero,156(sp)
   18a54:	455040ef          	jal	ra,1d6a8 <__eqtf2>
   18a58:	04812683          	lw	a3,72(sp)
   18a5c:	05012603          	lw	a2,80(sp)
   18a60:	05412803          	lw	a6,84(sp)
   18a64:	00051663          	bnez	a0,18a70 <_svfprintf_r+0x9dc>
   18a68:	00100713          	li	a4,1
   18a6c:	0ae12e23          	sw	a4,188(sp)
   18a70:	06100713          	li	a4,97
   18a74:	34eb0c63          	beq	s6,a4,18dcc <_svfprintf_r+0xd38>
   18a78:	00021a37          	lui	s4,0x21
   18a7c:	730a0a13          	addi	s4,s4,1840 # 21730 <zeroes.4514+0x34>
   18a80:	fffb8e13          	addi	t3,s7,-1
   18a84:	00048d13          	mv	s10,s1
   18a88:	400307b7          	lui	a5,0x40030
   18a8c:	09010593          	addi	a1,sp,144
   18a90:	08c12a23          	sw	a2,148(sp)
   18a94:	0a010513          	addi	a0,sp,160
   18a98:	08010613          	addi	a2,sp,128
   18a9c:	05c12c23          	sw	t3,88(sp)
   18aa0:	09012823          	sw	a6,144(sp)
   18aa4:	08d12c23          	sw	a3,152(sp)
   18aa8:	09b12e23          	sw	s11,156(sp)
   18aac:	08f12623          	sw	a5,140(sp)
   18ab0:	08012023          	sw	zero,128(sp)
   18ab4:	08012223          	sw	zero,132(sp)
   18ab8:	08012423          	sw	zero,136(sp)
   18abc:	749040ef          	jal	ra,1da04 <__multf3>
   18ac0:	0a012603          	lw	a2,160(sp)
   18ac4:	0a412683          	lw	a3,164(sp)
   18ac8:	0a812783          	lw	a5,168(sp)
   18acc:	0a010513          	addi	a0,sp,160
   18ad0:	04c12a23          	sw	a2,84(sp)
   18ad4:	04d12823          	sw	a3,80(sp)
   18ad8:	04f12423          	sw	a5,72(sp)
   18adc:	448070ef          	jal	ra,1ff24 <__fixtfsi>
   18ae0:	00050593          	mv	a1,a0
   18ae4:	00050a93          	mv	s5,a0
   18ae8:	0a010513          	addi	a0,sp,160
   18aec:	0ac12d83          	lw	s11,172(sp)
   18af0:	584070ef          	jal	ra,20074 <__floatsitf>
   18af4:	04812783          	lw	a5,72(sp)
   18af8:	05412603          	lw	a2,84(sp)
   18afc:	05012683          	lw	a3,80(sp)
   18b00:	08f12423          	sw	a5,136(sp)
   18b04:	0a012783          	lw	a5,160(sp)
   18b08:	08c12023          	sw	a2,128(sp)
   18b0c:	08010593          	addi	a1,sp,128
   18b10:	06f12823          	sw	a5,112(sp)
   18b14:	0a412783          	lw	a5,164(sp)
   18b18:	07010613          	addi	a2,sp,112
   18b1c:	09010513          	addi	a0,sp,144
   18b20:	06f12a23          	sw	a5,116(sp)
   18b24:	0a812783          	lw	a5,168(sp)
   18b28:	09b12623          	sw	s11,140(sp)
   18b2c:	08d12223          	sw	a3,132(sp)
   18b30:	06f12c23          	sw	a5,120(sp)
   18b34:	0ac12783          	lw	a5,172(sp)
   18b38:	001d0d13          	addi	s10,s10,1
   18b3c:	06f12e23          	sw	a5,124(sp)
   18b40:	6cd050ef          	jal	ra,1ea0c <__subtf3>
   18b44:	015a05b3          	add	a1,s4,s5
   18b48:	0005c583          	lbu	a1,0(a1)
   18b4c:	05812e03          	lw	t3,88(sp)
   18b50:	09c12e83          	lw	t4,156(sp)
   18b54:	09012283          	lw	t0,144(sp)
   18b58:	09412f83          	lw	t6,148(sp)
   18b5c:	09812f03          	lw	t5,152(sp)
   18b60:	05c12423          	sw	t3,72(sp)
   18b64:	febd0fa3          	sb	a1,-1(s10)
   18b68:	fff00793          	li	a5,-1
   18b6c:	000e8d93          	mv	s11,t4
   18b70:	06fe0c63          	beq	t3,a5,18be8 <_svfprintf_r+0xb54>
   18b74:	fffe0e13          	addi	t3,t3,-1
   18b78:	09010593          	addi	a1,sp,144
   18b7c:	0a010513          	addi	a0,sp,160
   18b80:	07d12623          	sw	t4,108(sp)
   18b84:	07e12423          	sw	t5,104(sp)
   18b88:	07f12223          	sw	t6,100(sp)
   18b8c:	06512023          	sw	t0,96(sp)
   18b90:	05c12e23          	sw	t3,92(sp)
   18b94:	0a512023          	sw	t0,160(sp)
   18b98:	04512c23          	sw	t0,88(sp)
   18b9c:	0bf12223          	sw	t6,164(sp)
   18ba0:	05f12a23          	sw	t6,84(sp)
   18ba4:	0be12423          	sw	t5,168(sp)
   18ba8:	05e12823          	sw	t5,80(sp)
   18bac:	0bd12623          	sw	t4,172(sp)
   18bb0:	08012823          	sw	zero,144(sp)
   18bb4:	08012a23          	sw	zero,148(sp)
   18bb8:	08012c23          	sw	zero,152(sp)
   18bbc:	08012e23          	sw	zero,156(sp)
   18bc0:	2e9040ef          	jal	ra,1d6a8 <__eqtf2>
   18bc4:	05012683          	lw	a3,80(sp)
   18bc8:	05412603          	lw	a2,84(sp)
   18bcc:	05812803          	lw	a6,88(sp)
   18bd0:	05c12e03          	lw	t3,92(sp)
   18bd4:	06012283          	lw	t0,96(sp)
   18bd8:	06412f83          	lw	t6,100(sp)
   18bdc:	06812f03          	lw	t5,104(sp)
   18be0:	06c12e83          	lw	t4,108(sp)
   18be4:	ea0512e3          	bnez	a0,18a88 <_svfprintf_r+0x9f4>
   18be8:	3ffe0db7          	lui	s11,0x3ffe0
   18bec:	09010593          	addi	a1,sp,144
   18bf0:	0a010513          	addi	a0,sp,160
   18bf4:	0a512023          	sw	t0,160(sp)
   18bf8:	04512e23          	sw	t0,92(sp)
   18bfc:	0bf12223          	sw	t6,164(sp)
   18c00:	05f12c23          	sw	t6,88(sp)
   18c04:	0be12423          	sw	t5,168(sp)
   18c08:	05e12a23          	sw	t5,84(sp)
   18c0c:	0bd12623          	sw	t4,172(sp)
   18c10:	05d12823          	sw	t4,80(sp)
   18c14:	08012823          	sw	zero,144(sp)
   18c18:	08012a23          	sw	zero,148(sp)
   18c1c:	08012c23          	sw	zero,152(sp)
   18c20:	09b12e23          	sw	s11,156(sp)
   18c24:	351040ef          	jal	ra,1d774 <__getf2>
   18c28:	04a04663          	bgtz	a0,18c74 <_svfprintf_r+0xbe0>
   18c2c:	05c12283          	lw	t0,92(sp)
   18c30:	05812f83          	lw	t6,88(sp)
   18c34:	05412f03          	lw	t5,84(sp)
   18c38:	05012e83          	lw	t4,80(sp)
   18c3c:	09010593          	addi	a1,sp,144
   18c40:	0a010513          	addi	a0,sp,160
   18c44:	0a512023          	sw	t0,160(sp)
   18c48:	0bf12223          	sw	t6,164(sp)
   18c4c:	0be12423          	sw	t5,168(sp)
   18c50:	0bd12623          	sw	t4,172(sp)
   18c54:	08012823          	sw	zero,144(sp)
   18c58:	08012a23          	sw	zero,148(sp)
   18c5c:	08012c23          	sw	zero,152(sp)
   18c60:	09b12e23          	sw	s11,156(sp)
   18c64:	245040ef          	jal	ra,1d6a8 <__eqtf2>
   18c68:	18051c63          	bnez	a0,18e00 <_svfprintf_r+0xd6c>
   18c6c:	001afa93          	andi	s5,s5,1
   18c70:	180a8863          	beqz	s5,18e00 <_svfprintf_r+0xd6c>
   18c74:	00fa4603          	lbu	a2,15(s4)
   18c78:	0da12623          	sw	s10,204(sp)
   18c7c:	03000593          	li	a1,48
   18c80:	0cc12683          	lw	a3,204(sp)
   18c84:	fff68793          	addi	a5,a3,-1
   18c88:	0cf12623          	sw	a5,204(sp)
   18c8c:	fff6c783          	lbu	a5,-1(a3)
   18c90:	14c78463          	beq	a5,a2,18dd8 <_svfprintf_r+0xd44>
   18c94:	03900613          	li	a2,57
   18c98:	14c79463          	bne	a5,a2,18de0 <_svfprintf_r+0xd4c>
   18c9c:	00aa4783          	lbu	a5,10(s4)
   18ca0:	fef68fa3          	sb	a5,-1(a3)
   18ca4:	000d0a13          	mv	s4,s10
   18ca8:	04700713          	li	a4,71
   18cac:	409a0a33          	sub	s4,s4,s1
   18cb0:	0bc12d83          	lw	s11,188(sp)
   18cb4:	2aec9063          	bne	s9,a4,18f54 <_svfprintf_r+0xec0>
   18cb8:	ffd00713          	li	a4,-3
   18cbc:	00edc463          	blt	s11,a4,18cc4 <_svfprintf_r+0xc30>
   18cc0:	31bbda63          	ble	s11,s7,18fd4 <_svfprintf_r+0xf40>
   18cc4:	ffeb0b13          	addi	s6,s6,-2
   18cc8:	fffd8693          	addi	a3,s11,-1 # 3ffdffff <_end+0x3ffb9b1f>
   18ccc:	0ad12e23          	sw	a3,188(sp)
   18cd0:	fdfb7613          	andi	a2,s6,-33
   18cd4:	04100513          	li	a0,65
   18cd8:	0ffb7713          	andi	a4,s6,255
   18cdc:	00000593          	li	a1,0
   18ce0:	00a61863          	bne	a2,a0,18cf0 <_svfprintf_r+0xc5c>
   18ce4:	00f70713          	addi	a4,a4,15
   18ce8:	0ff77713          	andi	a4,a4,255
   18cec:	00100593          	li	a1,1
   18cf0:	0ce10223          	sb	a4,196(sp)
   18cf4:	02b00793          	li	a5,43
   18cf8:	0006d863          	bgez	a3,18d08 <_svfprintf_r+0xc74>
   18cfc:	00100693          	li	a3,1
   18d00:	41b686b3          	sub	a3,a3,s11
   18d04:	02d00793          	li	a5,45
   18d08:	0cf102a3          	sb	a5,197(sp)
   18d0c:	00900793          	li	a5,9
   18d10:	28d7d863          	ble	a3,a5,18fa0 <_svfprintf_r+0xf0c>
   18d14:	0d310713          	addi	a4,sp,211
   18d18:	00070513          	mv	a0,a4
   18d1c:	00a00593          	li	a1,10
   18d20:	06300813          	li	a6,99
   18d24:	02b6e7b3          	rem	a5,a3,a1
   18d28:	fff70613          	addi	a2,a4,-1
   18d2c:	03078793          	addi	a5,a5,48 # 40030030 <_end+0x40009b50>
   18d30:	fef70fa3          	sb	a5,-1(a4)
   18d34:	02b6c7b3          	div	a5,a3,a1
   18d38:	24d84463          	blt	a6,a3,18f80 <_svfprintf_r+0xeec>
   18d3c:	03078793          	addi	a5,a5,48
   18d40:	fef60fa3          	sb	a5,-1(a2)
   18d44:	ffe70713          	addi	a4,a4,-2
   18d48:	0c610613          	addi	a2,sp,198
   18d4c:	24a76063          	bltu	a4,a0,18f8c <_svfprintf_r+0xef8>
   18d50:	0c410793          	addi	a5,sp,196
   18d54:	40f607b3          	sub	a5,a2,a5
   18d58:	02f12e23          	sw	a5,60(sp)
   18d5c:	01478bb3          	add	s7,a5,s4
   18d60:	00100793          	li	a5,1
   18d64:	0147c663          	blt	a5,s4,18d70 <_svfprintf_r+0xcdc>
   18d68:	00147793          	andi	a5,s0,1
   18d6c:	00078663          	beqz	a5,18d78 <_svfprintf_r+0xce4>
   18d70:	02012783          	lw	a5,32(sp)
   18d74:	00fb8bb3          	add	s7,s7,a5
   18d78:	bff47413          	andi	s0,s0,-1025
   18d7c:	10046793          	ori	a5,s0,256
   18d80:	02f12623          	sw	a5,44(sp)
   18d84:	00000d13          	li	s10,0
   18d88:	00000c93          	li	s9,0
   18d8c:	00000d93          	li	s11,0
   18d90:	04412783          	lw	a5,68(sp)
   18d94:	00078663          	beqz	a5,18da0 <_svfprintf_r+0xd0c>
   18d98:	02d00713          	li	a4,45
   18d9c:	0ae10ba3          	sb	a4,183(sp)
   18da0:	02c12403          	lw	s0,44(sp)
   18da4:	00000a93          	li	s5,0
   18da8:	e70ff06f          	j	18418 <_svfprintf_r+0x384>
   18dac:	00012623          	sw	zero,12(sp)
   18db0:	13c10493          	addi	s1,sp,316
   18db4:	bb1ff06f          	j	18964 <_svfprintf_r+0x8d0>
   18db8:	00a12623          	sw	a0,12(sp)
   18dbc:	ba9ff06f          	j	18964 <_svfprintf_r+0x8d0>
   18dc0:	00012623          	sw	zero,12(sp)
   18dc4:	00600b93          	li	s7,6
   18dc8:	b9dff06f          	j	18964 <_svfprintf_r+0x8d0>
   18dcc:	00021a37          	lui	s4,0x21
   18dd0:	71ca0a13          	addi	s4,s4,1820 # 2171c <zeroes.4514+0x20>
   18dd4:	cadff06f          	j	18a80 <_svfprintf_r+0x9ec>
   18dd8:	feb68fa3          	sb	a1,-1(a3)
   18ddc:	ea5ff06f          	j	18c80 <_svfprintf_r+0xbec>
   18de0:	00178793          	addi	a5,a5,1
   18de4:	0ff7f793          	andi	a5,a5,255
   18de8:	eb9ff06f          	j	18ca0 <_svfprintf_r+0xc0c>
   18dec:	001a0a13          	addi	s4,s4,1
   18df0:	feea0fa3          	sb	a4,-1(s4)
   18df4:	414d07b3          	sub	a5,s10,s4
   18df8:	fe07dae3          	bgez	a5,18dec <_svfprintf_r+0xd58>
   18dfc:	eadff06f          	j	18ca8 <_svfprintf_r+0xc14>
   18e00:	04812783          	lw	a5,72(sp)
   18e04:	000d0a13          	mv	s4,s10
   18e08:	03000713          	li	a4,48
   18e0c:	00fd0d33          	add	s10,s10,a5
   18e10:	fe5ff06f          	j	18df4 <_svfprintf_r+0xd60>
   18e14:	04600793          	li	a5,70
   18e18:	00fc8e63          	beq	s9,a5,18e34 <_svfprintf_r+0xda0>
   18e1c:	04500793          	li	a5,69
   18e20:	001b8a93          	addi	s5,s7,1
   18e24:	00fc8463          	beq	s9,a5,18e2c <_svfprintf_r+0xd98>
   18e28:	000b8a93          	mv	s5,s7
   18e2c:	00200613          	li	a2,2
   18e30:	00c0006f          	j	18e3c <_svfprintf_r+0xda8>
   18e34:	000b8a93          	mv	s5,s7
   18e38:	00300613          	li	a2,3
   18e3c:	0c010793          	addi	a5,sp,192
   18e40:	0cc10813          	addi	a6,sp,204
   18e44:	0bc10713          	addi	a4,sp,188
   18e48:	000a8693          	mv	a3,s5
   18e4c:	0a010593          	addi	a1,sp,160
   18e50:	00090513          	mv	a0,s2
   18e54:	0bd12023          	sw	t4,160(sp)
   18e58:	05d12823          	sw	t4,80(sp)
   18e5c:	0bc12223          	sw	t3,164(sp)
   18e60:	05c12423          	sw	t3,72(sp)
   18e64:	0bb12423          	sw	s11,168(sp)
   18e68:	0b412623          	sw	s4,172(sp)
   18e6c:	941fc0ef          	jal	ra,157ac <_ldtoa_r>
   18e70:	04700793          	li	a5,71
   18e74:	00050493          	mv	s1,a0
   18e78:	04812e03          	lw	t3,72(sp)
   18e7c:	05012e83          	lw	t4,80(sp)
   18e80:	00fc9a63          	bne	s9,a5,18e94 <_svfprintf_r+0xe00>
   18e84:	00147793          	andi	a5,s0,1
   18e88:	00079663          	bnez	a5,18e94 <_svfprintf_r+0xe00>
   18e8c:	0cc12a03          	lw	s4,204(sp)
   18e90:	e19ff06f          	j	18ca8 <_svfprintf_r+0xc14>
   18e94:	04600793          	li	a5,70
   18e98:	01548d33          	add	s10,s1,s5
   18e9c:	06fc9263          	bne	s9,a5,18f00 <_svfprintf_r+0xe6c>
   18ea0:	0004c703          	lbu	a4,0(s1)
   18ea4:	03000793          	li	a5,48
   18ea8:	04f71863          	bne	a4,a5,18ef8 <_svfprintf_r+0xe64>
   18eac:	09010593          	addi	a1,sp,144
   18eb0:	0a010513          	addi	a0,sp,160
   18eb4:	0bd12023          	sw	t4,160(sp)
   18eb8:	05d12823          	sw	t4,80(sp)
   18ebc:	0bc12223          	sw	t3,164(sp)
   18ec0:	05c12423          	sw	t3,72(sp)
   18ec4:	0bb12423          	sw	s11,168(sp)
   18ec8:	0b412623          	sw	s4,172(sp)
   18ecc:	08012823          	sw	zero,144(sp)
   18ed0:	08012a23          	sw	zero,148(sp)
   18ed4:	08012c23          	sw	zero,152(sp)
   18ed8:	08012e23          	sw	zero,156(sp)
   18edc:	7cc040ef          	jal	ra,1d6a8 <__eqtf2>
   18ee0:	04812e03          	lw	t3,72(sp)
   18ee4:	05012e83          	lw	t4,80(sp)
   18ee8:	00050863          	beqz	a0,18ef8 <_svfprintf_r+0xe64>
   18eec:	00100793          	li	a5,1
   18ef0:	41578ab3          	sub	s5,a5,s5
   18ef4:	0b512e23          	sw	s5,188(sp)
   18ef8:	0bc12783          	lw	a5,188(sp)
   18efc:	00fd0d33          	add	s10,s10,a5
   18f00:	09010593          	addi	a1,sp,144
   18f04:	0a010513          	addi	a0,sp,160
   18f08:	0bd12023          	sw	t4,160(sp)
   18f0c:	0bc12223          	sw	t3,164(sp)
   18f10:	0bb12423          	sw	s11,168(sp)
   18f14:	0b412623          	sw	s4,172(sp)
   18f18:	08012823          	sw	zero,144(sp)
   18f1c:	08012a23          	sw	zero,148(sp)
   18f20:	08012c23          	sw	zero,152(sp)
   18f24:	08012e23          	sw	zero,156(sp)
   18f28:	780040ef          	jal	ra,1d6a8 <__eqtf2>
   18f2c:	00051463          	bnez	a0,18f34 <_svfprintf_r+0xea0>
   18f30:	0da12623          	sw	s10,204(sp)
   18f34:	03000713          	li	a4,48
   18f38:	0100006f          	j	18f48 <_svfprintf_r+0xeb4>
   18f3c:	00178693          	addi	a3,a5,1
   18f40:	0cd12623          	sw	a3,204(sp)
   18f44:	00e78023          	sb	a4,0(a5)
   18f48:	0cc12783          	lw	a5,204(sp)
   18f4c:	ffa7e8e3          	bltu	a5,s10,18f3c <_svfprintf_r+0xea8>
   18f50:	f3dff06f          	j	18e8c <_svfprintf_r+0xdf8>
   18f54:	04600713          	li	a4,70
   18f58:	d6ec98e3          	bne	s9,a4,18cc8 <_svfprintf_r+0xc34>
   18f5c:	00147713          	andi	a4,s0,1
   18f60:	01776733          	or	a4,a4,s7
   18f64:	07b05063          	blez	s11,18fc4 <_svfprintf_r+0xf30>
   18f68:	0c070063          	beqz	a4,19028 <_svfprintf_r+0xf94>
   18f6c:	02012783          	lw	a5,32(sp)
   18f70:	00fd8733          	add	a4,s11,a5
   18f74:	00eb8bb3          	add	s7,s7,a4
   18f78:	06600b13          	li	s6,102
   18f7c:	0900006f          	j	1900c <_svfprintf_r+0xf78>
   18f80:	00060713          	mv	a4,a2
   18f84:	00078693          	mv	a3,a5
   18f88:	d9dff06f          	j	18d24 <_svfprintf_r+0xc90>
   18f8c:	00170713          	addi	a4,a4,1
   18f90:	fff74783          	lbu	a5,-1(a4)
   18f94:	00160613          	addi	a2,a2,1
   18f98:	fef60fa3          	sb	a5,-1(a2)
   18f9c:	db1ff06f          	j	18d4c <_svfprintf_r+0xcb8>
   18fa0:	0c610713          	addi	a4,sp,198
   18fa4:	00059863          	bnez	a1,18fb4 <_svfprintf_r+0xf20>
   18fa8:	03000793          	li	a5,48
   18fac:	0cf10323          	sb	a5,198(sp)
   18fb0:	0c710713          	addi	a4,sp,199
   18fb4:	03068793          	addi	a5,a3,48
   18fb8:	00170613          	addi	a2,a4,1
   18fbc:	00f70023          	sb	a5,0(a4)
   18fc0:	d91ff06f          	j	18d50 <_svfprintf_r+0xcbc>
   18fc4:	06070663          	beqz	a4,19030 <_svfprintf_r+0xf9c>
   18fc8:	02012783          	lw	a5,32(sp)
   18fcc:	00178713          	addi	a4,a5,1
   18fd0:	fa5ff06f          	j	18f74 <_svfprintf_r+0xee0>
   18fd4:	034dc063          	blt	s11,s4,18ff4 <_svfprintf_r+0xf60>
   18fd8:	00147713          	andi	a4,s0,1
   18fdc:	000d8b93          	mv	s7,s11
   18fe0:	00070663          	beqz	a4,18fec <_svfprintf_r+0xf58>
   18fe4:	02012783          	lw	a5,32(sp)
   18fe8:	00fd8bb3          	add	s7,s11,a5
   18fec:	06700b13          	li	s6,103
   18ff0:	01c0006f          	j	1900c <_svfprintf_r+0xf78>
   18ff4:	02012783          	lw	a5,32(sp)
   18ff8:	06700b13          	li	s6,103
   18ffc:	00fa0bb3          	add	s7,s4,a5
   19000:	01b04663          	bgtz	s11,1900c <_svfprintf_r+0xf78>
   19004:	41bb8333          	sub	t1,s7,s11
   19008:	00130b93          	addi	s7,t1,1
   1900c:	40047c93          	andi	s9,s0,1024
   19010:	00000d13          	li	s10,0
   19014:	d60c8ee3          	beqz	s9,18d90 <_svfprintf_r+0xcfc>
   19018:	00000c93          	li	s9,0
   1901c:	d7b05ae3          	blez	s11,18d90 <_svfprintf_r+0xcfc>
   19020:	0ff00693          	li	a3,255
   19024:	0380006f          	j	1905c <_svfprintf_r+0xfc8>
   19028:	000d8b93          	mv	s7,s11
   1902c:	f4dff06f          	j	18f78 <_svfprintf_r+0xee4>
   19030:	06600b13          	li	s6,102
   19034:	00100b93          	li	s7,1
   19038:	fd5ff06f          	j	1900c <_svfprintf_r+0xf78>
   1903c:	03b75663          	ble	s11,a4,19068 <_svfprintf_r+0xfd4>
   19040:	01012783          	lw	a5,16(sp)
   19044:	40ed8db3          	sub	s11,s11,a4
   19048:	0017c703          	lbu	a4,1(a5)
   1904c:	02070863          	beqz	a4,1907c <_svfprintf_r+0xfe8>
   19050:	00178793          	addi	a5,a5,1
   19054:	001c8c93          	addi	s9,s9,1
   19058:	00f12823          	sw	a5,16(sp)
   1905c:	01012783          	lw	a5,16(sp)
   19060:	0007c703          	lbu	a4,0(a5)
   19064:	fcd71ce3          	bne	a4,a3,1903c <_svfprintf_r+0xfa8>
   19068:	03012783          	lw	a5,48(sp)
   1906c:	01ac8733          	add	a4,s9,s10
   19070:	02f70733          	mul	a4,a4,a5
   19074:	01770bb3          	add	s7,a4,s7
   19078:	d19ff06f          	j	18d90 <_svfprintf_r+0xcfc>
   1907c:	001d0d13          	addi	s10,s10,1
   19080:	fddff06f          	j	1905c <_svfprintf_r+0xfc8>
   19084:	004a8713          	addi	a4,s5,4
   19088:	00e12c23          	sw	a4,24(sp)
   1908c:	02047713          	andi	a4,s0,32
   19090:	000aa783          	lw	a5,0(s5)
   19094:	02070063          	beqz	a4,190b4 <_svfprintf_r+0x1020>
   19098:	02412703          	lw	a4,36(sp)
   1909c:	00e7a023          	sw	a4,0(a5)
   190a0:	41f75713          	srai	a4,a4,0x1f
   190a4:	00e7a223          	sw	a4,4(a5)
   190a8:	01812a83          	lw	s5,24(sp)
   190ac:	01c12483          	lw	s1,28(sp)
   190b0:	8e4ff06f          	j	18194 <_svfprintf_r+0x100>
   190b4:	01047713          	andi	a4,s0,16
   190b8:	00070863          	beqz	a4,190c8 <_svfprintf_r+0x1034>
   190bc:	02412703          	lw	a4,36(sp)
   190c0:	00e7a023          	sw	a4,0(a5)
   190c4:	fe5ff06f          	j	190a8 <_svfprintf_r+0x1014>
   190c8:	04047713          	andi	a4,s0,64
   190cc:	00070863          	beqz	a4,190dc <_svfprintf_r+0x1048>
   190d0:	02412703          	lw	a4,36(sp)
   190d4:	00e79023          	sh	a4,0(a5)
   190d8:	fd1ff06f          	j	190a8 <_svfprintf_r+0x1014>
   190dc:	20047413          	andi	s0,s0,512
   190e0:	fc040ee3          	beqz	s0,190bc <_svfprintf_r+0x1028>
   190e4:	02412703          	lw	a4,36(sp)
   190e8:	00e78023          	sb	a4,0(a5)
   190ec:	fbdff06f          	j	190a8 <_svfprintf_r+0x1014>
   190f0:	01046413          	ori	s0,s0,16
   190f4:	02047793          	andi	a5,s0,32
   190f8:	02078663          	beqz	a5,19124 <_svfprintf_r+0x1090>
   190fc:	007a8a93          	addi	s5,s5,7
   19100:	ff8afa93          	andi	s5,s5,-8
   19104:	000aad83          	lw	s11,0(s5)
   19108:	004aad03          	lw	s10,4(s5)
   1910c:	008a8793          	addi	a5,s5,8
   19110:	00f12c23          	sw	a5,24(sp)
   19114:	bff47413          	andi	s0,s0,-1025
   19118:	00000793          	li	a5,0
   1911c:	0a010ba3          	sb	zero,183(sp)
   19120:	ddcff06f          	j	186fc <_svfprintf_r+0x668>
   19124:	004a8793          	addi	a5,s5,4
   19128:	00f12c23          	sw	a5,24(sp)
   1912c:	01047793          	andi	a5,s0,16
   19130:	00078663          	beqz	a5,1913c <_svfprintf_r+0x10a8>
   19134:	000aad83          	lw	s11,0(s5)
   19138:	0100006f          	j	19148 <_svfprintf_r+0x10b4>
   1913c:	04047793          	andi	a5,s0,64
   19140:	00078863          	beqz	a5,19150 <_svfprintf_r+0x10bc>
   19144:	000add83          	lhu	s11,0(s5)
   19148:	00000d13          	li	s10,0
   1914c:	fc9ff06f          	j	19114 <_svfprintf_r+0x1080>
   19150:	20047793          	andi	a5,s0,512
   19154:	fe0780e3          	beqz	a5,19134 <_svfprintf_r+0x10a0>
   19158:	000acd83          	lbu	s11,0(s5)
   1915c:	fedff06f          	j	19148 <_svfprintf_r+0x10b4>
   19160:	004a8793          	addi	a5,s5,4
   19164:	00f12c23          	sw	a5,24(sp)
   19168:	ffff87b7          	lui	a5,0xffff8
   1916c:	8307c793          	xori	a5,a5,-2000
   19170:	0af11c23          	sh	a5,184(sp)
   19174:	000217b7          	lui	a5,0x21
   19178:	71c78793          	addi	a5,a5,1820 # 2171c <zeroes.4514+0x20>
   1917c:	04f12023          	sw	a5,64(sp)
   19180:	000aad83          	lw	s11,0(s5)
   19184:	00000d13          	li	s10,0
   19188:	00246413          	ori	s0,s0,2
   1918c:	00200793          	li	a5,2
   19190:	07800b13          	li	s6,120
   19194:	f89ff06f          	j	1911c <_svfprintf_r+0x1088>
   19198:	004a8793          	addi	a5,s5,4
   1919c:	00f12c23          	sw	a5,24(sp)
   191a0:	0a010ba3          	sb	zero,183(sp)
   191a4:	fff00793          	li	a5,-1
   191a8:	000aa483          	lw	s1,0(s5)
   191ac:	02fb8463          	beq	s7,a5,191d4 <_svfprintf_r+0x1140>
   191b0:	000b8613          	mv	a2,s7
   191b4:	00000593          	li	a1,0
   191b8:	00048513          	mv	a0,s1
   191bc:	d50fd0ef          	jal	ra,1670c <memchr>
   191c0:	00a12623          	sw	a0,12(sp)
   191c4:	e4050a63          	beqz	a0,18818 <_svfprintf_r+0x784>
   191c8:	40950bb3          	sub	s7,a0,s1
   191cc:	00012623          	sw	zero,12(sp)
   191d0:	e48ff06f          	j	18818 <_svfprintf_r+0x784>
   191d4:	00048513          	mv	a0,s1
   191d8:	804f80ef          	jal	ra,111dc <strlen>
   191dc:	00050b93          	mv	s7,a0
   191e0:	fedff06f          	j	191cc <_svfprintf_r+0x1138>
   191e4:	01046413          	ori	s0,s0,16
   191e8:	02047793          	andi	a5,s0,32
   191ec:	02078263          	beqz	a5,19210 <_svfprintf_r+0x117c>
   191f0:	007a8a93          	addi	s5,s5,7
   191f4:	ff8afa93          	andi	s5,s5,-8
   191f8:	000aad83          	lw	s11,0(s5)
   191fc:	004aad03          	lw	s10,4(s5)
   19200:	008a8793          	addi	a5,s5,8
   19204:	00f12c23          	sw	a5,24(sp)
   19208:	00100793          	li	a5,1
   1920c:	f11ff06f          	j	1911c <_svfprintf_r+0x1088>
   19210:	004a8793          	addi	a5,s5,4
   19214:	00f12c23          	sw	a5,24(sp)
   19218:	01047793          	andi	a5,s0,16
   1921c:	00078663          	beqz	a5,19228 <_svfprintf_r+0x1194>
   19220:	000aad83          	lw	s11,0(s5)
   19224:	0100006f          	j	19234 <_svfprintf_r+0x11a0>
   19228:	04047793          	andi	a5,s0,64
   1922c:	00078863          	beqz	a5,1923c <_svfprintf_r+0x11a8>
   19230:	000add83          	lhu	s11,0(s5)
   19234:	00000d13          	li	s10,0
   19238:	fd1ff06f          	j	19208 <_svfprintf_r+0x1174>
   1923c:	20047793          	andi	a5,s0,512
   19240:	fe0780e3          	beqz	a5,19220 <_svfprintf_r+0x118c>
   19244:	000acd83          	lbu	s11,0(s5)
   19248:	fedff06f          	j	19234 <_svfprintf_r+0x11a0>
   1924c:	000217b7          	lui	a5,0x21
   19250:	73078793          	addi	a5,a5,1840 # 21730 <zeroes.4514+0x34>
   19254:	04f12023          	sw	a5,64(sp)
   19258:	02047793          	andi	a5,s0,32
   1925c:	04078a63          	beqz	a5,192b0 <_svfprintf_r+0x121c>
   19260:	007a8a93          	addi	s5,s5,7
   19264:	ff8afa93          	andi	s5,s5,-8
   19268:	000aad83          	lw	s11,0(s5)
   1926c:	004aad03          	lw	s10,4(s5)
   19270:	008a8793          	addi	a5,s5,8
   19274:	00f12c23          	sw	a5,24(sp)
   19278:	00147793          	andi	a5,s0,1
   1927c:	00078e63          	beqz	a5,19298 <_svfprintf_r+0x1204>
   19280:	01ade7b3          	or	a5,s11,s10
   19284:	00078a63          	beqz	a5,19298 <_svfprintf_r+0x1204>
   19288:	03000793          	li	a5,48
   1928c:	0af10c23          	sb	a5,184(sp)
   19290:	0b610ca3          	sb	s6,185(sp)
   19294:	00246413          	ori	s0,s0,2
   19298:	bff47413          	andi	s0,s0,-1025
   1929c:	00200793          	li	a5,2
   192a0:	e7dff06f          	j	1911c <_svfprintf_r+0x1088>
   192a4:	000217b7          	lui	a5,0x21
   192a8:	71c78793          	addi	a5,a5,1820 # 2171c <zeroes.4514+0x20>
   192ac:	fa9ff06f          	j	19254 <_svfprintf_r+0x11c0>
   192b0:	004a8793          	addi	a5,s5,4
   192b4:	00f12c23          	sw	a5,24(sp)
   192b8:	01047793          	andi	a5,s0,16
   192bc:	00078663          	beqz	a5,192c8 <_svfprintf_r+0x1234>
   192c0:	000aad83          	lw	s11,0(s5)
   192c4:	0100006f          	j	192d4 <_svfprintf_r+0x1240>
   192c8:	04047793          	andi	a5,s0,64
   192cc:	00078863          	beqz	a5,192dc <_svfprintf_r+0x1248>
   192d0:	000add83          	lhu	s11,0(s5)
   192d4:	00000d13          	li	s10,0
   192d8:	fa1ff06f          	j	19278 <_svfprintf_r+0x11e4>
   192dc:	20047793          	andi	a5,s0,512
   192e0:	fe0780e3          	beqz	a5,192c0 <_svfprintf_r+0x122c>
   192e4:	000acd83          	lbu	s11,0(s5)
   192e8:	fedff06f          	j	192d4 <_svfprintf_r+0x1240>
   192ec:	00040713          	mv	a4,s0
   192f0:	00100793          	li	a5,1
   192f4:	c14ff06f          	j	18708 <_svfprintf_r+0x674>
   192f8:	00100713          	li	a4,1
   192fc:	48e78ce3          	beq	a5,a4,19f94 <_svfprintf_r+0x1f00>
   19300:	00200713          	li	a4,2
   19304:	12e78a63          	beq	a5,a4,19438 <_svfprintf_r+0x13a4>
   19308:	1a010793          	addi	a5,sp,416
   1930c:	01dd1693          	slli	a3,s10,0x1d
   19310:	007df713          	andi	a4,s11,7
   19314:	003ddd93          	srli	s11,s11,0x3
   19318:	03070713          	addi	a4,a4,48
   1931c:	01b6edb3          	or	s11,a3,s11
   19320:	003d5d13          	srli	s10,s10,0x3
   19324:	fee78fa3          	sb	a4,-1(a5)
   19328:	01ade6b3          	or	a3,s11,s10
   1932c:	fff78493          	addi	s1,a5,-1
   19330:	02069e63          	bnez	a3,1936c <_svfprintf_r+0x12d8>
   19334:	00147693          	andi	a3,s0,1
   19338:	00068a63          	beqz	a3,1934c <_svfprintf_r+0x12b8>
   1933c:	03000693          	li	a3,48
   19340:	00d70663          	beq	a4,a3,1934c <_svfprintf_r+0x12b8>
   19344:	fed48fa3          	sb	a3,-1(s1)
   19348:	ffe78493          	addi	s1,a5,-2
   1934c:	1a010793          	addi	a5,sp,416
   19350:	000b8a93          	mv	s5,s7
   19354:	00012623          	sw	zero,12(sp)
   19358:	40978bb3          	sub	s7,a5,s1
   1935c:	00000d13          	li	s10,0
   19360:	00000c93          	li	s9,0
   19364:	00000d93          	li	s11,0
   19368:	8b0ff06f          	j	18418 <_svfprintf_r+0x384>
   1936c:	00048793          	mv	a5,s1
   19370:	f9dff06f          	j	1930c <_svfprintf_r+0x1278>
   19374:	40047713          	andi	a4,s0,1024
   19378:	00000a13          	li	s4,0
   1937c:	1a010793          	addi	a5,sp,416
   19380:	00e12623          	sw	a4,12(sp)
   19384:	0ff00c93          	li	s9,255
   19388:	00900a93          	li	s5,9
   1938c:	00a00613          	li	a2,10
   19390:	00000693          	li	a3,0
   19394:	000d8513          	mv	a0,s11
   19398:	000d0593          	mv	a1,s10
   1939c:	fff78493          	addi	s1,a5,-1
   193a0:	02f12623          	sw	a5,44(sp)
   193a4:	264030ef          	jal	ra,1c608 <__umoddi3>
   193a8:	02c12783          	lw	a5,44(sp)
   193ac:	03050513          	addi	a0,a0,48
   193b0:	001a0a13          	addi	s4,s4,1
   193b4:	fea78fa3          	sb	a0,-1(a5)
   193b8:	00c12783          	lw	a5,12(sp)
   193bc:	04078863          	beqz	a5,1940c <_svfprintf_r+0x1378>
   193c0:	01012783          	lw	a5,16(sp)
   193c4:	0007c783          	lbu	a5,0(a5)
   193c8:	04fa1263          	bne	s4,a5,1940c <_svfprintf_r+0x1378>
   193cc:	059a0063          	beq	s4,s9,1940c <_svfprintf_r+0x1378>
   193d0:	000d1463          	bnez	s10,193d8 <_svfprintf_r+0x1344>
   193d4:	03bafc63          	bleu	s11,s5,1940c <_svfprintf_r+0x1378>
   193d8:	03012783          	lw	a5,48(sp)
   193dc:	03812583          	lw	a1,56(sp)
   193e0:	00000a13          	li	s4,0
   193e4:	40f484b3          	sub	s1,s1,a5
   193e8:	00078613          	mv	a2,a5
   193ec:	00048513          	mv	a0,s1
   193f0:	c6dfe0ef          	jal	ra,1805c <strncpy>
   193f4:	01012783          	lw	a5,16(sp)
   193f8:	0017c783          	lbu	a5,1(a5)
   193fc:	00078863          	beqz	a5,1940c <_svfprintf_r+0x1378>
   19400:	01012783          	lw	a5,16(sp)
   19404:	00178793          	addi	a5,a5,1
   19408:	00f12823          	sw	a5,16(sp)
   1940c:	00a00613          	li	a2,10
   19410:	00000693          	li	a3,0
   19414:	000d8513          	mv	a0,s11
   19418:	000d0593          	mv	a1,s10
   1941c:	5b9020ef          	jal	ra,1c1d4 <__udivdi3>
   19420:	000d1463          	bnez	s10,19428 <_svfprintf_r+0x1394>
   19424:	f3baf4e3          	bleu	s11,s5,1934c <_svfprintf_r+0x12b8>
   19428:	00050d93          	mv	s11,a0
   1942c:	00058d13          	mv	s10,a1
   19430:	00048793          	mv	a5,s1
   19434:	f59ff06f          	j	1938c <_svfprintf_r+0x12f8>
   19438:	1a010493          	addi	s1,sp,416
   1943c:	04012703          	lw	a4,64(sp)
   19440:	00fdf793          	andi	a5,s11,15
   19444:	fff48493          	addi	s1,s1,-1
   19448:	00f707b3          	add	a5,a4,a5
   1944c:	0007c783          	lbu	a5,0(a5)
   19450:	004ddd93          	srli	s11,s11,0x4
   19454:	00f48023          	sb	a5,0(s1)
   19458:	01cd1793          	slli	a5,s10,0x1c
   1945c:	01b7edb3          	or	s11,a5,s11
   19460:	004d5d13          	srli	s10,s10,0x4
   19464:	01ade7b3          	or	a5,s11,s10
   19468:	fc079ae3          	bnez	a5,1943c <_svfprintf_r+0x13a8>
   1946c:	ee1ff06f          	j	1934c <_svfprintf_r+0x12b8>
   19470:	1a010493          	addi	s1,sp,416
   19474:	ec079ce3          	bnez	a5,1934c <_svfprintf_r+0x12b8>
   19478:	00177713          	andi	a4,a4,1
   1947c:	ec0708e3          	beqz	a4,1934c <_svfprintf_r+0x12b8>
   19480:	03000793          	li	a5,48
   19484:	18f10fa3          	sb	a5,415(sp)
   19488:	3210006f          	j	19fa8 <_svfprintf_r+0x1f14>
   1948c:	2e0b00e3          	beqz	s6,19f6c <_svfprintf_r+0x1ed8>
   19490:	13610e23          	sb	s6,316(sp)
   19494:	0a010ba3          	sb	zero,183(sp)
   19498:	01512c23          	sw	s5,24(sp)
   1949c:	f61fe06f          	j	183fc <_svfprintf_r+0x368>
   194a0:	01060613          	addi	a2,a2,16
   194a4:	01dc2223          	sw	t4,4(s8)
   194a8:	0cc12e23          	sw	a2,220(sp)
   194ac:	0cd12c23          	sw	a3,216(sp)
   194b0:	02df5a63          	ble	a3,t5,194e4 <_svfprintf_r+0x1450>
   194b4:	0d410613          	addi	a2,sp,212
   194b8:	00098593          	mv	a1,s3
   194bc:	00090513          	mv	a0,s2
   194c0:	04e12823          	sw	a4,80(sp)
   194c4:	685010ef          	jal	ra,1b348 <__ssprint_r>
   194c8:	240510e3          	bnez	a0,19f08 <_svfprintf_r+0x1e74>
   194cc:	05012703          	lw	a4,80(sp)
   194d0:	000227b7          	lui	a5,0x22
   194d4:	0fc10593          	addi	a1,sp,252
   194d8:	00700f13          	li	t5,7
   194dc:	c6c78e13          	addi	t3,a5,-916 # 21c6c <blanks.4498>
   194e0:	01000e93          	li	t4,16
   194e4:	ff070713          	addi	a4,a4,-16
   194e8:	00058c13          	mv	s8,a1
   194ec:	f91fe06f          	j	1847c <_svfprintf_r+0x3e8>
   194f0:	01070713          	addi	a4,a4,16
   194f4:	01cc2223          	sw	t3,4(s8)
   194f8:	0ce12e23          	sw	a4,220(sp)
   194fc:	0cd12c23          	sw	a3,216(sp)
   19500:	02ded663          	ble	a3,t4,1952c <_svfprintf_r+0x1498>
   19504:	0d410613          	addi	a2,sp,212
   19508:	00098593          	mv	a1,s3
   1950c:	00090513          	mv	a0,s2
   19510:	04f12223          	sw	a5,68(sp)
   19514:	635010ef          	jal	ra,1b348 <__ssprint_r>
   19518:	1e0518e3          	bnez	a0,19f08 <_svfprintf_r+0x1e74>
   1951c:	04412783          	lw	a5,68(sp)
   19520:	0fc10613          	addi	a2,sp,252
   19524:	00700e93          	li	t4,7
   19528:	01000e13          	li	t3,16
   1952c:	ff078793          	addi	a5,a5,-16
   19530:	00060c13          	mv	s8,a2
   19534:	870ff06f          	j	185a4 <_svfprintf_r+0x510>
   19538:	01068693          	addi	a3,a3,16
   1953c:	010c2223          	sw	a6,4(s8)
   19540:	0cd12e23          	sw	a3,220(sp)
   19544:	0ce12c23          	sw	a4,216(sp)
   19548:	02ee5263          	ble	a4,t3,1956c <_svfprintf_r+0x14d8>
   1954c:	0d410613          	addi	a2,sp,212
   19550:	00098593          	mv	a1,s3
   19554:	00090513          	mv	a0,s2
   19558:	5f1010ef          	jal	ra,1b348 <__ssprint_r>
   1955c:	1a0516e3          	bnez	a0,19f08 <_svfprintf_r+0x1e74>
   19560:	0fc10613          	addi	a2,sp,252
   19564:	00700e13          	li	t3,7
   19568:	01000813          	li	a6,16
   1956c:	ff0a8a93          	addi	s5,s5,-16
   19570:	00060c13          	mv	s8,a2
   19574:	894ff06f          	j	18608 <_svfprintf_r+0x574>
   19578:	06500693          	li	a3,101
   1957c:	7366d463          	ble	s6,a3,19ca4 <_svfprintf_r+0x1c10>
   19580:	0e012683          	lw	a3,224(sp)
   19584:	09010593          	addi	a1,sp,144
   19588:	0a010513          	addi	a0,sp,160
   1958c:	0ad12023          	sw	a3,160(sp)
   19590:	0e412683          	lw	a3,228(sp)
   19594:	04e12223          	sw	a4,68(sp)
   19598:	08012823          	sw	zero,144(sp)
   1959c:	0ad12223          	sw	a3,164(sp)
   195a0:	0e812683          	lw	a3,232(sp)
   195a4:	08012a23          	sw	zero,148(sp)
   195a8:	08012c23          	sw	zero,152(sp)
   195ac:	0ad12423          	sw	a3,168(sp)
   195b0:	0ec12683          	lw	a3,236(sp)
   195b4:	08012e23          	sw	zero,156(sp)
   195b8:	0ad12623          	sw	a3,172(sp)
   195bc:	0ec040ef          	jal	ra,1d6a8 <__eqtf2>
   195c0:	04412703          	lw	a4,68(sp)
   195c4:	12051a63          	bnez	a0,196f8 <_svfprintf_r+0x1664>
   195c8:	000217b7          	lui	a5,0x21
   195cc:	74478793          	addi	a5,a5,1860 # 21744 <zeroes.4514+0x48>
   195d0:	00fc2023          	sw	a5,0(s8)
   195d4:	00100793          	li	a5,1
   195d8:	00fc2223          	sw	a5,4(s8)
   195dc:	0d812783          	lw	a5,216(sp)
   195e0:	00170713          	addi	a4,a4,1
   195e4:	0ce12e23          	sw	a4,220(sp)
   195e8:	00178793          	addi	a5,a5,1
   195ec:	0cf12c23          	sw	a5,216(sp)
   195f0:	00700713          	li	a4,7
   195f4:	008c0c13          	addi	s8,s8,8
   195f8:	00f75e63          	ble	a5,a4,19614 <_svfprintf_r+0x1580>
   195fc:	0d410613          	addi	a2,sp,212
   19600:	00098593          	mv	a1,s3
   19604:	00090513          	mv	a0,s2
   19608:	541010ef          	jal	ra,1b348 <__ssprint_r>
   1960c:	0e051ee3          	bnez	a0,19f08 <_svfprintf_r+0x1e74>
   19610:	0fc10c13          	addi	s8,sp,252
   19614:	0bc12783          	lw	a5,188(sp)
   19618:	0147c663          	blt	a5,s4,19624 <_svfprintf_r+0x1590>
   1961c:	00147793          	andi	a5,s0,1
   19620:	22078063          	beqz	a5,19840 <_svfprintf_r+0x17ac>
   19624:	03412783          	lw	a5,52(sp)
   19628:	02012703          	lw	a4,32(sp)
   1962c:	008c0c13          	addi	s8,s8,8
   19630:	fefc2c23          	sw	a5,-8(s8)
   19634:	02012783          	lw	a5,32(sp)
   19638:	fefc2e23          	sw	a5,-4(s8)
   1963c:	0dc12783          	lw	a5,220(sp)
   19640:	00e787b3          	add	a5,a5,a4
   19644:	0cf12e23          	sw	a5,220(sp)
   19648:	0d812783          	lw	a5,216(sp)
   1964c:	00700713          	li	a4,7
   19650:	00178793          	addi	a5,a5,1
   19654:	0cf12c23          	sw	a5,216(sp)
   19658:	00f75e63          	ble	a5,a4,19674 <_svfprintf_r+0x15e0>
   1965c:	0d410613          	addi	a2,sp,212
   19660:	00098593          	mv	a1,s3
   19664:	00090513          	mv	a0,s2
   19668:	4e1010ef          	jal	ra,1b348 <__ssprint_r>
   1966c:	08051ee3          	bnez	a0,19f08 <_svfprintf_r+0x1e74>
   19670:	0fc10c13          	addi	s8,sp,252
   19674:	fffa0493          	addi	s1,s4,-1
   19678:	1c905463          	blez	s1,19840 <_svfprintf_r+0x17ac>
   1967c:	01000a93          	li	s5,16
   19680:	00700b13          	li	s6,7
   19684:	01412603          	lw	a2,20(sp)
   19688:	0d812783          	lw	a5,216(sp)
   1968c:	0dc12703          	lw	a4,220(sp)
   19690:	00cc2023          	sw	a2,0(s8)
   19694:	00178793          	addi	a5,a5,1
   19698:	008c0693          	addi	a3,s8,8
   1969c:	029ac263          	blt	s5,s1,196c0 <_svfprintf_r+0x162c>
   196a0:	009c2223          	sw	s1,4(s8)
   196a4:	00e484b3          	add	s1,s1,a4
   196a8:	0c912e23          	sw	s1,220(sp)
   196ac:	0cf12c23          	sw	a5,216(sp)
   196b0:	00700713          	li	a4,7
   196b4:	00068c13          	mv	s8,a3
   196b8:	18f75463          	ble	a5,a4,19840 <_svfprintf_r+0x17ac>
   196bc:	fd9fe06f          	j	18694 <_svfprintf_r+0x600>
   196c0:	01070713          	addi	a4,a4,16
   196c4:	015c2223          	sw	s5,4(s8)
   196c8:	0ce12e23          	sw	a4,220(sp)
   196cc:	0cf12c23          	sw	a5,216(sp)
   196d0:	00fb5e63          	ble	a5,s6,196ec <_svfprintf_r+0x1658>
   196d4:	0d410613          	addi	a2,sp,212
   196d8:	00098593          	mv	a1,s3
   196dc:	00090513          	mv	a0,s2
   196e0:	469010ef          	jal	ra,1b348 <__ssprint_r>
   196e4:	020512e3          	bnez	a0,19f08 <_svfprintf_r+0x1e74>
   196e8:	0fc10693          	addi	a3,sp,252
   196ec:	ff048493          	addi	s1,s1,-16
   196f0:	00068c13          	mv	s8,a3
   196f4:	f91ff06f          	j	19684 <_svfprintf_r+0x15f0>
   196f8:	0bc12683          	lw	a3,188(sp)
   196fc:	1cd04863          	bgtz	a3,198cc <_svfprintf_r+0x1838>
   19700:	000217b7          	lui	a5,0x21
   19704:	74478793          	addi	a5,a5,1860 # 21744 <zeroes.4514+0x48>
   19708:	00fc2023          	sw	a5,0(s8)
   1970c:	00100793          	li	a5,1
   19710:	00fc2223          	sw	a5,4(s8)
   19714:	0d812783          	lw	a5,216(sp)
   19718:	00170713          	addi	a4,a4,1
   1971c:	0ce12e23          	sw	a4,220(sp)
   19720:	00178793          	addi	a5,a5,1
   19724:	0cf12c23          	sw	a5,216(sp)
   19728:	00700713          	li	a4,7
   1972c:	008c0c13          	addi	s8,s8,8
   19730:	00f75e63          	ble	a5,a4,1974c <_svfprintf_r+0x16b8>
   19734:	0d410613          	addi	a2,sp,212
   19738:	00098593          	mv	a1,s3
   1973c:	00090513          	mv	a0,s2
   19740:	409010ef          	jal	ra,1b348 <__ssprint_r>
   19744:	7c051263          	bnez	a0,19f08 <_svfprintf_r+0x1e74>
   19748:	0fc10c13          	addi	s8,sp,252
   1974c:	0bc12783          	lw	a5,188(sp)
   19750:	00147693          	andi	a3,s0,1
   19754:	0dc12703          	lw	a4,220(sp)
   19758:	00fa67b3          	or	a5,s4,a5
   1975c:	00d7e7b3          	or	a5,a5,a3
   19760:	0e078063          	beqz	a5,19840 <_svfprintf_r+0x17ac>
   19764:	03412783          	lw	a5,52(sp)
   19768:	008c0893          	addi	a7,s8,8
   1976c:	00fc2023          	sw	a5,0(s8)
   19770:	02012783          	lw	a5,32(sp)
   19774:	00fc2223          	sw	a5,4(s8)
   19778:	00e787b3          	add	a5,a5,a4
   1977c:	0cf12e23          	sw	a5,220(sp)
   19780:	0d812783          	lw	a5,216(sp)
   19784:	00700713          	li	a4,7
   19788:	00178793          	addi	a5,a5,1
   1978c:	0cf12c23          	sw	a5,216(sp)
   19790:	00f75e63          	ble	a5,a4,197ac <_svfprintf_r+0x1718>
   19794:	0d410613          	addi	a2,sp,212
   19798:	00098593          	mv	a1,s3
   1979c:	00090513          	mv	a0,s2
   197a0:	3a9010ef          	jal	ra,1b348 <__ssprint_r>
   197a4:	76051263          	bnez	a0,19f08 <_svfprintf_r+0x1e74>
   197a8:	0fc10893          	addi	a7,sp,252
   197ac:	0bc12a83          	lw	s5,188(sp)
   197b0:	060ad063          	bgez	s5,19810 <_svfprintf_r+0x177c>
   197b4:	41500ab3          	neg	s5,s5
   197b8:	00088713          	mv	a4,a7
   197bc:	01000b13          	li	s6,16
   197c0:	00700c93          	li	s9,7
   197c4:	01412603          	lw	a2,20(sp)
   197c8:	0d812783          	lw	a5,216(sp)
   197cc:	0dc12683          	lw	a3,220(sp)
   197d0:	00c72023          	sw	a2,0(a4)
   197d4:	00178793          	addi	a5,a5,1
   197d8:	00888893          	addi	a7,a7,8
   197dc:	0b5b4c63          	blt	s6,s5,19894 <_svfprintf_r+0x1800>
   197e0:	01572223          	sw	s5,4(a4)
   197e4:	00da8ab3          	add	s5,s5,a3
   197e8:	0d512e23          	sw	s5,220(sp)
   197ec:	0cf12c23          	sw	a5,216(sp)
   197f0:	00700713          	li	a4,7
   197f4:	00f75e63          	ble	a5,a4,19810 <_svfprintf_r+0x177c>
   197f8:	0d410613          	addi	a2,sp,212
   197fc:	00098593          	mv	a1,s3
   19800:	00090513          	mv	a0,s2
   19804:	345010ef          	jal	ra,1b348 <__ssprint_r>
   19808:	70051063          	bnez	a0,19f08 <_svfprintf_r+0x1e74>
   1980c:	0fc10893          	addi	a7,sp,252
   19810:	0dc12783          	lw	a5,220(sp)
   19814:	0098a023          	sw	s1,0(a7)
   19818:	0148a223          	sw	s4,4(a7)
   1981c:	014787b3          	add	a5,a5,s4
   19820:	0cf12e23          	sw	a5,220(sp)
   19824:	0d812783          	lw	a5,216(sp)
   19828:	00700713          	li	a4,7
   1982c:	00888c13          	addi	s8,a7,8
   19830:	00178793          	addi	a5,a5,1
   19834:	0cf12c23          	sw	a5,216(sp)
   19838:	00f75463          	ble	a5,a4,19840 <_svfprintf_r+0x17ac>
   1983c:	e59fe06f          	j	18694 <_svfprintf_r+0x600>
   19840:	00447413          	andi	s0,s0,4
   19844:	66041263          	bnez	s0,19ea8 <_svfprintf_r+0x1e14>
   19848:	02812b03          	lw	s6,40(sp)
   1984c:	02c12783          	lw	a5,44(sp)
   19850:	00fb5463          	ble	a5,s6,19858 <_svfprintf_r+0x17c4>
   19854:	00078b13          	mv	s6,a5
   19858:	02412783          	lw	a5,36(sp)
   1985c:	016787b3          	add	a5,a5,s6
   19860:	02f12223          	sw	a5,36(sp)
   19864:	0dc12783          	lw	a5,220(sp)
   19868:	00078c63          	beqz	a5,19880 <_svfprintf_r+0x17ec>
   1986c:	0d410613          	addi	a2,sp,212
   19870:	00098593          	mv	a1,s3
   19874:	00090513          	mv	a0,s2
   19878:	2d1010ef          	jal	ra,1b348 <__ssprint_r>
   1987c:	68051663          	bnez	a0,19f08 <_svfprintf_r+0x1e74>
   19880:	00c12783          	lw	a5,12(sp)
   19884:	0c012c23          	sw	zero,216(sp)
   19888:	6c079a63          	bnez	a5,19f5c <_svfprintf_r+0x1ec8>
   1988c:	0fc10c13          	addi	s8,sp,252
   19890:	819ff06f          	j	190a8 <_svfprintf_r+0x1014>
   19894:	01068693          	addi	a3,a3,16
   19898:	01672223          	sw	s6,4(a4)
   1989c:	0cd12e23          	sw	a3,220(sp)
   198a0:	0cf12c23          	sw	a5,216(sp)
   198a4:	00fcde63          	ble	a5,s9,198c0 <_svfprintf_r+0x182c>
   198a8:	0d410613          	addi	a2,sp,212
   198ac:	00098593          	mv	a1,s3
   198b0:	00090513          	mv	a0,s2
   198b4:	295010ef          	jal	ra,1b348 <__ssprint_r>
   198b8:	64051863          	bnez	a0,19f08 <_svfprintf_r+0x1e74>
   198bc:	0fc10893          	addi	a7,sp,252
   198c0:	ff0a8a93          	addi	s5,s5,-16
   198c4:	00088713          	mv	a4,a7
   198c8:	efdff06f          	j	197c4 <_svfprintf_r+0x1730>
   198cc:	000d8a93          	mv	s5,s11
   198d0:	01ba5463          	ble	s11,s4,198d8 <_svfprintf_r+0x1844>
   198d4:	000a0a93          	mv	s5,s4
   198d8:	05505263          	blez	s5,1991c <_svfprintf_r+0x1888>
   198dc:	00ea8733          	add	a4,s5,a4
   198e0:	0ce12e23          	sw	a4,220(sp)
   198e4:	0d812703          	lw	a4,216(sp)
   198e8:	009c2023          	sw	s1,0(s8)
   198ec:	015c2223          	sw	s5,4(s8)
   198f0:	00170713          	addi	a4,a4,1
   198f4:	0ce12c23          	sw	a4,216(sp)
   198f8:	00700693          	li	a3,7
   198fc:	008c0c13          	addi	s8,s8,8
   19900:	00e6de63          	ble	a4,a3,1991c <_svfprintf_r+0x1888>
   19904:	0d410613          	addi	a2,sp,212
   19908:	00098593          	mv	a1,s3
   1990c:	00090513          	mv	a0,s2
   19910:	239010ef          	jal	ra,1b348 <__ssprint_r>
   19914:	5e051a63          	bnez	a0,19f08 <_svfprintf_r+0x1e74>
   19918:	0fc10c13          	addi	s8,sp,252
   1991c:	000ad463          	bgez	s5,19924 <_svfprintf_r+0x1890>
   19920:	00000a93          	li	s5,0
   19924:	415d8ab3          	sub	s5,s11,s5
   19928:	05505e63          	blez	s5,19984 <_svfprintf_r+0x18f0>
   1992c:	01000b13          	li	s6,16
   19930:	00700b93          	li	s7,7
   19934:	01412783          	lw	a5,20(sp)
   19938:	0d812703          	lw	a4,216(sp)
   1993c:	0dc12683          	lw	a3,220(sp)
   19940:	00fc2023          	sw	a5,0(s8)
   19944:	00170713          	addi	a4,a4,1
   19948:	008c0613          	addi	a2,s8,8
   1994c:	195b4c63          	blt	s6,s5,19ae4 <_svfprintf_r+0x1a50>
   19950:	015c2223          	sw	s5,4(s8)
   19954:	00da8ab3          	add	s5,s5,a3
   19958:	0d512e23          	sw	s5,220(sp)
   1995c:	0ce12c23          	sw	a4,216(sp)
   19960:	00700693          	li	a3,7
   19964:	00060c13          	mv	s8,a2
   19968:	00e6de63          	ble	a4,a3,19984 <_svfprintf_r+0x18f0>
   1996c:	0d410613          	addi	a2,sp,212
   19970:	00098593          	mv	a1,s3
   19974:	00090513          	mv	a0,s2
   19978:	1d1010ef          	jal	ra,1b348 <__ssprint_r>
   1997c:	58051663          	bnez	a0,19f08 <_svfprintf_r+0x1e74>
   19980:	0fc10c13          	addi	s8,sp,252
   19984:	40047793          	andi	a5,s0,1024
   19988:	01b48ab3          	add	s5,s1,s11
   1998c:	02078063          	beqz	a5,199ac <_svfprintf_r+0x1918>
   19990:	00700b13          	li	s6,7
   19994:	01448bb3          	add	s7,s1,s4
   19998:	180c9263          	bnez	s9,19b1c <_svfprintf_r+0x1a88>
   1999c:	180d1263          	bnez	s10,19b20 <_svfprintf_r+0x1a8c>
   199a0:	014487b3          	add	a5,s1,s4
   199a4:	0157f463          	bleu	s5,a5,199ac <_svfprintf_r+0x1918>
   199a8:	00078a93          	mv	s5,a5
   199ac:	0bc12783          	lw	a5,188(sp)
   199b0:	0147c663          	blt	a5,s4,199bc <_svfprintf_r+0x1928>
   199b4:	00147793          	andi	a5,s0,1
   199b8:	04078a63          	beqz	a5,19a0c <_svfprintf_r+0x1978>
   199bc:	03412783          	lw	a5,52(sp)
   199c0:	02012703          	lw	a4,32(sp)
   199c4:	008c0c13          	addi	s8,s8,8
   199c8:	fefc2c23          	sw	a5,-8(s8)
   199cc:	02012783          	lw	a5,32(sp)
   199d0:	fefc2e23          	sw	a5,-4(s8)
   199d4:	0dc12783          	lw	a5,220(sp)
   199d8:	00e787b3          	add	a5,a5,a4
   199dc:	0cf12e23          	sw	a5,220(sp)
   199e0:	0d812783          	lw	a5,216(sp)
   199e4:	00700713          	li	a4,7
   199e8:	00178793          	addi	a5,a5,1
   199ec:	0cf12c23          	sw	a5,216(sp)
   199f0:	00f75e63          	ble	a5,a4,19a0c <_svfprintf_r+0x1978>
   199f4:	0d410613          	addi	a2,sp,212
   199f8:	00098593          	mv	a1,s3
   199fc:	00090513          	mv	a0,s2
   19a00:	149010ef          	jal	ra,1b348 <__ssprint_r>
   19a04:	50051263          	bnez	a0,19f08 <_svfprintf_r+0x1e74>
   19a08:	0fc10c13          	addi	s8,sp,252
   19a0c:	014484b3          	add	s1,s1,s4
   19a10:	415487b3          	sub	a5,s1,s5
   19a14:	0bc12483          	lw	s1,188(sp)
   19a18:	409a04b3          	sub	s1,s4,s1
   19a1c:	0097d463          	ble	s1,a5,19a24 <_svfprintf_r+0x1990>
   19a20:	00078493          	mv	s1,a5
   19a24:	04905463          	blez	s1,19a6c <_svfprintf_r+0x19d8>
   19a28:	0dc12783          	lw	a5,220(sp)
   19a2c:	015c2023          	sw	s5,0(s8)
   19a30:	009c2223          	sw	s1,4(s8)
   19a34:	00f487b3          	add	a5,s1,a5
   19a38:	0cf12e23          	sw	a5,220(sp)
   19a3c:	0d812783          	lw	a5,216(sp)
   19a40:	00700713          	li	a4,7
   19a44:	008c0c13          	addi	s8,s8,8
   19a48:	00178793          	addi	a5,a5,1
   19a4c:	0cf12c23          	sw	a5,216(sp)
   19a50:	00f75e63          	ble	a5,a4,19a6c <_svfprintf_r+0x19d8>
   19a54:	0d410613          	addi	a2,sp,212
   19a58:	00098593          	mv	a1,s3
   19a5c:	00090513          	mv	a0,s2
   19a60:	0e9010ef          	jal	ra,1b348 <__ssprint_r>
   19a64:	4a051263          	bnez	a0,19f08 <_svfprintf_r+0x1e74>
   19a68:	0fc10c13          	addi	s8,sp,252
   19a6c:	00048793          	mv	a5,s1
   19a70:	0004d463          	bgez	s1,19a78 <_svfprintf_r+0x19e4>
   19a74:	00000793          	li	a5,0
   19a78:	0bc12483          	lw	s1,188(sp)
   19a7c:	409a04b3          	sub	s1,s4,s1
   19a80:	40f484b3          	sub	s1,s1,a5
   19a84:	da905ee3          	blez	s1,19840 <_svfprintf_r+0x17ac>
   19a88:	01000a93          	li	s5,16
   19a8c:	00700b13          	li	s6,7
   19a90:	01412603          	lw	a2,20(sp)
   19a94:	0d812783          	lw	a5,216(sp)
   19a98:	0dc12703          	lw	a4,220(sp)
   19a9c:	00cc2023          	sw	a2,0(s8)
   19aa0:	00178793          	addi	a5,a5,1
   19aa4:	008c0693          	addi	a3,s8,8
   19aa8:	be9adce3          	ble	s1,s5,196a0 <_svfprintf_r+0x160c>
   19aac:	01070713          	addi	a4,a4,16
   19ab0:	015c2223          	sw	s5,4(s8)
   19ab4:	0ce12e23          	sw	a4,220(sp)
   19ab8:	0cf12c23          	sw	a5,216(sp)
   19abc:	00fb5e63          	ble	a5,s6,19ad8 <_svfprintf_r+0x1a44>
   19ac0:	0d410613          	addi	a2,sp,212
   19ac4:	00098593          	mv	a1,s3
   19ac8:	00090513          	mv	a0,s2
   19acc:	07d010ef          	jal	ra,1b348 <__ssprint_r>
   19ad0:	42051c63          	bnez	a0,19f08 <_svfprintf_r+0x1e74>
   19ad4:	0fc10693          	addi	a3,sp,252
   19ad8:	ff048493          	addi	s1,s1,-16
   19adc:	00068c13          	mv	s8,a3
   19ae0:	fb1ff06f          	j	19a90 <_svfprintf_r+0x19fc>
   19ae4:	01068693          	addi	a3,a3,16
   19ae8:	016c2223          	sw	s6,4(s8)
   19aec:	0cd12e23          	sw	a3,220(sp)
   19af0:	0ce12c23          	sw	a4,216(sp)
   19af4:	00ebde63          	ble	a4,s7,19b10 <_svfprintf_r+0x1a7c>
   19af8:	0d410613          	addi	a2,sp,212
   19afc:	00098593          	mv	a1,s3
   19b00:	00090513          	mv	a0,s2
   19b04:	045010ef          	jal	ra,1b348 <__ssprint_r>
   19b08:	40051063          	bnez	a0,19f08 <_svfprintf_r+0x1e74>
   19b0c:	0fc10613          	addi	a2,sp,252
   19b10:	ff0a8a93          	addi	s5,s5,-16
   19b14:	00060c13          	mv	s8,a2
   19b18:	e1dff06f          	j	19934 <_svfprintf_r+0x18a0>
   19b1c:	0e0d0263          	beqz	s10,19c00 <_svfprintf_r+0x1b6c>
   19b20:	fffd0d13          	addi	s10,s10,-1
   19b24:	03812783          	lw	a5,56(sp)
   19b28:	03012703          	lw	a4,48(sp)
   19b2c:	008c0c13          	addi	s8,s8,8
   19b30:	fefc2c23          	sw	a5,-8(s8)
   19b34:	03012783          	lw	a5,48(sp)
   19b38:	fefc2e23          	sw	a5,-4(s8)
   19b3c:	0dc12783          	lw	a5,220(sp)
   19b40:	00e787b3          	add	a5,a5,a4
   19b44:	0cf12e23          	sw	a5,220(sp)
   19b48:	0d812783          	lw	a5,216(sp)
   19b4c:	00178793          	addi	a5,a5,1
   19b50:	0cf12c23          	sw	a5,216(sp)
   19b54:	00fb5e63          	ble	a5,s6,19b70 <_svfprintf_r+0x1adc>
   19b58:	0d410613          	addi	a2,sp,212
   19b5c:	00098593          	mv	a1,s3
   19b60:	00090513          	mv	a0,s2
   19b64:	7e4010ef          	jal	ra,1b348 <__ssprint_r>
   19b68:	3a051063          	bnez	a0,19f08 <_svfprintf_r+0x1e74>
   19b6c:	0fc10c13          	addi	s8,sp,252
   19b70:	01012783          	lw	a5,16(sp)
   19b74:	415b8733          	sub	a4,s7,s5
   19b78:	0007c783          	lbu	a5,0(a5)
   19b7c:	00f75463          	ble	a5,a4,19b84 <_svfprintf_r+0x1af0>
   19b80:	00070793          	mv	a5,a4
   19b84:	04f05663          	blez	a5,19bd0 <_svfprintf_r+0x1b3c>
   19b88:	0dc12703          	lw	a4,220(sp)
   19b8c:	015c2023          	sw	s5,0(s8)
   19b90:	00fc2223          	sw	a5,4(s8)
   19b94:	00e78733          	add	a4,a5,a4
   19b98:	0ce12e23          	sw	a4,220(sp)
   19b9c:	0d812703          	lw	a4,216(sp)
   19ba0:	008c0c13          	addi	s8,s8,8
   19ba4:	00170713          	addi	a4,a4,1
   19ba8:	0ce12c23          	sw	a4,216(sp)
   19bac:	02eb5263          	ble	a4,s6,19bd0 <_svfprintf_r+0x1b3c>
   19bb0:	0d410613          	addi	a2,sp,212
   19bb4:	00098593          	mv	a1,s3
   19bb8:	00090513          	mv	a0,s2
   19bbc:	04f12223          	sw	a5,68(sp)
   19bc0:	788010ef          	jal	ra,1b348 <__ssprint_r>
   19bc4:	34051263          	bnez	a0,19f08 <_svfprintf_r+0x1e74>
   19bc8:	04412783          	lw	a5,68(sp)
   19bcc:	0fc10c13          	addi	s8,sp,252
   19bd0:	00078713          	mv	a4,a5
   19bd4:	0007d463          	bgez	a5,19bdc <_svfprintf_r+0x1b48>
   19bd8:	00000713          	li	a4,0
   19bdc:	01012783          	lw	a5,16(sp)
   19be0:	01000813          	li	a6,16
   19be4:	0007c783          	lbu	a5,0(a5)
   19be8:	40e787b3          	sub	a5,a5,a4
   19bec:	06f04463          	bgtz	a5,19c54 <_svfprintf_r+0x1bc0>
   19bf0:	01012783          	lw	a5,16(sp)
   19bf4:	0007c783          	lbu	a5,0(a5)
   19bf8:	00fa8ab3          	add	s5,s5,a5
   19bfc:	d9dff06f          	j	19998 <_svfprintf_r+0x1904>
   19c00:	01012783          	lw	a5,16(sp)
   19c04:	fffc8c93          	addi	s9,s9,-1
   19c08:	fff78793          	addi	a5,a5,-1
   19c0c:	00f12823          	sw	a5,16(sp)
   19c10:	f15ff06f          	j	19b24 <_svfprintf_r+0x1a90>
   19c14:	01068693          	addi	a3,a3,16
   19c18:	010c2223          	sw	a6,4(s8)
   19c1c:	0cd12e23          	sw	a3,220(sp)
   19c20:	0ce12c23          	sw	a4,216(sp)
   19c24:	02eb5463          	ble	a4,s6,19c4c <_svfprintf_r+0x1bb8>
   19c28:	0d410613          	addi	a2,sp,212
   19c2c:	00098593          	mv	a1,s3
   19c30:	00090513          	mv	a0,s2
   19c34:	04f12223          	sw	a5,68(sp)
   19c38:	710010ef          	jal	ra,1b348 <__ssprint_r>
   19c3c:	2c051663          	bnez	a0,19f08 <_svfprintf_r+0x1e74>
   19c40:	04412783          	lw	a5,68(sp)
   19c44:	0fc10613          	addi	a2,sp,252
   19c48:	01000813          	li	a6,16
   19c4c:	ff078793          	addi	a5,a5,-16
   19c50:	00060c13          	mv	s8,a2
   19c54:	01412583          	lw	a1,20(sp)
   19c58:	0d812703          	lw	a4,216(sp)
   19c5c:	0dc12683          	lw	a3,220(sp)
   19c60:	00bc2023          	sw	a1,0(s8)
   19c64:	00170713          	addi	a4,a4,1
   19c68:	008c0613          	addi	a2,s8,8
   19c6c:	faf844e3          	blt	a6,a5,19c14 <_svfprintf_r+0x1b80>
   19c70:	00fc2223          	sw	a5,4(s8)
   19c74:	00d787b3          	add	a5,a5,a3
   19c78:	0cf12e23          	sw	a5,220(sp)
   19c7c:	0ce12c23          	sw	a4,216(sp)
   19c80:	00060c13          	mv	s8,a2
   19c84:	f6eb56e3          	ble	a4,s6,19bf0 <_svfprintf_r+0x1b5c>
   19c88:	0d410613          	addi	a2,sp,212
   19c8c:	00098593          	mv	a1,s3
   19c90:	00090513          	mv	a0,s2
   19c94:	6b4010ef          	jal	ra,1b348 <__ssprint_r>
   19c98:	26051863          	bnez	a0,19f08 <_svfprintf_r+0x1e74>
   19c9c:	0fc10c13          	addi	s8,sp,252
   19ca0:	f51ff06f          	j	19bf0 <_svfprintf_r+0x1b5c>
   19ca4:	0d812783          	lw	a5,216(sp)
   19ca8:	00100693          	li	a3,1
   19cac:	009c2023          	sw	s1,0(s8)
   19cb0:	00170713          	addi	a4,a4,1
   19cb4:	00178793          	addi	a5,a5,1
   19cb8:	008c0b13          	addi	s6,s8,8
   19cbc:	0146c663          	blt	a3,s4,19cc8 <_svfprintf_r+0x1c34>
   19cc0:	00147613          	andi	a2,s0,1
   19cc4:	1c060663          	beqz	a2,19e90 <_svfprintf_r+0x1dfc>
   19cc8:	00100693          	li	a3,1
   19ccc:	0ce12e23          	sw	a4,220(sp)
   19cd0:	00dc2223          	sw	a3,4(s8)
   19cd4:	0cf12c23          	sw	a5,216(sp)
   19cd8:	00700713          	li	a4,7
   19cdc:	00f75e63          	ble	a5,a4,19cf8 <_svfprintf_r+0x1c64>
   19ce0:	0d410613          	addi	a2,sp,212
   19ce4:	00098593          	mv	a1,s3
   19ce8:	00090513          	mv	a0,s2
   19cec:	65c010ef          	jal	ra,1b348 <__ssprint_r>
   19cf0:	20051c63          	bnez	a0,19f08 <_svfprintf_r+0x1e74>
   19cf4:	0fc10b13          	addi	s6,sp,252
   19cf8:	03412783          	lw	a5,52(sp)
   19cfc:	02012703          	lw	a4,32(sp)
   19d00:	008b0b13          	addi	s6,s6,8
   19d04:	fefb2c23          	sw	a5,-8(s6)
   19d08:	02012783          	lw	a5,32(sp)
   19d0c:	fefb2e23          	sw	a5,-4(s6)
   19d10:	0dc12783          	lw	a5,220(sp)
   19d14:	00e787b3          	add	a5,a5,a4
   19d18:	0cf12e23          	sw	a5,220(sp)
   19d1c:	0d812783          	lw	a5,216(sp)
   19d20:	00700713          	li	a4,7
   19d24:	00178793          	addi	a5,a5,1
   19d28:	0cf12c23          	sw	a5,216(sp)
   19d2c:	00f75e63          	ble	a5,a4,19d48 <_svfprintf_r+0x1cb4>
   19d30:	0d410613          	addi	a2,sp,212
   19d34:	00098593          	mv	a1,s3
   19d38:	00090513          	mv	a0,s2
   19d3c:	60c010ef          	jal	ra,1b348 <__ssprint_r>
   19d40:	1c051463          	bnez	a0,19f08 <_svfprintf_r+0x1e74>
   19d44:	0fc10b13          	addi	s6,sp,252
   19d48:	0e012783          	lw	a5,224(sp)
   19d4c:	09010593          	addi	a1,sp,144
   19d50:	0a010513          	addi	a0,sp,160
   19d54:	0af12023          	sw	a5,160(sp)
   19d58:	0e412783          	lw	a5,228(sp)
   19d5c:	fffa0a93          	addi	s5,s4,-1
   19d60:	08012823          	sw	zero,144(sp)
   19d64:	0af12223          	sw	a5,164(sp)
   19d68:	0e812783          	lw	a5,232(sp)
   19d6c:	08012a23          	sw	zero,148(sp)
   19d70:	08012c23          	sw	zero,152(sp)
   19d74:	0af12423          	sw	a5,168(sp)
   19d78:	0ec12783          	lw	a5,236(sp)
   19d7c:	08012e23          	sw	zero,156(sp)
   19d80:	0af12623          	sw	a5,172(sp)
   19d84:	125030ef          	jal	ra,1d6a8 <__eqtf2>
   19d88:	08050663          	beqz	a0,19e14 <_svfprintf_r+0x1d80>
   19d8c:	0dc12783          	lw	a5,220(sp)
   19d90:	0d812703          	lw	a4,216(sp)
   19d94:	00148493          	addi	s1,s1,1
   19d98:	fff78793          	addi	a5,a5,-1
   19d9c:	014787b3          	add	a5,a5,s4
   19da0:	00170713          	addi	a4,a4,1
   19da4:	009b2023          	sw	s1,0(s6)
   19da8:	015b2223          	sw	s5,4(s6)
   19dac:	0cf12e23          	sw	a5,220(sp)
   19db0:	0ce12c23          	sw	a4,216(sp)
   19db4:	00700793          	li	a5,7
   19db8:	008b0b13          	addi	s6,s6,8
   19dbc:	00e7de63          	ble	a4,a5,19dd8 <_svfprintf_r+0x1d44>
   19dc0:	0d410613          	addi	a2,sp,212
   19dc4:	00098593          	mv	a1,s3
   19dc8:	00090513          	mv	a0,s2
   19dcc:	57c010ef          	jal	ra,1b348 <__ssprint_r>
   19dd0:	12051c63          	bnez	a0,19f08 <_svfprintf_r+0x1e74>
   19dd4:	0fc10b13          	addi	s6,sp,252
   19dd8:	0c410793          	addi	a5,sp,196
   19ddc:	00fb2023          	sw	a5,0(s6)
   19de0:	03c12783          	lw	a5,60(sp)
   19de4:	03c12703          	lw	a4,60(sp)
   19de8:	008b0c13          	addi	s8,s6,8
   19dec:	00fb2223          	sw	a5,4(s6)
   19df0:	0dc12783          	lw	a5,220(sp)
   19df4:	00e787b3          	add	a5,a5,a4
   19df8:	0cf12e23          	sw	a5,220(sp)
   19dfc:	0d812783          	lw	a5,216(sp)
   19e00:	00700713          	li	a4,7
   19e04:	00178793          	addi	a5,a5,1
   19e08:	0cf12c23          	sw	a5,216(sp)
   19e0c:	a2f75ae3          	ble	a5,a4,19840 <_svfprintf_r+0x17ac>
   19e10:	885fe06f          	j	18694 <_svfprintf_r+0x600>
   19e14:	fd5052e3          	blez	s5,19dd8 <_svfprintf_r+0x1d44>
   19e18:	01000493          	li	s1,16
   19e1c:	00700c93          	li	s9,7
   19e20:	01412603          	lw	a2,20(sp)
   19e24:	0d812703          	lw	a4,216(sp)
   19e28:	0dc12783          	lw	a5,220(sp)
   19e2c:	00cb2023          	sw	a2,0(s6)
   19e30:	00170713          	addi	a4,a4,1
   19e34:	008b0693          	addi	a3,s6,8
   19e38:	0354c063          	blt	s1,s5,19e58 <_svfprintf_r+0x1dc4>
   19e3c:	00fa87b3          	add	a5,s5,a5
   19e40:	015b2223          	sw	s5,4(s6)
   19e44:	0cf12e23          	sw	a5,220(sp)
   19e48:	0ce12c23          	sw	a4,216(sp)
   19e4c:	00700793          	li	a5,7
   19e50:	00068b13          	mv	s6,a3
   19e54:	f69ff06f          	j	19dbc <_svfprintf_r+0x1d28>
   19e58:	01078793          	addi	a5,a5,16
   19e5c:	009b2223          	sw	s1,4(s6)
   19e60:	0cf12e23          	sw	a5,220(sp)
   19e64:	0ce12c23          	sw	a4,216(sp)
   19e68:	00ecde63          	ble	a4,s9,19e84 <_svfprintf_r+0x1df0>
   19e6c:	0d410613          	addi	a2,sp,212
   19e70:	00098593          	mv	a1,s3
   19e74:	00090513          	mv	a0,s2
   19e78:	4d0010ef          	jal	ra,1b348 <__ssprint_r>
   19e7c:	08051663          	bnez	a0,19f08 <_svfprintf_r+0x1e74>
   19e80:	0fc10693          	addi	a3,sp,252
   19e84:	ff0a8a93          	addi	s5,s5,-16
   19e88:	00068b13          	mv	s6,a3
   19e8c:	f95ff06f          	j	19e20 <_svfprintf_r+0x1d8c>
   19e90:	0ce12e23          	sw	a4,220(sp)
   19e94:	00dc2223          	sw	a3,4(s8)
   19e98:	0cf12c23          	sw	a5,216(sp)
   19e9c:	00700713          	li	a4,7
   19ea0:	f2f75ce3          	ble	a5,a4,19dd8 <_svfprintf_r+0x1d44>
   19ea4:	f1dff06f          	j	19dc0 <_svfprintf_r+0x1d2c>
   19ea8:	02812783          	lw	a5,40(sp)
   19eac:	02c12703          	lw	a4,44(sp)
   19eb0:	40e78433          	sub	s0,a5,a4
   19eb4:	98805ae3          	blez	s0,19848 <_svfprintf_r+0x17b4>
   19eb8:	000227b7          	lui	a5,0x22
   19ebc:	01000a93          	li	s5,16
   19ec0:	c6c78493          	addi	s1,a5,-916 # 21c6c <blanks.4498>
   19ec4:	00700b13          	li	s6,7
   19ec8:	0d812783          	lw	a5,216(sp)
   19ecc:	009c2023          	sw	s1,0(s8)
   19ed0:	0dc12703          	lw	a4,220(sp)
   19ed4:	00178793          	addi	a5,a5,1
   19ed8:	048ac663          	blt	s5,s0,19f24 <_svfprintf_r+0x1e90>
   19edc:	008c2223          	sw	s0,4(s8)
   19ee0:	00e40433          	add	s0,s0,a4
   19ee4:	0c812e23          	sw	s0,220(sp)
   19ee8:	0cf12c23          	sw	a5,216(sp)
   19eec:	00700713          	li	a4,7
   19ef0:	94f75ce3          	ble	a5,a4,19848 <_svfprintf_r+0x17b4>
   19ef4:	0d410613          	addi	a2,sp,212
   19ef8:	00098593          	mv	a1,s3
   19efc:	00090513          	mv	a0,s2
   19f00:	448010ef          	jal	ra,1b348 <__ssprint_r>
   19f04:	940502e3          	beqz	a0,19848 <_svfprintf_r+0x17b4>
   19f08:	00c12783          	lw	a5,12(sp)
   19f0c:	00079463          	bnez	a5,19f14 <_svfprintf_r+0x1e80>
   19f10:	9e9fe06f          	j	188f8 <_svfprintf_r+0x864>
   19f14:	00078593          	mv	a1,a5
   19f18:	00090513          	mv	a0,s2
   19f1c:	d61f90ef          	jal	ra,13c7c <_free_r>
   19f20:	9d9fe06f          	j	188f8 <_svfprintf_r+0x864>
   19f24:	01070713          	addi	a4,a4,16
   19f28:	015c2223          	sw	s5,4(s8)
   19f2c:	0ce12e23          	sw	a4,220(sp)
   19f30:	0cf12c23          	sw	a5,216(sp)
   19f34:	008c0c13          	addi	s8,s8,8
   19f38:	00fb5e63          	ble	a5,s6,19f54 <_svfprintf_r+0x1ec0>
   19f3c:	0d410613          	addi	a2,sp,212
   19f40:	00098593          	mv	a1,s3
   19f44:	00090513          	mv	a0,s2
   19f48:	400010ef          	jal	ra,1b348 <__ssprint_r>
   19f4c:	fa051ee3          	bnez	a0,19f08 <_svfprintf_r+0x1e74>
   19f50:	0fc10c13          	addi	s8,sp,252
   19f54:	ff040413          	addi	s0,s0,-16
   19f58:	f71ff06f          	j	19ec8 <_svfprintf_r+0x1e34>
   19f5c:	00c12583          	lw	a1,12(sp)
   19f60:	00090513          	mv	a0,s2
   19f64:	d19f90ef          	jal	ra,13c7c <_free_r>
   19f68:	925ff06f          	j	1988c <_svfprintf_r+0x17f8>
   19f6c:	0dc12783          	lw	a5,220(sp)
   19f70:	00079463          	bnez	a5,19f78 <_svfprintf_r+0x1ee4>
   19f74:	985fe06f          	j	188f8 <_svfprintf_r+0x864>
   19f78:	0d410613          	addi	a2,sp,212
   19f7c:	00098593          	mv	a1,s3
   19f80:	00090513          	mv	a0,s2
   19f84:	3c4010ef          	jal	ra,1b348 <__ssprint_r>
   19f88:	971fe06f          	j	188f8 <_svfprintf_r+0x864>
   19f8c:	fff00793          	li	a5,-1
   19f90:	b4fb9e63          	bne	s7,a5,192ec <_svfprintf_r+0x1258>
   19f94:	be0d1063          	bnez	s10,19374 <_svfprintf_r+0x12e0>
   19f98:	00900793          	li	a5,9
   19f9c:	bdb7ec63          	bltu	a5,s11,19374 <_svfprintf_r+0x12e0>
   19fa0:	030d8d93          	addi	s11,s11,48
   19fa4:	19b10fa3          	sb	s11,415(sp)
   19fa8:	19f10493          	addi	s1,sp,415
   19fac:	ba0ff06f          	j	1934c <_svfprintf_r+0x12b8>

00019fb0 <__sprint_r>:
   19fb0:	00862783          	lw	a5,8(a2)
   19fb4:	fd010113          	addi	sp,sp,-48
   19fb8:	02812423          	sw	s0,40(sp)
   19fbc:	02112623          	sw	ra,44(sp)
   19fc0:	02912223          	sw	s1,36(sp)
   19fc4:	03212023          	sw	s2,32(sp)
   19fc8:	01312e23          	sw	s3,28(sp)
   19fcc:	01412c23          	sw	s4,24(sp)
   19fd0:	01512a23          	sw	s5,20(sp)
   19fd4:	01612823          	sw	s6,16(sp)
   19fd8:	01712623          	sw	s7,12(sp)
   19fdc:	01812423          	sw	s8,8(sp)
   19fe0:	00060413          	mv	s0,a2
   19fe4:	02079e63          	bnez	a5,1a020 <__sprint_r+0x70>
   19fe8:	00062223          	sw	zero,4(a2)
   19fec:	00000513          	li	a0,0
   19ff0:	02c12083          	lw	ra,44(sp)
   19ff4:	02812403          	lw	s0,40(sp)
   19ff8:	02412483          	lw	s1,36(sp)
   19ffc:	02012903          	lw	s2,32(sp)
   1a000:	01c12983          	lw	s3,28(sp)
   1a004:	01812a03          	lw	s4,24(sp)
   1a008:	01412a83          	lw	s5,20(sp)
   1a00c:	01012b03          	lw	s6,16(sp)
   1a010:	00c12b83          	lw	s7,12(sp)
   1a014:	00812c03          	lw	s8,8(sp)
   1a018:	03010113          	addi	sp,sp,48
   1a01c:	00008067          	ret
   1a020:	0645a783          	lw	a5,100(a1)
   1a024:	00058993          	mv	s3,a1
   1a028:	01279713          	slli	a4,a5,0x12
   1a02c:	06075863          	bgez	a4,1a09c <__sprint_r+0xec>
   1a030:	00062483          	lw	s1,0(a2)
   1a034:	00050a93          	mv	s5,a0
   1a038:	fff00b13          	li	s6,-1
   1a03c:	0044a903          	lw	s2,4(s1)
   1a040:	0004ac03          	lw	s8,0(s1)
   1a044:	00000a13          	li	s4,0
   1a048:	00295b93          	srli	s7,s2,0x2
   1a04c:	037a4663          	blt	s4,s7,1a078 <__sprint_r+0xc8>
   1a050:	00842783          	lw	a5,8(s0)
   1a054:	ffc97913          	andi	s2,s2,-4
   1a058:	00848493          	addi	s1,s1,8
   1a05c:	412787b3          	sub	a5,a5,s2
   1a060:	00f42423          	sw	a5,8(s0)
   1a064:	fc079ce3          	bnez	a5,1a03c <__sprint_r+0x8c>
   1a068:	00000513          	li	a0,0
   1a06c:	00042423          	sw	zero,8(s0)
   1a070:	00042223          	sw	zero,4(s0)
   1a074:	f7dff06f          	j	19ff0 <__sprint_r+0x40>
   1a078:	002a1793          	slli	a5,s4,0x2
   1a07c:	00fc07b3          	add	a5,s8,a5
   1a080:	0007a583          	lw	a1,0(a5)
   1a084:	00098613          	mv	a2,s3
   1a088:	000a8513          	mv	a0,s5
   1a08c:	0f8010ef          	jal	ra,1b184 <_fputwc_r>
   1a090:	01650a63          	beq	a0,s6,1a0a4 <__sprint_r+0xf4>
   1a094:	001a0a13          	addi	s4,s4,1
   1a098:	fb5ff06f          	j	1a04c <__sprint_r+0x9c>
   1a09c:	e3df90ef          	jal	ra,13ed8 <__sfvwrite_r>
   1a0a0:	fcdff06f          	j	1a06c <__sprint_r+0xbc>
   1a0a4:	fff00513          	li	a0,-1
   1a0a8:	fc5ff06f          	j	1a06c <__sprint_r+0xbc>

0001a0ac <_vfiprintf_r>:
   1a0ac:	ed010113          	addi	sp,sp,-304
   1a0b0:	12812423          	sw	s0,296(sp)
   1a0b4:	13212023          	sw	s2,288(sp)
   1a0b8:	11312e23          	sw	s3,284(sp)
   1a0bc:	11512a23          	sw	s5,276(sp)
   1a0c0:	12112623          	sw	ra,300(sp)
   1a0c4:	12912223          	sw	s1,292(sp)
   1a0c8:	11412c23          	sw	s4,280(sp)
   1a0cc:	11612823          	sw	s6,272(sp)
   1a0d0:	11712623          	sw	s7,268(sp)
   1a0d4:	11812423          	sw	s8,264(sp)
   1a0d8:	11912223          	sw	s9,260(sp)
   1a0dc:	11a12023          	sw	s10,256(sp)
   1a0e0:	0fb12e23          	sw	s11,252(sp)
   1a0e4:	00050993          	mv	s3,a0
   1a0e8:	00058413          	mv	s0,a1
   1a0ec:	00060a93          	mv	s5,a2
   1a0f0:	00068913          	mv	s2,a3
   1a0f4:	00050863          	beqz	a0,1a104 <_vfiprintf_r+0x58>
   1a0f8:	03852783          	lw	a5,56(a0)
   1a0fc:	00079463          	bnez	a5,1a104 <_vfiprintf_r+0x58>
   1a100:	8d5f90ef          	jal	ra,139d4 <__sinit>
   1a104:	00c41783          	lh	a5,12(s0)
   1a108:	01279713          	slli	a4,a5,0x12
   1a10c:	02074263          	bltz	a4,1a130 <_vfiprintf_r+0x84>
   1a110:	000026b7          	lui	a3,0x2
   1a114:	06442703          	lw	a4,100(s0)
   1a118:	00d7e7b3          	or	a5,a5,a3
   1a11c:	00f41623          	sh	a5,12(s0)
   1a120:	ffffe7b7          	lui	a5,0xffffe
   1a124:	fff78793          	addi	a5,a5,-1 # ffffdfff <_end+0xfffd7b1f>
   1a128:	00f777b3          	and	a5,a4,a5
   1a12c:	06f42223          	sw	a5,100(s0)
   1a130:	00c45783          	lhu	a5,12(s0)
   1a134:	0087f793          	andi	a5,a5,8
   1a138:	04078063          	beqz	a5,1a178 <_vfiprintf_r+0xcc>
   1a13c:	01042783          	lw	a5,16(s0)
   1a140:	02078c63          	beqz	a5,1a178 <_vfiprintf_r+0xcc>
   1a144:	00c45783          	lhu	a5,12(s0)
   1a148:	00a00713          	li	a4,10
   1a14c:	01a7f793          	andi	a5,a5,26
   1a150:	06e79e63          	bne	a5,a4,1a1cc <_vfiprintf_r+0x120>
   1a154:	00e41783          	lh	a5,14(s0)
   1a158:	0607ca63          	bltz	a5,1a1cc <_vfiprintf_r+0x120>
   1a15c:	00090693          	mv	a3,s2
   1a160:	000a8613          	mv	a2,s5
   1a164:	00040593          	mv	a1,s0
   1a168:	00098513          	mv	a0,s3
   1a16c:	3d9000ef          	jal	ra,1ad44 <__sbprintf>
   1a170:	00050c13          	mv	s8,a0
   1a174:	0180006f          	j	1a18c <_vfiprintf_r+0xe0>
   1a178:	00040593          	mv	a1,s0
   1a17c:	00098513          	mv	a0,s3
   1a180:	a00f90ef          	jal	ra,13380 <__swsetup_r>
   1a184:	fc0500e3          	beqz	a0,1a144 <_vfiprintf_r+0x98>
   1a188:	fff00c13          	li	s8,-1
   1a18c:	12c12083          	lw	ra,300(sp)
   1a190:	12812403          	lw	s0,296(sp)
   1a194:	000c0513          	mv	a0,s8
   1a198:	12412483          	lw	s1,292(sp)
   1a19c:	12012903          	lw	s2,288(sp)
   1a1a0:	11c12983          	lw	s3,284(sp)
   1a1a4:	11812a03          	lw	s4,280(sp)
   1a1a8:	11412a83          	lw	s5,276(sp)
   1a1ac:	11012b03          	lw	s6,272(sp)
   1a1b0:	10c12b83          	lw	s7,268(sp)
   1a1b4:	10812c03          	lw	s8,264(sp)
   1a1b8:	10412c83          	lw	s9,260(sp)
   1a1bc:	10012d03          	lw	s10,256(sp)
   1a1c0:	0fc12d83          	lw	s11,252(sp)
   1a1c4:	13010113          	addi	sp,sp,304
   1a1c8:	00008067          	ret
   1a1cc:	000227b7          	lui	a5,0x22
   1a1d0:	c8c78793          	addi	a5,a5,-884 # 21c8c <zeroes.4499+0x10>
   1a1d4:	02f12423          	sw	a5,40(sp)
   1a1d8:	000227b7          	lui	a5,0x22
   1a1dc:	e0878793          	addi	a5,a5,-504 # 21e08 <zeroes.4490>
   1a1e0:	00f12a23          	sw	a5,20(sp)
   1a1e4:	000227b7          	lui	a5,0x22
   1a1e8:	04c10b93          	addi	s7,sp,76
   1a1ec:	df878793          	addi	a5,a5,-520 # 21df8 <blanks.4489>
   1a1f0:	05712023          	sw	s7,64(sp)
   1a1f4:	04012423          	sw	zero,72(sp)
   1a1f8:	04012223          	sw	zero,68(sp)
   1a1fc:	000b8d93          	mv	s11,s7
   1a200:	00012623          	sw	zero,12(sp)
   1a204:	00012423          	sw	zero,8(sp)
   1a208:	00012823          	sw	zero,16(sp)
   1a20c:	00012e23          	sw	zero,28(sp)
   1a210:	00000c13          	li	s8,0
   1a214:	00f12c23          	sw	a5,24(sp)
   1a218:	000a8493          	mv	s1,s5
   1a21c:	02500693          	li	a3,37
   1a220:	0004c783          	lbu	a5,0(s1)
   1a224:	00078463          	beqz	a5,1a22c <_vfiprintf_r+0x180>
   1a228:	0ad79263          	bne	a5,a3,1a2cc <_vfiprintf_r+0x220>
   1a22c:	41548a33          	sub	s4,s1,s5
   1a230:	040a0663          	beqz	s4,1a27c <_vfiprintf_r+0x1d0>
   1a234:	04812783          	lw	a5,72(sp)
   1a238:	015da023          	sw	s5,0(s11)
   1a23c:	014da223          	sw	s4,4(s11)
   1a240:	014787b3          	add	a5,a5,s4
   1a244:	04f12423          	sw	a5,72(sp)
   1a248:	04412783          	lw	a5,68(sp)
   1a24c:	00700693          	li	a3,7
   1a250:	008d8d93          	addi	s11,s11,8
   1a254:	00178793          	addi	a5,a5,1
   1a258:	04f12223          	sw	a5,68(sp)
   1a25c:	00f6de63          	ble	a5,a3,1a278 <_vfiprintf_r+0x1cc>
   1a260:	04010613          	addi	a2,sp,64
   1a264:	00040593          	mv	a1,s0
   1a268:	00098513          	mv	a0,s3
   1a26c:	d45ff0ef          	jal	ra,19fb0 <__sprint_r>
   1a270:	22051ce3          	bnez	a0,1aca8 <_vfiprintf_r+0xbfc>
   1a274:	000b8d93          	mv	s11,s7
   1a278:	014c0c33          	add	s8,s8,s4
   1a27c:	0004c783          	lbu	a5,0(s1)
   1a280:	260788e3          	beqz	a5,1acf0 <_vfiprintf_r+0xc44>
   1a284:	00148693          	addi	a3,s1,1
   1a288:	02010da3          	sb	zero,59(sp)
   1a28c:	fff00493          	li	s1,-1
   1a290:	00000a13          	li	s4,0
   1a294:	00000d13          	li	s10,0
   1a298:	00a00b13          	li	s6,10
   1a29c:	00900c93          	li	s9,9
   1a2a0:	0006c603          	lbu	a2,0(a3) # 2000 <_start-0xe000>
   1a2a4:	00168a93          	addi	s5,a3,1
   1a2a8:	05a00513          	li	a0,90
   1a2ac:	02a00813          	li	a6,42
   1a2b0:	fe060693          	addi	a3,a2,-32
   1a2b4:	0ad56ce3          	bltu	a0,a3,1ab6c <_vfiprintf_r+0xac0>
   1a2b8:	02812783          	lw	a5,40(sp)
   1a2bc:	00269693          	slli	a3,a3,0x2
   1a2c0:	00f686b3          	add	a3,a3,a5
   1a2c4:	0006a683          	lw	a3,0(a3)
   1a2c8:	00068067          	jr	a3
   1a2cc:	00148493          	addi	s1,s1,1
   1a2d0:	f51ff06f          	j	1a220 <_vfiprintf_r+0x174>
   1a2d4:	000216b7          	lui	a3,0x21
   1a2d8:	71c68793          	addi	a5,a3,1820 # 2171c <zeroes.4514+0x20>
   1a2dc:	00f12623          	sw	a5,12(sp)
   1a2e0:	020d7693          	andi	a3,s10,32
   1a2e4:	68068c63          	beqz	a3,1a97c <_vfiprintf_r+0x8d0>
   1a2e8:	00790913          	addi	s2,s2,7
   1a2ec:	ff897913          	andi	s2,s2,-8
   1a2f0:	00092303          	lw	t1,0(s2)
   1a2f4:	00492b03          	lw	s6,4(s2)
   1a2f8:	00890c93          	addi	s9,s2,8
   1a2fc:	001d7693          	andi	a3,s10,1
   1a300:	00068e63          	beqz	a3,1a31c <_vfiprintf_r+0x270>
   1a304:	016366b3          	or	a3,t1,s6
   1a308:	00068a63          	beqz	a3,1a31c <_vfiprintf_r+0x270>
   1a30c:	03000693          	li	a3,48
   1a310:	02d10e23          	sb	a3,60(sp)
   1a314:	02c10ea3          	sb	a2,61(sp)
   1a318:	002d6d13          	ori	s10,s10,2
   1a31c:	bffd7d13          	andi	s10,s10,-1025
   1a320:	2fc0006f          	j	1a61c <_vfiprintf_r+0x570>
   1a324:	00098513          	mv	a0,s3
   1a328:	8e4fc0ef          	jal	ra,1640c <_localeconv_r>
   1a32c:	00452783          	lw	a5,4(a0)
   1a330:	00078513          	mv	a0,a5
   1a334:	00f12e23          	sw	a5,28(sp)
   1a338:	ea5f60ef          	jal	ra,111dc <strlen>
   1a33c:	00a12823          	sw	a0,16(sp)
   1a340:	00098513          	mv	a0,s3
   1a344:	8c8fc0ef          	jal	ra,1640c <_localeconv_r>
   1a348:	00852783          	lw	a5,8(a0)
   1a34c:	00f12423          	sw	a5,8(sp)
   1a350:	01012783          	lw	a5,16(sp)
   1a354:	00078c63          	beqz	a5,1a36c <_vfiprintf_r+0x2c0>
   1a358:	00812783          	lw	a5,8(sp)
   1a35c:	00078863          	beqz	a5,1a36c <_vfiprintf_r+0x2c0>
   1a360:	0007c683          	lbu	a3,0(a5)
   1a364:	00068463          	beqz	a3,1a36c <_vfiprintf_r+0x2c0>
   1a368:	400d6d13          	ori	s10,s10,1024
   1a36c:	000a8693          	mv	a3,s5
   1a370:	f31ff06f          	j	1a2a0 <_vfiprintf_r+0x1f4>
   1a374:	03b14683          	lbu	a3,59(sp)
   1a378:	fe069ae3          	bnez	a3,1a36c <_vfiprintf_r+0x2c0>
   1a37c:	02000693          	li	a3,32
   1a380:	02d10da3          	sb	a3,59(sp)
   1a384:	fe9ff06f          	j	1a36c <_vfiprintf_r+0x2c0>
   1a388:	001d6d13          	ori	s10,s10,1
   1a38c:	fe1ff06f          	j	1a36c <_vfiprintf_r+0x2c0>
   1a390:	00092a03          	lw	s4,0(s2)
   1a394:	00490913          	addi	s2,s2,4
   1a398:	fc0a5ae3          	bgez	s4,1a36c <_vfiprintf_r+0x2c0>
   1a39c:	41400a33          	neg	s4,s4
   1a3a0:	004d6d13          	ori	s10,s10,4
   1a3a4:	fc9ff06f          	j	1a36c <_vfiprintf_r+0x2c0>
   1a3a8:	02b00693          	li	a3,43
   1a3ac:	fd5ff06f          	j	1a380 <_vfiprintf_r+0x2d4>
   1a3b0:	000ac603          	lbu	a2,0(s5)
   1a3b4:	001a8693          	addi	a3,s5,1
   1a3b8:	05061063          	bne	a2,a6,1a3f8 <_vfiprintf_r+0x34c>
   1a3bc:	00092483          	lw	s1,0(s2)
   1a3c0:	00490613          	addi	a2,s2,4
   1a3c4:	0004d463          	bgez	s1,1a3cc <_vfiprintf_r+0x320>
   1a3c8:	fff00493          	li	s1,-1
   1a3cc:	00060913          	mv	s2,a2
   1a3d0:	00068a93          	mv	s5,a3
   1a3d4:	f99ff06f          	j	1a36c <_vfiprintf_r+0x2c0>
   1a3d8:	036484b3          	mul	s1,s1,s6
   1a3dc:	00168693          	addi	a3,a3,1
   1a3e0:	fff6c603          	lbu	a2,-1(a3)
   1a3e4:	00b484b3          	add	s1,s1,a1
   1a3e8:	fd060593          	addi	a1,a2,-48
   1a3ec:	febcf6e3          	bleu	a1,s9,1a3d8 <_vfiprintf_r+0x32c>
   1a3f0:	00068a93          	mv	s5,a3
   1a3f4:	ebdff06f          	j	1a2b0 <_vfiprintf_r+0x204>
   1a3f8:	00000493          	li	s1,0
   1a3fc:	fedff06f          	j	1a3e8 <_vfiprintf_r+0x33c>
   1a400:	080d6d13          	ori	s10,s10,128
   1a404:	f69ff06f          	j	1a36c <_vfiprintf_r+0x2c0>
   1a408:	000a8693          	mv	a3,s5
   1a40c:	00000a13          	li	s4,0
   1a410:	036a0a33          	mul	s4,s4,s6
   1a414:	fd060613          	addi	a2,a2,-48
   1a418:	00168693          	addi	a3,a3,1
   1a41c:	01460a33          	add	s4,a2,s4
   1a420:	fff6c603          	lbu	a2,-1(a3)
   1a424:	fd060593          	addi	a1,a2,-48
   1a428:	febcf4e3          	bleu	a1,s9,1a410 <_vfiprintf_r+0x364>
   1a42c:	fc5ff06f          	j	1a3f0 <_vfiprintf_r+0x344>
   1a430:	000ac603          	lbu	a2,0(s5)
   1a434:	06800693          	li	a3,104
   1a438:	00d61863          	bne	a2,a3,1a448 <_vfiprintf_r+0x39c>
   1a43c:	001a8a93          	addi	s5,s5,1
   1a440:	200d6d13          	ori	s10,s10,512
   1a444:	f29ff06f          	j	1a36c <_vfiprintf_r+0x2c0>
   1a448:	040d6d13          	ori	s10,s10,64
   1a44c:	f21ff06f          	j	1a36c <_vfiprintf_r+0x2c0>
   1a450:	000ac603          	lbu	a2,0(s5)
   1a454:	06c00693          	li	a3,108
   1a458:	00d61863          	bne	a2,a3,1a468 <_vfiprintf_r+0x3bc>
   1a45c:	001a8a93          	addi	s5,s5,1
   1a460:	020d6d13          	ori	s10,s10,32
   1a464:	f09ff06f          	j	1a36c <_vfiprintf_r+0x2c0>
   1a468:	010d6d13          	ori	s10,s10,16
   1a46c:	f01ff06f          	j	1a36c <_vfiprintf_r+0x2c0>
   1a470:	00092683          	lw	a3,0(s2)
   1a474:	00490c93          	addi	s9,s2,4
   1a478:	02010da3          	sb	zero,59(sp)
   1a47c:	08d10623          	sb	a3,140(sp)
   1a480:	00100493          	li	s1,1
   1a484:	00000b13          	li	s6,0
   1a488:	08c10913          	addi	s2,sp,140
   1a48c:	1c80006f          	j	1a654 <_vfiprintf_r+0x5a8>
   1a490:	010d6d13          	ori	s10,s10,16
   1a494:	020d7693          	andi	a3,s10,32
   1a498:	06068063          	beqz	a3,1a4f8 <_vfiprintf_r+0x44c>
   1a49c:	00790913          	addi	s2,s2,7
   1a4a0:	ff897913          	andi	s2,s2,-8
   1a4a4:	00092303          	lw	t1,0(s2)
   1a4a8:	00492b03          	lw	s6,4(s2)
   1a4ac:	00890c93          	addi	s9,s2,8
   1a4b0:	040b5ee3          	bgez	s6,1ad0c <_vfiprintf_r+0xc60>
   1a4b4:	40600333          	neg	t1,t1
   1a4b8:	006036b3          	snez	a3,t1
   1a4bc:	41600833          	neg	a6,s6
   1a4c0:	40d80b33          	sub	s6,a6,a3
   1a4c4:	02d00693          	li	a3,45
   1a4c8:	02d10da3          	sb	a3,59(sp)
   1a4cc:	00100693          	li	a3,1
   1a4d0:	fff00613          	li	a2,-1
   1a4d4:	4ec48663          	beq	s1,a2,1a9c0 <_vfiprintf_r+0x914>
   1a4d8:	000d0613          	mv	a2,s10
   1a4dc:	016365b3          	or	a1,t1,s6
   1a4e0:	f7fd7d13          	andi	s10,s10,-129
   1a4e4:	4c059e63          	bnez	a1,1a9c0 <_vfiprintf_r+0x914>
   1a4e8:	66048463          	beqz	s1,1ab50 <_vfiprintf_r+0xaa4>
   1a4ec:	00100613          	li	a2,1
   1a4f0:	4cc69c63          	bne	a3,a2,1a9c8 <_vfiprintf_r+0x91c>
   1a4f4:	02d0006f          	j	1ad20 <_vfiprintf_r+0xc74>
   1a4f8:	010d7693          	andi	a3,s10,16
   1a4fc:	00490c93          	addi	s9,s2,4
   1a500:	00068863          	beqz	a3,1a510 <_vfiprintf_r+0x464>
   1a504:	00092303          	lw	t1,0(s2)
   1a508:	41f35b13          	srai	s6,t1,0x1f
   1a50c:	fa5ff06f          	j	1a4b0 <_vfiprintf_r+0x404>
   1a510:	040d7693          	andi	a3,s10,64
   1a514:	00092303          	lw	t1,0(s2)
   1a518:	00068863          	beqz	a3,1a528 <_vfiprintf_r+0x47c>
   1a51c:	01031313          	slli	t1,t1,0x10
   1a520:	41035313          	srai	t1,t1,0x10
   1a524:	fe5ff06f          	j	1a508 <_vfiprintf_r+0x45c>
   1a528:	200d7693          	andi	a3,s10,512
   1a52c:	fc068ee3          	beqz	a3,1a508 <_vfiprintf_r+0x45c>
   1a530:	01831313          	slli	t1,t1,0x18
   1a534:	41835313          	srai	t1,t1,0x18
   1a538:	fd1ff06f          	j	1a508 <_vfiprintf_r+0x45c>
   1a53c:	020d7613          	andi	a2,s10,32
   1a540:	00092683          	lw	a3,0(s2)
   1a544:	00490913          	addi	s2,s2,4
   1a548:	00060a63          	beqz	a2,1a55c <_vfiprintf_r+0x4b0>
   1a54c:	41fc5793          	srai	a5,s8,0x1f
   1a550:	0186a023          	sw	s8,0(a3)
   1a554:	00f6a223          	sw	a5,4(a3)
   1a558:	cc1ff06f          	j	1a218 <_vfiprintf_r+0x16c>
   1a55c:	010d7613          	andi	a2,s10,16
   1a560:	00060663          	beqz	a2,1a56c <_vfiprintf_r+0x4c0>
   1a564:	0186a023          	sw	s8,0(a3)
   1a568:	cb1ff06f          	j	1a218 <_vfiprintf_r+0x16c>
   1a56c:	040d7613          	andi	a2,s10,64
   1a570:	00060663          	beqz	a2,1a57c <_vfiprintf_r+0x4d0>
   1a574:	01869023          	sh	s8,0(a3)
   1a578:	ca1ff06f          	j	1a218 <_vfiprintf_r+0x16c>
   1a57c:	200d7793          	andi	a5,s10,512
   1a580:	fe0782e3          	beqz	a5,1a564 <_vfiprintf_r+0x4b8>
   1a584:	01868023          	sb	s8,0(a3)
   1a588:	c91ff06f          	j	1a218 <_vfiprintf_r+0x16c>
   1a58c:	010d6d13          	ori	s10,s10,16
   1a590:	020d7693          	andi	a3,s10,32
   1a594:	02068463          	beqz	a3,1a5bc <_vfiprintf_r+0x510>
   1a598:	00790913          	addi	s2,s2,7
   1a59c:	ff897913          	andi	s2,s2,-8
   1a5a0:	00092303          	lw	t1,0(s2)
   1a5a4:	00492b03          	lw	s6,4(s2)
   1a5a8:	00890c93          	addi	s9,s2,8
   1a5ac:	bffd7d13          	andi	s10,s10,-1025
   1a5b0:	00000693          	li	a3,0
   1a5b4:	02010da3          	sb	zero,59(sp)
   1a5b8:	f19ff06f          	j	1a4d0 <_vfiprintf_r+0x424>
   1a5bc:	010d7693          	andi	a3,s10,16
   1a5c0:	00490c93          	addi	s9,s2,4
   1a5c4:	00068663          	beqz	a3,1a5d0 <_vfiprintf_r+0x524>
   1a5c8:	00092303          	lw	t1,0(s2)
   1a5cc:	0100006f          	j	1a5dc <_vfiprintf_r+0x530>
   1a5d0:	040d7693          	andi	a3,s10,64
   1a5d4:	00068863          	beqz	a3,1a5e4 <_vfiprintf_r+0x538>
   1a5d8:	00095303          	lhu	t1,0(s2)
   1a5dc:	00000b13          	li	s6,0
   1a5e0:	fcdff06f          	j	1a5ac <_vfiprintf_r+0x500>
   1a5e4:	200d7693          	andi	a3,s10,512
   1a5e8:	fe0680e3          	beqz	a3,1a5c8 <_vfiprintf_r+0x51c>
   1a5ec:	00094303          	lbu	t1,0(s2)
   1a5f0:	fedff06f          	j	1a5dc <_vfiprintf_r+0x530>
   1a5f4:	ffff86b7          	lui	a3,0xffff8
   1a5f8:	8306c693          	xori	a3,a3,-2000
   1a5fc:	02d11e23          	sh	a3,60(sp)
   1a600:	00092303          	lw	t1,0(s2)
   1a604:	000216b7          	lui	a3,0x21
   1a608:	71c68793          	addi	a5,a3,1820 # 2171c <zeroes.4514+0x20>
   1a60c:	00490c93          	addi	s9,s2,4
   1a610:	00000b13          	li	s6,0
   1a614:	002d6d13          	ori	s10,s10,2
   1a618:	00f12623          	sw	a5,12(sp)
   1a61c:	00200693          	li	a3,2
   1a620:	f95ff06f          	j	1a5b4 <_vfiprintf_r+0x508>
   1a624:	02010da3          	sb	zero,59(sp)
   1a628:	fff00693          	li	a3,-1
   1a62c:	00490c93          	addi	s9,s2,4
   1a630:	00092903          	lw	s2,0(s2)
   1a634:	2cd48463          	beq	s1,a3,1a8fc <_vfiprintf_r+0x850>
   1a638:	00048613          	mv	a2,s1
   1a63c:	00000593          	li	a1,0
   1a640:	00090513          	mv	a0,s2
   1a644:	8c8fc0ef          	jal	ra,1670c <memchr>
   1a648:	00000b13          	li	s6,0
   1a64c:	00050463          	beqz	a0,1a654 <_vfiprintf_r+0x5a8>
   1a650:	412504b3          	sub	s1,a0,s2
   1a654:	01612223          	sw	s6,4(sp)
   1a658:	009b5463          	ble	s1,s6,1a660 <_vfiprintf_r+0x5b4>
   1a65c:	00912223          	sw	s1,4(sp)
   1a660:	03b14683          	lbu	a3,59(sp)
   1a664:	00068863          	beqz	a3,1a674 <_vfiprintf_r+0x5c8>
   1a668:	00412783          	lw	a5,4(sp)
   1a66c:	00178793          	addi	a5,a5,1
   1a670:	00f12223          	sw	a5,4(sp)
   1a674:	002d7793          	andi	a5,s10,2
   1a678:	02f12023          	sw	a5,32(sp)
   1a67c:	00078863          	beqz	a5,1a68c <_vfiprintf_r+0x5e0>
   1a680:	00412783          	lw	a5,4(sp)
   1a684:	00278793          	addi	a5,a5,2
   1a688:	00f12223          	sw	a5,4(sp)
   1a68c:	084d7793          	andi	a5,s10,132
   1a690:	02f12223          	sw	a5,36(sp)
   1a694:	06079463          	bnez	a5,1a6fc <_vfiprintf_r+0x650>
   1a698:	00412783          	lw	a5,4(sp)
   1a69c:	40fa06b3          	sub	a3,s4,a5
   1a6a0:	04d05e63          	blez	a3,1a6fc <_vfiprintf_r+0x650>
   1a6a4:	01000813          	li	a6,16
   1a6a8:	00700893          	li	a7,7
   1a6ac:	01812783          	lw	a5,24(sp)
   1a6b0:	04412603          	lw	a2,68(sp)
   1a6b4:	04812583          	lw	a1,72(sp)
   1a6b8:	00fda023          	sw	a5,0(s11)
   1a6bc:	00160613          	addi	a2,a2,1
   1a6c0:	008d8513          	addi	a0,s11,8
   1a6c4:	4ad84e63          	blt	a6,a3,1ab80 <_vfiprintf_r+0xad4>
   1a6c8:	00dda223          	sw	a3,4(s11)
   1a6cc:	00b686b3          	add	a3,a3,a1
   1a6d0:	04d12423          	sw	a3,72(sp)
   1a6d4:	04c12223          	sw	a2,68(sp)
   1a6d8:	00700693          	li	a3,7
   1a6dc:	00050d93          	mv	s11,a0
   1a6e0:	00c6de63          	ble	a2,a3,1a6fc <_vfiprintf_r+0x650>
   1a6e4:	04010613          	addi	a2,sp,64
   1a6e8:	00040593          	mv	a1,s0
   1a6ec:	00098513          	mv	a0,s3
   1a6f0:	8c1ff0ef          	jal	ra,19fb0 <__sprint_r>
   1a6f4:	5a051a63          	bnez	a0,1aca8 <_vfiprintf_r+0xbfc>
   1a6f8:	000b8d93          	mv	s11,s7
   1a6fc:	03b14683          	lbu	a3,59(sp)
   1a700:	04068863          	beqz	a3,1a750 <_vfiprintf_r+0x6a4>
   1a704:	03b10613          	addi	a2,sp,59
   1a708:	00cda023          	sw	a2,0(s11)
   1a70c:	00100613          	li	a2,1
   1a710:	04412683          	lw	a3,68(sp)
   1a714:	00cda223          	sw	a2,4(s11)
   1a718:	04812603          	lw	a2,72(sp)
   1a71c:	00168693          	addi	a3,a3,1
   1a720:	04d12223          	sw	a3,68(sp)
   1a724:	00160613          	addi	a2,a2,1
   1a728:	04c12423          	sw	a2,72(sp)
   1a72c:	00700613          	li	a2,7
   1a730:	008d8d93          	addi	s11,s11,8
   1a734:	00d65e63          	ble	a3,a2,1a750 <_vfiprintf_r+0x6a4>
   1a738:	04010613          	addi	a2,sp,64
   1a73c:	00040593          	mv	a1,s0
   1a740:	00098513          	mv	a0,s3
   1a744:	86dff0ef          	jal	ra,19fb0 <__sprint_r>
   1a748:	56051063          	bnez	a0,1aca8 <_vfiprintf_r+0xbfc>
   1a74c:	000b8d93          	mv	s11,s7
   1a750:	02012783          	lw	a5,32(sp)
   1a754:	04078863          	beqz	a5,1a7a4 <_vfiprintf_r+0x6f8>
   1a758:	03c10613          	addi	a2,sp,60
   1a75c:	00cda023          	sw	a2,0(s11)
   1a760:	00200613          	li	a2,2
   1a764:	04412683          	lw	a3,68(sp)
   1a768:	00cda223          	sw	a2,4(s11)
   1a76c:	04812603          	lw	a2,72(sp)
   1a770:	00168693          	addi	a3,a3,1
   1a774:	04d12223          	sw	a3,68(sp)
   1a778:	00260613          	addi	a2,a2,2
   1a77c:	04c12423          	sw	a2,72(sp)
   1a780:	00700613          	li	a2,7
   1a784:	008d8d93          	addi	s11,s11,8
   1a788:	00d65e63          	ble	a3,a2,1a7a4 <_vfiprintf_r+0x6f8>
   1a78c:	04010613          	addi	a2,sp,64
   1a790:	00040593          	mv	a1,s0
   1a794:	00098513          	mv	a0,s3
   1a798:	819ff0ef          	jal	ra,19fb0 <__sprint_r>
   1a79c:	50051663          	bnez	a0,1aca8 <_vfiprintf_r+0xbfc>
   1a7a0:	000b8d93          	mv	s11,s7
   1a7a4:	02412783          	lw	a5,36(sp)
   1a7a8:	08000693          	li	a3,128
   1a7ac:	06d79463          	bne	a5,a3,1a814 <_vfiprintf_r+0x768>
   1a7b0:	00412783          	lw	a5,4(sp)
   1a7b4:	40fa06b3          	sub	a3,s4,a5
   1a7b8:	04d05e63          	blez	a3,1a814 <_vfiprintf_r+0x768>
   1a7bc:	01000813          	li	a6,16
   1a7c0:	00700893          	li	a7,7
   1a7c4:	01412783          	lw	a5,20(sp)
   1a7c8:	04412603          	lw	a2,68(sp)
   1a7cc:	04812583          	lw	a1,72(sp)
   1a7d0:	00fda023          	sw	a5,0(s11)
   1a7d4:	00160613          	addi	a2,a2,1
   1a7d8:	008d8513          	addi	a0,s11,8
   1a7dc:	3ed84663          	blt	a6,a3,1abc8 <_vfiprintf_r+0xb1c>
   1a7e0:	00dda223          	sw	a3,4(s11)
   1a7e4:	00b686b3          	add	a3,a3,a1
   1a7e8:	04d12423          	sw	a3,72(sp)
   1a7ec:	04c12223          	sw	a2,68(sp)
   1a7f0:	00700693          	li	a3,7
   1a7f4:	00050d93          	mv	s11,a0
   1a7f8:	00c6de63          	ble	a2,a3,1a814 <_vfiprintf_r+0x768>
   1a7fc:	04010613          	addi	a2,sp,64
   1a800:	00040593          	mv	a1,s0
   1a804:	00098513          	mv	a0,s3
   1a808:	fa8ff0ef          	jal	ra,19fb0 <__sprint_r>
   1a80c:	48051e63          	bnez	a0,1aca8 <_vfiprintf_r+0xbfc>
   1a810:	000b8d93          	mv	s11,s7
   1a814:	409b0b33          	sub	s6,s6,s1
   1a818:	05605e63          	blez	s6,1a874 <_vfiprintf_r+0x7c8>
   1a81c:	01000813          	li	a6,16
   1a820:	00700893          	li	a7,7
   1a824:	01412783          	lw	a5,20(sp)
   1a828:	04412683          	lw	a3,68(sp)
   1a82c:	04812603          	lw	a2,72(sp)
   1a830:	00fda023          	sw	a5,0(s11)
   1a834:	00168693          	addi	a3,a3,1
   1a838:	008d8593          	addi	a1,s11,8
   1a83c:	3d684a63          	blt	a6,s6,1ac10 <_vfiprintf_r+0xb64>
   1a840:	016da223          	sw	s6,4(s11)
   1a844:	00cb0b33          	add	s6,s6,a2
   1a848:	05612423          	sw	s6,72(sp)
   1a84c:	04d12223          	sw	a3,68(sp)
   1a850:	00700613          	li	a2,7
   1a854:	00058d93          	mv	s11,a1
   1a858:	00d65e63          	ble	a3,a2,1a874 <_vfiprintf_r+0x7c8>
   1a85c:	04010613          	addi	a2,sp,64
   1a860:	00040593          	mv	a1,s0
   1a864:	00098513          	mv	a0,s3
   1a868:	f48ff0ef          	jal	ra,19fb0 <__sprint_r>
   1a86c:	42051e63          	bnez	a0,1aca8 <_vfiprintf_r+0xbfc>
   1a870:	000b8d93          	mv	s11,s7
   1a874:	04812683          	lw	a3,72(sp)
   1a878:	009da223          	sw	s1,4(s11)
   1a87c:	012da023          	sw	s2,0(s11)
   1a880:	009684b3          	add	s1,a3,s1
   1a884:	04412683          	lw	a3,68(sp)
   1a888:	04912423          	sw	s1,72(sp)
   1a88c:	00700613          	li	a2,7
   1a890:	00168693          	addi	a3,a3,1
   1a894:	04d12223          	sw	a3,68(sp)
   1a898:	008d8713          	addi	a4,s11,8
   1a89c:	00d65e63          	ble	a3,a2,1a8b8 <_vfiprintf_r+0x80c>
   1a8a0:	04010613          	addi	a2,sp,64
   1a8a4:	00040593          	mv	a1,s0
   1a8a8:	00098513          	mv	a0,s3
   1a8ac:	f04ff0ef          	jal	ra,19fb0 <__sprint_r>
   1a8b0:	3e051c63          	bnez	a0,1aca8 <_vfiprintf_r+0xbfc>
   1a8b4:	000b8713          	mv	a4,s7
   1a8b8:	004d7793          	andi	a5,s10,4
   1a8bc:	38079a63          	bnez	a5,1ac50 <_vfiprintf_r+0xba4>
   1a8c0:	00412783          	lw	a5,4(sp)
   1a8c4:	00fa5463          	ble	a5,s4,1a8cc <_vfiprintf_r+0x820>
   1a8c8:	00078a13          	mv	s4,a5
   1a8cc:	04812783          	lw	a5,72(sp)
   1a8d0:	014c0c33          	add	s8,s8,s4
   1a8d4:	00078c63          	beqz	a5,1a8ec <_vfiprintf_r+0x840>
   1a8d8:	04010613          	addi	a2,sp,64
   1a8dc:	00040593          	mv	a1,s0
   1a8e0:	00098513          	mv	a0,s3
   1a8e4:	eccff0ef          	jal	ra,19fb0 <__sprint_r>
   1a8e8:	3c051063          	bnez	a0,1aca8 <_vfiprintf_r+0xbfc>
   1a8ec:	04012223          	sw	zero,68(sp)
   1a8f0:	000c8913          	mv	s2,s9
   1a8f4:	000b8d93          	mv	s11,s7
   1a8f8:	921ff06f          	j	1a218 <_vfiprintf_r+0x16c>
   1a8fc:	00090513          	mv	a0,s2
   1a900:	8ddf60ef          	jal	ra,111dc <strlen>
   1a904:	00050493          	mv	s1,a0
   1a908:	00000b13          	li	s6,0
   1a90c:	d49ff06f          	j	1a654 <_vfiprintf_r+0x5a8>
   1a910:	010d6d13          	ori	s10,s10,16
   1a914:	020d7693          	andi	a3,s10,32
   1a918:	02068063          	beqz	a3,1a938 <_vfiprintf_r+0x88c>
   1a91c:	00790913          	addi	s2,s2,7
   1a920:	ff897913          	andi	s2,s2,-8
   1a924:	00092303          	lw	t1,0(s2)
   1a928:	00492b03          	lw	s6,4(s2)
   1a92c:	00890c93          	addi	s9,s2,8
   1a930:	00100693          	li	a3,1
   1a934:	c81ff06f          	j	1a5b4 <_vfiprintf_r+0x508>
   1a938:	010d7693          	andi	a3,s10,16
   1a93c:	00490c93          	addi	s9,s2,4
   1a940:	00068663          	beqz	a3,1a94c <_vfiprintf_r+0x8a0>
   1a944:	00092303          	lw	t1,0(s2)
   1a948:	0100006f          	j	1a958 <_vfiprintf_r+0x8ac>
   1a94c:	040d7693          	andi	a3,s10,64
   1a950:	00068863          	beqz	a3,1a960 <_vfiprintf_r+0x8b4>
   1a954:	00095303          	lhu	t1,0(s2)
   1a958:	00000b13          	li	s6,0
   1a95c:	fd5ff06f          	j	1a930 <_vfiprintf_r+0x884>
   1a960:	200d7693          	andi	a3,s10,512
   1a964:	fe0680e3          	beqz	a3,1a944 <_vfiprintf_r+0x898>
   1a968:	00094303          	lbu	t1,0(s2)
   1a96c:	fedff06f          	j	1a958 <_vfiprintf_r+0x8ac>
   1a970:	000216b7          	lui	a3,0x21
   1a974:	73068793          	addi	a5,a3,1840 # 21730 <zeroes.4514+0x34>
   1a978:	965ff06f          	j	1a2dc <_vfiprintf_r+0x230>
   1a97c:	010d7693          	andi	a3,s10,16
   1a980:	00490c93          	addi	s9,s2,4
   1a984:	00068663          	beqz	a3,1a990 <_vfiprintf_r+0x8e4>
   1a988:	00092303          	lw	t1,0(s2)
   1a98c:	0100006f          	j	1a99c <_vfiprintf_r+0x8f0>
   1a990:	040d7693          	andi	a3,s10,64
   1a994:	00068863          	beqz	a3,1a9a4 <_vfiprintf_r+0x8f8>
   1a998:	00095303          	lhu	t1,0(s2)
   1a99c:	00000b13          	li	s6,0
   1a9a0:	95dff06f          	j	1a2fc <_vfiprintf_r+0x250>
   1a9a4:	200d7693          	andi	a3,s10,512
   1a9a8:	fe0680e3          	beqz	a3,1a988 <_vfiprintf_r+0x8dc>
   1a9ac:	00094303          	lbu	t1,0(s2)
   1a9b0:	fedff06f          	j	1a99c <_vfiprintf_r+0x8f0>
   1a9b4:	000d0613          	mv	a2,s10
   1a9b8:	00100693          	li	a3,1
   1a9bc:	b21ff06f          	j	1a4dc <_vfiprintf_r+0x430>
   1a9c0:	00100613          	li	a2,1
   1a9c4:	34c68863          	beq	a3,a2,1ad14 <_vfiprintf_r+0xc68>
   1a9c8:	00200613          	li	a2,2
   1a9cc:	14c68663          	beq	a3,a2,1ab18 <_vfiprintf_r+0xa6c>
   1a9d0:	0f010693          	addi	a3,sp,240
   1a9d4:	01db1593          	slli	a1,s6,0x1d
   1a9d8:	00737613          	andi	a2,t1,7
   1a9dc:	00335313          	srli	t1,t1,0x3
   1a9e0:	03060613          	addi	a2,a2,48
   1a9e4:	0065e333          	or	t1,a1,t1
   1a9e8:	003b5b13          	srli	s6,s6,0x3
   1a9ec:	fec68fa3          	sb	a2,-1(a3)
   1a9f0:	016365b3          	or	a1,t1,s6
   1a9f4:	fff68913          	addi	s2,a3,-1
   1a9f8:	02059663          	bnez	a1,1aa24 <_vfiprintf_r+0x978>
   1a9fc:	001d7593          	andi	a1,s10,1
   1aa00:	00058a63          	beqz	a1,1aa14 <_vfiprintf_r+0x968>
   1aa04:	03000593          	li	a1,48
   1aa08:	00b60663          	beq	a2,a1,1aa14 <_vfiprintf_r+0x968>
   1aa0c:	feb90fa3          	sb	a1,-1(s2)
   1aa10:	ffe68913          	addi	s2,a3,-2
   1aa14:	0f010793          	addi	a5,sp,240
   1aa18:	00048b13          	mv	s6,s1
   1aa1c:	412784b3          	sub	s1,a5,s2
   1aa20:	c35ff06f          	j	1a654 <_vfiprintf_r+0x5a8>
   1aa24:	00090693          	mv	a3,s2
   1aa28:	fadff06f          	j	1a9d4 <_vfiprintf_r+0x928>
   1aa2c:	400d7793          	andi	a5,s10,1024
   1aa30:	00000893          	li	a7,0
   1aa34:	0f010e13          	addi	t3,sp,240
   1aa38:	00f12223          	sw	a5,4(sp)
   1aa3c:	00030513          	mv	a0,t1
   1aa40:	00a00613          	li	a2,10
   1aa44:	00000693          	li	a3,0
   1aa48:	000b0593          	mv	a1,s6
   1aa4c:	03112623          	sw	a7,44(sp)
   1aa50:	fffe0913          	addi	s2,t3,-1
   1aa54:	03c12223          	sw	t3,36(sp)
   1aa58:	02612023          	sw	t1,32(sp)
   1aa5c:	3ad010ef          	jal	ra,1c608 <__umoddi3>
   1aa60:	02412e03          	lw	t3,36(sp)
   1aa64:	02c12883          	lw	a7,44(sp)
   1aa68:	00412783          	lw	a5,4(sp)
   1aa6c:	03050513          	addi	a0,a0,48
   1aa70:	feae0fa3          	sb	a0,-1(t3)
   1aa74:	00188893          	addi	a7,a7,1
   1aa78:	02012303          	lw	t1,32(sp)
   1aa7c:	04078e63          	beqz	a5,1aad8 <_vfiprintf_r+0xa2c>
   1aa80:	00812783          	lw	a5,8(sp)
   1aa84:	0007c683          	lbu	a3,0(a5)
   1aa88:	05169863          	bne	a3,a7,1aad8 <_vfiprintf_r+0xa2c>
   1aa8c:	0ff00793          	li	a5,255
   1aa90:	04f88463          	beq	a7,a5,1aad8 <_vfiprintf_r+0xa2c>
   1aa94:	000b1663          	bnez	s6,1aaa0 <_vfiprintf_r+0x9f4>
   1aa98:	00900793          	li	a5,9
   1aa9c:	0267fe63          	bleu	t1,a5,1aad8 <_vfiprintf_r+0xa2c>
   1aaa0:	01012783          	lw	a5,16(sp)
   1aaa4:	01c12583          	lw	a1,28(sp)
   1aaa8:	02612023          	sw	t1,32(sp)
   1aaac:	40f90933          	sub	s2,s2,a5
   1aab0:	00078613          	mv	a2,a5
   1aab4:	00090513          	mv	a0,s2
   1aab8:	da4fd0ef          	jal	ra,1805c <strncpy>
   1aabc:	00812783          	lw	a5,8(sp)
   1aac0:	00000893          	li	a7,0
   1aac4:	02012303          	lw	t1,32(sp)
   1aac8:	0017c683          	lbu	a3,1(a5)
   1aacc:	00068663          	beqz	a3,1aad8 <_vfiprintf_r+0xa2c>
   1aad0:	00178793          	addi	a5,a5,1
   1aad4:	00f12423          	sw	a5,8(sp)
   1aad8:	00030513          	mv	a0,t1
   1aadc:	00a00613          	li	a2,10
   1aae0:	00000693          	li	a3,0
   1aae4:	000b0593          	mv	a1,s6
   1aae8:	03112223          	sw	a7,36(sp)
   1aaec:	02612023          	sw	t1,32(sp)
   1aaf0:	6e4010ef          	jal	ra,1c1d4 <__udivdi3>
   1aaf4:	02012303          	lw	t1,32(sp)
   1aaf8:	02412883          	lw	a7,36(sp)
   1aafc:	000b1663          	bnez	s6,1ab08 <_vfiprintf_r+0xa5c>
   1ab00:	00900793          	li	a5,9
   1ab04:	f067f8e3          	bleu	t1,a5,1aa14 <_vfiprintf_r+0x968>
   1ab08:	00050313          	mv	t1,a0
   1ab0c:	00058b13          	mv	s6,a1
   1ab10:	00090e13          	mv	t3,s2
   1ab14:	f29ff06f          	j	1aa3c <_vfiprintf_r+0x990>
   1ab18:	0f010913          	addi	s2,sp,240
   1ab1c:	00c12783          	lw	a5,12(sp)
   1ab20:	00f37693          	andi	a3,t1,15
   1ab24:	fff90913          	addi	s2,s2,-1
   1ab28:	00d786b3          	add	a3,a5,a3
   1ab2c:	0006c683          	lbu	a3,0(a3)
   1ab30:	00435313          	srli	t1,t1,0x4
   1ab34:	00d90023          	sb	a3,0(s2)
   1ab38:	01cb1693          	slli	a3,s6,0x1c
   1ab3c:	0066e333          	or	t1,a3,t1
   1ab40:	004b5b13          	srli	s6,s6,0x4
   1ab44:	016366b3          	or	a3,t1,s6
   1ab48:	fc069ae3          	bnez	a3,1ab1c <_vfiprintf_r+0xa70>
   1ab4c:	ec9ff06f          	j	1aa14 <_vfiprintf_r+0x968>
   1ab50:	0f010913          	addi	s2,sp,240
   1ab54:	ec0690e3          	bnez	a3,1aa14 <_vfiprintf_r+0x968>
   1ab58:	00167613          	andi	a2,a2,1
   1ab5c:	ea060ce3          	beqz	a2,1aa14 <_vfiprintf_r+0x968>
   1ab60:	03000693          	li	a3,48
   1ab64:	0ed107a3          	sb	a3,239(sp)
   1ab68:	1c00006f          	j	1ad28 <_vfiprintf_r+0xc7c>
   1ab6c:	18060263          	beqz	a2,1acf0 <_vfiprintf_r+0xc44>
   1ab70:	08c10623          	sb	a2,140(sp)
   1ab74:	02010da3          	sb	zero,59(sp)
   1ab78:	00090c93          	mv	s9,s2
   1ab7c:	905ff06f          	j	1a480 <_vfiprintf_r+0x3d4>
   1ab80:	01058593          	addi	a1,a1,16
   1ab84:	010da223          	sw	a6,4(s11)
   1ab88:	04b12423          	sw	a1,72(sp)
   1ab8c:	04c12223          	sw	a2,68(sp)
   1ab90:	02c8d663          	ble	a2,a7,1abbc <_vfiprintf_r+0xb10>
   1ab94:	04010613          	addi	a2,sp,64
   1ab98:	00040593          	mv	a1,s0
   1ab9c:	00098513          	mv	a0,s3
   1aba0:	02d12623          	sw	a3,44(sp)
   1aba4:	c0cff0ef          	jal	ra,19fb0 <__sprint_r>
   1aba8:	10051063          	bnez	a0,1aca8 <_vfiprintf_r+0xbfc>
   1abac:	02c12683          	lw	a3,44(sp)
   1abb0:	000b8513          	mv	a0,s7
   1abb4:	00700893          	li	a7,7
   1abb8:	01000813          	li	a6,16
   1abbc:	ff068693          	addi	a3,a3,-16
   1abc0:	00050d93          	mv	s11,a0
   1abc4:	ae9ff06f          	j	1a6ac <_vfiprintf_r+0x600>
   1abc8:	01058593          	addi	a1,a1,16
   1abcc:	010da223          	sw	a6,4(s11)
   1abd0:	04b12423          	sw	a1,72(sp)
   1abd4:	04c12223          	sw	a2,68(sp)
   1abd8:	02c8d663          	ble	a2,a7,1ac04 <_vfiprintf_r+0xb58>
   1abdc:	04010613          	addi	a2,sp,64
   1abe0:	00040593          	mv	a1,s0
   1abe4:	00098513          	mv	a0,s3
   1abe8:	02d12023          	sw	a3,32(sp)
   1abec:	bc4ff0ef          	jal	ra,19fb0 <__sprint_r>
   1abf0:	0a051c63          	bnez	a0,1aca8 <_vfiprintf_r+0xbfc>
   1abf4:	02012683          	lw	a3,32(sp)
   1abf8:	000b8513          	mv	a0,s7
   1abfc:	00700893          	li	a7,7
   1ac00:	01000813          	li	a6,16
   1ac04:	ff068693          	addi	a3,a3,-16
   1ac08:	00050d93          	mv	s11,a0
   1ac0c:	bb9ff06f          	j	1a7c4 <_vfiprintf_r+0x718>
   1ac10:	01060613          	addi	a2,a2,16
   1ac14:	010da223          	sw	a6,4(s11)
   1ac18:	04c12423          	sw	a2,72(sp)
   1ac1c:	04d12223          	sw	a3,68(sp)
   1ac20:	02d8d263          	ble	a3,a7,1ac44 <_vfiprintf_r+0xb98>
   1ac24:	04010613          	addi	a2,sp,64
   1ac28:	00040593          	mv	a1,s0
   1ac2c:	00098513          	mv	a0,s3
   1ac30:	b80ff0ef          	jal	ra,19fb0 <__sprint_r>
   1ac34:	06051a63          	bnez	a0,1aca8 <_vfiprintf_r+0xbfc>
   1ac38:	000b8593          	mv	a1,s7
   1ac3c:	00700893          	li	a7,7
   1ac40:	01000813          	li	a6,16
   1ac44:	ff0b0b13          	addi	s6,s6,-16
   1ac48:	00058d93          	mv	s11,a1
   1ac4c:	bd9ff06f          	j	1a824 <_vfiprintf_r+0x778>
   1ac50:	00412783          	lw	a5,4(sp)
   1ac54:	40fa04b3          	sub	s1,s4,a5
   1ac58:	c69054e3          	blez	s1,1a8c0 <_vfiprintf_r+0x814>
   1ac5c:	01000913          	li	s2,16
   1ac60:	00700b13          	li	s6,7
   1ac64:	01812603          	lw	a2,24(sp)
   1ac68:	04412783          	lw	a5,68(sp)
   1ac6c:	04812683          	lw	a3,72(sp)
   1ac70:	00c72023          	sw	a2,0(a4)
   1ac74:	00178793          	addi	a5,a5,1
   1ac78:	04994063          	blt	s2,s1,1acb8 <_vfiprintf_r+0xc0c>
   1ac7c:	00972223          	sw	s1,4(a4)
   1ac80:	00d484b3          	add	s1,s1,a3
   1ac84:	04912423          	sw	s1,72(sp)
   1ac88:	04f12223          	sw	a5,68(sp)
   1ac8c:	00700713          	li	a4,7
   1ac90:	c2f758e3          	ble	a5,a4,1a8c0 <_vfiprintf_r+0x814>
   1ac94:	04010613          	addi	a2,sp,64
   1ac98:	00040593          	mv	a1,s0
   1ac9c:	00098513          	mv	a0,s3
   1aca0:	b10ff0ef          	jal	ra,19fb0 <__sprint_r>
   1aca4:	c0050ee3          	beqz	a0,1a8c0 <_vfiprintf_r+0x814>
   1aca8:	00c45783          	lhu	a5,12(s0)
   1acac:	0407f793          	andi	a5,a5,64
   1acb0:	cc078e63          	beqz	a5,1a18c <_vfiprintf_r+0xe0>
   1acb4:	cd4ff06f          	j	1a188 <_vfiprintf_r+0xdc>
   1acb8:	01068693          	addi	a3,a3,16
   1acbc:	01272223          	sw	s2,4(a4)
   1acc0:	04d12423          	sw	a3,72(sp)
   1acc4:	04f12223          	sw	a5,68(sp)
   1acc8:	00870713          	addi	a4,a4,8
   1accc:	00fb5e63          	ble	a5,s6,1ace8 <_vfiprintf_r+0xc3c>
   1acd0:	04010613          	addi	a2,sp,64
   1acd4:	00040593          	mv	a1,s0
   1acd8:	00098513          	mv	a0,s3
   1acdc:	ad4ff0ef          	jal	ra,19fb0 <__sprint_r>
   1ace0:	fc0514e3          	bnez	a0,1aca8 <_vfiprintf_r+0xbfc>
   1ace4:	000b8713          	mv	a4,s7
   1ace8:	ff048493          	addi	s1,s1,-16
   1acec:	f79ff06f          	j	1ac64 <_vfiprintf_r+0xbb8>
   1acf0:	04812783          	lw	a5,72(sp)
   1acf4:	fa078ae3          	beqz	a5,1aca8 <_vfiprintf_r+0xbfc>
   1acf8:	04010613          	addi	a2,sp,64
   1acfc:	00040593          	mv	a1,s0
   1ad00:	00098513          	mv	a0,s3
   1ad04:	aacff0ef          	jal	ra,19fb0 <__sprint_r>
   1ad08:	fa1ff06f          	j	1aca8 <_vfiprintf_r+0xbfc>
   1ad0c:	fff00693          	li	a3,-1
   1ad10:	cad492e3          	bne	s1,a3,1a9b4 <_vfiprintf_r+0x908>
   1ad14:	d00b1ce3          	bnez	s6,1aa2c <_vfiprintf_r+0x980>
   1ad18:	00900693          	li	a3,9
   1ad1c:	d066e8e3          	bltu	a3,t1,1aa2c <_vfiprintf_r+0x980>
   1ad20:	03030313          	addi	t1,t1,48
   1ad24:	0e6107a3          	sb	t1,239(sp)
   1ad28:	0ef10913          	addi	s2,sp,239
   1ad2c:	ce9ff06f          	j	1aa14 <_vfiprintf_r+0x968>

0001ad30 <vfiprintf>:
   1ad30:	00060693          	mv	a3,a2
   1ad34:	00058613          	mv	a2,a1
   1ad38:	00050593          	mv	a1,a0
   1ad3c:	8201a503          	lw	a0,-2016(gp) # 23c68 <_impure_ptr>
   1ad40:	b6cff06f          	j	1a0ac <_vfiprintf_r>

0001ad44 <__sbprintf>:
   1ad44:	00c5d783          	lhu	a5,12(a1)
   1ad48:	b8010113          	addi	sp,sp,-1152
   1ad4c:	46812c23          	sw	s0,1144(sp)
   1ad50:	ffd7f793          	andi	a5,a5,-3
   1ad54:	00f11a23          	sh	a5,20(sp)
   1ad58:	0645a783          	lw	a5,100(a1)
   1ad5c:	00058413          	mv	s0,a1
   1ad60:	46912a23          	sw	s1,1140(sp)
   1ad64:	06f12623          	sw	a5,108(sp)
   1ad68:	00e5d783          	lhu	a5,14(a1)
   1ad6c:	47212823          	sw	s2,1136(sp)
   1ad70:	46112e23          	sw	ra,1148(sp)
   1ad74:	00f11b23          	sh	a5,22(sp)
   1ad78:	01c5a783          	lw	a5,28(a1)
   1ad7c:	00050913          	mv	s2,a0
   1ad80:	02012023          	sw	zero,32(sp)
   1ad84:	02f12223          	sw	a5,36(sp)
   1ad88:	0245a783          	lw	a5,36(a1)
   1ad8c:	00810593          	addi	a1,sp,8
   1ad90:	02f12623          	sw	a5,44(sp)
   1ad94:	07010793          	addi	a5,sp,112
   1ad98:	00f12423          	sw	a5,8(sp)
   1ad9c:	00f12c23          	sw	a5,24(sp)
   1ada0:	40000793          	li	a5,1024
   1ada4:	00f12823          	sw	a5,16(sp)
   1ada8:	00f12e23          	sw	a5,28(sp)
   1adac:	b00ff0ef          	jal	ra,1a0ac <_vfiprintf_r>
   1adb0:	00050493          	mv	s1,a0
   1adb4:	00054c63          	bltz	a0,1adcc <__sbprintf+0x88>
   1adb8:	00810593          	addi	a1,sp,8
   1adbc:	00090513          	mv	a0,s2
   1adc0:	a85f80ef          	jal	ra,13844 <_fflush_r>
   1adc4:	00050463          	beqz	a0,1adcc <__sbprintf+0x88>
   1adc8:	fff00493          	li	s1,-1
   1adcc:	01415783          	lhu	a5,20(sp)
   1add0:	0407f793          	andi	a5,a5,64
   1add4:	00078863          	beqz	a5,1ade4 <__sbprintf+0xa0>
   1add8:	00c45783          	lhu	a5,12(s0)
   1addc:	0407e793          	ori	a5,a5,64
   1ade0:	00f41623          	sh	a5,12(s0)
   1ade4:	47c12083          	lw	ra,1148(sp)
   1ade8:	47812403          	lw	s0,1144(sp)
   1adec:	00048513          	mv	a0,s1
   1adf0:	47012903          	lw	s2,1136(sp)
   1adf4:	47412483          	lw	s1,1140(sp)
   1adf8:	48010113          	addi	sp,sp,1152
   1adfc:	00008067          	ret

0001ae00 <_wctomb_r>:
   1ae00:	8201a783          	lw	a5,-2016(gp) # 23c68 <_impure_ptr>
   1ae04:	0347a783          	lw	a5,52(a5)
   1ae08:	00079663          	bnez	a5,1ae14 <_wctomb_r+0x14>
   1ae0c:	000247b7          	lui	a5,0x24
   1ae10:	ad878793          	addi	a5,a5,-1320 # 23ad8 <__global_locale>
   1ae14:	0e07a303          	lw	t1,224(a5)
   1ae18:	00030067          	jr	t1

0001ae1c <__ascii_wctomb>:
   1ae1c:	02058463          	beqz	a1,1ae44 <__ascii_wctomb+0x28>
   1ae20:	0ff00793          	li	a5,255
   1ae24:	00c7fa63          	bleu	a2,a5,1ae38 <__ascii_wctomb+0x1c>
   1ae28:	08a00793          	li	a5,138
   1ae2c:	00f52023          	sw	a5,0(a0)
   1ae30:	fff00513          	li	a0,-1
   1ae34:	00008067          	ret
   1ae38:	00c58023          	sb	a2,0(a1)
   1ae3c:	00100513          	li	a0,1
   1ae40:	00008067          	ret
   1ae44:	00000513          	li	a0,0
   1ae48:	00008067          	ret

0001ae4c <_write_r>:
   1ae4c:	ff010113          	addi	sp,sp,-16
   1ae50:	00812423          	sw	s0,8(sp)
   1ae54:	00912223          	sw	s1,4(sp)
   1ae58:	00026437          	lui	s0,0x26
   1ae5c:	00050493          	mv	s1,a0
   1ae60:	00058513          	mv	a0,a1
   1ae64:	00060593          	mv	a1,a2
   1ae68:	00068613          	mv	a2,a3
   1ae6c:	00112623          	sw	ra,12(sp)
   1ae70:	4c042e23          	sw	zero,1244(s0) # 264dc <errno>
   1ae74:	e60f50ef          	jal	ra,104d4 <_write>
   1ae78:	fff00793          	li	a5,-1
   1ae7c:	00f51863          	bne	a0,a5,1ae8c <_write_r+0x40>
   1ae80:	4dc42783          	lw	a5,1244(s0)
   1ae84:	00078463          	beqz	a5,1ae8c <_write_r+0x40>
   1ae88:	00f4a023          	sw	a5,0(s1)
   1ae8c:	00c12083          	lw	ra,12(sp)
   1ae90:	00812403          	lw	s0,8(sp)
   1ae94:	00412483          	lw	s1,4(sp)
   1ae98:	01010113          	addi	sp,sp,16
   1ae9c:	00008067          	ret

0001aea0 <_calloc_r>:
   1aea0:	02c585b3          	mul	a1,a1,a2
   1aea4:	ff010113          	addi	sp,sp,-16
   1aea8:	00812423          	sw	s0,8(sp)
   1aeac:	00112623          	sw	ra,12(sp)
   1aeb0:	809f50ef          	jal	ra,106b8 <_malloc_r>
   1aeb4:	00050413          	mv	s0,a0
   1aeb8:	04050263          	beqz	a0,1aefc <_calloc_r+0x5c>
   1aebc:	ffc52603          	lw	a2,-4(a0)
   1aec0:	02400713          	li	a4,36
   1aec4:	ffc67613          	andi	a2,a2,-4
   1aec8:	ffc60613          	addi	a2,a2,-4
   1aecc:	06c76263          	bltu	a4,a2,1af30 <_calloc_r+0x90>
   1aed0:	01300693          	li	a3,19
   1aed4:	00050793          	mv	a5,a0
   1aed8:	00c6fc63          	bleu	a2,a3,1aef0 <_calloc_r+0x50>
   1aedc:	00052023          	sw	zero,0(a0)
   1aee0:	00052223          	sw	zero,4(a0)
   1aee4:	01b00793          	li	a5,27
   1aee8:	02c7e463          	bltu	a5,a2,1af10 <_calloc_r+0x70>
   1aeec:	00850793          	addi	a5,a0,8
   1aef0:	0007a023          	sw	zero,0(a5)
   1aef4:	0007a223          	sw	zero,4(a5)
   1aef8:	0007a423          	sw	zero,8(a5)
   1aefc:	00040513          	mv	a0,s0
   1af00:	00c12083          	lw	ra,12(sp)
   1af04:	00812403          	lw	s0,8(sp)
   1af08:	01010113          	addi	sp,sp,16
   1af0c:	00008067          	ret
   1af10:	00052423          	sw	zero,8(a0)
   1af14:	00052623          	sw	zero,12(a0)
   1af18:	01050793          	addi	a5,a0,16
   1af1c:	fce61ae3          	bne	a2,a4,1aef0 <_calloc_r+0x50>
   1af20:	00052823          	sw	zero,16(a0)
   1af24:	01850793          	addi	a5,a0,24
   1af28:	00052a23          	sw	zero,20(a0)
   1af2c:	fc5ff06f          	j	1aef0 <_calloc_r+0x50>
   1af30:	00000593          	li	a1,0
   1af34:	de5f50ef          	jal	ra,10d18 <memset>
   1af38:	fc5ff06f          	j	1aefc <_calloc_r+0x5c>

0001af3c <_close_r>:
   1af3c:	ff010113          	addi	sp,sp,-16
   1af40:	00812423          	sw	s0,8(sp)
   1af44:	00912223          	sw	s1,4(sp)
   1af48:	00026437          	lui	s0,0x26
   1af4c:	00050493          	mv	s1,a0
   1af50:	00058513          	mv	a0,a1
   1af54:	00112623          	sw	ra,12(sp)
   1af58:	4c042e23          	sw	zero,1244(s0) # 264dc <errno>
   1af5c:	d9cf50ef          	jal	ra,104f8 <_close>
   1af60:	fff00793          	li	a5,-1
   1af64:	00f51863          	bne	a0,a5,1af74 <_close_r+0x38>
   1af68:	4dc42783          	lw	a5,1244(s0)
   1af6c:	00078463          	beqz	a5,1af74 <_close_r+0x38>
   1af70:	00f4a023          	sw	a5,0(s1)
   1af74:	00c12083          	lw	ra,12(sp)
   1af78:	00812403          	lw	s0,8(sp)
   1af7c:	00412483          	lw	s1,4(sp)
   1af80:	01010113          	addi	sp,sp,16
   1af84:	00008067          	ret

0001af88 <_fclose_r>:
   1af88:	ff010113          	addi	sp,sp,-16
   1af8c:	00112623          	sw	ra,12(sp)
   1af90:	00812423          	sw	s0,8(sp)
   1af94:	00912223          	sw	s1,4(sp)
   1af98:	01212023          	sw	s2,0(sp)
   1af9c:	02059263          	bnez	a1,1afc0 <_fclose_r+0x38>
   1afa0:	00000913          	li	s2,0
   1afa4:	00c12083          	lw	ra,12(sp)
   1afa8:	00812403          	lw	s0,8(sp)
   1afac:	00090513          	mv	a0,s2
   1afb0:	00412483          	lw	s1,4(sp)
   1afb4:	00012903          	lw	s2,0(sp)
   1afb8:	01010113          	addi	sp,sp,16
   1afbc:	00008067          	ret
   1afc0:	00050493          	mv	s1,a0
   1afc4:	00058413          	mv	s0,a1
   1afc8:	00050863          	beqz	a0,1afd8 <_fclose_r+0x50>
   1afcc:	03852783          	lw	a5,56(a0)
   1afd0:	00079463          	bnez	a5,1afd8 <_fclose_r+0x50>
   1afd4:	a01f80ef          	jal	ra,139d4 <__sinit>
   1afd8:	00c41783          	lh	a5,12(s0)
   1afdc:	fc0782e3          	beqz	a5,1afa0 <_fclose_r+0x18>
   1afe0:	00040593          	mv	a1,s0
   1afe4:	00048513          	mv	a0,s1
   1afe8:	e54f80ef          	jal	ra,1363c <__sflush_r>
   1afec:	02c42783          	lw	a5,44(s0)
   1aff0:	00050913          	mv	s2,a0
   1aff4:	00078c63          	beqz	a5,1b00c <_fclose_r+0x84>
   1aff8:	01c42583          	lw	a1,28(s0)
   1affc:	00048513          	mv	a0,s1
   1b000:	000780e7          	jalr	a5
   1b004:	00055463          	bgez	a0,1b00c <_fclose_r+0x84>
   1b008:	fff00913          	li	s2,-1
   1b00c:	00c45783          	lhu	a5,12(s0)
   1b010:	0807f793          	andi	a5,a5,128
   1b014:	00078863          	beqz	a5,1b024 <_fclose_r+0x9c>
   1b018:	01042583          	lw	a1,16(s0)
   1b01c:	00048513          	mv	a0,s1
   1b020:	c5df80ef          	jal	ra,13c7c <_free_r>
   1b024:	03042583          	lw	a1,48(s0)
   1b028:	00058c63          	beqz	a1,1b040 <_fclose_r+0xb8>
   1b02c:	04040793          	addi	a5,s0,64
   1b030:	00f58663          	beq	a1,a5,1b03c <_fclose_r+0xb4>
   1b034:	00048513          	mv	a0,s1
   1b038:	c45f80ef          	jal	ra,13c7c <_free_r>
   1b03c:	02042823          	sw	zero,48(s0)
   1b040:	04442583          	lw	a1,68(s0)
   1b044:	00058863          	beqz	a1,1b054 <_fclose_r+0xcc>
   1b048:	00048513          	mv	a0,s1
   1b04c:	c31f80ef          	jal	ra,13c7c <_free_r>
   1b050:	04042223          	sw	zero,68(s0)
   1b054:	aedf80ef          	jal	ra,13b40 <__sfp_lock_acquire>
   1b058:	00041623          	sh	zero,12(s0)
   1b05c:	ae9f80ef          	jal	ra,13b44 <__sfp_lock_release>
   1b060:	f45ff06f          	j	1afa4 <_fclose_r+0x1c>

0001b064 <fclose>:
   1b064:	00050593          	mv	a1,a0
   1b068:	8201a503          	lw	a0,-2016(gp) # 23c68 <_impure_ptr>
   1b06c:	f1dff06f          	j	1af88 <_fclose_r>

0001b070 <__fputwc>:
   1b070:	fd010113          	addi	sp,sp,-48
   1b074:	02812423          	sw	s0,40(sp)
   1b078:	02912223          	sw	s1,36(sp)
   1b07c:	01412c23          	sw	s4,24(sp)
   1b080:	02112623          	sw	ra,44(sp)
   1b084:	03212023          	sw	s2,32(sp)
   1b088:	01312e23          	sw	s3,28(sp)
   1b08c:	01512a23          	sw	s5,20(sp)
   1b090:	01612823          	sw	s6,16(sp)
   1b094:	00050a13          	mv	s4,a0
   1b098:	00058493          	mv	s1,a1
   1b09c:	00060413          	mv	s0,a2
   1b0a0:	c18fb0ef          	jal	ra,164b8 <__locale_mb_cur_max>
   1b0a4:	00100793          	li	a5,1
   1b0a8:	04f51a63          	bne	a0,a5,1b0fc <__fputwc+0x8c>
   1b0ac:	fff48793          	addi	a5,s1,-1
   1b0b0:	0fe00713          	li	a4,254
   1b0b4:	04f76463          	bltu	a4,a5,1b0fc <__fputwc+0x8c>
   1b0b8:	00910623          	sb	s1,12(sp)
   1b0bc:	00100993          	li	s3,1
   1b0c0:	00000913          	li	s2,0
   1b0c4:	fff00a93          	li	s5,-1
   1b0c8:	00a00b13          	li	s6,10
   1b0cc:	07391263          	bne	s2,s3,1b130 <__fputwc+0xc0>
   1b0d0:	00048513          	mv	a0,s1
   1b0d4:	02c12083          	lw	ra,44(sp)
   1b0d8:	02812403          	lw	s0,40(sp)
   1b0dc:	02412483          	lw	s1,36(sp)
   1b0e0:	02012903          	lw	s2,32(sp)
   1b0e4:	01c12983          	lw	s3,28(sp)
   1b0e8:	01812a03          	lw	s4,24(sp)
   1b0ec:	01412a83          	lw	s5,20(sp)
   1b0f0:	01012b03          	lw	s6,16(sp)
   1b0f4:	03010113          	addi	sp,sp,48
   1b0f8:	00008067          	ret
   1b0fc:	05c40693          	addi	a3,s0,92
   1b100:	00048613          	mv	a2,s1
   1b104:	00c10593          	addi	a1,sp,12
   1b108:	000a0513          	mv	a0,s4
   1b10c:	02c010ef          	jal	ra,1c138 <_wcrtomb_r>
   1b110:	fff00793          	li	a5,-1
   1b114:	00050993          	mv	s3,a0
   1b118:	faf514e3          	bne	a0,a5,1b0c0 <__fputwc+0x50>
   1b11c:	00c45783          	lhu	a5,12(s0)
   1b120:	0407e793          	ori	a5,a5,64
   1b124:	00f41623          	sh	a5,12(s0)
   1b128:	fff00513          	li	a0,-1
   1b12c:	fa9ff06f          	j	1b0d4 <__fputwc+0x64>
   1b130:	00c10793          	addi	a5,sp,12
   1b134:	012787b3          	add	a5,a5,s2
   1b138:	0007c583          	lbu	a1,0(a5)
   1b13c:	00842783          	lw	a5,8(s0)
   1b140:	fff78793          	addi	a5,a5,-1
   1b144:	00f42423          	sw	a5,8(s0)
   1b148:	0007d863          	bgez	a5,1b158 <__fputwc+0xe8>
   1b14c:	01842703          	lw	a4,24(s0)
   1b150:	02e7c063          	blt	a5,a4,1b170 <__fputwc+0x100>
   1b154:	01658e63          	beq	a1,s6,1b170 <__fputwc+0x100>
   1b158:	00042783          	lw	a5,0(s0)
   1b15c:	00178713          	addi	a4,a5,1
   1b160:	00e42023          	sw	a4,0(s0)
   1b164:	00b78023          	sb	a1,0(a5)
   1b168:	00190913          	addi	s2,s2,1
   1b16c:	f61ff06f          	j	1b0cc <__fputwc+0x5c>
   1b170:	00040613          	mv	a2,s0
   1b174:	000a0513          	mv	a0,s4
   1b178:	8c8f80ef          	jal	ra,13240 <__swbuf_r>
   1b17c:	ff5516e3          	bne	a0,s5,1b168 <__fputwc+0xf8>
   1b180:	fa9ff06f          	j	1b128 <__fputwc+0xb8>

0001b184 <_fputwc_r>:
   1b184:	00c61783          	lh	a5,12(a2)
   1b188:	01279713          	slli	a4,a5,0x12
   1b18c:	02074063          	bltz	a4,1b1ac <_fputwc_r+0x28>
   1b190:	06462703          	lw	a4,100(a2)
   1b194:	000026b7          	lui	a3,0x2
   1b198:	00d7e7b3          	or	a5,a5,a3
   1b19c:	00f61623          	sh	a5,12(a2)
   1b1a0:	000027b7          	lui	a5,0x2
   1b1a4:	00f767b3          	or	a5,a4,a5
   1b1a8:	06f62223          	sw	a5,100(a2)
   1b1ac:	ec5ff06f          	j	1b070 <__fputwc>

0001b1b0 <fputwc>:
   1b1b0:	fe010113          	addi	sp,sp,-32
   1b1b4:	00812c23          	sw	s0,24(sp)
   1b1b8:	8201a403          	lw	s0,-2016(gp) # 23c68 <_impure_ptr>
   1b1bc:	00912a23          	sw	s1,20(sp)
   1b1c0:	00112e23          	sw	ra,28(sp)
   1b1c4:	00050493          	mv	s1,a0
   1b1c8:	00058613          	mv	a2,a1
   1b1cc:	00040e63          	beqz	s0,1b1e8 <fputwc+0x38>
   1b1d0:	03842783          	lw	a5,56(s0)
   1b1d4:	00079a63          	bnez	a5,1b1e8 <fputwc+0x38>
   1b1d8:	00040513          	mv	a0,s0
   1b1dc:	00b12623          	sw	a1,12(sp)
   1b1e0:	ff4f80ef          	jal	ra,139d4 <__sinit>
   1b1e4:	00c12603          	lw	a2,12(sp)
   1b1e8:	00040513          	mv	a0,s0
   1b1ec:	01812403          	lw	s0,24(sp)
   1b1f0:	01c12083          	lw	ra,28(sp)
   1b1f4:	00048593          	mv	a1,s1
   1b1f8:	01412483          	lw	s1,20(sp)
   1b1fc:	02010113          	addi	sp,sp,32
   1b200:	f85ff06f          	j	1b184 <_fputwc_r>

0001b204 <_fstat_r>:
   1b204:	ff010113          	addi	sp,sp,-16
   1b208:	00812423          	sw	s0,8(sp)
   1b20c:	00912223          	sw	s1,4(sp)
   1b210:	00026437          	lui	s0,0x26
   1b214:	00050493          	mv	s1,a0
   1b218:	00058513          	mv	a0,a1
   1b21c:	00060593          	mv	a1,a2
   1b220:	00112623          	sw	ra,12(sp)
   1b224:	4c042e23          	sw	zero,1244(s0) # 264dc <errno>
   1b228:	ad8f50ef          	jal	ra,10500 <_fstat>
   1b22c:	fff00793          	li	a5,-1
   1b230:	00f51863          	bne	a0,a5,1b240 <_fstat_r+0x3c>
   1b234:	4dc42783          	lw	a5,1244(s0)
   1b238:	00078463          	beqz	a5,1b240 <_fstat_r+0x3c>
   1b23c:	00f4a023          	sw	a5,0(s1)
   1b240:	00c12083          	lw	ra,12(sp)
   1b244:	00812403          	lw	s0,8(sp)
   1b248:	00412483          	lw	s1,4(sp)
   1b24c:	01010113          	addi	sp,sp,16
   1b250:	00008067          	ret

0001b254 <_isatty_r>:
   1b254:	ff010113          	addi	sp,sp,-16
   1b258:	00812423          	sw	s0,8(sp)
   1b25c:	00912223          	sw	s1,4(sp)
   1b260:	00026437          	lui	s0,0x26
   1b264:	00050493          	mv	s1,a0
   1b268:	00058513          	mv	a0,a1
   1b26c:	00112623          	sw	ra,12(sp)
   1b270:	4c042e23          	sw	zero,1244(s0) # 264dc <errno>
   1b274:	a30f50ef          	jal	ra,104a4 <_access>
   1b278:	fff00793          	li	a5,-1
   1b27c:	00f51863          	bne	a0,a5,1b28c <_isatty_r+0x38>
   1b280:	4dc42783          	lw	a5,1244(s0)
   1b284:	00078463          	beqz	a5,1b28c <_isatty_r+0x38>
   1b288:	00f4a023          	sw	a5,0(s1)
   1b28c:	00c12083          	lw	ra,12(sp)
   1b290:	00812403          	lw	s0,8(sp)
   1b294:	00412483          	lw	s1,4(sp)
   1b298:	01010113          	addi	sp,sp,16
   1b29c:	00008067          	ret

0001b2a0 <_lseek_r>:
   1b2a0:	ff010113          	addi	sp,sp,-16
   1b2a4:	00812423          	sw	s0,8(sp)
   1b2a8:	00912223          	sw	s1,4(sp)
   1b2ac:	00026437          	lui	s0,0x26
   1b2b0:	00050493          	mv	s1,a0
   1b2b4:	00058513          	mv	a0,a1
   1b2b8:	00060593          	mv	a1,a2
   1b2bc:	00068613          	mv	a2,a3
   1b2c0:	00112623          	sw	ra,12(sp)
   1b2c4:	4c042e23          	sw	zero,1244(s0) # 264dc <errno>
   1b2c8:	9dcf50ef          	jal	ra,104a4 <_access>
   1b2cc:	fff00793          	li	a5,-1
   1b2d0:	00f51863          	bne	a0,a5,1b2e0 <_lseek_r+0x40>
   1b2d4:	4dc42783          	lw	a5,1244(s0)
   1b2d8:	00078463          	beqz	a5,1b2e0 <_lseek_r+0x40>
   1b2dc:	00f4a023          	sw	a5,0(s1)
   1b2e0:	00c12083          	lw	ra,12(sp)
   1b2e4:	00812403          	lw	s0,8(sp)
   1b2e8:	00412483          	lw	s1,4(sp)
   1b2ec:	01010113          	addi	sp,sp,16
   1b2f0:	00008067          	ret

0001b2f4 <_read_r>:
   1b2f4:	ff010113          	addi	sp,sp,-16
   1b2f8:	00812423          	sw	s0,8(sp)
   1b2fc:	00912223          	sw	s1,4(sp)
   1b300:	00026437          	lui	s0,0x26
   1b304:	00050493          	mv	s1,a0
   1b308:	00058513          	mv	a0,a1
   1b30c:	00060593          	mv	a1,a2
   1b310:	00068613          	mv	a2,a3
   1b314:	00112623          	sw	ra,12(sp)
   1b318:	4c042e23          	sw	zero,1244(s0) # 264dc <errno>
   1b31c:	9b0f50ef          	jal	ra,104cc <_read>
   1b320:	fff00793          	li	a5,-1
   1b324:	00f51863          	bne	a0,a5,1b334 <_read_r+0x40>
   1b328:	4dc42783          	lw	a5,1244(s0)
   1b32c:	00078463          	beqz	a5,1b334 <_read_r+0x40>
   1b330:	00f4a023          	sw	a5,0(s1)
   1b334:	00c12083          	lw	ra,12(sp)
   1b338:	00812403          	lw	s0,8(sp)
   1b33c:	00412483          	lw	s1,4(sp)
   1b340:	01010113          	addi	sp,sp,16
   1b344:	00008067          	ret

0001b348 <__ssprint_r>:
   1b348:	00862783          	lw	a5,8(a2)
   1b34c:	fd010113          	addi	sp,sp,-48
   1b350:	01312e23          	sw	s3,28(sp)
   1b354:	02112623          	sw	ra,44(sp)
   1b358:	02812423          	sw	s0,40(sp)
   1b35c:	02912223          	sw	s1,36(sp)
   1b360:	03212023          	sw	s2,32(sp)
   1b364:	01412c23          	sw	s4,24(sp)
   1b368:	01512a23          	sw	s5,20(sp)
   1b36c:	01612823          	sw	s6,16(sp)
   1b370:	01712623          	sw	s7,12(sp)
   1b374:	01812423          	sw	s8,8(sp)
   1b378:	01912223          	sw	s9,4(sp)
   1b37c:	01a12023          	sw	s10,0(sp)
   1b380:	00060993          	mv	s3,a2
   1b384:	12078463          	beqz	a5,1b4ac <__ssprint_r+0x164>
   1b388:	00062a83          	lw	s5,0(a2)
   1b38c:	00050a13          	mv	s4,a0
   1b390:	00058413          	mv	s0,a1
   1b394:	00000b13          	li	s6,0
   1b398:	00000913          	li	s2,0
   1b39c:	00300b93          	li	s7,3
   1b3a0:	00200c13          	li	s8,2
   1b3a4:	08090063          	beqz	s2,1b424 <__ssprint_r+0xdc>
   1b3a8:	00842d03          	lw	s10,8(s0)
   1b3ac:	0da96063          	bltu	s2,s10,1b46c <__ssprint_r+0x124>
   1b3b0:	00c45783          	lhu	a5,12(s0)
   1b3b4:	4807f713          	andi	a4,a5,1152
   1b3b8:	0a070a63          	beqz	a4,1b46c <__ssprint_r+0x124>
   1b3bc:	00042483          	lw	s1,0(s0)
   1b3c0:	01042583          	lw	a1,16(s0)
   1b3c4:	40b48cb3          	sub	s9,s1,a1
   1b3c8:	01442483          	lw	s1,20(s0)
   1b3cc:	001c8713          	addi	a4,s9,1
   1b3d0:	01270733          	add	a4,a4,s2
   1b3d4:	029b84b3          	mul	s1,s7,s1
   1b3d8:	0384c4b3          	div	s1,s1,s8
   1b3dc:	00e4f463          	bleu	a4,s1,1b3e4 <__ssprint_r+0x9c>
   1b3e0:	00070493          	mv	s1,a4
   1b3e4:	4007f793          	andi	a5,a5,1024
   1b3e8:	10078263          	beqz	a5,1b4ec <__ssprint_r+0x1a4>
   1b3ec:	00048593          	mv	a1,s1
   1b3f0:	000a0513          	mv	a0,s4
   1b3f4:	ac4f50ef          	jal	ra,106b8 <_malloc_r>
   1b3f8:	00050d13          	mv	s10,a0
   1b3fc:	02051c63          	bnez	a0,1b434 <__ssprint_r+0xec>
   1b400:	00c00793          	li	a5,12
   1b404:	00fa2023          	sw	a5,0(s4)
   1b408:	00c45783          	lhu	a5,12(s0)
   1b40c:	fff00513          	li	a0,-1
   1b410:	0407e793          	ori	a5,a5,64
   1b414:	00f41623          	sh	a5,12(s0)
   1b418:	0009a423          	sw	zero,8(s3)
   1b41c:	0009a223          	sw	zero,4(s3)
   1b420:	0940006f          	j	1b4b4 <__ssprint_r+0x16c>
   1b424:	000aab03          	lw	s6,0(s5)
   1b428:	004aa903          	lw	s2,4(s5)
   1b42c:	008a8a93          	addi	s5,s5,8
   1b430:	f75ff06f          	j	1b3a4 <__ssprint_r+0x5c>
   1b434:	01042583          	lw	a1,16(s0)
   1b438:	000c8613          	mv	a2,s9
   1b43c:	af4fb0ef          	jal	ra,16730 <memcpy>
   1b440:	00c45783          	lhu	a5,12(s0)
   1b444:	b7f7f793          	andi	a5,a5,-1153
   1b448:	0807e793          	ori	a5,a5,128
   1b44c:	00f41623          	sh	a5,12(s0)
   1b450:	01a42823          	sw	s10,16(s0)
   1b454:	00942a23          	sw	s1,20(s0)
   1b458:	019d0d33          	add	s10,s10,s9
   1b45c:	419484b3          	sub	s1,s1,s9
   1b460:	01a42023          	sw	s10,0(s0)
   1b464:	00942423          	sw	s1,8(s0)
   1b468:	00090d13          	mv	s10,s2
   1b46c:	01a97463          	bleu	s10,s2,1b474 <__ssprint_r+0x12c>
   1b470:	00090d13          	mv	s10,s2
   1b474:	00042503          	lw	a0,0(s0)
   1b478:	000d0613          	mv	a2,s10
   1b47c:	000b0593          	mv	a1,s6
   1b480:	b88fb0ef          	jal	ra,16808 <memmove>
   1b484:	00842783          	lw	a5,8(s0)
   1b488:	41a787b3          	sub	a5,a5,s10
   1b48c:	00f42423          	sw	a5,8(s0)
   1b490:	00042783          	lw	a5,0(s0)
   1b494:	01a78d33          	add	s10,a5,s10
   1b498:	0089a783          	lw	a5,8(s3)
   1b49c:	01a42023          	sw	s10,0(s0)
   1b4a0:	41278933          	sub	s2,a5,s2
   1b4a4:	0129a423          	sw	s2,8(s3)
   1b4a8:	f6091ee3          	bnez	s2,1b424 <__ssprint_r+0xdc>
   1b4ac:	0009a223          	sw	zero,4(s3)
   1b4b0:	00000513          	li	a0,0
   1b4b4:	02c12083          	lw	ra,44(sp)
   1b4b8:	02812403          	lw	s0,40(sp)
   1b4bc:	02412483          	lw	s1,36(sp)
   1b4c0:	02012903          	lw	s2,32(sp)
   1b4c4:	01c12983          	lw	s3,28(sp)
   1b4c8:	01812a03          	lw	s4,24(sp)
   1b4cc:	01412a83          	lw	s5,20(sp)
   1b4d0:	01012b03          	lw	s6,16(sp)
   1b4d4:	00c12b83          	lw	s7,12(sp)
   1b4d8:	00812c03          	lw	s8,8(sp)
   1b4dc:	00412c83          	lw	s9,4(sp)
   1b4e0:	00012d03          	lw	s10,0(sp)
   1b4e4:	03010113          	addi	sp,sp,48
   1b4e8:	00008067          	ret
   1b4ec:	00048613          	mv	a2,s1
   1b4f0:	000a0513          	mv	a0,s4
   1b4f4:	9e4fc0ef          	jal	ra,176d8 <_realloc_r>
   1b4f8:	00050d13          	mv	s10,a0
   1b4fc:	f4051ae3          	bnez	a0,1b450 <__ssprint_r+0x108>
   1b500:	01042583          	lw	a1,16(s0)
   1b504:	000a0513          	mv	a0,s4
   1b508:	f74f80ef          	jal	ra,13c7c <_free_r>
   1b50c:	ef5ff06f          	j	1b400 <__ssprint_r+0xb8>

0001b510 <_svfiprintf_r>:
   1b510:	00c5d783          	lhu	a5,12(a1)
   1b514:	ed010113          	addi	sp,sp,-304
   1b518:	12912223          	sw	s1,292(sp)
   1b51c:	13212023          	sw	s2,288(sp)
   1b520:	11412c23          	sw	s4,280(sp)
   1b524:	11612823          	sw	s6,272(sp)
   1b528:	12112623          	sw	ra,300(sp)
   1b52c:	12812423          	sw	s0,296(sp)
   1b530:	11312e23          	sw	s3,284(sp)
   1b534:	11512a23          	sw	s5,276(sp)
   1b538:	11712623          	sw	s7,268(sp)
   1b53c:	11812423          	sw	s8,264(sp)
   1b540:	11912223          	sw	s9,260(sp)
   1b544:	11a12023          	sw	s10,256(sp)
   1b548:	0fb12e23          	sw	s11,252(sp)
   1b54c:	0807f793          	andi	a5,a5,128
   1b550:	00050a13          	mv	s4,a0
   1b554:	00058913          	mv	s2,a1
   1b558:	00060b13          	mv	s6,a2
   1b55c:	00068493          	mv	s1,a3
   1b560:	02078c63          	beqz	a5,1b598 <_svfiprintf_r+0x88>
   1b564:	0105a783          	lw	a5,16(a1)
   1b568:	02079863          	bnez	a5,1b598 <_svfiprintf_r+0x88>
   1b56c:	04000593          	li	a1,64
   1b570:	948f50ef          	jal	ra,106b8 <_malloc_r>
   1b574:	00a92023          	sw	a0,0(s2)
   1b578:	00a92823          	sw	a0,16(s2)
   1b57c:	00051a63          	bnez	a0,1b590 <_svfiprintf_r+0x80>
   1b580:	00c00793          	li	a5,12
   1b584:	00fa2023          	sw	a5,0(s4)
   1b588:	fff00c13          	li	s8,-1
   1b58c:	2f50006f          	j	1c080 <_svfiprintf_r+0xb70>
   1b590:	04000793          	li	a5,64
   1b594:	00f92a23          	sw	a5,20(s2)
   1b598:	000227b7          	lui	a5,0x22
   1b59c:	f1c78793          	addi	a5,a5,-228 # 21f1c <_ctype_+0x104>
   1b5a0:	02f12423          	sw	a5,40(sp)
   1b5a4:	000227b7          	lui	a5,0x22
   1b5a8:	09878793          	addi	a5,a5,152 # 22098 <zeroes.4476>
   1b5ac:	00f12a23          	sw	a5,20(sp)
   1b5b0:	000227b7          	lui	a5,0x22
   1b5b4:	04c10b93          	addi	s7,sp,76
   1b5b8:	08878793          	addi	a5,a5,136 # 22088 <blanks.4475>
   1b5bc:	05712023          	sw	s7,64(sp)
   1b5c0:	04012423          	sw	zero,72(sp)
   1b5c4:	04012223          	sw	zero,68(sp)
   1b5c8:	000b8d93          	mv	s11,s7
   1b5cc:	00012823          	sw	zero,16(sp)
   1b5d0:	00012423          	sw	zero,8(sp)
   1b5d4:	00012623          	sw	zero,12(sp)
   1b5d8:	00012e23          	sw	zero,28(sp)
   1b5dc:	00000c13          	li	s8,0
   1b5e0:	00f12c23          	sw	a5,24(sp)
   1b5e4:	000b0413          	mv	s0,s6
   1b5e8:	02500693          	li	a3,37
   1b5ec:	00044783          	lbu	a5,0(s0)
   1b5f0:	00078463          	beqz	a5,1b5f8 <_svfiprintf_r+0xe8>
   1b5f4:	0ad79263          	bne	a5,a3,1b698 <_svfiprintf_r+0x188>
   1b5f8:	416409b3          	sub	s3,s0,s6
   1b5fc:	04098663          	beqz	s3,1b648 <_svfiprintf_r+0x138>
   1b600:	04812783          	lw	a5,72(sp)
   1b604:	016da023          	sw	s6,0(s11)
   1b608:	013da223          	sw	s3,4(s11)
   1b60c:	013787b3          	add	a5,a5,s3
   1b610:	04f12423          	sw	a5,72(sp)
   1b614:	04412783          	lw	a5,68(sp)
   1b618:	00700693          	li	a3,7
   1b61c:	008d8d93          	addi	s11,s11,8
   1b620:	00178793          	addi	a5,a5,1
   1b624:	04f12223          	sw	a5,68(sp)
   1b628:	00f6de63          	ble	a5,a3,1b644 <_svfiprintf_r+0x134>
   1b62c:	04010613          	addi	a2,sp,64
   1b630:	00090593          	mv	a1,s2
   1b634:	000a0513          	mv	a0,s4
   1b638:	d11ff0ef          	jal	ra,1b348 <__ssprint_r>
   1b63c:	22051ce3          	bnez	a0,1c074 <_svfiprintf_r+0xb64>
   1b640:	000b8d93          	mv	s11,s7
   1b644:	013c0c33          	add	s8,s8,s3
   1b648:	00044783          	lbu	a5,0(s0)
   1b64c:	2a0786e3          	beqz	a5,1c0f8 <_svfiprintf_r+0xbe8>
   1b650:	00140693          	addi	a3,s0,1
   1b654:	02010da3          	sb	zero,59(sp)
   1b658:	fff00413          	li	s0,-1
   1b65c:	00000993          	li	s3,0
   1b660:	00000d13          	li	s10,0
   1b664:	00a00a93          	li	s5,10
   1b668:	00900c93          	li	s9,9
   1b66c:	0006c603          	lbu	a2,0(a3) # 2000 <_start-0xe000>
   1b670:	00168b13          	addi	s6,a3,1
   1b674:	05a00513          	li	a0,90
   1b678:	02a00813          	li	a6,42
   1b67c:	fe060693          	addi	a3,a2,-32
   1b680:	0ad56ce3          	bltu	a0,a3,1bf38 <_svfiprintf_r+0xa28>
   1b684:	02812783          	lw	a5,40(sp)
   1b688:	00269693          	slli	a3,a3,0x2
   1b68c:	00f686b3          	add	a3,a3,a5
   1b690:	0006a683          	lw	a3,0(a3)
   1b694:	00068067          	jr	a3
   1b698:	00140413          	addi	s0,s0,1
   1b69c:	f51ff06f          	j	1b5ec <_svfiprintf_r+0xdc>
   1b6a0:	000216b7          	lui	a3,0x21
   1b6a4:	71c68793          	addi	a5,a3,1820 # 2171c <zeroes.4514+0x20>
   1b6a8:	00f12823          	sw	a5,16(sp)
   1b6ac:	020d7693          	andi	a3,s10,32
   1b6b0:	68068c63          	beqz	a3,1bd48 <_svfiprintf_r+0x838>
   1b6b4:	00748493          	addi	s1,s1,7
   1b6b8:	ff84f493          	andi	s1,s1,-8
   1b6bc:	0004a303          	lw	t1,0(s1)
   1b6c0:	0044aa83          	lw	s5,4(s1)
   1b6c4:	00848c93          	addi	s9,s1,8
   1b6c8:	001d7693          	andi	a3,s10,1
   1b6cc:	00068e63          	beqz	a3,1b6e8 <_svfiprintf_r+0x1d8>
   1b6d0:	015366b3          	or	a3,t1,s5
   1b6d4:	00068a63          	beqz	a3,1b6e8 <_svfiprintf_r+0x1d8>
   1b6d8:	03000693          	li	a3,48
   1b6dc:	02d10e23          	sb	a3,60(sp)
   1b6e0:	02c10ea3          	sb	a2,61(sp)
   1b6e4:	002d6d13          	ori	s10,s10,2
   1b6e8:	bffd7d13          	andi	s10,s10,-1025
   1b6ec:	2fc0006f          	j	1b9e8 <_svfiprintf_r+0x4d8>
   1b6f0:	000a0513          	mv	a0,s4
   1b6f4:	d19fa0ef          	jal	ra,1640c <_localeconv_r>
   1b6f8:	00452783          	lw	a5,4(a0)
   1b6fc:	00078513          	mv	a0,a5
   1b700:	00f12e23          	sw	a5,28(sp)
   1b704:	ad9f50ef          	jal	ra,111dc <strlen>
   1b708:	00a12623          	sw	a0,12(sp)
   1b70c:	000a0513          	mv	a0,s4
   1b710:	cfdfa0ef          	jal	ra,1640c <_localeconv_r>
   1b714:	00852783          	lw	a5,8(a0)
   1b718:	00f12423          	sw	a5,8(sp)
   1b71c:	00c12783          	lw	a5,12(sp)
   1b720:	00078c63          	beqz	a5,1b738 <_svfiprintf_r+0x228>
   1b724:	00812783          	lw	a5,8(sp)
   1b728:	00078863          	beqz	a5,1b738 <_svfiprintf_r+0x228>
   1b72c:	0007c683          	lbu	a3,0(a5)
   1b730:	00068463          	beqz	a3,1b738 <_svfiprintf_r+0x228>
   1b734:	400d6d13          	ori	s10,s10,1024
   1b738:	000b0693          	mv	a3,s6
   1b73c:	f31ff06f          	j	1b66c <_svfiprintf_r+0x15c>
   1b740:	03b14683          	lbu	a3,59(sp)
   1b744:	fe069ae3          	bnez	a3,1b738 <_svfiprintf_r+0x228>
   1b748:	02000693          	li	a3,32
   1b74c:	02d10da3          	sb	a3,59(sp)
   1b750:	fe9ff06f          	j	1b738 <_svfiprintf_r+0x228>
   1b754:	001d6d13          	ori	s10,s10,1
   1b758:	fe1ff06f          	j	1b738 <_svfiprintf_r+0x228>
   1b75c:	0004a983          	lw	s3,0(s1)
   1b760:	00448493          	addi	s1,s1,4
   1b764:	fc09dae3          	bgez	s3,1b738 <_svfiprintf_r+0x228>
   1b768:	413009b3          	neg	s3,s3
   1b76c:	004d6d13          	ori	s10,s10,4
   1b770:	fc9ff06f          	j	1b738 <_svfiprintf_r+0x228>
   1b774:	02b00693          	li	a3,43
   1b778:	fd5ff06f          	j	1b74c <_svfiprintf_r+0x23c>
   1b77c:	000b4603          	lbu	a2,0(s6)
   1b780:	001b0693          	addi	a3,s6,1
   1b784:	05061063          	bne	a2,a6,1b7c4 <_svfiprintf_r+0x2b4>
   1b788:	0004a403          	lw	s0,0(s1)
   1b78c:	00448613          	addi	a2,s1,4
   1b790:	00045463          	bgez	s0,1b798 <_svfiprintf_r+0x288>
   1b794:	fff00413          	li	s0,-1
   1b798:	00060493          	mv	s1,a2
   1b79c:	00068b13          	mv	s6,a3
   1b7a0:	f99ff06f          	j	1b738 <_svfiprintf_r+0x228>
   1b7a4:	03540433          	mul	s0,s0,s5
   1b7a8:	00168693          	addi	a3,a3,1
   1b7ac:	fff6c603          	lbu	a2,-1(a3)
   1b7b0:	00b40433          	add	s0,s0,a1
   1b7b4:	fd060593          	addi	a1,a2,-48
   1b7b8:	febcf6e3          	bleu	a1,s9,1b7a4 <_svfiprintf_r+0x294>
   1b7bc:	00068b13          	mv	s6,a3
   1b7c0:	ebdff06f          	j	1b67c <_svfiprintf_r+0x16c>
   1b7c4:	00000413          	li	s0,0
   1b7c8:	fedff06f          	j	1b7b4 <_svfiprintf_r+0x2a4>
   1b7cc:	080d6d13          	ori	s10,s10,128
   1b7d0:	f69ff06f          	j	1b738 <_svfiprintf_r+0x228>
   1b7d4:	000b0693          	mv	a3,s6
   1b7d8:	00000993          	li	s3,0
   1b7dc:	035989b3          	mul	s3,s3,s5
   1b7e0:	fd060613          	addi	a2,a2,-48
   1b7e4:	00168693          	addi	a3,a3,1
   1b7e8:	013609b3          	add	s3,a2,s3
   1b7ec:	fff6c603          	lbu	a2,-1(a3)
   1b7f0:	fd060593          	addi	a1,a2,-48
   1b7f4:	febcf4e3          	bleu	a1,s9,1b7dc <_svfiprintf_r+0x2cc>
   1b7f8:	fc5ff06f          	j	1b7bc <_svfiprintf_r+0x2ac>
   1b7fc:	000b4603          	lbu	a2,0(s6)
   1b800:	06800693          	li	a3,104
   1b804:	00d61863          	bne	a2,a3,1b814 <_svfiprintf_r+0x304>
   1b808:	001b0b13          	addi	s6,s6,1
   1b80c:	200d6d13          	ori	s10,s10,512
   1b810:	f29ff06f          	j	1b738 <_svfiprintf_r+0x228>
   1b814:	040d6d13          	ori	s10,s10,64
   1b818:	f21ff06f          	j	1b738 <_svfiprintf_r+0x228>
   1b81c:	000b4603          	lbu	a2,0(s6)
   1b820:	06c00693          	li	a3,108
   1b824:	00d61863          	bne	a2,a3,1b834 <_svfiprintf_r+0x324>
   1b828:	001b0b13          	addi	s6,s6,1
   1b82c:	020d6d13          	ori	s10,s10,32
   1b830:	f09ff06f          	j	1b738 <_svfiprintf_r+0x228>
   1b834:	010d6d13          	ori	s10,s10,16
   1b838:	f01ff06f          	j	1b738 <_svfiprintf_r+0x228>
   1b83c:	0004a683          	lw	a3,0(s1)
   1b840:	00448c93          	addi	s9,s1,4
   1b844:	02010da3          	sb	zero,59(sp)
   1b848:	08d10623          	sb	a3,140(sp)
   1b84c:	00100413          	li	s0,1
   1b850:	00000a93          	li	s5,0
   1b854:	08c10493          	addi	s1,sp,140
   1b858:	1c80006f          	j	1ba20 <_svfiprintf_r+0x510>
   1b85c:	010d6d13          	ori	s10,s10,16
   1b860:	020d7693          	andi	a3,s10,32
   1b864:	06068063          	beqz	a3,1b8c4 <_svfiprintf_r+0x3b4>
   1b868:	00748493          	addi	s1,s1,7
   1b86c:	ff84f493          	andi	s1,s1,-8
   1b870:	0004a303          	lw	t1,0(s1)
   1b874:	0044aa83          	lw	s5,4(s1)
   1b878:	00848c93          	addi	s9,s1,8
   1b87c:	080adce3          	bgez	s5,1c114 <_svfiprintf_r+0xc04>
   1b880:	40600333          	neg	t1,t1
   1b884:	006036b3          	snez	a3,t1
   1b888:	41500833          	neg	a6,s5
   1b88c:	40d80ab3          	sub	s5,a6,a3
   1b890:	02d00693          	li	a3,45
   1b894:	02d10da3          	sb	a3,59(sp)
   1b898:	00100693          	li	a3,1
   1b89c:	fff00613          	li	a2,-1
   1b8a0:	4ec40663          	beq	s0,a2,1bd8c <_svfiprintf_r+0x87c>
   1b8a4:	000d0613          	mv	a2,s10
   1b8a8:	015365b3          	or	a1,t1,s5
   1b8ac:	f7fd7d13          	andi	s10,s10,-129
   1b8b0:	4c059e63          	bnez	a1,1bd8c <_svfiprintf_r+0x87c>
   1b8b4:	66040463          	beqz	s0,1bf1c <_svfiprintf_r+0xa0c>
   1b8b8:	00100613          	li	a2,1
   1b8bc:	4cc69c63          	bne	a3,a2,1bd94 <_svfiprintf_r+0x884>
   1b8c0:	0690006f          	j	1c128 <_svfiprintf_r+0xc18>
   1b8c4:	010d7693          	andi	a3,s10,16
   1b8c8:	00448c93          	addi	s9,s1,4
   1b8cc:	00068863          	beqz	a3,1b8dc <_svfiprintf_r+0x3cc>
   1b8d0:	0004a303          	lw	t1,0(s1)
   1b8d4:	41f35a93          	srai	s5,t1,0x1f
   1b8d8:	fa5ff06f          	j	1b87c <_svfiprintf_r+0x36c>
   1b8dc:	040d7693          	andi	a3,s10,64
   1b8e0:	0004a303          	lw	t1,0(s1)
   1b8e4:	00068863          	beqz	a3,1b8f4 <_svfiprintf_r+0x3e4>
   1b8e8:	01031313          	slli	t1,t1,0x10
   1b8ec:	41035313          	srai	t1,t1,0x10
   1b8f0:	fe5ff06f          	j	1b8d4 <_svfiprintf_r+0x3c4>
   1b8f4:	200d7693          	andi	a3,s10,512
   1b8f8:	fc068ee3          	beqz	a3,1b8d4 <_svfiprintf_r+0x3c4>
   1b8fc:	01831313          	slli	t1,t1,0x18
   1b900:	41835313          	srai	t1,t1,0x18
   1b904:	fd1ff06f          	j	1b8d4 <_svfiprintf_r+0x3c4>
   1b908:	020d7613          	andi	a2,s10,32
   1b90c:	0004a683          	lw	a3,0(s1)
   1b910:	00448493          	addi	s1,s1,4
   1b914:	00060a63          	beqz	a2,1b928 <_svfiprintf_r+0x418>
   1b918:	41fc5793          	srai	a5,s8,0x1f
   1b91c:	0186a023          	sw	s8,0(a3)
   1b920:	00f6a223          	sw	a5,4(a3)
   1b924:	cc1ff06f          	j	1b5e4 <_svfiprintf_r+0xd4>
   1b928:	010d7613          	andi	a2,s10,16
   1b92c:	00060663          	beqz	a2,1b938 <_svfiprintf_r+0x428>
   1b930:	0186a023          	sw	s8,0(a3)
   1b934:	cb1ff06f          	j	1b5e4 <_svfiprintf_r+0xd4>
   1b938:	040d7613          	andi	a2,s10,64
   1b93c:	00060663          	beqz	a2,1b948 <_svfiprintf_r+0x438>
   1b940:	01869023          	sh	s8,0(a3)
   1b944:	ca1ff06f          	j	1b5e4 <_svfiprintf_r+0xd4>
   1b948:	200d7793          	andi	a5,s10,512
   1b94c:	fe0782e3          	beqz	a5,1b930 <_svfiprintf_r+0x420>
   1b950:	01868023          	sb	s8,0(a3)
   1b954:	c91ff06f          	j	1b5e4 <_svfiprintf_r+0xd4>
   1b958:	010d6d13          	ori	s10,s10,16
   1b95c:	020d7693          	andi	a3,s10,32
   1b960:	02068463          	beqz	a3,1b988 <_svfiprintf_r+0x478>
   1b964:	00748493          	addi	s1,s1,7
   1b968:	ff84f493          	andi	s1,s1,-8
   1b96c:	0004a303          	lw	t1,0(s1)
   1b970:	0044aa83          	lw	s5,4(s1)
   1b974:	00848c93          	addi	s9,s1,8
   1b978:	bffd7d13          	andi	s10,s10,-1025
   1b97c:	00000693          	li	a3,0
   1b980:	02010da3          	sb	zero,59(sp)
   1b984:	f19ff06f          	j	1b89c <_svfiprintf_r+0x38c>
   1b988:	010d7693          	andi	a3,s10,16
   1b98c:	00448c93          	addi	s9,s1,4
   1b990:	00068663          	beqz	a3,1b99c <_svfiprintf_r+0x48c>
   1b994:	0004a303          	lw	t1,0(s1)
   1b998:	0100006f          	j	1b9a8 <_svfiprintf_r+0x498>
   1b99c:	040d7693          	andi	a3,s10,64
   1b9a0:	00068863          	beqz	a3,1b9b0 <_svfiprintf_r+0x4a0>
   1b9a4:	0004d303          	lhu	t1,0(s1)
   1b9a8:	00000a93          	li	s5,0
   1b9ac:	fcdff06f          	j	1b978 <_svfiprintf_r+0x468>
   1b9b0:	200d7693          	andi	a3,s10,512
   1b9b4:	fe0680e3          	beqz	a3,1b994 <_svfiprintf_r+0x484>
   1b9b8:	0004c303          	lbu	t1,0(s1)
   1b9bc:	fedff06f          	j	1b9a8 <_svfiprintf_r+0x498>
   1b9c0:	ffff86b7          	lui	a3,0xffff8
   1b9c4:	8306c693          	xori	a3,a3,-2000
   1b9c8:	02d11e23          	sh	a3,60(sp)
   1b9cc:	0004a303          	lw	t1,0(s1)
   1b9d0:	000216b7          	lui	a3,0x21
   1b9d4:	71c68793          	addi	a5,a3,1820 # 2171c <zeroes.4514+0x20>
   1b9d8:	00448c93          	addi	s9,s1,4
   1b9dc:	00000a93          	li	s5,0
   1b9e0:	002d6d13          	ori	s10,s10,2
   1b9e4:	00f12823          	sw	a5,16(sp)
   1b9e8:	00200693          	li	a3,2
   1b9ec:	f95ff06f          	j	1b980 <_svfiprintf_r+0x470>
   1b9f0:	02010da3          	sb	zero,59(sp)
   1b9f4:	fff00693          	li	a3,-1
   1b9f8:	00448c93          	addi	s9,s1,4
   1b9fc:	0004a483          	lw	s1,0(s1)
   1ba00:	2cd40463          	beq	s0,a3,1bcc8 <_svfiprintf_r+0x7b8>
   1ba04:	00040613          	mv	a2,s0
   1ba08:	00000593          	li	a1,0
   1ba0c:	00048513          	mv	a0,s1
   1ba10:	cfdfa0ef          	jal	ra,1670c <memchr>
   1ba14:	00000a93          	li	s5,0
   1ba18:	00050463          	beqz	a0,1ba20 <_svfiprintf_r+0x510>
   1ba1c:	40950433          	sub	s0,a0,s1
   1ba20:	01512223          	sw	s5,4(sp)
   1ba24:	008ad463          	ble	s0,s5,1ba2c <_svfiprintf_r+0x51c>
   1ba28:	00812223          	sw	s0,4(sp)
   1ba2c:	03b14683          	lbu	a3,59(sp)
   1ba30:	00068863          	beqz	a3,1ba40 <_svfiprintf_r+0x530>
   1ba34:	00412783          	lw	a5,4(sp)
   1ba38:	00178793          	addi	a5,a5,1
   1ba3c:	00f12223          	sw	a5,4(sp)
   1ba40:	002d7793          	andi	a5,s10,2
   1ba44:	02f12023          	sw	a5,32(sp)
   1ba48:	00078863          	beqz	a5,1ba58 <_svfiprintf_r+0x548>
   1ba4c:	00412783          	lw	a5,4(sp)
   1ba50:	00278793          	addi	a5,a5,2
   1ba54:	00f12223          	sw	a5,4(sp)
   1ba58:	084d7793          	andi	a5,s10,132
   1ba5c:	02f12223          	sw	a5,36(sp)
   1ba60:	06079463          	bnez	a5,1bac8 <_svfiprintf_r+0x5b8>
   1ba64:	00412783          	lw	a5,4(sp)
   1ba68:	40f986b3          	sub	a3,s3,a5
   1ba6c:	04d05e63          	blez	a3,1bac8 <_svfiprintf_r+0x5b8>
   1ba70:	01000813          	li	a6,16
   1ba74:	00700893          	li	a7,7
   1ba78:	01812783          	lw	a5,24(sp)
   1ba7c:	04412603          	lw	a2,68(sp)
   1ba80:	04812583          	lw	a1,72(sp)
   1ba84:	00fda023          	sw	a5,0(s11)
   1ba88:	00160613          	addi	a2,a2,1
   1ba8c:	008d8513          	addi	a0,s11,8
   1ba90:	4ad84e63          	blt	a6,a3,1bf4c <_svfiprintf_r+0xa3c>
   1ba94:	00dda223          	sw	a3,4(s11)
   1ba98:	00b686b3          	add	a3,a3,a1
   1ba9c:	04d12423          	sw	a3,72(sp)
   1baa0:	04c12223          	sw	a2,68(sp)
   1baa4:	00700693          	li	a3,7
   1baa8:	00050d93          	mv	s11,a0
   1baac:	00c6de63          	ble	a2,a3,1bac8 <_svfiprintf_r+0x5b8>
   1bab0:	04010613          	addi	a2,sp,64
   1bab4:	00090593          	mv	a1,s2
   1bab8:	000a0513          	mv	a0,s4
   1babc:	88dff0ef          	jal	ra,1b348 <__ssprint_r>
   1bac0:	5a051a63          	bnez	a0,1c074 <_svfiprintf_r+0xb64>
   1bac4:	000b8d93          	mv	s11,s7
   1bac8:	03b14683          	lbu	a3,59(sp)
   1bacc:	04068863          	beqz	a3,1bb1c <_svfiprintf_r+0x60c>
   1bad0:	03b10613          	addi	a2,sp,59
   1bad4:	00cda023          	sw	a2,0(s11)
   1bad8:	00100613          	li	a2,1
   1badc:	04412683          	lw	a3,68(sp)
   1bae0:	00cda223          	sw	a2,4(s11)
   1bae4:	04812603          	lw	a2,72(sp)
   1bae8:	00168693          	addi	a3,a3,1
   1baec:	04d12223          	sw	a3,68(sp)
   1baf0:	00160613          	addi	a2,a2,1
   1baf4:	04c12423          	sw	a2,72(sp)
   1baf8:	00700613          	li	a2,7
   1bafc:	008d8d93          	addi	s11,s11,8
   1bb00:	00d65e63          	ble	a3,a2,1bb1c <_svfiprintf_r+0x60c>
   1bb04:	04010613          	addi	a2,sp,64
   1bb08:	00090593          	mv	a1,s2
   1bb0c:	000a0513          	mv	a0,s4
   1bb10:	839ff0ef          	jal	ra,1b348 <__ssprint_r>
   1bb14:	56051063          	bnez	a0,1c074 <_svfiprintf_r+0xb64>
   1bb18:	000b8d93          	mv	s11,s7
   1bb1c:	02012783          	lw	a5,32(sp)
   1bb20:	04078863          	beqz	a5,1bb70 <_svfiprintf_r+0x660>
   1bb24:	03c10613          	addi	a2,sp,60
   1bb28:	00cda023          	sw	a2,0(s11)
   1bb2c:	00200613          	li	a2,2
   1bb30:	04412683          	lw	a3,68(sp)
   1bb34:	00cda223          	sw	a2,4(s11)
   1bb38:	04812603          	lw	a2,72(sp)
   1bb3c:	00168693          	addi	a3,a3,1
   1bb40:	04d12223          	sw	a3,68(sp)
   1bb44:	00260613          	addi	a2,a2,2
   1bb48:	04c12423          	sw	a2,72(sp)
   1bb4c:	00700613          	li	a2,7
   1bb50:	008d8d93          	addi	s11,s11,8
   1bb54:	00d65e63          	ble	a3,a2,1bb70 <_svfiprintf_r+0x660>
   1bb58:	04010613          	addi	a2,sp,64
   1bb5c:	00090593          	mv	a1,s2
   1bb60:	000a0513          	mv	a0,s4
   1bb64:	fe4ff0ef          	jal	ra,1b348 <__ssprint_r>
   1bb68:	50051663          	bnez	a0,1c074 <_svfiprintf_r+0xb64>
   1bb6c:	000b8d93          	mv	s11,s7
   1bb70:	02412783          	lw	a5,36(sp)
   1bb74:	08000693          	li	a3,128
   1bb78:	06d79463          	bne	a5,a3,1bbe0 <_svfiprintf_r+0x6d0>
   1bb7c:	00412783          	lw	a5,4(sp)
   1bb80:	40f986b3          	sub	a3,s3,a5
   1bb84:	04d05e63          	blez	a3,1bbe0 <_svfiprintf_r+0x6d0>
   1bb88:	01000813          	li	a6,16
   1bb8c:	00700893          	li	a7,7
   1bb90:	01412783          	lw	a5,20(sp)
   1bb94:	04412603          	lw	a2,68(sp)
   1bb98:	04812583          	lw	a1,72(sp)
   1bb9c:	00fda023          	sw	a5,0(s11)
   1bba0:	00160613          	addi	a2,a2,1
   1bba4:	008d8513          	addi	a0,s11,8
   1bba8:	3ed84663          	blt	a6,a3,1bf94 <_svfiprintf_r+0xa84>
   1bbac:	00dda223          	sw	a3,4(s11)
   1bbb0:	00b686b3          	add	a3,a3,a1
   1bbb4:	04d12423          	sw	a3,72(sp)
   1bbb8:	04c12223          	sw	a2,68(sp)
   1bbbc:	00700693          	li	a3,7
   1bbc0:	00050d93          	mv	s11,a0
   1bbc4:	00c6de63          	ble	a2,a3,1bbe0 <_svfiprintf_r+0x6d0>
   1bbc8:	04010613          	addi	a2,sp,64
   1bbcc:	00090593          	mv	a1,s2
   1bbd0:	000a0513          	mv	a0,s4
   1bbd4:	f74ff0ef          	jal	ra,1b348 <__ssprint_r>
   1bbd8:	48051e63          	bnez	a0,1c074 <_svfiprintf_r+0xb64>
   1bbdc:	000b8d93          	mv	s11,s7
   1bbe0:	408a8ab3          	sub	s5,s5,s0
   1bbe4:	05505e63          	blez	s5,1bc40 <_svfiprintf_r+0x730>
   1bbe8:	01000813          	li	a6,16
   1bbec:	00700893          	li	a7,7
   1bbf0:	01412783          	lw	a5,20(sp)
   1bbf4:	04412683          	lw	a3,68(sp)
   1bbf8:	04812603          	lw	a2,72(sp)
   1bbfc:	00fda023          	sw	a5,0(s11)
   1bc00:	00168693          	addi	a3,a3,1
   1bc04:	008d8593          	addi	a1,s11,8
   1bc08:	3d584a63          	blt	a6,s5,1bfdc <_svfiprintf_r+0xacc>
   1bc0c:	015da223          	sw	s5,4(s11)
   1bc10:	00ca8ab3          	add	s5,s5,a2
   1bc14:	05512423          	sw	s5,72(sp)
   1bc18:	04d12223          	sw	a3,68(sp)
   1bc1c:	00700613          	li	a2,7
   1bc20:	00058d93          	mv	s11,a1
   1bc24:	00d65e63          	ble	a3,a2,1bc40 <_svfiprintf_r+0x730>
   1bc28:	04010613          	addi	a2,sp,64
   1bc2c:	00090593          	mv	a1,s2
   1bc30:	000a0513          	mv	a0,s4
   1bc34:	f14ff0ef          	jal	ra,1b348 <__ssprint_r>
   1bc38:	42051e63          	bnez	a0,1c074 <_svfiprintf_r+0xb64>
   1bc3c:	000b8d93          	mv	s11,s7
   1bc40:	04812683          	lw	a3,72(sp)
   1bc44:	008da223          	sw	s0,4(s11)
   1bc48:	009da023          	sw	s1,0(s11)
   1bc4c:	00868433          	add	s0,a3,s0
   1bc50:	04412683          	lw	a3,68(sp)
   1bc54:	04812423          	sw	s0,72(sp)
   1bc58:	00700613          	li	a2,7
   1bc5c:	00168693          	addi	a3,a3,1
   1bc60:	04d12223          	sw	a3,68(sp)
   1bc64:	008d8713          	addi	a4,s11,8
   1bc68:	00d65e63          	ble	a3,a2,1bc84 <_svfiprintf_r+0x774>
   1bc6c:	04010613          	addi	a2,sp,64
   1bc70:	00090593          	mv	a1,s2
   1bc74:	000a0513          	mv	a0,s4
   1bc78:	ed0ff0ef          	jal	ra,1b348 <__ssprint_r>
   1bc7c:	3e051c63          	bnez	a0,1c074 <_svfiprintf_r+0xb64>
   1bc80:	000b8713          	mv	a4,s7
   1bc84:	004d7793          	andi	a5,s10,4
   1bc88:	38079a63          	bnez	a5,1c01c <_svfiprintf_r+0xb0c>
   1bc8c:	00412783          	lw	a5,4(sp)
   1bc90:	00f9d463          	ble	a5,s3,1bc98 <_svfiprintf_r+0x788>
   1bc94:	00078993          	mv	s3,a5
   1bc98:	04812783          	lw	a5,72(sp)
   1bc9c:	013c0c33          	add	s8,s8,s3
   1bca0:	00078c63          	beqz	a5,1bcb8 <_svfiprintf_r+0x7a8>
   1bca4:	04010613          	addi	a2,sp,64
   1bca8:	00090593          	mv	a1,s2
   1bcac:	000a0513          	mv	a0,s4
   1bcb0:	e98ff0ef          	jal	ra,1b348 <__ssprint_r>
   1bcb4:	3c051063          	bnez	a0,1c074 <_svfiprintf_r+0xb64>
   1bcb8:	04012223          	sw	zero,68(sp)
   1bcbc:	000c8493          	mv	s1,s9
   1bcc0:	000b8d93          	mv	s11,s7
   1bcc4:	921ff06f          	j	1b5e4 <_svfiprintf_r+0xd4>
   1bcc8:	00048513          	mv	a0,s1
   1bccc:	d10f50ef          	jal	ra,111dc <strlen>
   1bcd0:	00050413          	mv	s0,a0
   1bcd4:	00000a93          	li	s5,0
   1bcd8:	d49ff06f          	j	1ba20 <_svfiprintf_r+0x510>
   1bcdc:	010d6d13          	ori	s10,s10,16
   1bce0:	020d7693          	andi	a3,s10,32
   1bce4:	02068063          	beqz	a3,1bd04 <_svfiprintf_r+0x7f4>
   1bce8:	00748493          	addi	s1,s1,7
   1bcec:	ff84f493          	andi	s1,s1,-8
   1bcf0:	0004a303          	lw	t1,0(s1)
   1bcf4:	0044aa83          	lw	s5,4(s1)
   1bcf8:	00848c93          	addi	s9,s1,8
   1bcfc:	00100693          	li	a3,1
   1bd00:	c81ff06f          	j	1b980 <_svfiprintf_r+0x470>
   1bd04:	010d7693          	andi	a3,s10,16
   1bd08:	00448c93          	addi	s9,s1,4
   1bd0c:	00068663          	beqz	a3,1bd18 <_svfiprintf_r+0x808>
   1bd10:	0004a303          	lw	t1,0(s1)
   1bd14:	0100006f          	j	1bd24 <_svfiprintf_r+0x814>
   1bd18:	040d7693          	andi	a3,s10,64
   1bd1c:	00068863          	beqz	a3,1bd2c <_svfiprintf_r+0x81c>
   1bd20:	0004d303          	lhu	t1,0(s1)
   1bd24:	00000a93          	li	s5,0
   1bd28:	fd5ff06f          	j	1bcfc <_svfiprintf_r+0x7ec>
   1bd2c:	200d7693          	andi	a3,s10,512
   1bd30:	fe0680e3          	beqz	a3,1bd10 <_svfiprintf_r+0x800>
   1bd34:	0004c303          	lbu	t1,0(s1)
   1bd38:	fedff06f          	j	1bd24 <_svfiprintf_r+0x814>
   1bd3c:	000216b7          	lui	a3,0x21
   1bd40:	73068793          	addi	a5,a3,1840 # 21730 <zeroes.4514+0x34>
   1bd44:	965ff06f          	j	1b6a8 <_svfiprintf_r+0x198>
   1bd48:	010d7693          	andi	a3,s10,16
   1bd4c:	00448c93          	addi	s9,s1,4
   1bd50:	00068663          	beqz	a3,1bd5c <_svfiprintf_r+0x84c>
   1bd54:	0004a303          	lw	t1,0(s1)
   1bd58:	0100006f          	j	1bd68 <_svfiprintf_r+0x858>
   1bd5c:	040d7693          	andi	a3,s10,64
   1bd60:	00068863          	beqz	a3,1bd70 <_svfiprintf_r+0x860>
   1bd64:	0004d303          	lhu	t1,0(s1)
   1bd68:	00000a93          	li	s5,0
   1bd6c:	95dff06f          	j	1b6c8 <_svfiprintf_r+0x1b8>
   1bd70:	200d7693          	andi	a3,s10,512
   1bd74:	fe0680e3          	beqz	a3,1bd54 <_svfiprintf_r+0x844>
   1bd78:	0004c303          	lbu	t1,0(s1)
   1bd7c:	fedff06f          	j	1bd68 <_svfiprintf_r+0x858>
   1bd80:	000d0613          	mv	a2,s10
   1bd84:	00100693          	li	a3,1
   1bd88:	b21ff06f          	j	1b8a8 <_svfiprintf_r+0x398>
   1bd8c:	00100613          	li	a2,1
   1bd90:	38c68663          	beq	a3,a2,1c11c <_svfiprintf_r+0xc0c>
   1bd94:	00200613          	li	a2,2
   1bd98:	14c68663          	beq	a3,a2,1bee4 <_svfiprintf_r+0x9d4>
   1bd9c:	0f010693          	addi	a3,sp,240
   1bda0:	01da9593          	slli	a1,s5,0x1d
   1bda4:	00737613          	andi	a2,t1,7
   1bda8:	00335313          	srli	t1,t1,0x3
   1bdac:	03060613          	addi	a2,a2,48
   1bdb0:	0065e333          	or	t1,a1,t1
   1bdb4:	003ada93          	srli	s5,s5,0x3
   1bdb8:	fec68fa3          	sb	a2,-1(a3)
   1bdbc:	015365b3          	or	a1,t1,s5
   1bdc0:	fff68493          	addi	s1,a3,-1
   1bdc4:	02059663          	bnez	a1,1bdf0 <_svfiprintf_r+0x8e0>
   1bdc8:	001d7593          	andi	a1,s10,1
   1bdcc:	00058a63          	beqz	a1,1bde0 <_svfiprintf_r+0x8d0>
   1bdd0:	03000593          	li	a1,48
   1bdd4:	00b60663          	beq	a2,a1,1bde0 <_svfiprintf_r+0x8d0>
   1bdd8:	feb48fa3          	sb	a1,-1(s1)
   1bddc:	ffe68493          	addi	s1,a3,-2
   1bde0:	0f010793          	addi	a5,sp,240
   1bde4:	00040a93          	mv	s5,s0
   1bde8:	40978433          	sub	s0,a5,s1
   1bdec:	c35ff06f          	j	1ba20 <_svfiprintf_r+0x510>
   1bdf0:	00048693          	mv	a3,s1
   1bdf4:	fadff06f          	j	1bda0 <_svfiprintf_r+0x890>
   1bdf8:	400d7793          	andi	a5,s10,1024
   1bdfc:	00000893          	li	a7,0
   1be00:	0f010e13          	addi	t3,sp,240
   1be04:	00f12223          	sw	a5,4(sp)
   1be08:	00030513          	mv	a0,t1
   1be0c:	00a00613          	li	a2,10
   1be10:	00000693          	li	a3,0
   1be14:	000a8593          	mv	a1,s5
   1be18:	03112623          	sw	a7,44(sp)
   1be1c:	fffe0493          	addi	s1,t3,-1
   1be20:	03c12223          	sw	t3,36(sp)
   1be24:	02612023          	sw	t1,32(sp)
   1be28:	7e0000ef          	jal	ra,1c608 <__umoddi3>
   1be2c:	02412e03          	lw	t3,36(sp)
   1be30:	02c12883          	lw	a7,44(sp)
   1be34:	00412783          	lw	a5,4(sp)
   1be38:	03050513          	addi	a0,a0,48
   1be3c:	feae0fa3          	sb	a0,-1(t3)
   1be40:	00188893          	addi	a7,a7,1
   1be44:	02012303          	lw	t1,32(sp)
   1be48:	04078e63          	beqz	a5,1bea4 <_svfiprintf_r+0x994>
   1be4c:	00812783          	lw	a5,8(sp)
   1be50:	0007c683          	lbu	a3,0(a5)
   1be54:	05169863          	bne	a3,a7,1bea4 <_svfiprintf_r+0x994>
   1be58:	0ff00793          	li	a5,255
   1be5c:	04f88463          	beq	a7,a5,1bea4 <_svfiprintf_r+0x994>
   1be60:	000a9663          	bnez	s5,1be6c <_svfiprintf_r+0x95c>
   1be64:	00900793          	li	a5,9
   1be68:	0267fe63          	bleu	t1,a5,1bea4 <_svfiprintf_r+0x994>
   1be6c:	00c12783          	lw	a5,12(sp)
   1be70:	01c12583          	lw	a1,28(sp)
   1be74:	02612023          	sw	t1,32(sp)
   1be78:	40f484b3          	sub	s1,s1,a5
   1be7c:	00078613          	mv	a2,a5
   1be80:	00048513          	mv	a0,s1
   1be84:	9d8fc0ef          	jal	ra,1805c <strncpy>
   1be88:	00812783          	lw	a5,8(sp)
   1be8c:	00000893          	li	a7,0
   1be90:	02012303          	lw	t1,32(sp)
   1be94:	0017c683          	lbu	a3,1(a5)
   1be98:	00068663          	beqz	a3,1bea4 <_svfiprintf_r+0x994>
   1be9c:	00178793          	addi	a5,a5,1
   1bea0:	00f12423          	sw	a5,8(sp)
   1bea4:	00030513          	mv	a0,t1
   1bea8:	00a00613          	li	a2,10
   1beac:	00000693          	li	a3,0
   1beb0:	000a8593          	mv	a1,s5
   1beb4:	03112223          	sw	a7,36(sp)
   1beb8:	02612023          	sw	t1,32(sp)
   1bebc:	318000ef          	jal	ra,1c1d4 <__udivdi3>
   1bec0:	02012303          	lw	t1,32(sp)
   1bec4:	02412883          	lw	a7,36(sp)
   1bec8:	000a9663          	bnez	s5,1bed4 <_svfiprintf_r+0x9c4>
   1becc:	00900793          	li	a5,9
   1bed0:	f067f8e3          	bleu	t1,a5,1bde0 <_svfiprintf_r+0x8d0>
   1bed4:	00050313          	mv	t1,a0
   1bed8:	00058a93          	mv	s5,a1
   1bedc:	00048e13          	mv	t3,s1
   1bee0:	f29ff06f          	j	1be08 <_svfiprintf_r+0x8f8>
   1bee4:	0f010493          	addi	s1,sp,240
   1bee8:	01012783          	lw	a5,16(sp)
   1beec:	00f37693          	andi	a3,t1,15
   1bef0:	fff48493          	addi	s1,s1,-1
   1bef4:	00d786b3          	add	a3,a5,a3
   1bef8:	0006c683          	lbu	a3,0(a3)
   1befc:	00435313          	srli	t1,t1,0x4
   1bf00:	00d48023          	sb	a3,0(s1)
   1bf04:	01ca9693          	slli	a3,s5,0x1c
   1bf08:	0066e333          	or	t1,a3,t1
   1bf0c:	004ada93          	srli	s5,s5,0x4
   1bf10:	015366b3          	or	a3,t1,s5
   1bf14:	fc069ae3          	bnez	a3,1bee8 <_svfiprintf_r+0x9d8>
   1bf18:	ec9ff06f          	j	1bde0 <_svfiprintf_r+0x8d0>
   1bf1c:	0f010493          	addi	s1,sp,240
   1bf20:	ec0690e3          	bnez	a3,1bde0 <_svfiprintf_r+0x8d0>
   1bf24:	00167613          	andi	a2,a2,1
   1bf28:	ea060ce3          	beqz	a2,1bde0 <_svfiprintf_r+0x8d0>
   1bf2c:	03000693          	li	a3,48
   1bf30:	0ed107a3          	sb	a3,239(sp)
   1bf34:	1fc0006f          	j	1c130 <_svfiprintf_r+0xc20>
   1bf38:	1c060063          	beqz	a2,1c0f8 <_svfiprintf_r+0xbe8>
   1bf3c:	08c10623          	sb	a2,140(sp)
   1bf40:	02010da3          	sb	zero,59(sp)
   1bf44:	00048c93          	mv	s9,s1
   1bf48:	905ff06f          	j	1b84c <_svfiprintf_r+0x33c>
   1bf4c:	01058593          	addi	a1,a1,16
   1bf50:	010da223          	sw	a6,4(s11)
   1bf54:	04b12423          	sw	a1,72(sp)
   1bf58:	04c12223          	sw	a2,68(sp)
   1bf5c:	02c8d663          	ble	a2,a7,1bf88 <_svfiprintf_r+0xa78>
   1bf60:	04010613          	addi	a2,sp,64
   1bf64:	00090593          	mv	a1,s2
   1bf68:	000a0513          	mv	a0,s4
   1bf6c:	02d12623          	sw	a3,44(sp)
   1bf70:	bd8ff0ef          	jal	ra,1b348 <__ssprint_r>
   1bf74:	10051063          	bnez	a0,1c074 <_svfiprintf_r+0xb64>
   1bf78:	02c12683          	lw	a3,44(sp)
   1bf7c:	000b8513          	mv	a0,s7
   1bf80:	00700893          	li	a7,7
   1bf84:	01000813          	li	a6,16
   1bf88:	ff068693          	addi	a3,a3,-16
   1bf8c:	00050d93          	mv	s11,a0
   1bf90:	ae9ff06f          	j	1ba78 <_svfiprintf_r+0x568>
   1bf94:	01058593          	addi	a1,a1,16
   1bf98:	010da223          	sw	a6,4(s11)
   1bf9c:	04b12423          	sw	a1,72(sp)
   1bfa0:	04c12223          	sw	a2,68(sp)
   1bfa4:	02c8d663          	ble	a2,a7,1bfd0 <_svfiprintf_r+0xac0>
   1bfa8:	04010613          	addi	a2,sp,64
   1bfac:	00090593          	mv	a1,s2
   1bfb0:	000a0513          	mv	a0,s4
   1bfb4:	02d12023          	sw	a3,32(sp)
   1bfb8:	b90ff0ef          	jal	ra,1b348 <__ssprint_r>
   1bfbc:	0a051c63          	bnez	a0,1c074 <_svfiprintf_r+0xb64>
   1bfc0:	02012683          	lw	a3,32(sp)
   1bfc4:	000b8513          	mv	a0,s7
   1bfc8:	00700893          	li	a7,7
   1bfcc:	01000813          	li	a6,16
   1bfd0:	ff068693          	addi	a3,a3,-16
   1bfd4:	00050d93          	mv	s11,a0
   1bfd8:	bb9ff06f          	j	1bb90 <_svfiprintf_r+0x680>
   1bfdc:	01060613          	addi	a2,a2,16
   1bfe0:	010da223          	sw	a6,4(s11)
   1bfe4:	04c12423          	sw	a2,72(sp)
   1bfe8:	04d12223          	sw	a3,68(sp)
   1bfec:	02d8d263          	ble	a3,a7,1c010 <_svfiprintf_r+0xb00>
   1bff0:	04010613          	addi	a2,sp,64
   1bff4:	00090593          	mv	a1,s2
   1bff8:	000a0513          	mv	a0,s4
   1bffc:	b4cff0ef          	jal	ra,1b348 <__ssprint_r>
   1c000:	06051a63          	bnez	a0,1c074 <_svfiprintf_r+0xb64>
   1c004:	000b8593          	mv	a1,s7
   1c008:	00700893          	li	a7,7
   1c00c:	01000813          	li	a6,16
   1c010:	ff0a8a93          	addi	s5,s5,-16
   1c014:	00058d93          	mv	s11,a1
   1c018:	bd9ff06f          	j	1bbf0 <_svfiprintf_r+0x6e0>
   1c01c:	00412783          	lw	a5,4(sp)
   1c020:	40f98433          	sub	s0,s3,a5
   1c024:	c68054e3          	blez	s0,1bc8c <_svfiprintf_r+0x77c>
   1c028:	01000493          	li	s1,16
   1c02c:	00700a93          	li	s5,7
   1c030:	01812603          	lw	a2,24(sp)
   1c034:	04412783          	lw	a5,68(sp)
   1c038:	04812683          	lw	a3,72(sp)
   1c03c:	00c72023          	sw	a2,0(a4)
   1c040:	00178793          	addi	a5,a5,1
   1c044:	0684ce63          	blt	s1,s0,1c0c0 <_svfiprintf_r+0xbb0>
   1c048:	008686b3          	add	a3,a3,s0
   1c04c:	00872223          	sw	s0,4(a4)
   1c050:	04d12423          	sw	a3,72(sp)
   1c054:	04f12223          	sw	a5,68(sp)
   1c058:	00700713          	li	a4,7
   1c05c:	c2f758e3          	ble	a5,a4,1bc8c <_svfiprintf_r+0x77c>
   1c060:	04010613          	addi	a2,sp,64
   1c064:	00090593          	mv	a1,s2
   1c068:	000a0513          	mv	a0,s4
   1c06c:	adcff0ef          	jal	ra,1b348 <__ssprint_r>
   1c070:	c0050ee3          	beqz	a0,1bc8c <_svfiprintf_r+0x77c>
   1c074:	00c95783          	lhu	a5,12(s2)
   1c078:	0407f793          	andi	a5,a5,64
   1c07c:	d0079663          	bnez	a5,1b588 <_svfiprintf_r+0x78>
   1c080:	12c12083          	lw	ra,300(sp)
   1c084:	12812403          	lw	s0,296(sp)
   1c088:	000c0513          	mv	a0,s8
   1c08c:	12412483          	lw	s1,292(sp)
   1c090:	12012903          	lw	s2,288(sp)
   1c094:	11c12983          	lw	s3,284(sp)
   1c098:	11812a03          	lw	s4,280(sp)
   1c09c:	11412a83          	lw	s5,276(sp)
   1c0a0:	11012b03          	lw	s6,272(sp)
   1c0a4:	10c12b83          	lw	s7,268(sp)
   1c0a8:	10812c03          	lw	s8,264(sp)
   1c0ac:	10412c83          	lw	s9,260(sp)
   1c0b0:	10012d03          	lw	s10,256(sp)
   1c0b4:	0fc12d83          	lw	s11,252(sp)
   1c0b8:	13010113          	addi	sp,sp,304
   1c0bc:	00008067          	ret
   1c0c0:	01068693          	addi	a3,a3,16
   1c0c4:	00972223          	sw	s1,4(a4)
   1c0c8:	04d12423          	sw	a3,72(sp)
   1c0cc:	04f12223          	sw	a5,68(sp)
   1c0d0:	00870713          	addi	a4,a4,8
   1c0d4:	00fade63          	ble	a5,s5,1c0f0 <_svfiprintf_r+0xbe0>
   1c0d8:	04010613          	addi	a2,sp,64
   1c0dc:	00090593          	mv	a1,s2
   1c0e0:	000a0513          	mv	a0,s4
   1c0e4:	a64ff0ef          	jal	ra,1b348 <__ssprint_r>
   1c0e8:	f80516e3          	bnez	a0,1c074 <_svfiprintf_r+0xb64>
   1c0ec:	000b8713          	mv	a4,s7
   1c0f0:	ff040413          	addi	s0,s0,-16
   1c0f4:	f3dff06f          	j	1c030 <_svfiprintf_r+0xb20>
   1c0f8:	04812783          	lw	a5,72(sp)
   1c0fc:	f6078ce3          	beqz	a5,1c074 <_svfiprintf_r+0xb64>
   1c100:	04010613          	addi	a2,sp,64
   1c104:	00090593          	mv	a1,s2
   1c108:	000a0513          	mv	a0,s4
   1c10c:	a3cff0ef          	jal	ra,1b348 <__ssprint_r>
   1c110:	f65ff06f          	j	1c074 <_svfiprintf_r+0xb64>
   1c114:	fff00693          	li	a3,-1
   1c118:	c6d414e3          	bne	s0,a3,1bd80 <_svfiprintf_r+0x870>
   1c11c:	cc0a9ee3          	bnez	s5,1bdf8 <_svfiprintf_r+0x8e8>
   1c120:	00900693          	li	a3,9
   1c124:	cc66eae3          	bltu	a3,t1,1bdf8 <_svfiprintf_r+0x8e8>
   1c128:	03030313          	addi	t1,t1,48
   1c12c:	0e6107a3          	sb	t1,239(sp)
   1c130:	0ef10493          	addi	s1,sp,239
   1c134:	cadff06f          	j	1bde0 <_svfiprintf_r+0x8d0>

0001c138 <_wcrtomb_r>:
   1c138:	8201a783          	lw	a5,-2016(gp) # 23c68 <_impure_ptr>
   1c13c:	fe010113          	addi	sp,sp,-32
   1c140:	00812c23          	sw	s0,24(sp)
   1c144:	00912a23          	sw	s1,20(sp)
   1c148:	00112e23          	sw	ra,28(sp)
   1c14c:	00050413          	mv	s0,a0
   1c150:	00068493          	mv	s1,a3
   1c154:	0347a783          	lw	a5,52(a5)
   1c158:	04059863          	bnez	a1,1c1a8 <_wcrtomb_r+0x70>
   1c15c:	00079663          	bnez	a5,1c168 <_wcrtomb_r+0x30>
   1c160:	000247b7          	lui	a5,0x24
   1c164:	ad878793          	addi	a5,a5,-1320 # 23ad8 <__global_locale>
   1c168:	0e07a783          	lw	a5,224(a5)
   1c16c:	00048693          	mv	a3,s1
   1c170:	00000613          	li	a2,0
   1c174:	00410593          	addi	a1,sp,4
   1c178:	00040513          	mv	a0,s0
   1c17c:	000780e7          	jalr	a5
   1c180:	fff00793          	li	a5,-1
   1c184:	00f51863          	bne	a0,a5,1c194 <_wcrtomb_r+0x5c>
   1c188:	0004a023          	sw	zero,0(s1)
   1c18c:	08a00793          	li	a5,138
   1c190:	00f42023          	sw	a5,0(s0)
   1c194:	01c12083          	lw	ra,28(sp)
   1c198:	01812403          	lw	s0,24(sp)
   1c19c:	01412483          	lw	s1,20(sp)
   1c1a0:	02010113          	addi	sp,sp,32
   1c1a4:	00008067          	ret
   1c1a8:	00079663          	bnez	a5,1c1b4 <_wcrtomb_r+0x7c>
   1c1ac:	000247b7          	lui	a5,0x24
   1c1b0:	ad878793          	addi	a5,a5,-1320 # 23ad8 <__global_locale>
   1c1b4:	0e07a783          	lw	a5,224(a5)
   1c1b8:	00048693          	mv	a3,s1
   1c1bc:	fbdff06f          	j	1c178 <_wcrtomb_r+0x40>

0001c1c0 <wcrtomb>:
   1c1c0:	00060693          	mv	a3,a2
   1c1c4:	00058613          	mv	a2,a1
   1c1c8:	00050593          	mv	a1,a0
   1c1cc:	8201a503          	lw	a0,-2016(gp) # 23c68 <_impure_ptr>
   1c1d0:	f69ff06f          	j	1c138 <_wcrtomb_r>

0001c1d4 <__udivdi3>:
   1c1d4:	00058793          	mv	a5,a1
   1c1d8:	00060813          	mv	a6,a2
   1c1dc:	00068893          	mv	a7,a3
   1c1e0:	00050313          	mv	t1,a0
   1c1e4:	28069663          	bnez	a3,1c470 <__udivdi3+0x29c>
   1c1e8:	00022737          	lui	a4,0x22
   1c1ec:	15c70713          	addi	a4,a4,348 # 2215c <__clz_tab>
   1c1f0:	0ec5f663          	bleu	a2,a1,1c2dc <__udivdi3+0x108>
   1c1f4:	000106b7          	lui	a3,0x10
   1c1f8:	0cd67863          	bleu	a3,a2,1c2c8 <__udivdi3+0xf4>
   1c1fc:	0ff00693          	li	a3,255
   1c200:	00c6b6b3          	sltu	a3,a3,a2
   1c204:	00369693          	slli	a3,a3,0x3
   1c208:	00d658b3          	srl	a7,a2,a3
   1c20c:	01170733          	add	a4,a4,a7
   1c210:	00074703          	lbu	a4,0(a4)
   1c214:	00d706b3          	add	a3,a4,a3
   1c218:	02000713          	li	a4,32
   1c21c:	40d70733          	sub	a4,a4,a3
   1c220:	00070c63          	beqz	a4,1c238 <__udivdi3+0x64>
   1c224:	00e797b3          	sll	a5,a5,a4
   1c228:	00d556b3          	srl	a3,a0,a3
   1c22c:	00e61833          	sll	a6,a2,a4
   1c230:	00f6e5b3          	or	a1,a3,a5
   1c234:	00e51333          	sll	t1,a0,a4
   1c238:	01085513          	srli	a0,a6,0x10
   1c23c:	02a5f733          	remu	a4,a1,a0
   1c240:	01081613          	slli	a2,a6,0x10
   1c244:	01065613          	srli	a2,a2,0x10
   1c248:	01035693          	srli	a3,t1,0x10
   1c24c:	02a5d5b3          	divu	a1,a1,a0
   1c250:	01071713          	slli	a4,a4,0x10
   1c254:	00d766b3          	or	a3,a4,a3
   1c258:	02b607b3          	mul	a5,a2,a1
   1c25c:	00058713          	mv	a4,a1
   1c260:	00f6fe63          	bleu	a5,a3,1c27c <__udivdi3+0xa8>
   1c264:	010686b3          	add	a3,a3,a6
   1c268:	fff58713          	addi	a4,a1,-1
   1c26c:	0106e863          	bltu	a3,a6,1c27c <__udivdi3+0xa8>
   1c270:	00f6f663          	bleu	a5,a3,1c27c <__udivdi3+0xa8>
   1c274:	ffe58713          	addi	a4,a1,-2
   1c278:	010686b3          	add	a3,a3,a6
   1c27c:	40f686b3          	sub	a3,a3,a5
   1c280:	02a6f7b3          	remu	a5,a3,a0
   1c284:	01031313          	slli	t1,t1,0x10
   1c288:	01035313          	srli	t1,t1,0x10
   1c28c:	02a6d6b3          	divu	a3,a3,a0
   1c290:	01079793          	slli	a5,a5,0x10
   1c294:	0067e333          	or	t1,a5,t1
   1c298:	02d605b3          	mul	a1,a2,a3
   1c29c:	00068513          	mv	a0,a3
   1c2a0:	00b37c63          	bleu	a1,t1,1c2b8 <__udivdi3+0xe4>
   1c2a4:	00680333          	add	t1,a6,t1
   1c2a8:	fff68513          	addi	a0,a3,-1 # ffff <_start-0x1>
   1c2ac:	01036663          	bltu	t1,a6,1c2b8 <__udivdi3+0xe4>
   1c2b0:	00b37463          	bleu	a1,t1,1c2b8 <__udivdi3+0xe4>
   1c2b4:	ffe68513          	addi	a0,a3,-2
   1c2b8:	01071713          	slli	a4,a4,0x10
   1c2bc:	00a76733          	or	a4,a4,a0
   1c2c0:	00000593          	li	a1,0
   1c2c4:	0e40006f          	j	1c3a8 <__udivdi3+0x1d4>
   1c2c8:	010008b7          	lui	a7,0x1000
   1c2cc:	01000693          	li	a3,16
   1c2d0:	f3166ce3          	bltu	a2,a7,1c208 <__udivdi3+0x34>
   1c2d4:	01800693          	li	a3,24
   1c2d8:	f31ff06f          	j	1c208 <__udivdi3+0x34>
   1c2dc:	00061663          	bnez	a2,1c2e8 <__udivdi3+0x114>
   1c2e0:	00100693          	li	a3,1
   1c2e4:	02c6d833          	divu	a6,a3,a2
   1c2e8:	000106b7          	lui	a3,0x10
   1c2ec:	0cd87263          	bleu	a3,a6,1c3b0 <__udivdi3+0x1dc>
   1c2f0:	0ff00693          	li	a3,255
   1c2f4:	0106f463          	bleu	a6,a3,1c2fc <__udivdi3+0x128>
   1c2f8:	00800893          	li	a7,8
   1c2fc:	011856b3          	srl	a3,a6,a7
   1c300:	00d70733          	add	a4,a4,a3
   1c304:	00074683          	lbu	a3,0(a4)
   1c308:	02000713          	li	a4,32
   1c30c:	011686b3          	add	a3,a3,a7
   1c310:	40d70733          	sub	a4,a4,a3
   1c314:	0a071863          	bnez	a4,1c3c4 <__udivdi3+0x1f0>
   1c318:	410787b3          	sub	a5,a5,a6
   1c31c:	00100593          	li	a1,1
   1c320:	01085613          	srli	a2,a6,0x10
   1c324:	01081893          	slli	a7,a6,0x10
   1c328:	0108d893          	srli	a7,a7,0x10
   1c32c:	01035693          	srli	a3,t1,0x10
   1c330:	02c7f733          	remu	a4,a5,a2
   1c334:	02c7d7b3          	divu	a5,a5,a2
   1c338:	01071713          	slli	a4,a4,0x10
   1c33c:	00d766b3          	or	a3,a4,a3
   1c340:	02f88533          	mul	a0,a7,a5
   1c344:	00078713          	mv	a4,a5
   1c348:	00a6fe63          	bleu	a0,a3,1c364 <__udivdi3+0x190>
   1c34c:	010686b3          	add	a3,a3,a6
   1c350:	fff78713          	addi	a4,a5,-1
   1c354:	0106e863          	bltu	a3,a6,1c364 <__udivdi3+0x190>
   1c358:	00a6f663          	bleu	a0,a3,1c364 <__udivdi3+0x190>
   1c35c:	ffe78713          	addi	a4,a5,-2
   1c360:	010686b3          	add	a3,a3,a6
   1c364:	40a686b3          	sub	a3,a3,a0
   1c368:	02c6f7b3          	remu	a5,a3,a2
   1c36c:	01031313          	slli	t1,t1,0x10
   1c370:	01035313          	srli	t1,t1,0x10
   1c374:	02c6d6b3          	divu	a3,a3,a2
   1c378:	01079793          	slli	a5,a5,0x10
   1c37c:	0067e333          	or	t1,a5,t1
   1c380:	02d888b3          	mul	a7,a7,a3
   1c384:	00068513          	mv	a0,a3
   1c388:	01137c63          	bleu	a7,t1,1c3a0 <__udivdi3+0x1cc>
   1c38c:	00680333          	add	t1,a6,t1
   1c390:	fff68513          	addi	a0,a3,-1 # ffff <_start-0x1>
   1c394:	01036663          	bltu	t1,a6,1c3a0 <__udivdi3+0x1cc>
   1c398:	01137463          	bleu	a7,t1,1c3a0 <__udivdi3+0x1cc>
   1c39c:	ffe68513          	addi	a0,a3,-2
   1c3a0:	01071713          	slli	a4,a4,0x10
   1c3a4:	00a76733          	or	a4,a4,a0
   1c3a8:	00070513          	mv	a0,a4
   1c3ac:	00008067          	ret
   1c3b0:	010006b7          	lui	a3,0x1000
   1c3b4:	01000893          	li	a7,16
   1c3b8:	f4d862e3          	bltu	a6,a3,1c2fc <__udivdi3+0x128>
   1c3bc:	01800893          	li	a7,24
   1c3c0:	f3dff06f          	j	1c2fc <__udivdi3+0x128>
   1c3c4:	00e81833          	sll	a6,a6,a4
   1c3c8:	00d7d5b3          	srl	a1,a5,a3
   1c3cc:	00e51333          	sll	t1,a0,a4
   1c3d0:	00d556b3          	srl	a3,a0,a3
   1c3d4:	01085513          	srli	a0,a6,0x10
   1c3d8:	00e797b3          	sll	a5,a5,a4
   1c3dc:	02a5f733          	remu	a4,a1,a0
   1c3e0:	00f6e8b3          	or	a7,a3,a5
   1c3e4:	01081793          	slli	a5,a6,0x10
   1c3e8:	0107d793          	srli	a5,a5,0x10
   1c3ec:	0108d613          	srli	a2,a7,0x10
   1c3f0:	02a5d5b3          	divu	a1,a1,a0
   1c3f4:	01071713          	slli	a4,a4,0x10
   1c3f8:	00c76733          	or	a4,a4,a2
   1c3fc:	02b786b3          	mul	a3,a5,a1
   1c400:	00058613          	mv	a2,a1
   1c404:	00d77e63          	bleu	a3,a4,1c420 <__udivdi3+0x24c>
   1c408:	01070733          	add	a4,a4,a6
   1c40c:	fff58613          	addi	a2,a1,-1
   1c410:	01076863          	bltu	a4,a6,1c420 <__udivdi3+0x24c>
   1c414:	00d77663          	bleu	a3,a4,1c420 <__udivdi3+0x24c>
   1c418:	ffe58613          	addi	a2,a1,-2
   1c41c:	01070733          	add	a4,a4,a6
   1c420:	40d706b3          	sub	a3,a4,a3
   1c424:	02a6f733          	remu	a4,a3,a0
   1c428:	01089893          	slli	a7,a7,0x10
   1c42c:	0108d893          	srli	a7,a7,0x10
   1c430:	02a6d6b3          	divu	a3,a3,a0
   1c434:	01071713          	slli	a4,a4,0x10
   1c438:	02d785b3          	mul	a1,a5,a3
   1c43c:	011767b3          	or	a5,a4,a7
   1c440:	00068713          	mv	a4,a3
   1c444:	00b7fe63          	bleu	a1,a5,1c460 <__udivdi3+0x28c>
   1c448:	010787b3          	add	a5,a5,a6
   1c44c:	fff68713          	addi	a4,a3,-1 # ffffff <_end+0xfd9b1f>
   1c450:	0107e863          	bltu	a5,a6,1c460 <__udivdi3+0x28c>
   1c454:	00b7f663          	bleu	a1,a5,1c460 <__udivdi3+0x28c>
   1c458:	ffe68713          	addi	a4,a3,-2
   1c45c:	010787b3          	add	a5,a5,a6
   1c460:	40b787b3          	sub	a5,a5,a1
   1c464:	01061593          	slli	a1,a2,0x10
   1c468:	00e5e5b3          	or	a1,a1,a4
   1c46c:	eb5ff06f          	j	1c320 <__udivdi3+0x14c>
   1c470:	18d5e663          	bltu	a1,a3,1c5fc <__udivdi3+0x428>
   1c474:	00010737          	lui	a4,0x10
   1c478:	04e6f463          	bleu	a4,a3,1c4c0 <__udivdi3+0x2ec>
   1c47c:	0ff00813          	li	a6,255
   1c480:	00d83733          	sltu	a4,a6,a3
   1c484:	00371713          	slli	a4,a4,0x3
   1c488:	00022837          	lui	a6,0x22
   1c48c:	15c80813          	addi	a6,a6,348 # 2215c <__clz_tab>
   1c490:	00e6d5b3          	srl	a1,a3,a4
   1c494:	010585b3          	add	a1,a1,a6
   1c498:	0005c803          	lbu	a6,0(a1)
   1c49c:	02000593          	li	a1,32
   1c4a0:	00e80833          	add	a6,a6,a4
   1c4a4:	410585b3          	sub	a1,a1,a6
   1c4a8:	02059663          	bnez	a1,1c4d4 <__udivdi3+0x300>
   1c4ac:	00100713          	li	a4,1
   1c4b0:	eef6ece3          	bltu	a3,a5,1c3a8 <__udivdi3+0x1d4>
   1c4b4:	00c53533          	sltu	a0,a0,a2
   1c4b8:	00154713          	xori	a4,a0,1
   1c4bc:	eedff06f          	j	1c3a8 <__udivdi3+0x1d4>
   1c4c0:	010005b7          	lui	a1,0x1000
   1c4c4:	01000713          	li	a4,16
   1c4c8:	fcb6e0e3          	bltu	a3,a1,1c488 <__udivdi3+0x2b4>
   1c4cc:	01800713          	li	a4,24
   1c4d0:	fb9ff06f          	j	1c488 <__udivdi3+0x2b4>
   1c4d4:	01065733          	srl	a4,a2,a6
   1c4d8:	00b696b3          	sll	a3,a3,a1
   1c4dc:	00d766b3          	or	a3,a4,a3
   1c4e0:	0106de93          	srli	t4,a3,0x10
   1c4e4:	0107d733          	srl	a4,a5,a6
   1c4e8:	03d778b3          	remu	a7,a4,t4
   1c4ec:	00b797b3          	sll	a5,a5,a1
   1c4f0:	01055833          	srl	a6,a0,a6
   1c4f4:	00f86333          	or	t1,a6,a5
   1c4f8:	01069793          	slli	a5,a3,0x10
   1c4fc:	0107d793          	srli	a5,a5,0x10
   1c500:	01035813          	srli	a6,t1,0x10
   1c504:	00b61633          	sll	a2,a2,a1
   1c508:	03d75733          	divu	a4,a4,t4
   1c50c:	01089893          	slli	a7,a7,0x10
   1c510:	0108e833          	or	a6,a7,a6
   1c514:	02e78f33          	mul	t5,a5,a4
   1c518:	00070e13          	mv	t3,a4
   1c51c:	01e87e63          	bleu	t5,a6,1c538 <__udivdi3+0x364>
   1c520:	00d80833          	add	a6,a6,a3
   1c524:	fff70e13          	addi	t3,a4,-1 # ffff <_start-0x1>
   1c528:	00d86863          	bltu	a6,a3,1c538 <__udivdi3+0x364>
   1c52c:	01e87663          	bleu	t5,a6,1c538 <__udivdi3+0x364>
   1c530:	ffe70e13          	addi	t3,a4,-2
   1c534:	00d80833          	add	a6,a6,a3
   1c538:	41e80833          	sub	a6,a6,t5
   1c53c:	03d878b3          	remu	a7,a6,t4
   1c540:	03d85833          	divu	a6,a6,t4
   1c544:	01089893          	slli	a7,a7,0x10
   1c548:	03078eb3          	mul	t4,a5,a6
   1c54c:	01031793          	slli	a5,t1,0x10
   1c550:	0107d793          	srli	a5,a5,0x10
   1c554:	00f8e7b3          	or	a5,a7,a5
   1c558:	00080713          	mv	a4,a6
   1c55c:	01d7fe63          	bleu	t4,a5,1c578 <__udivdi3+0x3a4>
   1c560:	00d787b3          	add	a5,a5,a3
   1c564:	fff80713          	addi	a4,a6,-1
   1c568:	00d7e863          	bltu	a5,a3,1c578 <__udivdi3+0x3a4>
   1c56c:	01d7f663          	bleu	t4,a5,1c578 <__udivdi3+0x3a4>
   1c570:	ffe80713          	addi	a4,a6,-2
   1c574:	00d787b3          	add	a5,a5,a3
   1c578:	010e1e13          	slli	t3,t3,0x10
   1c57c:	41d787b3          	sub	a5,a5,t4
   1c580:	00010eb7          	lui	t4,0x10
   1c584:	00ee6733          	or	a4,t3,a4
   1c588:	fffe8813          	addi	a6,t4,-1 # ffff <_start-0x1>
   1c58c:	01077333          	and	t1,a4,a6
   1c590:	01075893          	srli	a7,a4,0x10
   1c594:	01067833          	and	a6,a2,a6
   1c598:	01065613          	srli	a2,a2,0x10
   1c59c:	03030e33          	mul	t3,t1,a6
   1c5a0:	03088833          	mul	a6,a7,a6
   1c5a4:	010e5693          	srli	a3,t3,0x10
   1c5a8:	02c30333          	mul	t1,t1,a2
   1c5ac:	01030333          	add	t1,t1,a6
   1c5b0:	006686b3          	add	a3,a3,t1
   1c5b4:	02c888b3          	mul	a7,a7,a2
   1c5b8:	0106f463          	bleu	a6,a3,1c5c0 <__udivdi3+0x3ec>
   1c5bc:	01d888b3          	add	a7,a7,t4
   1c5c0:	0106d613          	srli	a2,a3,0x10
   1c5c4:	011608b3          	add	a7,a2,a7
   1c5c8:	0317e663          	bltu	a5,a7,1c5f4 <__udivdi3+0x420>
   1c5cc:	cf179ae3          	bne	a5,a7,1c2c0 <__udivdi3+0xec>
   1c5d0:	000107b7          	lui	a5,0x10
   1c5d4:	fff78793          	addi	a5,a5,-1 # ffff <_start-0x1>
   1c5d8:	00f6f6b3          	and	a3,a3,a5
   1c5dc:	01069693          	slli	a3,a3,0x10
   1c5e0:	00fe7e33          	and	t3,t3,a5
   1c5e4:	00b51533          	sll	a0,a0,a1
   1c5e8:	01c686b3          	add	a3,a3,t3
   1c5ec:	00000593          	li	a1,0
   1c5f0:	dad57ce3          	bleu	a3,a0,1c3a8 <__udivdi3+0x1d4>
   1c5f4:	fff70713          	addi	a4,a4,-1
   1c5f8:	cc9ff06f          	j	1c2c0 <__udivdi3+0xec>
   1c5fc:	00000593          	li	a1,0
   1c600:	00000713          	li	a4,0
   1c604:	da5ff06f          	j	1c3a8 <__udivdi3+0x1d4>

0001c608 <__umoddi3>:
   1c608:	00060893          	mv	a7,a2
   1c60c:	00068713          	mv	a4,a3
   1c610:	00050793          	mv	a5,a0
   1c614:	00058813          	mv	a6,a1
   1c618:	22069c63          	bnez	a3,1c850 <__umoddi3+0x248>
   1c61c:	000226b7          	lui	a3,0x22
   1c620:	15c68693          	addi	a3,a3,348 # 2215c <__clz_tab>
   1c624:	0cc5fc63          	bleu	a2,a1,1c6fc <__umoddi3+0xf4>
   1c628:	00010337          	lui	t1,0x10
   1c62c:	0a667e63          	bleu	t1,a2,1c6e8 <__umoddi3+0xe0>
   1c630:	0ff00313          	li	t1,255
   1c634:	00c37463          	bleu	a2,t1,1c63c <__umoddi3+0x34>
   1c638:	00800713          	li	a4,8
   1c63c:	00e65333          	srl	t1,a2,a4
   1c640:	006686b3          	add	a3,a3,t1
   1c644:	0006ce03          	lbu	t3,0(a3)
   1c648:	02000313          	li	t1,32
   1c64c:	00ee0e33          	add	t3,t3,a4
   1c650:	41c30333          	sub	t1,t1,t3
   1c654:	00030c63          	beqz	t1,1c66c <__umoddi3+0x64>
   1c658:	006595b3          	sll	a1,a1,t1
   1c65c:	01c55e33          	srl	t3,a0,t3
   1c660:	006618b3          	sll	a7,a2,t1
   1c664:	00be6833          	or	a6,t3,a1
   1c668:	006517b3          	sll	a5,a0,t1
   1c66c:	0108d613          	srli	a2,a7,0x10
   1c670:	02c87733          	remu	a4,a6,a2
   1c674:	01089513          	slli	a0,a7,0x10
   1c678:	01055513          	srli	a0,a0,0x10
   1c67c:	0107d693          	srli	a3,a5,0x10
   1c680:	02c85833          	divu	a6,a6,a2
   1c684:	01071713          	slli	a4,a4,0x10
   1c688:	00d766b3          	or	a3,a4,a3
   1c68c:	03050833          	mul	a6,a0,a6
   1c690:	0106fa63          	bleu	a6,a3,1c6a4 <__umoddi3+0x9c>
   1c694:	011686b3          	add	a3,a3,a7
   1c698:	0116e663          	bltu	a3,a7,1c6a4 <__umoddi3+0x9c>
   1c69c:	0106f463          	bleu	a6,a3,1c6a4 <__umoddi3+0x9c>
   1c6a0:	011686b3          	add	a3,a3,a7
   1c6a4:	410686b3          	sub	a3,a3,a6
   1c6a8:	02c6f733          	remu	a4,a3,a2
   1c6ac:	01079793          	slli	a5,a5,0x10
   1c6b0:	0107d793          	srli	a5,a5,0x10
   1c6b4:	02c6d6b3          	divu	a3,a3,a2
   1c6b8:	02d506b3          	mul	a3,a0,a3
   1c6bc:	01071513          	slli	a0,a4,0x10
   1c6c0:	00f567b3          	or	a5,a0,a5
   1c6c4:	00d7fa63          	bleu	a3,a5,1c6d8 <__umoddi3+0xd0>
   1c6c8:	011787b3          	add	a5,a5,a7
   1c6cc:	0117e663          	bltu	a5,a7,1c6d8 <__umoddi3+0xd0>
   1c6d0:	00d7f463          	bleu	a3,a5,1c6d8 <__umoddi3+0xd0>
   1c6d4:	011787b3          	add	a5,a5,a7
   1c6d8:	40d787b3          	sub	a5,a5,a3
   1c6dc:	0067d533          	srl	a0,a5,t1
   1c6e0:	00000593          	li	a1,0
   1c6e4:	00008067          	ret
   1c6e8:	01000337          	lui	t1,0x1000
   1c6ec:	01000713          	li	a4,16
   1c6f0:	f46666e3          	bltu	a2,t1,1c63c <__umoddi3+0x34>
   1c6f4:	01800713          	li	a4,24
   1c6f8:	f45ff06f          	j	1c63c <__umoddi3+0x34>
   1c6fc:	00061663          	bnez	a2,1c708 <__umoddi3+0x100>
   1c700:	00100613          	li	a2,1
   1c704:	031658b3          	divu	a7,a2,a7
   1c708:	00010637          	lui	a2,0x10
   1c70c:	0ac8f263          	bleu	a2,a7,1c7b0 <__umoddi3+0x1a8>
   1c710:	0ff00613          	li	a2,255
   1c714:	01167463          	bleu	a7,a2,1c71c <__umoddi3+0x114>
   1c718:	00800713          	li	a4,8
   1c71c:	00e8d633          	srl	a2,a7,a4
   1c720:	00c686b3          	add	a3,a3,a2
   1c724:	0006ce03          	lbu	t3,0(a3)
   1c728:	02000313          	li	t1,32
   1c72c:	00ee0e33          	add	t3,t3,a4
   1c730:	41c30333          	sub	t1,t1,t3
   1c734:	08031863          	bnez	t1,1c7c4 <__umoddi3+0x1bc>
   1c738:	411585b3          	sub	a1,a1,a7
   1c73c:	0108d713          	srli	a4,a7,0x10
   1c740:	01089513          	slli	a0,a7,0x10
   1c744:	01055513          	srli	a0,a0,0x10
   1c748:	0107d613          	srli	a2,a5,0x10
   1c74c:	02e5f6b3          	remu	a3,a1,a4
   1c750:	02e5d5b3          	divu	a1,a1,a4
   1c754:	01069693          	slli	a3,a3,0x10
   1c758:	00c6e6b3          	or	a3,a3,a2
   1c75c:	02b505b3          	mul	a1,a0,a1
   1c760:	00b6fa63          	bleu	a1,a3,1c774 <__umoddi3+0x16c>
   1c764:	011686b3          	add	a3,a3,a7
   1c768:	0116e663          	bltu	a3,a7,1c774 <__umoddi3+0x16c>
   1c76c:	00b6f463          	bleu	a1,a3,1c774 <__umoddi3+0x16c>
   1c770:	011686b3          	add	a3,a3,a7
   1c774:	40b685b3          	sub	a1,a3,a1
   1c778:	02e5f6b3          	remu	a3,a1,a4
   1c77c:	01079793          	slli	a5,a5,0x10
   1c780:	0107d793          	srli	a5,a5,0x10
   1c784:	02e5d5b3          	divu	a1,a1,a4
   1c788:	02b505b3          	mul	a1,a0,a1
   1c78c:	01069513          	slli	a0,a3,0x10
   1c790:	00f567b3          	or	a5,a0,a5
   1c794:	00b7fa63          	bleu	a1,a5,1c7a8 <__umoddi3+0x1a0>
   1c798:	011787b3          	add	a5,a5,a7
   1c79c:	0117e663          	bltu	a5,a7,1c7a8 <__umoddi3+0x1a0>
   1c7a0:	00b7f463          	bleu	a1,a5,1c7a8 <__umoddi3+0x1a0>
   1c7a4:	011787b3          	add	a5,a5,a7
   1c7a8:	40b787b3          	sub	a5,a5,a1
   1c7ac:	f31ff06f          	j	1c6dc <__umoddi3+0xd4>
   1c7b0:	01000637          	lui	a2,0x1000
   1c7b4:	01000713          	li	a4,16
   1c7b8:	f6c8e2e3          	bltu	a7,a2,1c71c <__umoddi3+0x114>
   1c7bc:	01800713          	li	a4,24
   1c7c0:	f5dff06f          	j	1c71c <__umoddi3+0x114>
   1c7c4:	006898b3          	sll	a7,a7,t1
   1c7c8:	01c5d733          	srl	a4,a1,t3
   1c7cc:	006517b3          	sll	a5,a0,t1
   1c7d0:	01c55e33          	srl	t3,a0,t3
   1c7d4:	0108d513          	srli	a0,a7,0x10
   1c7d8:	02a776b3          	remu	a3,a4,a0
   1c7dc:	006595b3          	sll	a1,a1,t1
   1c7e0:	00be6e33          	or	t3,t3,a1
   1c7e4:	01089593          	slli	a1,a7,0x10
   1c7e8:	0105d593          	srli	a1,a1,0x10
   1c7ec:	010e5613          	srli	a2,t3,0x10
   1c7f0:	02a75733          	divu	a4,a4,a0
   1c7f4:	01069693          	slli	a3,a3,0x10
   1c7f8:	00c6e6b3          	or	a3,a3,a2
   1c7fc:	02e58733          	mul	a4,a1,a4
   1c800:	00e6fa63          	bleu	a4,a3,1c814 <__umoddi3+0x20c>
   1c804:	011686b3          	add	a3,a3,a7
   1c808:	0116e663          	bltu	a3,a7,1c814 <__umoddi3+0x20c>
   1c80c:	00e6f463          	bleu	a4,a3,1c814 <__umoddi3+0x20c>
   1c810:	011686b3          	add	a3,a3,a7
   1c814:	40e68633          	sub	a2,a3,a4
   1c818:	02a676b3          	remu	a3,a2,a0
   1c81c:	010e1e13          	slli	t3,t3,0x10
   1c820:	010e5e13          	srli	t3,t3,0x10
   1c824:	02a65633          	divu	a2,a2,a0
   1c828:	01069693          	slli	a3,a3,0x10
   1c82c:	02c58633          	mul	a2,a1,a2
   1c830:	01c6e5b3          	or	a1,a3,t3
   1c834:	00c5fa63          	bleu	a2,a1,1c848 <__umoddi3+0x240>
   1c838:	011585b3          	add	a1,a1,a7
   1c83c:	0115e663          	bltu	a1,a7,1c848 <__umoddi3+0x240>
   1c840:	00c5f463          	bleu	a2,a1,1c848 <__umoddi3+0x240>
   1c844:	011585b3          	add	a1,a1,a7
   1c848:	40c585b3          	sub	a1,a1,a2
   1c84c:	ef1ff06f          	j	1c73c <__umoddi3+0x134>
   1c850:	e8d5eae3          	bltu	a1,a3,1c6e4 <__umoddi3+0xdc>
   1c854:	00010737          	lui	a4,0x10
   1c858:	04e6fc63          	bleu	a4,a3,1c8b0 <__umoddi3+0x2a8>
   1c85c:	0ff00e93          	li	t4,255
   1c860:	00deb733          	sltu	a4,t4,a3
   1c864:	00371713          	slli	a4,a4,0x3
   1c868:	00022337          	lui	t1,0x22
   1c86c:	00e6d8b3          	srl	a7,a3,a4
   1c870:	15c30313          	addi	t1,t1,348 # 2215c <__clz_tab>
   1c874:	006888b3          	add	a7,a7,t1
   1c878:	0008ce83          	lbu	t4,0(a7) # 1000000 <_end+0xfd9b20>
   1c87c:	02000e13          	li	t3,32
   1c880:	00ee8eb3          	add	t4,t4,a4
   1c884:	41de0e33          	sub	t3,t3,t4
   1c888:	020e1e63          	bnez	t3,1c8c4 <__umoddi3+0x2bc>
   1c88c:	00b6e463          	bltu	a3,a1,1c894 <__umoddi3+0x28c>
   1c890:	00c56a63          	bltu	a0,a2,1c8a4 <__umoddi3+0x29c>
   1c894:	40c507b3          	sub	a5,a0,a2
   1c898:	40d585b3          	sub	a1,a1,a3
   1c89c:	00f53533          	sltu	a0,a0,a5
   1c8a0:	40a58833          	sub	a6,a1,a0
   1c8a4:	00078513          	mv	a0,a5
   1c8a8:	00080593          	mv	a1,a6
   1c8ac:	e39ff06f          	j	1c6e4 <__umoddi3+0xdc>
   1c8b0:	010008b7          	lui	a7,0x1000
   1c8b4:	01000713          	li	a4,16
   1c8b8:	fb16e8e3          	bltu	a3,a7,1c868 <__umoddi3+0x260>
   1c8bc:	01800713          	li	a4,24
   1c8c0:	fa9ff06f          	j	1c868 <__umoddi3+0x260>
   1c8c4:	01d65733          	srl	a4,a2,t4
   1c8c8:	01c696b3          	sll	a3,a3,t3
   1c8cc:	00d766b3          	or	a3,a4,a3
   1c8d0:	0106d813          	srli	a6,a3,0x10
   1c8d4:	01d5d733          	srl	a4,a1,t4
   1c8d8:	03077333          	remu	t1,a4,a6
   1c8dc:	01c595b3          	sll	a1,a1,t3
   1c8e0:	01d557b3          	srl	a5,a0,t4
   1c8e4:	00b7e7b3          	or	a5,a5,a1
   1c8e8:	01069593          	slli	a1,a3,0x10
   1c8ec:	0105d593          	srli	a1,a1,0x10
   1c8f0:	0107d893          	srli	a7,a5,0x10
   1c8f4:	01c61633          	sll	a2,a2,t3
   1c8f8:	01c51533          	sll	a0,a0,t3
   1c8fc:	03075733          	divu	a4,a4,a6
   1c900:	01031313          	slli	t1,t1,0x10
   1c904:	011368b3          	or	a7,t1,a7
   1c908:	02e58f33          	mul	t5,a1,a4
   1c90c:	00070313          	mv	t1,a4
   1c910:	01e8fe63          	bleu	t5,a7,1c92c <__umoddi3+0x324>
   1c914:	00d888b3          	add	a7,a7,a3
   1c918:	fff70313          	addi	t1,a4,-1 # ffff <_start-0x1>
   1c91c:	00d8e863          	bltu	a7,a3,1c92c <__umoddi3+0x324>
   1c920:	01e8f663          	bleu	t5,a7,1c92c <__umoddi3+0x324>
   1c924:	ffe70313          	addi	t1,a4,-2
   1c928:	00d888b3          	add	a7,a7,a3
   1c92c:	41e888b3          	sub	a7,a7,t5
   1c930:	0308ff33          	remu	t5,a7,a6
   1c934:	0308d8b3          	divu	a7,a7,a6
   1c938:	010f1f13          	slli	t5,t5,0x10
   1c93c:	03158833          	mul	a6,a1,a7
   1c940:	01079593          	slli	a1,a5,0x10
   1c944:	0105d593          	srli	a1,a1,0x10
   1c948:	00bf65b3          	or	a1,t5,a1
   1c94c:	00088793          	mv	a5,a7
   1c950:	0105fe63          	bleu	a6,a1,1c96c <__umoddi3+0x364>
   1c954:	00d585b3          	add	a1,a1,a3
   1c958:	fff88793          	addi	a5,a7,-1 # ffffff <_end+0xfd9b1f>
   1c95c:	00d5e863          	bltu	a1,a3,1c96c <__umoddi3+0x364>
   1c960:	0105f663          	bleu	a6,a1,1c96c <__umoddi3+0x364>
   1c964:	ffe88793          	addi	a5,a7,-2
   1c968:	00d585b3          	add	a1,a1,a3
   1c96c:	01031313          	slli	t1,t1,0x10
   1c970:	00010f37          	lui	t5,0x10
   1c974:	00f36333          	or	t1,t1,a5
   1c978:	ffff0793          	addi	a5,t5,-1 # ffff <_start-0x1>
   1c97c:	00f378b3          	and	a7,t1,a5
   1c980:	410585b3          	sub	a1,a1,a6
   1c984:	01035313          	srli	t1,t1,0x10
   1c988:	01065813          	srli	a6,a2,0x10
   1c98c:	00f677b3          	and	a5,a2,a5
   1c990:	02f88733          	mul	a4,a7,a5
   1c994:	02f307b3          	mul	a5,t1,a5
   1c998:	030888b3          	mul	a7,a7,a6
   1c99c:	03030333          	mul	t1,t1,a6
   1c9a0:	00f888b3          	add	a7,a7,a5
   1c9a4:	01075813          	srli	a6,a4,0x10
   1c9a8:	01180833          	add	a6,a6,a7
   1c9ac:	00f87463          	bleu	a5,a6,1c9b4 <__umoddi3+0x3ac>
   1c9b0:	01e30333          	add	t1,t1,t5
   1c9b4:	01085793          	srli	a5,a6,0x10
   1c9b8:	00678333          	add	t1,a5,t1
   1c9bc:	000107b7          	lui	a5,0x10
   1c9c0:	fff78793          	addi	a5,a5,-1 # ffff <_start-0x1>
   1c9c4:	00f87833          	and	a6,a6,a5
   1c9c8:	01081813          	slli	a6,a6,0x10
   1c9cc:	00f77733          	and	a4,a4,a5
   1c9d0:	00e80733          	add	a4,a6,a4
   1c9d4:	0065e663          	bltu	a1,t1,1c9e0 <__umoddi3+0x3d8>
   1c9d8:	00659e63          	bne	a1,t1,1c9f4 <__umoddi3+0x3ec>
   1c9dc:	00e57c63          	bleu	a4,a0,1c9f4 <__umoddi3+0x3ec>
   1c9e0:	40c70633          	sub	a2,a4,a2
   1c9e4:	00c73733          	sltu	a4,a4,a2
   1c9e8:	00d70733          	add	a4,a4,a3
   1c9ec:	40e30333          	sub	t1,t1,a4
   1c9f0:	00060713          	mv	a4,a2
   1c9f4:	40e50733          	sub	a4,a0,a4
   1c9f8:	00e53533          	sltu	a0,a0,a4
   1c9fc:	406585b3          	sub	a1,a1,t1
   1ca00:	40a585b3          	sub	a1,a1,a0
   1ca04:	01d597b3          	sll	a5,a1,t4
   1ca08:	01c75733          	srl	a4,a4,t3
   1ca0c:	00e7e533          	or	a0,a5,a4
   1ca10:	01c5d5b3          	srl	a1,a1,t3
   1ca14:	cd1ff06f          	j	1c6e4 <__umoddi3+0xdc>

0001ca18 <__divdf3>:
   1ca18:	fd010113          	addi	sp,sp,-48
   1ca1c:	02812423          	sw	s0,40(sp)
   1ca20:	01612823          	sw	s6,16(sp)
   1ca24:	00050413          	mv	s0,a0
   1ca28:	00050b13          	mv	s6,a0
   1ca2c:	0145d513          	srli	a0,a1,0x14
   1ca30:	03212023          	sw	s2,32(sp)
   1ca34:	01312e23          	sw	s3,28(sp)
   1ca38:	01412c23          	sw	s4,24(sp)
   1ca3c:	01712623          	sw	s7,12(sp)
   1ca40:	00c59913          	slli	s2,a1,0xc
   1ca44:	02112623          	sw	ra,44(sp)
   1ca48:	02912223          	sw	s1,36(sp)
   1ca4c:	01512a23          	sw	s5,20(sp)
   1ca50:	7ff57513          	andi	a0,a0,2047
   1ca54:	00060b93          	mv	s7,a2
   1ca58:	00068a13          	mv	s4,a3
   1ca5c:	00c95913          	srli	s2,s2,0xc
   1ca60:	01f5d993          	srli	s3,a1,0x1f
   1ca64:	0a050263          	beqz	a0,1cb08 <__divdf3+0xf0>
   1ca68:	7ff00793          	li	a5,2047
   1ca6c:	10f50263          	beq	a0,a5,1cb70 <__divdf3+0x158>
   1ca70:	01db5a93          	srli	s5,s6,0x1d
   1ca74:	00391913          	slli	s2,s2,0x3
   1ca78:	012ae933          	or	s2,s5,s2
   1ca7c:	00800ab7          	lui	s5,0x800
   1ca80:	01596ab3          	or	s5,s2,s5
   1ca84:	003b1413          	slli	s0,s6,0x3
   1ca88:	c0150493          	addi	s1,a0,-1023
   1ca8c:	00000b13          	li	s6,0
   1ca90:	014a5513          	srli	a0,s4,0x14
   1ca94:	00ca1913          	slli	s2,s4,0xc
   1ca98:	7ff57513          	andi	a0,a0,2047
   1ca9c:	000b8813          	mv	a6,s7
   1caa0:	00c95913          	srli	s2,s2,0xc
   1caa4:	01fa5a13          	srli	s4,s4,0x1f
   1caa8:	10050063          	beqz	a0,1cba8 <__divdf3+0x190>
   1caac:	7ff00793          	li	a5,2047
   1cab0:	16f50063          	beq	a0,a5,1cc10 <__divdf3+0x1f8>
   1cab4:	01dbd793          	srli	a5,s7,0x1d
   1cab8:	00391913          	slli	s2,s2,0x3
   1cabc:	0127e7b3          	or	a5,a5,s2
   1cac0:	008008b7          	lui	a7,0x800
   1cac4:	0117e8b3          	or	a7,a5,a7
   1cac8:	003b9813          	slli	a6,s7,0x3
   1cacc:	c0150513          	addi	a0,a0,-1023
   1cad0:	00000793          	li	a5,0
   1cad4:	002b1713          	slli	a4,s6,0x2
   1cad8:	00f76733          	or	a4,a4,a5
   1cadc:	fff70713          	addi	a4,a4,-1
   1cae0:	00e00693          	li	a3,14
   1cae4:	0149c633          	xor	a2,s3,s4
   1cae8:	40a48533          	sub	a0,s1,a0
   1caec:	14e6ee63          	bltu	a3,a4,1cc48 <__divdf3+0x230>
   1caf0:	000226b7          	lui	a3,0x22
   1caf4:	00271713          	slli	a4,a4,0x2
   1caf8:	0a868693          	addi	a3,a3,168 # 220a8 <zeroes.4476+0x10>
   1cafc:	00d70733          	add	a4,a4,a3
   1cb00:	00072703          	lw	a4,0(a4)
   1cb04:	00070067          	jr	a4
   1cb08:	01696ab3          	or	s5,s2,s6
   1cb0c:	060a8e63          	beqz	s5,1cb88 <__divdf3+0x170>
   1cb10:	04090063          	beqz	s2,1cb50 <__divdf3+0x138>
   1cb14:	00090513          	mv	a0,s2
   1cb18:	429030ef          	jal	ra,20740 <__clzsi2>
   1cb1c:	ff550793          	addi	a5,a0,-11
   1cb20:	01c00713          	li	a4,28
   1cb24:	02f74e63          	blt	a4,a5,1cb60 <__divdf3+0x148>
   1cb28:	01d00a93          	li	s5,29
   1cb2c:	ff850413          	addi	s0,a0,-8
   1cb30:	40fa8ab3          	sub	s5,s5,a5
   1cb34:	00891933          	sll	s2,s2,s0
   1cb38:	015b5ab3          	srl	s5,s6,s5
   1cb3c:	012aeab3          	or	s5,s5,s2
   1cb40:	008b1433          	sll	s0,s6,s0
   1cb44:	c0d00493          	li	s1,-1011
   1cb48:	40a484b3          	sub	s1,s1,a0
   1cb4c:	f41ff06f          	j	1ca8c <__divdf3+0x74>
   1cb50:	000b0513          	mv	a0,s6
   1cb54:	3ed030ef          	jal	ra,20740 <__clzsi2>
   1cb58:	02050513          	addi	a0,a0,32
   1cb5c:	fc1ff06f          	j	1cb1c <__divdf3+0x104>
   1cb60:	fd850913          	addi	s2,a0,-40
   1cb64:	012b1ab3          	sll	s5,s6,s2
   1cb68:	00000413          	li	s0,0
   1cb6c:	fd9ff06f          	j	1cb44 <__divdf3+0x12c>
   1cb70:	01696ab3          	or	s5,s2,s6
   1cb74:	020a8263          	beqz	s5,1cb98 <__divdf3+0x180>
   1cb78:	00090a93          	mv	s5,s2
   1cb7c:	7ff00493          	li	s1,2047
   1cb80:	00300b13          	li	s6,3
   1cb84:	f0dff06f          	j	1ca90 <__divdf3+0x78>
   1cb88:	00000413          	li	s0,0
   1cb8c:	00000493          	li	s1,0
   1cb90:	00100b13          	li	s6,1
   1cb94:	efdff06f          	j	1ca90 <__divdf3+0x78>
   1cb98:	00000413          	li	s0,0
   1cb9c:	7ff00493          	li	s1,2047
   1cba0:	00200b13          	li	s6,2
   1cba4:	eedff06f          	j	1ca90 <__divdf3+0x78>
   1cba8:	017968b3          	or	a7,s2,s7
   1cbac:	06088e63          	beqz	a7,1cc28 <__divdf3+0x210>
   1cbb0:	04090063          	beqz	s2,1cbf0 <__divdf3+0x1d8>
   1cbb4:	00090513          	mv	a0,s2
   1cbb8:	389030ef          	jal	ra,20740 <__clzsi2>
   1cbbc:	ff550893          	addi	a7,a0,-11
   1cbc0:	01c00793          	li	a5,28
   1cbc4:	0317ce63          	blt	a5,a7,1cc00 <__divdf3+0x1e8>
   1cbc8:	01d00793          	li	a5,29
   1cbcc:	ff850813          	addi	a6,a0,-8
   1cbd0:	411787b3          	sub	a5,a5,a7
   1cbd4:	01091933          	sll	s2,s2,a6
   1cbd8:	00fbd7b3          	srl	a5,s7,a5
   1cbdc:	0127e8b3          	or	a7,a5,s2
   1cbe0:	010b9833          	sll	a6,s7,a6
   1cbe4:	c0d00793          	li	a5,-1011
   1cbe8:	40a78533          	sub	a0,a5,a0
   1cbec:	ee5ff06f          	j	1cad0 <__divdf3+0xb8>
   1cbf0:	000b8513          	mv	a0,s7
   1cbf4:	34d030ef          	jal	ra,20740 <__clzsi2>
   1cbf8:	02050513          	addi	a0,a0,32
   1cbfc:	fc1ff06f          	j	1cbbc <__divdf3+0x1a4>
   1cc00:	fd850793          	addi	a5,a0,-40
   1cc04:	00fb98b3          	sll	a7,s7,a5
   1cc08:	00000813          	li	a6,0
   1cc0c:	fd9ff06f          	j	1cbe4 <__divdf3+0x1cc>
   1cc10:	017968b3          	or	a7,s2,s7
   1cc14:	02088263          	beqz	a7,1cc38 <__divdf3+0x220>
   1cc18:	00090893          	mv	a7,s2
   1cc1c:	7ff00513          	li	a0,2047
   1cc20:	00300793          	li	a5,3
   1cc24:	eb1ff06f          	j	1cad4 <__divdf3+0xbc>
   1cc28:	00000813          	li	a6,0
   1cc2c:	00000513          	li	a0,0
   1cc30:	00100793          	li	a5,1
   1cc34:	ea1ff06f          	j	1cad4 <__divdf3+0xbc>
   1cc38:	00000813          	li	a6,0
   1cc3c:	7ff00513          	li	a0,2047
   1cc40:	00200793          	li	a5,2
   1cc44:	e91ff06f          	j	1cad4 <__divdf3+0xbc>
   1cc48:	0158e663          	bltu	a7,s5,1cc54 <__divdf3+0x23c>
   1cc4c:	351a9863          	bne	s5,a7,1cf9c <__divdf3+0x584>
   1cc50:	35046663          	bltu	s0,a6,1cf9c <__divdf3+0x584>
   1cc54:	01fa9693          	slli	a3,s5,0x1f
   1cc58:	00145793          	srli	a5,s0,0x1
   1cc5c:	01f41713          	slli	a4,s0,0x1f
   1cc60:	001ada93          	srli	s5,s5,0x1
   1cc64:	00f6e433          	or	s0,a3,a5
   1cc68:	00889793          	slli	a5,a7,0x8
   1cc6c:	01885893          	srli	a7,a6,0x18
   1cc70:	00f8e7b3          	or	a5,a7,a5
   1cc74:	0107de93          	srli	t4,a5,0x10
   1cc78:	03dad8b3          	divu	a7,s5,t4
   1cc7c:	01079e13          	slli	t3,a5,0x10
   1cc80:	010e5e13          	srli	t3,t3,0x10
   1cc84:	00881313          	slli	t1,a6,0x8
   1cc88:	01045693          	srli	a3,s0,0x10
   1cc8c:	03daf933          	remu	s2,s5,t4
   1cc90:	00088593          	mv	a1,a7
   1cc94:	031e0833          	mul	a6,t3,a7
   1cc98:	01091a93          	slli	s5,s2,0x10
   1cc9c:	0156e6b3          	or	a3,a3,s5
   1cca0:	0106fe63          	bleu	a6,a3,1ccbc <__divdf3+0x2a4>
   1cca4:	00f686b3          	add	a3,a3,a5
   1cca8:	fff88593          	addi	a1,a7,-1 # 7fffff <_end+0x7d9b1f>
   1ccac:	00f6e863          	bltu	a3,a5,1ccbc <__divdf3+0x2a4>
   1ccb0:	0106f663          	bleu	a6,a3,1ccbc <__divdf3+0x2a4>
   1ccb4:	ffe88593          	addi	a1,a7,-2
   1ccb8:	00f686b3          	add	a3,a3,a5
   1ccbc:	410686b3          	sub	a3,a3,a6
   1ccc0:	03d6df33          	divu	t5,a3,t4
   1ccc4:	01041413          	slli	s0,s0,0x10
   1ccc8:	01045413          	srli	s0,s0,0x10
   1cccc:	03d6f6b3          	remu	a3,a3,t4
   1ccd0:	000f0813          	mv	a6,t5
   1ccd4:	03ee08b3          	mul	a7,t3,t5
   1ccd8:	01069693          	slli	a3,a3,0x10
   1ccdc:	00d466b3          	or	a3,s0,a3
   1cce0:	0116fe63          	bleu	a7,a3,1ccfc <__divdf3+0x2e4>
   1cce4:	00f686b3          	add	a3,a3,a5
   1cce8:	ffff0813          	addi	a6,t5,-1
   1ccec:	00f6e863          	bltu	a3,a5,1ccfc <__divdf3+0x2e4>
   1ccf0:	0116f663          	bleu	a7,a3,1ccfc <__divdf3+0x2e4>
   1ccf4:	ffef0813          	addi	a6,t5,-2
   1ccf8:	00f686b3          	add	a3,a3,a5
   1ccfc:	41168433          	sub	s0,a3,a7
   1cd00:	01059693          	slli	a3,a1,0x10
   1cd04:	000105b7          	lui	a1,0x10
   1cd08:	0106e6b3          	or	a3,a3,a6
   1cd0c:	fff58f13          	addi	t5,a1,-1 # ffff <_start-0x1>
   1cd10:	0106d293          	srli	t0,a3,0x10
   1cd14:	01e6f833          	and	a6,a3,t5
   1cd18:	01035f93          	srli	t6,t1,0x10
   1cd1c:	01e37f33          	and	t5,t1,t5
   1cd20:	03e803b3          	mul	t2,a6,t5
   1cd24:	03e284b3          	mul	s1,t0,t5
   1cd28:	030f8833          	mul	a6,t6,a6
   1cd2c:	03f288b3          	mul	a7,t0,t6
   1cd30:	009802b3          	add	t0,a6,s1
   1cd34:	0103d813          	srli	a6,t2,0x10
   1cd38:	00580833          	add	a6,a6,t0
   1cd3c:	00987463          	bleu	s1,a6,1cd44 <__divdf3+0x32c>
   1cd40:	00b888b3          	add	a7,a7,a1
   1cd44:	01085293          	srli	t0,a6,0x10
   1cd48:	011282b3          	add	t0,t0,a7
   1cd4c:	000108b7          	lui	a7,0x10
   1cd50:	fff88893          	addi	a7,a7,-1 # ffff <_start-0x1>
   1cd54:	011875b3          	and	a1,a6,a7
   1cd58:	01059593          	slli	a1,a1,0x10
   1cd5c:	0113f3b3          	and	t2,t2,a7
   1cd60:	007585b3          	add	a1,a1,t2
   1cd64:	00546863          	bltu	s0,t0,1cd74 <__divdf3+0x35c>
   1cd68:	00068893          	mv	a7,a3
   1cd6c:	04541463          	bne	s0,t0,1cdb4 <__divdf3+0x39c>
   1cd70:	04b77263          	bleu	a1,a4,1cdb4 <__divdf3+0x39c>
   1cd74:	00670733          	add	a4,a4,t1
   1cd78:	00673833          	sltu	a6,a4,t1
   1cd7c:	00f80833          	add	a6,a6,a5
   1cd80:	01040433          	add	s0,s0,a6
   1cd84:	fff68893          	addi	a7,a3,-1
   1cd88:	0087e663          	bltu	a5,s0,1cd94 <__divdf3+0x37c>
   1cd8c:	02879463          	bne	a5,s0,1cdb4 <__divdf3+0x39c>
   1cd90:	02676263          	bltu	a4,t1,1cdb4 <__divdf3+0x39c>
   1cd94:	00546663          	bltu	s0,t0,1cda0 <__divdf3+0x388>
   1cd98:	00829e63          	bne	t0,s0,1cdb4 <__divdf3+0x39c>
   1cd9c:	00b77c63          	bleu	a1,a4,1cdb4 <__divdf3+0x39c>
   1cda0:	00670733          	add	a4,a4,t1
   1cda4:	ffe68893          	addi	a7,a3,-2
   1cda8:	006736b3          	sltu	a3,a4,t1
   1cdac:	00f686b3          	add	a3,a3,a5
   1cdb0:	00d40433          	add	s0,s0,a3
   1cdb4:	40b705b3          	sub	a1,a4,a1
   1cdb8:	40540433          	sub	s0,s0,t0
   1cdbc:	00b73733          	sltu	a4,a4,a1
   1cdc0:	40e40433          	sub	s0,s0,a4
   1cdc4:	fff00813          	li	a6,-1
   1cdc8:	12878463          	beq	a5,s0,1cef0 <__divdf3+0x4d8>
   1cdcc:	03d452b3          	divu	t0,s0,t4
   1cdd0:	0105d693          	srli	a3,a1,0x10
   1cdd4:	03d47433          	remu	s0,s0,t4
   1cdd8:	00028813          	mv	a6,t0
   1cddc:	025e0733          	mul	a4,t3,t0
   1cde0:	01041413          	slli	s0,s0,0x10
   1cde4:	0086e433          	or	s0,a3,s0
   1cde8:	00e47e63          	bleu	a4,s0,1ce04 <__divdf3+0x3ec>
   1cdec:	00f40433          	add	s0,s0,a5
   1cdf0:	fff28813          	addi	a6,t0,-1
   1cdf4:	00f46863          	bltu	s0,a5,1ce04 <__divdf3+0x3ec>
   1cdf8:	00e47663          	bleu	a4,s0,1ce04 <__divdf3+0x3ec>
   1cdfc:	ffe28813          	addi	a6,t0,-2
   1ce00:	00f40433          	add	s0,s0,a5
   1ce04:	40e40433          	sub	s0,s0,a4
   1ce08:	03d456b3          	divu	a3,s0,t4
   1ce0c:	01059593          	slli	a1,a1,0x10
   1ce10:	0105d593          	srli	a1,a1,0x10
   1ce14:	03d47433          	remu	s0,s0,t4
   1ce18:	00068713          	mv	a4,a3
   1ce1c:	02de0e33          	mul	t3,t3,a3
   1ce20:	01041413          	slli	s0,s0,0x10
   1ce24:	0085e433          	or	s0,a1,s0
   1ce28:	01c47e63          	bleu	t3,s0,1ce44 <__divdf3+0x42c>
   1ce2c:	00f40433          	add	s0,s0,a5
   1ce30:	fff68713          	addi	a4,a3,-1
   1ce34:	00f46863          	bltu	s0,a5,1ce44 <__divdf3+0x42c>
   1ce38:	01c47663          	bleu	t3,s0,1ce44 <__divdf3+0x42c>
   1ce3c:	ffe68713          	addi	a4,a3,-2
   1ce40:	00f40433          	add	s0,s0,a5
   1ce44:	01081813          	slli	a6,a6,0x10
   1ce48:	00e86833          	or	a6,a6,a4
   1ce4c:	01081693          	slli	a3,a6,0x10
   1ce50:	0106d693          	srli	a3,a3,0x10
   1ce54:	01085593          	srli	a1,a6,0x10
   1ce58:	03e68eb3          	mul	t4,a3,t5
   1ce5c:	41c40433          	sub	s0,s0,t3
   1ce60:	03e58f33          	mul	t5,a1,t5
   1ce64:	02bf8e33          	mul	t3,t6,a1
   1ce68:	02df8fb3          	mul	t6,t6,a3
   1ce6c:	010ed693          	srli	a3,t4,0x10
   1ce70:	01ef8fb3          	add	t6,t6,t5
   1ce74:	01f686b3          	add	a3,a3,t6
   1ce78:	01e6f663          	bleu	t5,a3,1ce84 <__divdf3+0x46c>
   1ce7c:	00010737          	lui	a4,0x10
   1ce80:	00ee0e33          	add	t3,t3,a4
   1ce84:	0106d593          	srli	a1,a3,0x10
   1ce88:	01c585b3          	add	a1,a1,t3
   1ce8c:	00010e37          	lui	t3,0x10
   1ce90:	fffe0e13          	addi	t3,t3,-1 # ffff <_start-0x1>
   1ce94:	01c6f733          	and	a4,a3,t3
   1ce98:	01071713          	slli	a4,a4,0x10
   1ce9c:	01cefeb3          	and	t4,t4,t3
   1cea0:	01d70733          	add	a4,a4,t4
   1cea4:	00b46663          	bltu	s0,a1,1ceb0 <__divdf3+0x498>
   1cea8:	22b41c63          	bne	s0,a1,1d0e0 <__divdf3+0x6c8>
   1ceac:	04070263          	beqz	a4,1cef0 <__divdf3+0x4d8>
   1ceb0:	00878433          	add	s0,a5,s0
   1ceb4:	fff80693          	addi	a3,a6,-1
   1ceb8:	02f46463          	bltu	s0,a5,1cee0 <__divdf3+0x4c8>
   1cebc:	00b46663          	bltu	s0,a1,1cec8 <__divdf3+0x4b0>
   1cec0:	20b41e63          	bne	s0,a1,1d0dc <__divdf3+0x6c4>
   1cec4:	02e37063          	bleu	a4,t1,1cee4 <__divdf3+0x4cc>
   1cec8:	ffe80693          	addi	a3,a6,-2
   1cecc:	00131813          	slli	a6,t1,0x1
   1ced0:	00683333          	sltu	t1,a6,t1
   1ced4:	00f307b3          	add	a5,t1,a5
   1ced8:	00f40433          	add	s0,s0,a5
   1cedc:	00080313          	mv	t1,a6
   1cee0:	00b41663          	bne	s0,a1,1ceec <__divdf3+0x4d4>
   1cee4:	00068813          	mv	a6,a3
   1cee8:	00670463          	beq	a4,t1,1cef0 <__divdf3+0x4d8>
   1ceec:	0016e813          	ori	a6,a3,1
   1cef0:	3ff50693          	addi	a3,a0,1023
   1cef4:	10d05263          	blez	a3,1cff8 <__divdf3+0x5e0>
   1cef8:	00787793          	andi	a5,a6,7
   1cefc:	02078063          	beqz	a5,1cf1c <__divdf3+0x504>
   1cf00:	00f87793          	andi	a5,a6,15
   1cf04:	00400713          	li	a4,4
   1cf08:	00e78a63          	beq	a5,a4,1cf1c <__divdf3+0x504>
   1cf0c:	00480793          	addi	a5,a6,4
   1cf10:	0107b833          	sltu	a6,a5,a6
   1cf14:	010888b3          	add	a7,a7,a6
   1cf18:	00078813          	mv	a6,a5
   1cf1c:	00789793          	slli	a5,a7,0x7
   1cf20:	0007da63          	bgez	a5,1cf34 <__divdf3+0x51c>
   1cf24:	ff0007b7          	lui	a5,0xff000
   1cf28:	fff78793          	addi	a5,a5,-1 # feffffff <_end+0xfefd9b1f>
   1cf2c:	00f8f8b3          	and	a7,a7,a5
   1cf30:	40050693          	addi	a3,a0,1024
   1cf34:	7fe00793          	li	a5,2046
   1cf38:	18d7c263          	blt	a5,a3,1d0bc <__divdf3+0x6a4>
   1cf3c:	00385813          	srli	a6,a6,0x3
   1cf40:	01d89713          	slli	a4,a7,0x1d
   1cf44:	01076733          	or	a4,a4,a6
   1cf48:	0038d793          	srli	a5,a7,0x3
   1cf4c:	00c79793          	slli	a5,a5,0xc
   1cf50:	7ff6f693          	andi	a3,a3,2047
   1cf54:	01469693          	slli	a3,a3,0x14
   1cf58:	02c12083          	lw	ra,44(sp)
   1cf5c:	02812403          	lw	s0,40(sp)
   1cf60:	00c7d793          	srli	a5,a5,0xc
   1cf64:	01f61613          	slli	a2,a2,0x1f
   1cf68:	00d7e7b3          	or	a5,a5,a3
   1cf6c:	00c7e6b3          	or	a3,a5,a2
   1cf70:	02412483          	lw	s1,36(sp)
   1cf74:	02012903          	lw	s2,32(sp)
   1cf78:	01c12983          	lw	s3,28(sp)
   1cf7c:	01812a03          	lw	s4,24(sp)
   1cf80:	01412a83          	lw	s5,20(sp)
   1cf84:	01012b03          	lw	s6,16(sp)
   1cf88:	00c12b83          	lw	s7,12(sp)
   1cf8c:	00070513          	mv	a0,a4
   1cf90:	00068593          	mv	a1,a3
   1cf94:	03010113          	addi	sp,sp,48
   1cf98:	00008067          	ret
   1cf9c:	fff50513          	addi	a0,a0,-1
   1cfa0:	00000713          	li	a4,0
   1cfa4:	cc5ff06f          	j	1cc68 <__divdf3+0x250>
   1cfa8:	00098613          	mv	a2,s3
   1cfac:	000a8893          	mv	a7,s5
   1cfb0:	00040813          	mv	a6,s0
   1cfb4:	000b0793          	mv	a5,s6
   1cfb8:	00200713          	li	a4,2
   1cfbc:	10e78063          	beq	a5,a4,1d0bc <__divdf3+0x6a4>
   1cfc0:	00300713          	li	a4,3
   1cfc4:	0ee78263          	beq	a5,a4,1d0a8 <__divdf3+0x690>
   1cfc8:	00100713          	li	a4,1
   1cfcc:	f2e792e3          	bne	a5,a4,1cef0 <__divdf3+0x4d8>
   1cfd0:	00000793          	li	a5,0
   1cfd4:	00000713          	li	a4,0
   1cfd8:	0940006f          	j	1d06c <__divdf3+0x654>
   1cfdc:	000a0613          	mv	a2,s4
   1cfe0:	fd9ff06f          	j	1cfb8 <__divdf3+0x5a0>
   1cfe4:	000808b7          	lui	a7,0x80
   1cfe8:	00000813          	li	a6,0
   1cfec:	00000613          	li	a2,0
   1cff0:	00300793          	li	a5,3
   1cff4:	fc5ff06f          	j	1cfb8 <__divdf3+0x5a0>
   1cff8:	00100793          	li	a5,1
   1cffc:	40d787b3          	sub	a5,a5,a3
   1d000:	03800713          	li	a4,56
   1d004:	fcf746e3          	blt	a4,a5,1cfd0 <__divdf3+0x5b8>
   1d008:	01f00713          	li	a4,31
   1d00c:	06f74463          	blt	a4,a5,1d074 <__divdf3+0x65c>
   1d010:	41e50513          	addi	a0,a0,1054
   1d014:	00a89733          	sll	a4,a7,a0
   1d018:	00f856b3          	srl	a3,a6,a5
   1d01c:	00a81533          	sll	a0,a6,a0
   1d020:	00d76733          	or	a4,a4,a3
   1d024:	00a03533          	snez	a0,a0
   1d028:	00a76733          	or	a4,a4,a0
   1d02c:	00f8d7b3          	srl	a5,a7,a5
   1d030:	00777693          	andi	a3,a4,7
   1d034:	02068063          	beqz	a3,1d054 <__divdf3+0x63c>
   1d038:	00f77693          	andi	a3,a4,15
   1d03c:	00400593          	li	a1,4
   1d040:	00b68a63          	beq	a3,a1,1d054 <__divdf3+0x63c>
   1d044:	00470693          	addi	a3,a4,4 # 10004 <_start+0x4>
   1d048:	00e6b733          	sltu	a4,a3,a4
   1d04c:	00e787b3          	add	a5,a5,a4
   1d050:	00068713          	mv	a4,a3
   1d054:	00879693          	slli	a3,a5,0x8
   1d058:	0606ca63          	bltz	a3,1d0cc <__divdf3+0x6b4>
   1d05c:	01d79813          	slli	a6,a5,0x1d
   1d060:	00375713          	srli	a4,a4,0x3
   1d064:	00e86733          	or	a4,a6,a4
   1d068:	0037d793          	srli	a5,a5,0x3
   1d06c:	00000693          	li	a3,0
   1d070:	eddff06f          	j	1cf4c <__divdf3+0x534>
   1d074:	fe100713          	li	a4,-31
   1d078:	40d70733          	sub	a4,a4,a3
   1d07c:	02000593          	li	a1,32
   1d080:	00e8d733          	srl	a4,a7,a4
   1d084:	00000693          	li	a3,0
   1d088:	00b78663          	beq	a5,a1,1d094 <__divdf3+0x67c>
   1d08c:	43e50513          	addi	a0,a0,1086
   1d090:	00a896b3          	sll	a3,a7,a0
   1d094:	0106e6b3          	or	a3,a3,a6
   1d098:	00d036b3          	snez	a3,a3
   1d09c:	00d76733          	or	a4,a4,a3
   1d0a0:	00000793          	li	a5,0
   1d0a4:	f8dff06f          	j	1d030 <__divdf3+0x618>
   1d0a8:	000807b7          	lui	a5,0x80
   1d0ac:	00000713          	li	a4,0
   1d0b0:	7ff00693          	li	a3,2047
   1d0b4:	00000613          	li	a2,0
   1d0b8:	e95ff06f          	j	1cf4c <__divdf3+0x534>
   1d0bc:	00000793          	li	a5,0
   1d0c0:	00000713          	li	a4,0
   1d0c4:	7ff00693          	li	a3,2047
   1d0c8:	e85ff06f          	j	1cf4c <__divdf3+0x534>
   1d0cc:	00000793          	li	a5,0
   1d0d0:	00000713          	li	a4,0
   1d0d4:	00100693          	li	a3,1
   1d0d8:	e75ff06f          	j	1cf4c <__divdf3+0x534>
   1d0dc:	00068813          	mv	a6,a3
   1d0e0:	00080693          	mv	a3,a6
   1d0e4:	e09ff06f          	j	1ceec <__divdf3+0x4d4>

0001d0e8 <__muldf3>:
   1d0e8:	fd010113          	addi	sp,sp,-48
   1d0ec:	03212023          	sw	s2,32(sp)
   1d0f0:	0145d913          	srli	s2,a1,0x14
   1d0f4:	01312e23          	sw	s3,28(sp)
   1d0f8:	01412c23          	sw	s4,24(sp)
   1d0fc:	01512a23          	sw	s5,20(sp)
   1d100:	01612823          	sw	s6,16(sp)
   1d104:	01712623          	sw	s7,12(sp)
   1d108:	00c59a93          	slli	s5,a1,0xc
   1d10c:	02112623          	sw	ra,44(sp)
   1d110:	02812423          	sw	s0,40(sp)
   1d114:	02912223          	sw	s1,36(sp)
   1d118:	7ff97913          	andi	s2,s2,2047
   1d11c:	00050b13          	mv	s6,a0
   1d120:	00060b93          	mv	s7,a2
   1d124:	00068a13          	mv	s4,a3
   1d128:	00cada93          	srli	s5,s5,0xc
   1d12c:	01f5d993          	srli	s3,a1,0x1f
   1d130:	0a090463          	beqz	s2,1d1d8 <__muldf3+0xf0>
   1d134:	7ff00793          	li	a5,2047
   1d138:	10f90263          	beq	s2,a5,1d23c <__muldf3+0x154>
   1d13c:	01d55413          	srli	s0,a0,0x1d
   1d140:	003a9a93          	slli	s5,s5,0x3
   1d144:	01546ab3          	or	s5,s0,s5
   1d148:	00800437          	lui	s0,0x800
   1d14c:	008ae433          	or	s0,s5,s0
   1d150:	00351493          	slli	s1,a0,0x3
   1d154:	c0190913          	addi	s2,s2,-1023
   1d158:	00000b13          	li	s6,0
   1d15c:	014a5513          	srli	a0,s4,0x14
   1d160:	00ca1a93          	slli	s5,s4,0xc
   1d164:	7ff57513          	andi	a0,a0,2047
   1d168:	000b8713          	mv	a4,s7
   1d16c:	00cada93          	srli	s5,s5,0xc
   1d170:	01fa5a13          	srli	s4,s4,0x1f
   1d174:	10050263          	beqz	a0,1d278 <__muldf3+0x190>
   1d178:	7ff00793          	li	a5,2047
   1d17c:	16f50263          	beq	a0,a5,1d2e0 <__muldf3+0x1f8>
   1d180:	01dbd793          	srli	a5,s7,0x1d
   1d184:	003a9a93          	slli	s5,s5,0x3
   1d188:	0157eab3          	or	s5,a5,s5
   1d18c:	008007b7          	lui	a5,0x800
   1d190:	00fae7b3          	or	a5,s5,a5
   1d194:	003b9713          	slli	a4,s7,0x3
   1d198:	c0150513          	addi	a0,a0,-1023
   1d19c:	00000693          	li	a3,0
   1d1a0:	002b1593          	slli	a1,s6,0x2
   1d1a4:	00d5e5b3          	or	a1,a1,a3
   1d1a8:	00a90533          	add	a0,s2,a0
   1d1ac:	fff58593          	addi	a1,a1,-1
   1d1b0:	00e00893          	li	a7,14
   1d1b4:	0149c633          	xor	a2,s3,s4
   1d1b8:	00150813          	addi	a6,a0,1
   1d1bc:	14b8ee63          	bltu	a7,a1,1d318 <__muldf3+0x230>
   1d1c0:	00022537          	lui	a0,0x22
   1d1c4:	00259593          	slli	a1,a1,0x2
   1d1c8:	0e450513          	addi	a0,a0,228 # 220e4 <zeroes.4476+0x4c>
   1d1cc:	00a585b3          	add	a1,a1,a0
   1d1d0:	0005a583          	lw	a1,0(a1)
   1d1d4:	00058067          	jr	a1
   1d1d8:	00aae433          	or	s0,s5,a0
   1d1dc:	06040e63          	beqz	s0,1d258 <__muldf3+0x170>
   1d1e0:	040a8063          	beqz	s5,1d220 <__muldf3+0x138>
   1d1e4:	000a8513          	mv	a0,s5
   1d1e8:	558030ef          	jal	ra,20740 <__clzsi2>
   1d1ec:	ff550793          	addi	a5,a0,-11
   1d1f0:	01c00713          	li	a4,28
   1d1f4:	02f74c63          	blt	a4,a5,1d22c <__muldf3+0x144>
   1d1f8:	01d00413          	li	s0,29
   1d1fc:	ff850493          	addi	s1,a0,-8
   1d200:	40f40433          	sub	s0,s0,a5
   1d204:	009a9ab3          	sll	s5,s5,s1
   1d208:	008b5433          	srl	s0,s6,s0
   1d20c:	01546433          	or	s0,s0,s5
   1d210:	009b14b3          	sll	s1,s6,s1
   1d214:	c0d00913          	li	s2,-1011
   1d218:	40a90933          	sub	s2,s2,a0
   1d21c:	f3dff06f          	j	1d158 <__muldf3+0x70>
   1d220:	520030ef          	jal	ra,20740 <__clzsi2>
   1d224:	02050513          	addi	a0,a0,32
   1d228:	fc5ff06f          	j	1d1ec <__muldf3+0x104>
   1d22c:	fd850413          	addi	s0,a0,-40
   1d230:	008b1433          	sll	s0,s6,s0
   1d234:	00000493          	li	s1,0
   1d238:	fddff06f          	j	1d214 <__muldf3+0x12c>
   1d23c:	00aae433          	or	s0,s5,a0
   1d240:	02040463          	beqz	s0,1d268 <__muldf3+0x180>
   1d244:	00050493          	mv	s1,a0
   1d248:	000a8413          	mv	s0,s5
   1d24c:	7ff00913          	li	s2,2047
   1d250:	00300b13          	li	s6,3
   1d254:	f09ff06f          	j	1d15c <__muldf3+0x74>
   1d258:	00000493          	li	s1,0
   1d25c:	00000913          	li	s2,0
   1d260:	00100b13          	li	s6,1
   1d264:	ef9ff06f          	j	1d15c <__muldf3+0x74>
   1d268:	00000493          	li	s1,0
   1d26c:	7ff00913          	li	s2,2047
   1d270:	00200b13          	li	s6,2
   1d274:	ee9ff06f          	j	1d15c <__muldf3+0x74>
   1d278:	017ae7b3          	or	a5,s5,s7
   1d27c:	06078e63          	beqz	a5,1d2f8 <__muldf3+0x210>
   1d280:	040a8063          	beqz	s5,1d2c0 <__muldf3+0x1d8>
   1d284:	000a8513          	mv	a0,s5
   1d288:	4b8030ef          	jal	ra,20740 <__clzsi2>
   1d28c:	ff550693          	addi	a3,a0,-11
   1d290:	01c00793          	li	a5,28
   1d294:	02d7ce63          	blt	a5,a3,1d2d0 <__muldf3+0x1e8>
   1d298:	01d00793          	li	a5,29
   1d29c:	ff850713          	addi	a4,a0,-8
   1d2a0:	40d787b3          	sub	a5,a5,a3
   1d2a4:	00ea9ab3          	sll	s5,s5,a4
   1d2a8:	00fbd7b3          	srl	a5,s7,a5
   1d2ac:	0157e7b3          	or	a5,a5,s5
   1d2b0:	00eb9733          	sll	a4,s7,a4
   1d2b4:	c0d00613          	li	a2,-1011
   1d2b8:	40a60533          	sub	a0,a2,a0
   1d2bc:	ee1ff06f          	j	1d19c <__muldf3+0xb4>
   1d2c0:	000b8513          	mv	a0,s7
   1d2c4:	47c030ef          	jal	ra,20740 <__clzsi2>
   1d2c8:	02050513          	addi	a0,a0,32
   1d2cc:	fc1ff06f          	j	1d28c <__muldf3+0x1a4>
   1d2d0:	fd850793          	addi	a5,a0,-40
   1d2d4:	00fb97b3          	sll	a5,s7,a5
   1d2d8:	00000713          	li	a4,0
   1d2dc:	fd9ff06f          	j	1d2b4 <__muldf3+0x1cc>
   1d2e0:	017ae7b3          	or	a5,s5,s7
   1d2e4:	02078263          	beqz	a5,1d308 <__muldf3+0x220>
   1d2e8:	000a8793          	mv	a5,s5
   1d2ec:	7ff00513          	li	a0,2047
   1d2f0:	00300693          	li	a3,3
   1d2f4:	eadff06f          	j	1d1a0 <__muldf3+0xb8>
   1d2f8:	00000713          	li	a4,0
   1d2fc:	00000513          	li	a0,0
   1d300:	00100693          	li	a3,1
   1d304:	e9dff06f          	j	1d1a0 <__muldf3+0xb8>
   1d308:	00000713          	li	a4,0
   1d30c:	7ff00513          	li	a0,2047
   1d310:	00200693          	li	a3,2
   1d314:	e8dff06f          	j	1d1a0 <__muldf3+0xb8>
   1d318:	00010fb7          	lui	t6,0x10
   1d31c:	ffff8f13          	addi	t5,t6,-1 # ffff <_start-0x1>
   1d320:	0104d693          	srli	a3,s1,0x10
   1d324:	01075313          	srli	t1,a4,0x10
   1d328:	01e4f4b3          	and	s1,s1,t5
   1d32c:	01e77733          	and	a4,a4,t5
   1d330:	029308b3          	mul	a7,t1,s1
   1d334:	029705b3          	mul	a1,a4,s1
   1d338:	02e682b3          	mul	t0,a3,a4
   1d33c:	00588e33          	add	t3,a7,t0
   1d340:	0105d893          	srli	a7,a1,0x10
   1d344:	01c888b3          	add	a7,a7,t3
   1d348:	02668eb3          	mul	t4,a3,t1
   1d34c:	0058f463          	bleu	t0,a7,1d354 <__muldf3+0x26c>
   1d350:	01fe8eb3          	add	t4,t4,t6
   1d354:	0108d913          	srli	s2,a7,0x10
   1d358:	01e8f8b3          	and	a7,a7,t5
   1d35c:	0107df93          	srli	t6,a5,0x10
   1d360:	01e5f5b3          	and	a1,a1,t5
   1d364:	01e7f3b3          	and	t2,a5,t5
   1d368:	01089893          	slli	a7,a7,0x10
   1d36c:	00b888b3          	add	a7,a7,a1
   1d370:	027687b3          	mul	a5,a3,t2
   1d374:	029385b3          	mul	a1,t2,s1
   1d378:	029f84b3          	mul	s1,t6,s1
   1d37c:	00f48e33          	add	t3,s1,a5
   1d380:	0105d493          	srli	s1,a1,0x10
   1d384:	01c484b3          	add	s1,s1,t3
   1d388:	03f686b3          	mul	a3,a3,t6
   1d38c:	00f4f663          	bleu	a5,s1,1d398 <__muldf3+0x2b0>
   1d390:	000107b7          	lui	a5,0x10
   1d394:	00f686b3          	add	a3,a3,a5
   1d398:	0104df13          	srli	t5,s1,0x10
   1d39c:	000109b7          	lui	s3,0x10
   1d3a0:	00df0f33          	add	t5,t5,a3
   1d3a4:	fff98693          	addi	a3,s3,-1 # ffff <_start-0x1>
   1d3a8:	00d4f4b3          	and	s1,s1,a3
   1d3ac:	00d5f5b3          	and	a1,a1,a3
   1d3b0:	01045793          	srli	a5,s0,0x10
   1d3b4:	01049493          	slli	s1,s1,0x10
   1d3b8:	00d47433          	and	s0,s0,a3
   1d3bc:	00b484b3          	add	s1,s1,a1
   1d3c0:	028706b3          	mul	a3,a4,s0
   1d3c4:	00990933          	add	s2,s2,s1
   1d3c8:	02e78e33          	mul	t3,a5,a4
   1d3cc:	028305b3          	mul	a1,t1,s0
   1d3d0:	02f30733          	mul	a4,t1,a5
   1d3d4:	01c58333          	add	t1,a1,t3
   1d3d8:	0106d593          	srli	a1,a3,0x10
   1d3dc:	006585b3          	add	a1,a1,t1
   1d3e0:	01c5f463          	bleu	t3,a1,1d3e8 <__muldf3+0x300>
   1d3e4:	01370733          	add	a4,a4,s3
   1d3e8:	0105d313          	srli	t1,a1,0x10
   1d3ec:	000109b7          	lui	s3,0x10
   1d3f0:	00e302b3          	add	t0,t1,a4
   1d3f4:	fff98713          	addi	a4,s3,-1 # ffff <_start-0x1>
   1d3f8:	00e5f5b3          	and	a1,a1,a4
   1d3fc:	00e6f6b3          	and	a3,a3,a4
   1d400:	02838333          	mul	t1,t2,s0
   1d404:	01059593          	slli	a1,a1,0x10
   1d408:	00d585b3          	add	a1,a1,a3
   1d40c:	02778733          	mul	a4,a5,t2
   1d410:	028f8433          	mul	s0,t6,s0
   1d414:	02ff8e33          	mul	t3,t6,a5
   1d418:	00e40433          	add	s0,s0,a4
   1d41c:	01035793          	srli	a5,t1,0x10
   1d420:	00878433          	add	s0,a5,s0
   1d424:	00e47463          	bleu	a4,s0,1d42c <__muldf3+0x344>
   1d428:	013e0e33          	add	t3,t3,s3
   1d42c:	000107b7          	lui	a5,0x10
   1d430:	fff78793          	addi	a5,a5,-1 # ffff <_start-0x1>
   1d434:	00f476b3          	and	a3,s0,a5
   1d438:	00f37333          	and	t1,t1,a5
   1d43c:	01069693          	slli	a3,a3,0x10
   1d440:	012e8eb3          	add	t4,t4,s2
   1d444:	006686b3          	add	a3,a3,t1
   1d448:	009eb4b3          	sltu	s1,t4,s1
   1d44c:	01e686b3          	add	a3,a3,t5
   1d450:	009687b3          	add	a5,a3,s1
   1d454:	00be8eb3          	add	t4,t4,a1
   1d458:	00beb5b3          	sltu	a1,t4,a1
   1d45c:	00578333          	add	t1,a5,t0
   1d460:	00b30fb3          	add	t6,t1,a1
   1d464:	01e6b6b3          	sltu	a3,a3,t5
   1d468:	0097b7b3          	sltu	a5,a5,s1
   1d46c:	00f6e7b3          	or	a5,a3,a5
   1d470:	01045413          	srli	s0,s0,0x10
   1d474:	00533333          	sltu	t1,t1,t0
   1d478:	00bfb5b3          	sltu	a1,t6,a1
   1d47c:	008787b3          	add	a5,a5,s0
   1d480:	00b365b3          	or	a1,t1,a1
   1d484:	00b787b3          	add	a5,a5,a1
   1d488:	01c787b3          	add	a5,a5,t3
   1d48c:	017fd713          	srli	a4,t6,0x17
   1d490:	00979793          	slli	a5,a5,0x9
   1d494:	00e7e7b3          	or	a5,a5,a4
   1d498:	009e9713          	slli	a4,t4,0x9
   1d49c:	01176733          	or	a4,a4,a7
   1d4a0:	00e03733          	snez	a4,a4
   1d4a4:	017ede93          	srli	t4,t4,0x17
   1d4a8:	009f9693          	slli	a3,t6,0x9
   1d4ac:	01d76733          	or	a4,a4,t4
   1d4b0:	00d76733          	or	a4,a4,a3
   1d4b4:	00779693          	slli	a3,a5,0x7
   1d4b8:	1006d263          	bgez	a3,1d5bc <__muldf3+0x4d4>
   1d4bc:	00175693          	srli	a3,a4,0x1
   1d4c0:	00177713          	andi	a4,a4,1
   1d4c4:	00e6e733          	or	a4,a3,a4
   1d4c8:	01f79693          	slli	a3,a5,0x1f
   1d4cc:	00d76733          	or	a4,a4,a3
   1d4d0:	0017d793          	srli	a5,a5,0x1
   1d4d4:	3ff80593          	addi	a1,a6,1023
   1d4d8:	0eb05663          	blez	a1,1d5c4 <__muldf3+0x4dc>
   1d4dc:	00777693          	andi	a3,a4,7
   1d4e0:	02068063          	beqz	a3,1d500 <__muldf3+0x418>
   1d4e4:	00f77693          	andi	a3,a4,15
   1d4e8:	00400513          	li	a0,4
   1d4ec:	00a68a63          	beq	a3,a0,1d500 <__muldf3+0x418>
   1d4f0:	00470693          	addi	a3,a4,4
   1d4f4:	00e6b733          	sltu	a4,a3,a4
   1d4f8:	00e787b3          	add	a5,a5,a4
   1d4fc:	00068713          	mv	a4,a3
   1d500:	00779693          	slli	a3,a5,0x7
   1d504:	0006da63          	bgez	a3,1d518 <__muldf3+0x430>
   1d508:	ff0006b7          	lui	a3,0xff000
   1d50c:	fff68693          	addi	a3,a3,-1 # feffffff <_end+0xfefd9b1f>
   1d510:	00d7f7b3          	and	a5,a5,a3
   1d514:	40080593          	addi	a1,a6,1024
   1d518:	7fe00693          	li	a3,2046
   1d51c:	16b6c663          	blt	a3,a1,1d688 <__muldf3+0x5a0>
   1d520:	00375693          	srli	a3,a4,0x3
   1d524:	01d79713          	slli	a4,a5,0x1d
   1d528:	00d76733          	or	a4,a4,a3
   1d52c:	0037d793          	srli	a5,a5,0x3
   1d530:	7ff5f693          	andi	a3,a1,2047
   1d534:	00c79793          	slli	a5,a5,0xc
   1d538:	01469693          	slli	a3,a3,0x14
   1d53c:	02c12083          	lw	ra,44(sp)
   1d540:	02812403          	lw	s0,40(sp)
   1d544:	00c7d793          	srli	a5,a5,0xc
   1d548:	01f61613          	slli	a2,a2,0x1f
   1d54c:	00d7e7b3          	or	a5,a5,a3
   1d550:	00c7e6b3          	or	a3,a5,a2
   1d554:	02412483          	lw	s1,36(sp)
   1d558:	02012903          	lw	s2,32(sp)
   1d55c:	01c12983          	lw	s3,28(sp)
   1d560:	01812a03          	lw	s4,24(sp)
   1d564:	01412a83          	lw	s5,20(sp)
   1d568:	01012b03          	lw	s6,16(sp)
   1d56c:	00c12b83          	lw	s7,12(sp)
   1d570:	00070513          	mv	a0,a4
   1d574:	00068593          	mv	a1,a3
   1d578:	03010113          	addi	sp,sp,48
   1d57c:	00008067          	ret
   1d580:	00098613          	mv	a2,s3
   1d584:	00040793          	mv	a5,s0
   1d588:	00048713          	mv	a4,s1
   1d58c:	000b0693          	mv	a3,s6
   1d590:	00200593          	li	a1,2
   1d594:	0eb68a63          	beq	a3,a1,1d688 <__muldf3+0x5a0>
   1d598:	00300593          	li	a1,3
   1d59c:	0cb68c63          	beq	a3,a1,1d674 <__muldf3+0x58c>
   1d5a0:	00100593          	li	a1,1
   1d5a4:	f2b698e3          	bne	a3,a1,1d4d4 <__muldf3+0x3ec>
   1d5a8:	00000793          	li	a5,0
   1d5ac:	00000713          	li	a4,0
   1d5b0:	0880006f          	j	1d638 <__muldf3+0x550>
   1d5b4:	000a0613          	mv	a2,s4
   1d5b8:	fd9ff06f          	j	1d590 <__muldf3+0x4a8>
   1d5bc:	00050813          	mv	a6,a0
   1d5c0:	f15ff06f          	j	1d4d4 <__muldf3+0x3ec>
   1d5c4:	00100513          	li	a0,1
   1d5c8:	40b50533          	sub	a0,a0,a1
   1d5cc:	03800693          	li	a3,56
   1d5d0:	fca6cce3          	blt	a3,a0,1d5a8 <__muldf3+0x4c0>
   1d5d4:	01f00693          	li	a3,31
   1d5d8:	06a6c463          	blt	a3,a0,1d640 <__muldf3+0x558>
   1d5dc:	41e80813          	addi	a6,a6,1054
   1d5e0:	010796b3          	sll	a3,a5,a6
   1d5e4:	00a755b3          	srl	a1,a4,a0
   1d5e8:	01071733          	sll	a4,a4,a6
   1d5ec:	00b6e6b3          	or	a3,a3,a1
   1d5f0:	00e03733          	snez	a4,a4
   1d5f4:	00e6e733          	or	a4,a3,a4
   1d5f8:	00a7d7b3          	srl	a5,a5,a0
   1d5fc:	00777693          	andi	a3,a4,7
   1d600:	02068063          	beqz	a3,1d620 <__muldf3+0x538>
   1d604:	00f77693          	andi	a3,a4,15
   1d608:	00400593          	li	a1,4
   1d60c:	00b68a63          	beq	a3,a1,1d620 <__muldf3+0x538>
   1d610:	00470693          	addi	a3,a4,4
   1d614:	00e6b733          	sltu	a4,a3,a4
   1d618:	00e787b3          	add	a5,a5,a4
   1d61c:	00068713          	mv	a4,a3
   1d620:	00879693          	slli	a3,a5,0x8
   1d624:	0606ca63          	bltz	a3,1d698 <__muldf3+0x5b0>
   1d628:	01d79693          	slli	a3,a5,0x1d
   1d62c:	00375713          	srli	a4,a4,0x3
   1d630:	00e6e733          	or	a4,a3,a4
   1d634:	0037d793          	srli	a5,a5,0x3
   1d638:	00000593          	li	a1,0
   1d63c:	ef5ff06f          	j	1d530 <__muldf3+0x448>
   1d640:	fe100693          	li	a3,-31
   1d644:	40b686b3          	sub	a3,a3,a1
   1d648:	02000893          	li	a7,32
   1d64c:	00d7d6b3          	srl	a3,a5,a3
   1d650:	00000593          	li	a1,0
   1d654:	01150663          	beq	a0,a7,1d660 <__muldf3+0x578>
   1d658:	43e80813          	addi	a6,a6,1086
   1d65c:	010795b3          	sll	a1,a5,a6
   1d660:	00e5e733          	or	a4,a1,a4
   1d664:	00e03733          	snez	a4,a4
   1d668:	00e6e733          	or	a4,a3,a4
   1d66c:	00000793          	li	a5,0
   1d670:	f8dff06f          	j	1d5fc <__muldf3+0x514>
   1d674:	000807b7          	lui	a5,0x80
   1d678:	00000713          	li	a4,0
   1d67c:	7ff00593          	li	a1,2047
   1d680:	00000613          	li	a2,0
   1d684:	eadff06f          	j	1d530 <__muldf3+0x448>
   1d688:	00000793          	li	a5,0
   1d68c:	00000713          	li	a4,0
   1d690:	7ff00593          	li	a1,2047
   1d694:	e9dff06f          	j	1d530 <__muldf3+0x448>
   1d698:	00000793          	li	a5,0
   1d69c:	00000713          	li	a4,0
   1d6a0:	00100593          	li	a1,1
   1d6a4:	e8dff06f          	j	1d530 <__muldf3+0x448>

0001d6a8 <__eqtf2>:
   1d6a8:	00c52783          	lw	a5,12(a0)
   1d6ac:	0005af03          	lw	t5,0(a1)
   1d6b0:	0045af83          	lw	t6,4(a1)
   1d6b4:	0085a283          	lw	t0,8(a1)
   1d6b8:	00c5a583          	lw	a1,12(a1)
   1d6bc:	00008737          	lui	a4,0x8
   1d6c0:	0107d693          	srli	a3,a5,0x10
   1d6c4:	fff70713          	addi	a4,a4,-1 # 7fff <_start-0x8001>
   1d6c8:	01079813          	slli	a6,a5,0x10
   1d6cc:	01059e93          	slli	t4,a1,0x10
   1d6d0:	01f7d613          	srli	a2,a5,0x1f
   1d6d4:	00e6f6b3          	and	a3,a3,a4
   1d6d8:	0105d793          	srli	a5,a1,0x10
   1d6dc:	ff010113          	addi	sp,sp,-16
   1d6e0:	00052883          	lw	a7,0(a0)
   1d6e4:	00452303          	lw	t1,4(a0)
   1d6e8:	00852e03          	lw	t3,8(a0)
   1d6ec:	01085813          	srli	a6,a6,0x10
   1d6f0:	010ede93          	srli	t4,t4,0x10
   1d6f4:	00e7f7b3          	and	a5,a5,a4
   1d6f8:	01f5d593          	srli	a1,a1,0x1f
   1d6fc:	02e69063          	bne	a3,a4,1d71c <__eqtf2+0x74>
   1d700:	0068e733          	or	a4,a7,t1
   1d704:	01c76733          	or	a4,a4,t3
   1d708:	01076733          	or	a4,a4,a6
   1d70c:	00100513          	li	a0,1
   1d710:	04071a63          	bnez	a4,1d764 <__eqtf2+0xbc>
   1d714:	04d79863          	bne	a5,a3,1d764 <__eqtf2+0xbc>
   1d718:	0080006f          	j	1d720 <__eqtf2+0x78>
   1d71c:	00e79c63          	bne	a5,a4,1d734 <__eqtf2+0x8c>
   1d720:	01ff6733          	or	a4,t5,t6
   1d724:	00576733          	or	a4,a4,t0
   1d728:	01d76733          	or	a4,a4,t4
   1d72c:	00100513          	li	a0,1
   1d730:	02071a63          	bnez	a4,1d764 <__eqtf2+0xbc>
   1d734:	00100513          	li	a0,1
   1d738:	02d79663          	bne	a5,a3,1d764 <__eqtf2+0xbc>
   1d73c:	03e89463          	bne	a7,t5,1d764 <__eqtf2+0xbc>
   1d740:	03f31263          	bne	t1,t6,1d764 <__eqtf2+0xbc>
   1d744:	025e1063          	bne	t3,t0,1d764 <__eqtf2+0xbc>
   1d748:	01d81e63          	bne	a6,t4,1d764 <__eqtf2+0xbc>
   1d74c:	02b60063          	beq	a2,a1,1d76c <__eqtf2+0xc4>
   1d750:	00079a63          	bnez	a5,1d764 <__eqtf2+0xbc>
   1d754:	0068e533          	or	a0,a7,t1
   1d758:	01c56533          	or	a0,a0,t3
   1d75c:	01056533          	or	a0,a0,a6
   1d760:	00a03533          	snez	a0,a0
   1d764:	01010113          	addi	sp,sp,16
   1d768:	00008067          	ret
   1d76c:	00000513          	li	a0,0
   1d770:	ff5ff06f          	j	1d764 <__eqtf2+0xbc>

0001d774 <__getf2>:
   1d774:	00c52783          	lw	a5,12(a0)
   1d778:	00c5a603          	lw	a2,12(a1)
   1d77c:	0005a283          	lw	t0,0(a1)
   1d780:	0045a883          	lw	a7,4(a1)
   1d784:	0085af03          	lw	t5,8(a1)
   1d788:	000085b7          	lui	a1,0x8
   1d78c:	0107d693          	srli	a3,a5,0x10
   1d790:	fff58593          	addi	a1,a1,-1 # 7fff <_start-0x8001>
   1d794:	01079313          	slli	t1,a5,0x10
   1d798:	01061e13          	slli	t3,a2,0x10
   1d79c:	01065713          	srli	a4,a2,0x10
   1d7a0:	00b6f6b3          	and	a3,a3,a1
   1d7a4:	ff010113          	addi	sp,sp,-16
   1d7a8:	00052f83          	lw	t6,0(a0)
   1d7ac:	00452803          	lw	a6,4(a0)
   1d7b0:	00852e83          	lw	t4,8(a0)
   1d7b4:	01035313          	srli	t1,t1,0x10
   1d7b8:	01f7d793          	srli	a5,a5,0x1f
   1d7bc:	010e5e13          	srli	t3,t3,0x10
   1d7c0:	00b77733          	and	a4,a4,a1
   1d7c4:	01f65613          	srli	a2,a2,0x1f
   1d7c8:	02b69063          	bne	a3,a1,1d7e8 <__getf2+0x74>
   1d7cc:	01f865b3          	or	a1,a6,t6
   1d7d0:	01d5e5b3          	or	a1,a1,t4
   1d7d4:	0065e5b3          	or	a1,a1,t1
   1d7d8:	ffe00513          	li	a0,-2
   1d7dc:	0c058863          	beqz	a1,1d8ac <__getf2+0x138>
   1d7e0:	01010113          	addi	sp,sp,16
   1d7e4:	00008067          	ret
   1d7e8:	00b71c63          	bne	a4,a1,1d800 <__getf2+0x8c>
   1d7ec:	0058e5b3          	or	a1,a7,t0
   1d7f0:	01e5e5b3          	or	a1,a1,t5
   1d7f4:	01c5e5b3          	or	a1,a1,t3
   1d7f8:	ffe00513          	li	a0,-2
   1d7fc:	fe0592e3          	bnez	a1,1d7e0 <__getf2+0x6c>
   1d800:	0a069863          	bnez	a3,1d8b0 <__getf2+0x13c>
   1d804:	01f86533          	or	a0,a6,t6
   1d808:	01d56533          	or	a0,a0,t4
   1d80c:	00656533          	or	a0,a0,t1
   1d810:	00153513          	seqz	a0,a0
   1d814:	00071a63          	bnez	a4,1d828 <__getf2+0xb4>
   1d818:	0058e5b3          	or	a1,a7,t0
   1d81c:	01e5e5b3          	or	a1,a1,t5
   1d820:	01c5e5b3          	or	a1,a1,t3
   1d824:	06058663          	beqz	a1,1d890 <__getf2+0x11c>
   1d828:	00051a63          	bnez	a0,1d83c <__getf2+0xc8>
   1d82c:	00c78e63          	beq	a5,a2,1d848 <__getf2+0xd4>
   1d830:	00100513          	li	a0,1
   1d834:	fa0786e3          	beqz	a5,1d7e0 <__getf2+0x6c>
   1d838:	0080006f          	j	1d840 <__getf2+0xcc>
   1d83c:	fa0612e3          	bnez	a2,1d7e0 <__getf2+0x6c>
   1d840:	fff00513          	li	a0,-1
   1d844:	f9dff06f          	j	1d7e0 <__getf2+0x6c>
   1d848:	fed744e3          	blt	a4,a3,1d830 <__getf2+0xbc>
   1d84c:	00e6da63          	ble	a4,a3,1d860 <__getf2+0xec>
   1d850:	fff00513          	li	a0,-1
   1d854:	f80786e3          	beqz	a5,1d7e0 <__getf2+0x6c>
   1d858:	00100513          	li	a0,1
   1d85c:	f85ff06f          	j	1d7e0 <__getf2+0x6c>
   1d860:	fc6e68e3          	bltu	t3,t1,1d830 <__getf2+0xbc>
   1d864:	03c31c63          	bne	t1,t3,1d89c <__getf2+0x128>
   1d868:	fddf64e3          	bltu	t5,t4,1d830 <__getf2+0xbc>
   1d86c:	03df1c63          	bne	t5,t4,1d8a4 <__getf2+0x130>
   1d870:	fd08e0e3          	bltu	a7,a6,1d830 <__getf2+0xbc>
   1d874:	01089463          	bne	a7,a6,1d87c <__getf2+0x108>
   1d878:	fbf2ece3          	bltu	t0,t6,1d830 <__getf2+0xbc>
   1d87c:	fd186ae3          	bltu	a6,a7,1d850 <__getf2+0xdc>
   1d880:	00000513          	li	a0,0
   1d884:	f5089ee3          	bne	a7,a6,1d7e0 <__getf2+0x6c>
   1d888:	f45ffce3          	bleu	t0,t6,1d7e0 <__getf2+0x6c>
   1d88c:	fc5ff06f          	j	1d850 <__getf2+0xdc>
   1d890:	fa0500e3          	beqz	a0,1d830 <__getf2+0xbc>
   1d894:	00000513          	li	a0,0
   1d898:	f49ff06f          	j	1d7e0 <__getf2+0x6c>
   1d89c:	fbc36ae3          	bltu	t1,t3,1d850 <__getf2+0xdc>
   1d8a0:	ff5ff06f          	j	1d894 <__getf2+0x120>
   1d8a4:	fbeee6e3          	bltu	t4,t5,1d850 <__getf2+0xdc>
   1d8a8:	fedff06f          	j	1d894 <__getf2+0x120>
   1d8ac:	f4d700e3          	beq	a4,a3,1d7ec <__getf2+0x78>
   1d8b0:	f6071ee3          	bnez	a4,1d82c <__getf2+0xb8>
   1d8b4:	00000513          	li	a0,0
   1d8b8:	f61ff06f          	j	1d818 <__getf2+0xa4>

0001d8bc <__letf2>:
   1d8bc:	00c52783          	lw	a5,12(a0)
   1d8c0:	00c5a603          	lw	a2,12(a1)
   1d8c4:	0005a283          	lw	t0,0(a1)
   1d8c8:	0045a883          	lw	a7,4(a1)
   1d8cc:	0085af03          	lw	t5,8(a1)
   1d8d0:	000085b7          	lui	a1,0x8
   1d8d4:	0107d693          	srli	a3,a5,0x10
   1d8d8:	fff58593          	addi	a1,a1,-1 # 7fff <_start-0x8001>
   1d8dc:	01079313          	slli	t1,a5,0x10
   1d8e0:	01061e13          	slli	t3,a2,0x10
   1d8e4:	01065713          	srli	a4,a2,0x10
   1d8e8:	00b6f6b3          	and	a3,a3,a1
   1d8ec:	ff010113          	addi	sp,sp,-16
   1d8f0:	00052f83          	lw	t6,0(a0)
   1d8f4:	00452803          	lw	a6,4(a0)
   1d8f8:	00852e83          	lw	t4,8(a0)
   1d8fc:	01035313          	srli	t1,t1,0x10
   1d900:	01f7d793          	srli	a5,a5,0x1f
   1d904:	010e5e13          	srli	t3,t3,0x10
   1d908:	00b77733          	and	a4,a4,a1
   1d90c:	01f65613          	srli	a2,a2,0x1f
   1d910:	02b69063          	bne	a3,a1,1d930 <__letf2+0x74>
   1d914:	01f865b3          	or	a1,a6,t6
   1d918:	01d5e5b3          	or	a1,a1,t4
   1d91c:	0065e5b3          	or	a1,a1,t1
   1d920:	00200513          	li	a0,2
   1d924:	0c058863          	beqz	a1,1d9f4 <__letf2+0x138>
   1d928:	01010113          	addi	sp,sp,16
   1d92c:	00008067          	ret
   1d930:	00b71c63          	bne	a4,a1,1d948 <__letf2+0x8c>
   1d934:	0058e5b3          	or	a1,a7,t0
   1d938:	01e5e5b3          	or	a1,a1,t5
   1d93c:	01c5e5b3          	or	a1,a1,t3
   1d940:	00200513          	li	a0,2
   1d944:	fe0592e3          	bnez	a1,1d928 <__letf2+0x6c>
   1d948:	0a069863          	bnez	a3,1d9f8 <__letf2+0x13c>
   1d94c:	01f86533          	or	a0,a6,t6
   1d950:	01d56533          	or	a0,a0,t4
   1d954:	00656533          	or	a0,a0,t1
   1d958:	00153513          	seqz	a0,a0
   1d95c:	00071a63          	bnez	a4,1d970 <__letf2+0xb4>
   1d960:	0058e5b3          	or	a1,a7,t0
   1d964:	01e5e5b3          	or	a1,a1,t5
   1d968:	01c5e5b3          	or	a1,a1,t3
   1d96c:	06058663          	beqz	a1,1d9d8 <__letf2+0x11c>
   1d970:	00051a63          	bnez	a0,1d984 <__letf2+0xc8>
   1d974:	00c78e63          	beq	a5,a2,1d990 <__letf2+0xd4>
   1d978:	00100513          	li	a0,1
   1d97c:	fa0786e3          	beqz	a5,1d928 <__letf2+0x6c>
   1d980:	0080006f          	j	1d988 <__letf2+0xcc>
   1d984:	fa0612e3          	bnez	a2,1d928 <__letf2+0x6c>
   1d988:	fff00513          	li	a0,-1
   1d98c:	f9dff06f          	j	1d928 <__letf2+0x6c>
   1d990:	fed744e3          	blt	a4,a3,1d978 <__letf2+0xbc>
   1d994:	00e6da63          	ble	a4,a3,1d9a8 <__letf2+0xec>
   1d998:	fff00513          	li	a0,-1
   1d99c:	f80786e3          	beqz	a5,1d928 <__letf2+0x6c>
   1d9a0:	00100513          	li	a0,1
   1d9a4:	f85ff06f          	j	1d928 <__letf2+0x6c>
   1d9a8:	fc6e68e3          	bltu	t3,t1,1d978 <__letf2+0xbc>
   1d9ac:	03c31c63          	bne	t1,t3,1d9e4 <__letf2+0x128>
   1d9b0:	fddf64e3          	bltu	t5,t4,1d978 <__letf2+0xbc>
   1d9b4:	03df1c63          	bne	t5,t4,1d9ec <__letf2+0x130>
   1d9b8:	fd08e0e3          	bltu	a7,a6,1d978 <__letf2+0xbc>
   1d9bc:	01089463          	bne	a7,a6,1d9c4 <__letf2+0x108>
   1d9c0:	fbf2ece3          	bltu	t0,t6,1d978 <__letf2+0xbc>
   1d9c4:	fd186ae3          	bltu	a6,a7,1d998 <__letf2+0xdc>
   1d9c8:	00000513          	li	a0,0
   1d9cc:	f5089ee3          	bne	a7,a6,1d928 <__letf2+0x6c>
   1d9d0:	f45ffce3          	bleu	t0,t6,1d928 <__letf2+0x6c>
   1d9d4:	fc5ff06f          	j	1d998 <__letf2+0xdc>
   1d9d8:	fa0500e3          	beqz	a0,1d978 <__letf2+0xbc>
   1d9dc:	00000513          	li	a0,0
   1d9e0:	f49ff06f          	j	1d928 <__letf2+0x6c>
   1d9e4:	fbc36ae3          	bltu	t1,t3,1d998 <__letf2+0xdc>
   1d9e8:	ff5ff06f          	j	1d9dc <__letf2+0x120>
   1d9ec:	fbeee6e3          	bltu	t4,t5,1d998 <__letf2+0xdc>
   1d9f0:	fedff06f          	j	1d9dc <__letf2+0x120>
   1d9f4:	f4d700e3          	beq	a4,a3,1d934 <__letf2+0x78>
   1d9f8:	f6071ee3          	bnez	a4,1d974 <__letf2+0xb8>
   1d9fc:	00000513          	li	a0,0
   1da00:	f61ff06f          	j	1d960 <__letf2+0xa4>

0001da04 <__multf3>:
   1da04:	f4010113          	addi	sp,sp,-192
   1da08:	0b312623          	sw	s3,172(sp)
   1da0c:	00c5a983          	lw	s3,12(a1)
   1da10:	0005a683          	lw	a3,0(a1)
   1da14:	0045a783          	lw	a5,4(a1)
   1da18:	00a12623          	sw	a0,12(sp)
   1da1c:	0085a503          	lw	a0,8(a1)
   1da20:	01099713          	slli	a4,s3,0x10
   1da24:	0b212823          	sw	s2,176(sp)
   1da28:	0b412423          	sw	s4,168(sp)
   1da2c:	0b512223          	sw	s5,164(sp)
   1da30:	0b612023          	sw	s6,160(sp)
   1da34:	00062a03          	lw	s4,0(a2) # 1000000 <_end+0xfd9b20>
   1da38:	00462b03          	lw	s6,4(a2)
   1da3c:	00862a83          	lw	s5,8(a2)
   1da40:	00c62903          	lw	s2,12(a2)
   1da44:	00008637          	lui	a2,0x8
   1da48:	0a912a23          	sw	s1,180(sp)
   1da4c:	01075713          	srli	a4,a4,0x10
   1da50:	0109d493          	srli	s1,s3,0x10
   1da54:	fff60613          	addi	a2,a2,-1 # 7fff <_start-0x8001>
   1da58:	07312623          	sw	s3,108(sp)
   1da5c:	0a112e23          	sw	ra,188(sp)
   1da60:	0a812c23          	sw	s0,184(sp)
   1da64:	09712e23          	sw	s7,156(sp)
   1da68:	09812c23          	sw	s8,152(sp)
   1da6c:	09912a23          	sw	s9,148(sp)
   1da70:	09a12823          	sw	s10,144(sp)
   1da74:	09b12623          	sw	s11,140(sp)
   1da78:	06d12023          	sw	a3,96(sp)
   1da7c:	06f12223          	sw	a5,100(sp)
   1da80:	06a12423          	sw	a0,104(sp)
   1da84:	02d12823          	sw	a3,48(sp)
   1da88:	02f12a23          	sw	a5,52(sp)
   1da8c:	02a12c23          	sw	a0,56(sp)
   1da90:	02e12e23          	sw	a4,60(sp)
   1da94:	00c4f4b3          	and	s1,s1,a2
   1da98:	01f9d993          	srli	s3,s3,0x1f
   1da9c:	12048863          	beqz	s1,1dbcc <__multf3+0x1c8>
   1daa0:	24c48663          	beq	s1,a2,1dcec <__multf3+0x2e8>
   1daa4:	000107b7          	lui	a5,0x10
   1daa8:	00f767b3          	or	a5,a4,a5
   1daac:	02f12e23          	sw	a5,60(sp)
   1dab0:	03010613          	addi	a2,sp,48
   1dab4:	03c10793          	addi	a5,sp,60
   1dab8:	0007a703          	lw	a4,0(a5) # 10000 <_start>
   1dabc:	ffc7a683          	lw	a3,-4(a5)
   1dac0:	ffc78793          	addi	a5,a5,-4
   1dac4:	00371713          	slli	a4,a4,0x3
   1dac8:	01d6d693          	srli	a3,a3,0x1d
   1dacc:	00d76733          	or	a4,a4,a3
   1dad0:	00e7a223          	sw	a4,4(a5)
   1dad4:	fef612e3          	bne	a2,a5,1dab8 <__multf3+0xb4>
   1dad8:	03012783          	lw	a5,48(sp)
   1dadc:	ffffc537          	lui	a0,0xffffc
   1dae0:	00150513          	addi	a0,a0,1 # ffffc001 <_end+0xfffd5b21>
   1dae4:	00379793          	slli	a5,a5,0x3
   1dae8:	02f12823          	sw	a5,48(sp)
   1daec:	00a484b3          	add	s1,s1,a0
   1daf0:	00000b93          	li	s7,0
   1daf4:	01091513          	slli	a0,s2,0x10
   1daf8:	00008737          	lui	a4,0x8
   1dafc:	01095793          	srli	a5,s2,0x10
   1db00:	01055513          	srli	a0,a0,0x10
   1db04:	fff70713          	addi	a4,a4,-1 # 7fff <_start-0x8001>
   1db08:	07212623          	sw	s2,108(sp)
   1db0c:	07412023          	sw	s4,96(sp)
   1db10:	07612223          	sw	s6,100(sp)
   1db14:	07512423          	sw	s5,104(sp)
   1db18:	05412023          	sw	s4,64(sp)
   1db1c:	05612223          	sw	s6,68(sp)
   1db20:	05512423          	sw	s5,72(sp)
   1db24:	04a12623          	sw	a0,76(sp)
   1db28:	00e7f7b3          	and	a5,a5,a4
   1db2c:	01f95913          	srli	s2,s2,0x1f
   1db30:	1e078263          	beqz	a5,1dd14 <__multf3+0x310>
   1db34:	30e78063          	beq	a5,a4,1de34 <__multf3+0x430>
   1db38:	00010ab7          	lui	s5,0x10
   1db3c:	01556ab3          	or	s5,a0,s5
   1db40:	05512623          	sw	s5,76(sp)
   1db44:	04010593          	addi	a1,sp,64
   1db48:	04c10713          	addi	a4,sp,76
   1db4c:	00072683          	lw	a3,0(a4)
   1db50:	ffc72603          	lw	a2,-4(a4)
   1db54:	ffc70713          	addi	a4,a4,-4
   1db58:	00369693          	slli	a3,a3,0x3
   1db5c:	01d65613          	srli	a2,a2,0x1d
   1db60:	00c6e6b3          	or	a3,a3,a2
   1db64:	00d72223          	sw	a3,4(a4)
   1db68:	fee592e3          	bne	a1,a4,1db4c <__multf3+0x148>
   1db6c:	04012703          	lw	a4,64(sp)
   1db70:	ffffc537          	lui	a0,0xffffc
   1db74:	00150513          	addi	a0,a0,1 # ffffc001 <_end+0xfffd5b21>
   1db78:	00371713          	slli	a4,a4,0x3
   1db7c:	04e12023          	sw	a4,64(sp)
   1db80:	00a787b3          	add	a5,a5,a0
   1db84:	00000713          	li	a4,0
   1db88:	00f487b3          	add	a5,s1,a5
   1db8c:	02f12023          	sw	a5,32(sp)
   1db90:	00178793          	addi	a5,a5,1
   1db94:	00f12e23          	sw	a5,28(sp)
   1db98:	002b9793          	slli	a5,s7,0x2
   1db9c:	0129c6b3          	xor	a3,s3,s2
   1dba0:	00e7e7b3          	or	a5,a5,a4
   1dba4:	00d12823          	sw	a3,16(sp)
   1dba8:	fff78793          	addi	a5,a5,-1
   1dbac:	00e00693          	li	a3,14
   1dbb0:	2af6e663          	bltu	a3,a5,1de5c <__multf3+0x458>
   1dbb4:	000226b7          	lui	a3,0x22
   1dbb8:	00279793          	slli	a5,a5,0x2
   1dbbc:	12068693          	addi	a3,a3,288 # 22120 <zeroes.4476+0x88>
   1dbc0:	00d787b3          	add	a5,a5,a3
   1dbc4:	0007a783          	lw	a5,0(a5)
   1dbc8:	00078067          	jr	a5
   1dbcc:	00d7e633          	or	a2,a5,a3
   1dbd0:	00a66633          	or	a2,a2,a0
   1dbd4:	00e66633          	or	a2,a2,a4
   1dbd8:	12060863          	beqz	a2,1dd08 <__multf3+0x304>
   1dbdc:	06070063          	beqz	a4,1dc3c <__multf3+0x238>
   1dbe0:	00070513          	mv	a0,a4
   1dbe4:	35d020ef          	jal	ra,20740 <__clzsi2>
   1dbe8:	ff450693          	addi	a3,a0,-12
   1dbec:	4056d793          	srai	a5,a3,0x5
   1dbf0:	01f6f693          	andi	a3,a3,31
   1dbf4:	06068e63          	beqz	a3,1dc70 <__multf3+0x26c>
   1dbf8:	ffc00713          	li	a4,-4
   1dbfc:	02e78733          	mul	a4,a5,a4
   1dc00:	03010313          	addi	t1,sp,48
   1dc04:	02000813          	li	a6,32
   1dc08:	00279593          	slli	a1,a5,0x2
   1dc0c:	40d80833          	sub	a6,a6,a3
   1dc10:	00c70713          	addi	a4,a4,12
   1dc14:	00e30733          	add	a4,t1,a4
   1dc18:	08e31463          	bne	t1,a4,1dca0 <__multf3+0x29c>
   1dc1c:	08010713          	addi	a4,sp,128
   1dc20:	00b705b3          	add	a1,a4,a1
   1dc24:	03012703          	lw	a4,48(sp)
   1dc28:	fff78793          	addi	a5,a5,-1
   1dc2c:	00d716b3          	sll	a3,a4,a3
   1dc30:	fad5a823          	sw	a3,-80(a1)
   1dc34:	fff00693          	li	a3,-1
   1dc38:	0a00006f          	j	1dcd8 <__multf3+0x2d4>
   1dc3c:	00050863          	beqz	a0,1dc4c <__multf3+0x248>
   1dc40:	301020ef          	jal	ra,20740 <__clzsi2>
   1dc44:	02050513          	addi	a0,a0,32
   1dc48:	fa1ff06f          	j	1dbe8 <__multf3+0x1e4>
   1dc4c:	00078a63          	beqz	a5,1dc60 <__multf3+0x25c>
   1dc50:	00078513          	mv	a0,a5
   1dc54:	2ed020ef          	jal	ra,20740 <__clzsi2>
   1dc58:	04050513          	addi	a0,a0,64
   1dc5c:	f8dff06f          	j	1dbe8 <__multf3+0x1e4>
   1dc60:	00068513          	mv	a0,a3
   1dc64:	2dd020ef          	jal	ra,20740 <__clzsi2>
   1dc68:	06050513          	addi	a0,a0,96
   1dc6c:	f7dff06f          	j	1dbe8 <__multf3+0x1e4>
   1dc70:	ffc00613          	li	a2,-4
   1dc74:	02c78633          	mul	a2,a5,a2
   1dc78:	03c10713          	addi	a4,sp,60
   1dc7c:	00300693          	li	a3,3
   1dc80:	00c705b3          	add	a1,a4,a2
   1dc84:	0005a583          	lw	a1,0(a1)
   1dc88:	fff68693          	addi	a3,a3,-1
   1dc8c:	ffc70713          	addi	a4,a4,-4
   1dc90:	00b72223          	sw	a1,4(a4)
   1dc94:	fef6d6e3          	ble	a5,a3,1dc80 <__multf3+0x27c>
   1dc98:	fff78793          	addi	a5,a5,-1
   1dc9c:	f99ff06f          	j	1dc34 <__multf3+0x230>
   1dca0:	ffc72603          	lw	a2,-4(a4)
   1dca4:	00072883          	lw	a7,0(a4)
   1dca8:	00b70e33          	add	t3,a4,a1
   1dcac:	01065633          	srl	a2,a2,a6
   1dcb0:	00d898b3          	sll	a7,a7,a3
   1dcb4:	01166633          	or	a2,a2,a7
   1dcb8:	00ce2023          	sw	a2,0(t3)
   1dcbc:	ffc70713          	addi	a4,a4,-4
   1dcc0:	f59ff06f          	j	1dc18 <__multf3+0x214>
   1dcc4:	00279713          	slli	a4,a5,0x2
   1dcc8:	03010613          	addi	a2,sp,48
   1dccc:	00e60733          	add	a4,a2,a4
   1dcd0:	00072023          	sw	zero,0(a4)
   1dcd4:	fff78793          	addi	a5,a5,-1
   1dcd8:	fed796e3          	bne	a5,a3,1dcc4 <__multf3+0x2c0>
   1dcdc:	ffffc4b7          	lui	s1,0xffffc
   1dce0:	01148493          	addi	s1,s1,17 # ffffc011 <_end+0xfffd5b31>
   1dce4:	40a484b3          	sub	s1,s1,a0
   1dce8:	e09ff06f          	j	1daf0 <__multf3+0xec>
   1dcec:	00d7e7b3          	or	a5,a5,a3
   1dcf0:	00a7e7b3          	or	a5,a5,a0
   1dcf4:	00e7e7b3          	or	a5,a5,a4
   1dcf8:	00300b93          	li	s7,3
   1dcfc:	de079ce3          	bnez	a5,1daf4 <__multf3+0xf0>
   1dd00:	00200b93          	li	s7,2
   1dd04:	df1ff06f          	j	1daf4 <__multf3+0xf0>
   1dd08:	00000493          	li	s1,0
   1dd0c:	00100b93          	li	s7,1
   1dd10:	de5ff06f          	j	1daf4 <__multf3+0xf0>
   1dd14:	016a67b3          	or	a5,s4,s6
   1dd18:	0157e7b3          	or	a5,a5,s5
   1dd1c:	00a7e7b3          	or	a5,a5,a0
   1dd20:	12078863          	beqz	a5,1de50 <__multf3+0x44c>
   1dd24:	04050e63          	beqz	a0,1dd80 <__multf3+0x37c>
   1dd28:	219020ef          	jal	ra,20740 <__clzsi2>
   1dd2c:	ff450613          	addi	a2,a0,-12
   1dd30:	40565713          	srai	a4,a2,0x5
   1dd34:	01f67613          	andi	a2,a2,31
   1dd38:	08060063          	beqz	a2,1ddb8 <__multf3+0x3b4>
   1dd3c:	ffc00693          	li	a3,-4
   1dd40:	02d706b3          	mul	a3,a4,a3
   1dd44:	04010313          	addi	t1,sp,64
   1dd48:	02000793          	li	a5,32
   1dd4c:	00271813          	slli	a6,a4,0x2
   1dd50:	40c787b3          	sub	a5,a5,a2
   1dd54:	00c68693          	addi	a3,a3,12
   1dd58:	00d306b3          	add	a3,t1,a3
   1dd5c:	08d31663          	bne	t1,a3,1dde8 <__multf3+0x3e4>
   1dd60:	08010793          	addi	a5,sp,128
   1dd64:	01078833          	add	a6,a5,a6
   1dd68:	04012783          	lw	a5,64(sp)
   1dd6c:	fff70713          	addi	a4,a4,-1
   1dd70:	00c79633          	sll	a2,a5,a2
   1dd74:	fcc82023          	sw	a2,-64(a6)
   1dd78:	fff00693          	li	a3,-1
   1dd7c:	0a40006f          	j	1de20 <__multf3+0x41c>
   1dd80:	000a8a63          	beqz	s5,1dd94 <__multf3+0x390>
   1dd84:	000a8513          	mv	a0,s5
   1dd88:	1b9020ef          	jal	ra,20740 <__clzsi2>
   1dd8c:	02050513          	addi	a0,a0,32
   1dd90:	f9dff06f          	j	1dd2c <__multf3+0x328>
   1dd94:	000b0a63          	beqz	s6,1dda8 <__multf3+0x3a4>
   1dd98:	000b0513          	mv	a0,s6
   1dd9c:	1a5020ef          	jal	ra,20740 <__clzsi2>
   1dda0:	04050513          	addi	a0,a0,64
   1dda4:	f89ff06f          	j	1dd2c <__multf3+0x328>
   1dda8:	000a0513          	mv	a0,s4
   1ddac:	195020ef          	jal	ra,20740 <__clzsi2>
   1ddb0:	06050513          	addi	a0,a0,96
   1ddb4:	f79ff06f          	j	1dd2c <__multf3+0x328>
   1ddb8:	ffc00613          	li	a2,-4
   1ddbc:	02c70633          	mul	a2,a4,a2
   1ddc0:	04c10693          	addi	a3,sp,76
   1ddc4:	00300793          	li	a5,3
   1ddc8:	00c685b3          	add	a1,a3,a2
   1ddcc:	0005a583          	lw	a1,0(a1)
   1ddd0:	fff78793          	addi	a5,a5,-1
   1ddd4:	ffc68693          	addi	a3,a3,-4
   1ddd8:	00b6a223          	sw	a1,4(a3)
   1dddc:	fee7d6e3          	ble	a4,a5,1ddc8 <__multf3+0x3c4>
   1dde0:	fff70713          	addi	a4,a4,-1
   1dde4:	f95ff06f          	j	1dd78 <__multf3+0x374>
   1dde8:	ffc6a583          	lw	a1,-4(a3)
   1ddec:	0006a883          	lw	a7,0(a3)
   1ddf0:	01068e33          	add	t3,a3,a6
   1ddf4:	00f5d5b3          	srl	a1,a1,a5
   1ddf8:	00c898b3          	sll	a7,a7,a2
   1ddfc:	0115e5b3          	or	a1,a1,a7
   1de00:	00be2023          	sw	a1,0(t3)
   1de04:	ffc68693          	addi	a3,a3,-4
   1de08:	f55ff06f          	j	1dd5c <__multf3+0x358>
   1de0c:	00271793          	slli	a5,a4,0x2
   1de10:	04010613          	addi	a2,sp,64
   1de14:	00f607b3          	add	a5,a2,a5
   1de18:	0007a023          	sw	zero,0(a5)
   1de1c:	fff70713          	addi	a4,a4,-1
   1de20:	fed716e3          	bne	a4,a3,1de0c <__multf3+0x408>
   1de24:	ffffc7b7          	lui	a5,0xffffc
   1de28:	01178793          	addi	a5,a5,17 # ffffc011 <_end+0xfffd5b31>
   1de2c:	40a787b3          	sub	a5,a5,a0
   1de30:	d55ff06f          	j	1db84 <__multf3+0x180>
   1de34:	016a6a33          	or	s4,s4,s6
   1de38:	015a6ab3          	or	s5,s4,s5
   1de3c:	00aaeab3          	or	s5,s5,a0
   1de40:	00300713          	li	a4,3
   1de44:	d40a92e3          	bnez	s5,1db88 <__multf3+0x184>
   1de48:	00200713          	li	a4,2
   1de4c:	d3dff06f          	j	1db88 <__multf3+0x184>
   1de50:	00000793          	li	a5,0
   1de54:	00100713          	li	a4,1
   1de58:	d31ff06f          	j	1db88 <__multf3+0x184>
   1de5c:	03012703          	lw	a4,48(sp)
   1de60:	04012e03          	lw	t3,64(sp)
   1de64:	00010537          	lui	a0,0x10
   1de68:	fff50693          	addi	a3,a0,-1 # ffff <_start-0x1>
   1de6c:	01075f93          	srli	t6,a4,0x10
   1de70:	010e5a93          	srli	s5,t3,0x10
   1de74:	00d77733          	and	a4,a4,a3
   1de78:	00de7e33          	and	t3,t3,a3
   1de7c:	02ea87b3          	mul	a5,s5,a4
   1de80:	02ee0633          	mul	a2,t3,a4
   1de84:	03cf8833          	mul	a6,t6,t3
   1de88:	010785b3          	add	a1,a5,a6
   1de8c:	01065793          	srli	a5,a2,0x10
   1de90:	00b787b3          	add	a5,a5,a1
   1de94:	035f8b33          	mul	s6,t6,s5
   1de98:	0107f463          	bleu	a6,a5,1dea0 <__multf3+0x49c>
   1de9c:	00ab0b33          	add	s6,s6,a0
   1dea0:	04412f03          	lw	t5,68(sp)
   1dea4:	0107d293          	srli	t0,a5,0x10
   1dea8:	00d7f7b3          	and	a5,a5,a3
   1deac:	00d67633          	and	a2,a2,a3
   1deb0:	01079793          	slli	a5,a5,0x10
   1deb4:	00c787b3          	add	a5,a5,a2
   1deb8:	010f5493          	srli	s1,t5,0x10
   1debc:	00df7f33          	and	t5,t5,a3
   1dec0:	02f12223          	sw	a5,36(sp)
   1dec4:	06f12023          	sw	a5,96(sp)
   1dec8:	02ef06b3          	mul	a3,t5,a4
   1decc:	02e487b3          	mul	a5,s1,a4
   1ded0:	03ef8633          	mul	a2,t6,t5
   1ded4:	00c78533          	add	a0,a5,a2
   1ded8:	0106d793          	srli	a5,a3,0x10
   1dedc:	00a787b3          	add	a5,a5,a0
   1dee0:	029f8a33          	mul	s4,t6,s1
   1dee4:	00c7f663          	bleu	a2,a5,1def0 <__multf3+0x4ec>
   1dee8:	00010637          	lui	a2,0x10
   1deec:	00ca0a33          	add	s4,s4,a2
   1def0:	00010637          	lui	a2,0x10
   1def4:	fff60593          	addi	a1,a2,-1 # ffff <_start-0x1>
   1def8:	00b7f533          	and	a0,a5,a1
   1defc:	0107dd93          	srli	s11,a5,0x10
   1df00:	03412783          	lw	a5,52(sp)
   1df04:	00b6f6b3          	and	a3,a3,a1
   1df08:	01051513          	slli	a0,a0,0x10
   1df0c:	0107d913          	srli	s2,a5,0x10
   1df10:	00b7f5b3          	and	a1,a5,a1
   1df14:	00d50533          	add	a0,a0,a3
   1df18:	02ba87b3          	mul	a5,s5,a1
   1df1c:	00a282b3          	add	t0,t0,a0
   1df20:	02be06b3          	mul	a3,t3,a1
   1df24:	03c90333          	mul	t1,s2,t3
   1df28:	00678833          	add	a6,a5,t1
   1df2c:	0106d793          	srli	a5,a3,0x10
   1df30:	010787b3          	add	a5,a5,a6
   1df34:	032a88b3          	mul	a7,s5,s2
   1df38:	0067f463          	bleu	t1,a5,1df40 <__multf3+0x53c>
   1df3c:	00c888b3          	add	a7,a7,a2
   1df40:	0107d993          	srli	s3,a5,0x10
   1df44:	011989b3          	add	s3,s3,a7
   1df48:	000108b7          	lui	a7,0x10
   1df4c:	fff88613          	addi	a2,a7,-1 # ffff <_start-0x1>
   1df50:	00c7f833          	and	a6,a5,a2
   1df54:	01081813          	slli	a6,a6,0x10
   1df58:	00c6f7b3          	and	a5,a3,a2
   1df5c:	00f80833          	add	a6,a6,a5
   1df60:	03e58633          	mul	a2,a1,t5
   1df64:	03e907b3          	mul	a5,s2,t5
   1df68:	01065e93          	srli	t4,a2,0x10
   1df6c:	02b486b3          	mul	a3,s1,a1
   1df70:	00f686b3          	add	a3,a3,a5
   1df74:	00de86b3          	add	a3,t4,a3
   1df78:	03248333          	mul	t1,s1,s2
   1df7c:	00f6f463          	bleu	a5,a3,1df84 <__multf3+0x580>
   1df80:	01130333          	add	t1,t1,a7
   1df84:	0106d793          	srli	a5,a3,0x10
   1df88:	04812e83          	lw	t4,72(sp)
   1df8c:	006787b3          	add	a5,a5,t1
   1df90:	000103b7          	lui	t2,0x10
   1df94:	02f12423          	sw	a5,40(sp)
   1df98:	fff38793          	addi	a5,t2,-1 # ffff <_start-0x1>
   1df9c:	010ed413          	srli	s0,t4,0x10
   1dfa0:	00fefeb3          	and	t4,t4,a5
   1dfa4:	02e408b3          	mul	a7,s0,a4
   1dfa8:	00f67633          	and	a2,a2,a5
   1dfac:	00f6f6b3          	and	a3,a3,a5
   1dfb0:	01069693          	slli	a3,a3,0x10
   1dfb4:	00c686b3          	add	a3,a3,a2
   1dfb8:	02ee8333          	mul	t1,t4,a4
   1dfbc:	03df8bb3          	mul	s7,t6,t4
   1dfc0:	017887b3          	add	a5,a7,s7
   1dfc4:	01035893          	srli	a7,t1,0x10
   1dfc8:	00f888b3          	add	a7,a7,a5
   1dfcc:	028f8633          	mul	a2,t6,s0
   1dfd0:	0178f463          	bleu	s7,a7,1dfd8 <__multf3+0x5d4>
   1dfd4:	00760633          	add	a2,a2,t2
   1dfd8:	0108d793          	srli	a5,a7,0x10
   1dfdc:	00010c37          	lui	s8,0x10
   1dfe0:	00c787b3          	add	a5,a5,a2
   1dfe4:	fffc0613          	addi	a2,s8,-1 # ffff <_start-0x1>
   1dfe8:	02f12623          	sw	a5,44(sp)
   1dfec:	00c8f7b3          	and	a5,a7,a2
   1dff0:	03812883          	lw	a7,56(sp)
   1dff4:	00c37333          	and	t1,t1,a2
   1dff8:	01079793          	slli	a5,a5,0x10
   1dffc:	0108d393          	srli	t2,a7,0x10
   1e000:	00c8f633          	and	a2,a7,a2
   1e004:	006787b3          	add	a5,a5,t1
   1e008:	03c608b3          	mul	a7,a2,t3
   1e00c:	03c38cb3          	mul	s9,t2,t3
   1e010:	0108dd13          	srli	s10,a7,0x10
   1e014:	02ca8333          	mul	t1,s5,a2
   1e018:	01930333          	add	t1,t1,s9
   1e01c:	006d0333          	add	t1,s10,t1
   1e020:	027a8bb3          	mul	s7,s5,t2
   1e024:	01937463          	bleu	s9,t1,1e02c <__multf3+0x628>
   1e028:	018b8bb3          	add	s7,s7,s8
   1e02c:	01035c13          	srli	s8,t1,0x10
   1e030:	017c0bb3          	add	s7,s8,s7
   1e034:	00010c37          	lui	s8,0x10
   1e038:	005b02b3          	add	t0,s6,t0
   1e03c:	fffc0c93          	addi	s9,s8,-1 # ffff <_start-0x1>
   1e040:	00a2b533          	sltu	a0,t0,a0
   1e044:	01937333          	and	t1,t1,s9
   1e048:	00ad8db3          	add	s11,s11,a0
   1e04c:	01031313          	slli	t1,t1,0x10
   1e050:	0198f8b3          	and	a7,a7,s9
   1e054:	014d8a33          	add	s4,s11,s4
   1e058:	011308b3          	add	a7,t1,a7
   1e05c:	01028333          	add	t1,t0,a6
   1e060:	01033833          	sltu	a6,t1,a6
   1e064:	00612a23          	sw	t1,20(sp)
   1e068:	06612223          	sw	t1,100(sp)
   1e06c:	013a0333          	add	t1,s4,s3
   1e070:	01030b33          	add	s6,t1,a6
   1e074:	013339b3          	sltu	s3,t1,s3
   1e078:	010b3833          	sltu	a6,s6,a6
   1e07c:	0109e833          	or	a6,s3,a6
   1e080:	00aa3533          	sltu	a0,s4,a0
   1e084:	00a80533          	add	a0,a6,a0
   1e088:	02812803          	lw	a6,40(sp)
   1e08c:	00db02b3          	add	t0,s6,a3
   1e090:	02812983          	lw	s3,40(sp)
   1e094:	00d2b6b3          	sltu	a3,t0,a3
   1e098:	01050533          	add	a0,a0,a6
   1e09c:	02c12303          	lw	t1,44(sp)
   1e0a0:	00d50833          	add	a6,a0,a3
   1e0a4:	00f282b3          	add	t0,t0,a5
   1e0a8:	01353533          	sltu	a0,a0,s3
   1e0ac:	00d836b3          	sltu	a3,a6,a3
   1e0b0:	00f2b7b3          	sltu	a5,t0,a5
   1e0b4:	00680db3          	add	s11,a6,t1
   1e0b8:	00d566b3          	or	a3,a0,a3
   1e0bc:	02c12503          	lw	a0,44(sp)
   1e0c0:	00fd8333          	add	t1,s11,a5
   1e0c4:	011282b3          	add	t0,t0,a7
   1e0c8:	0112b8b3          	sltu	a7,t0,a7
   1e0cc:	00f337b3          	sltu	a5,t1,a5
   1e0d0:	00512c23          	sw	t0,24(sp)
   1e0d4:	06512423          	sw	t0,104(sp)
   1e0d8:	017302b3          	add	t0,t1,s7
   1e0dc:	04c12303          	lw	t1,76(sp)
   1e0e0:	01128d33          	add	s10,t0,a7
   1e0e4:	00adbdb3          	sltu	s11,s11,a0
   1e0e8:	00fde7b3          	or	a5,s11,a5
   1e0ec:	0172bbb3          	sltu	s7,t0,s7
   1e0f0:	011d38b3          	sltu	a7,s10,a7
   1e0f4:	00f686b3          	add	a3,a3,a5
   1e0f8:	01035293          	srli	t0,t1,0x10
   1e0fc:	011bea33          	or	s4,s7,a7
   1e100:	01937333          	and	t1,t1,s9
   1e104:	02e307b3          	mul	a5,t1,a4
   1e108:	01468a33          	add	s4,a3,s4
   1e10c:	02e28733          	mul	a4,t0,a4
   1e110:	0107d893          	srli	a7,a5,0x10
   1e114:	026f86b3          	mul	a3,t6,t1
   1e118:	00d70733          	add	a4,a4,a3
   1e11c:	00e888b3          	add	a7,a7,a4
   1e120:	025f8fb3          	mul	t6,t6,t0
   1e124:	00d8f463          	bleu	a3,a7,1e12c <__multf3+0x728>
   1e128:	018f8fb3          	add	t6,t6,s8
   1e12c:	03c12983          	lw	s3,60(sp)
   1e130:	000106b7          	lui	a3,0x10
   1e134:	fff68513          	addi	a0,a3,-1 # ffff <_start-0x1>
   1e138:	0108d713          	srli	a4,a7,0x10
   1e13c:	00a8f8b3          	and	a7,a7,a0
   1e140:	01f70733          	add	a4,a4,t6
   1e144:	00a7f7b3          	and	a5,a5,a0
   1e148:	0109df93          	srli	t6,s3,0x10
   1e14c:	01089893          	slli	a7,a7,0x10
   1e150:	00a9f9b3          	and	s3,s3,a0
   1e154:	00f888b3          	add	a7,a7,a5
   1e158:	03fa8b33          	mul	s6,s5,t6
   1e15c:	00070d93          	mv	s11,a4
   1e160:	033e07b3          	mul	a5,t3,s3
   1e164:	033a8ab3          	mul	s5,s5,s3
   1e168:	0107d813          	srli	a6,a5,0x10
   1e16c:	03cf8e33          	mul	t3,t6,t3
   1e170:	01ca8ab3          	add	s5,s5,t3
   1e174:	01580ab3          	add	s5,a6,s5
   1e178:	01caf463          	bleu	t3,s5,1e180 <__multf3+0x77c>
   1e17c:	00db0b33          	add	s6,s6,a3
   1e180:	010ad813          	srli	a6,s5,0x10
   1e184:	01680733          	add	a4,a6,s6
   1e188:	00010b37          	lui	s6,0x10
   1e18c:	02e12423          	sw	a4,40(sp)
   1e190:	fffb0713          	addi	a4,s6,-1 # ffff <_start-0x1>
   1e194:	00eaf833          	and	a6,s5,a4
   1e198:	00e7f7b3          	and	a5,a5,a4
   1e19c:	01081813          	slli	a6,a6,0x10
   1e1a0:	00f80833          	add	a6,a6,a5
   1e1a4:	02be86b3          	mul	a3,t4,a1
   1e1a8:	03d90e33          	mul	t3,s2,t4
   1e1ac:	0106d513          	srli	a0,a3,0x10
   1e1b0:	02b407b3          	mul	a5,s0,a1
   1e1b4:	01c787b3          	add	a5,a5,t3
   1e1b8:	00f507b3          	add	a5,a0,a5
   1e1bc:	02890733          	mul	a4,s2,s0
   1e1c0:	01c7f463          	bleu	t3,a5,1e1c8 <__multf3+0x7c4>
   1e1c4:	01670733          	add	a4,a4,s6
   1e1c8:	0107d513          	srli	a0,a5,0x10
   1e1cc:	00e50733          	add	a4,a0,a4
   1e1d0:	00010b37          	lui	s6,0x10
   1e1d4:	02e12623          	sw	a4,44(sp)
   1e1d8:	fffb0713          	addi	a4,s6,-1 # ffff <_start-0x1>
   1e1dc:	00e7f533          	and	a0,a5,a4
   1e1e0:	00e6f6b3          	and	a3,a3,a4
   1e1e4:	03e38e33          	mul	t3,t2,t5
   1e1e8:	01051513          	slli	a0,a0,0x10
   1e1ec:	00d50533          	add	a0,a0,a3
   1e1f0:	03e60733          	mul	a4,a2,t5
   1e1f4:	02c487b3          	mul	a5,s1,a2
   1e1f8:	01075693          	srli	a3,a4,0x10
   1e1fc:	01c787b3          	add	a5,a5,t3
   1e200:	00f687b3          	add	a5,a3,a5
   1e204:	02748ab3          	mul	s5,s1,t2
   1e208:	01c7f463          	bleu	t3,a5,1e210 <__multf3+0x80c>
   1e20c:	016a8ab3          	add	s5,s5,s6
   1e210:	000106b7          	lui	a3,0x10
   1e214:	fff68e13          	addi	t3,a3,-1 # ffff <_start-0x1>
   1e218:	01c7f6b3          	and	a3,a5,t3
   1e21c:	0107db93          	srli	s7,a5,0x10
   1e220:	011d07b3          	add	a5,s10,a7
   1e224:	01c77733          	and	a4,a4,t3
   1e228:	0117b8b3          	sltu	a7,a5,a7
   1e22c:	01ba0a33          	add	s4,s4,s11
   1e230:	01069693          	slli	a3,a3,0x10
   1e234:	00e686b3          	add	a3,a3,a4
   1e238:	011a0d33          	add	s10,s4,a7
   1e23c:	02812703          	lw	a4,40(sp)
   1e240:	011d38b3          	sltu	a7,s10,a7
   1e244:	01ba3a33          	sltu	s4,s4,s11
   1e248:	010787b3          	add	a5,a5,a6
   1e24c:	011a6a33          	or	s4,s4,a7
   1e250:	02812883          	lw	a7,40(sp)
   1e254:	0107b833          	sltu	a6,a5,a6
   1e258:	00ed0b33          	add	s6,s10,a4
   1e25c:	02c12703          	lw	a4,44(sp)
   1e260:	010b0cb3          	add	s9,s6,a6
   1e264:	00a787b3          	add	a5,a5,a0
   1e268:	011b3b33          	sltu	s6,s6,a7
   1e26c:	010cb833          	sltu	a6,s9,a6
   1e270:	00a7b533          	sltu	a0,a5,a0
   1e274:	00ec8733          	add	a4,s9,a4
   1e278:	010b6b33          	or	s6,s6,a6
   1e27c:	02c12803          	lw	a6,44(sp)
   1e280:	00a70c33          	add	s8,a4,a0
   1e284:	015b8bb3          	add	s7,s7,s5
   1e288:	00d787b3          	add	a5,a5,a3
   1e28c:	00d7b6b3          	sltu	a3,a5,a3
   1e290:	017c0ab3          	add	s5,s8,s7
   1e294:	00da8e33          	add	t3,s5,a3
   1e298:	01073733          	sltu	a4,a4,a6
   1e29c:	00ac3533          	sltu	a0,s8,a0
   1e2a0:	00a76733          	or	a4,a4,a0
   1e2a4:	00de36b3          	sltu	a3,t3,a3
   1e2a8:	016a0a33          	add	s4,s4,s6
   1e2ac:	017abab3          	sltu	s5,s5,s7
   1e2b0:	00ea0a33          	add	s4,s4,a4
   1e2b4:	00daeab3          	or	s5,s5,a3
   1e2b8:	015a06b3          	add	a3,s4,s5
   1e2bc:	02ce8833          	mul	a6,t4,a2
   1e2c0:	06f12623          	sw	a5,108(sp)
   1e2c4:	03d38a33          	mul	s4,t2,t4
   1e2c8:	01085513          	srli	a0,a6,0x10
   1e2cc:	02c40733          	mul	a4,s0,a2
   1e2d0:	01470733          	add	a4,a4,s4
   1e2d4:	00e50733          	add	a4,a0,a4
   1e2d8:	027408b3          	mul	a7,s0,t2
   1e2dc:	01477663          	bleu	s4,a4,1e2e8 <__multf3+0x8e4>
   1e2e0:	00010537          	lui	a0,0x10
   1e2e4:	00a888b3          	add	a7,a7,a0
   1e2e8:	00010a37          	lui	s4,0x10
   1e2ec:	01075513          	srli	a0,a4,0x10
   1e2f0:	fffa0a93          	addi	s5,s4,-1 # ffff <_start-0x1>
   1e2f4:	011508b3          	add	a7,a0,a7
   1e2f8:	01577533          	and	a0,a4,s5
   1e2fc:	01587833          	and	a6,a6,s5
   1e300:	01051513          	slli	a0,a0,0x10
   1e304:	02690ab3          	mul	s5,s2,t1
   1e308:	01050533          	add	a0,a0,a6
   1e30c:	02b30833          	mul	a6,t1,a1
   1e310:	02b285b3          	mul	a1,t0,a1
   1e314:	01085713          	srli	a4,a6,0x10
   1e318:	015585b3          	add	a1,a1,s5
   1e31c:	00b70733          	add	a4,a4,a1
   1e320:	02590933          	mul	s2,s2,t0
   1e324:	01577463          	bleu	s5,a4,1e32c <__multf3+0x928>
   1e328:	01490933          	add	s2,s2,s4
   1e32c:	00010ab7          	lui	s5,0x10
   1e330:	01075593          	srli	a1,a4,0x10
   1e334:	fffa8a13          	addi	s4,s5,-1 # ffff <_start-0x1>
   1e338:	01487833          	and	a6,a6,s4
   1e33c:	01258933          	add	s2,a1,s2
   1e340:	014775b3          	and	a1,a4,s4
   1e344:	01059593          	slli	a1,a1,0x10
   1e348:	03e98733          	mul	a4,s3,t5
   1e34c:	010585b3          	add	a1,a1,a6
   1e350:	03ef8f33          	mul	t5,t6,t5
   1e354:	01075813          	srli	a6,a4,0x10
   1e358:	03f48a33          	mul	s4,s1,t6
   1e35c:	033484b3          	mul	s1,s1,s3
   1e360:	01e484b3          	add	s1,s1,t5
   1e364:	009804b3          	add	s1,a6,s1
   1e368:	01e4f463          	bleu	t5,s1,1e370 <__multf3+0x96c>
   1e36c:	015a0a33          	add	s4,s4,s5
   1e370:	0104db13          	srli	s6,s1,0x10
   1e374:	014b0b33          	add	s6,s6,s4
   1e378:	00010a37          	lui	s4,0x10
   1e37c:	fffa0f13          	addi	t5,s4,-1 # ffff <_start-0x1>
   1e380:	01e4f833          	and	a6,s1,t5
   1e384:	01e77733          	and	a4,a4,t5
   1e388:	026384b3          	mul	s1,t2,t1
   1e38c:	01081813          	slli	a6,a6,0x10
   1e390:	00e80833          	add	a6,a6,a4
   1e394:	02660f33          	mul	t5,a2,t1
   1e398:	02c28633          	mul	a2,t0,a2
   1e39c:	010f5713          	srli	a4,t5,0x10
   1e3a0:	00960633          	add	a2,a2,s1
   1e3a4:	00c70633          	add	a2,a4,a2
   1e3a8:	025383b3          	mul	t2,t2,t0
   1e3ac:	00967463          	bleu	s1,a2,1e3b4 <__multf3+0x9b0>
   1e3b0:	014383b3          	add	t2,t2,s4
   1e3b4:	00010a37          	lui	s4,0x10
   1e3b8:	01065713          	srli	a4,a2,0x10
   1e3bc:	fffa0493          	addi	s1,s4,-1 # ffff <_start-0x1>
   1e3c0:	007703b3          	add	t2,a4,t2
   1e3c4:	00967733          	and	a4,a2,s1
   1e3c8:	009f7f33          	and	t5,t5,s1
   1e3cc:	01071713          	slli	a4,a4,0x10
   1e3d0:	01e70733          	add	a4,a4,t5
   1e3d4:	03340633          	mul	a2,s0,s3
   1e3d8:	033e8f33          	mul	t5,t4,s3
   1e3dc:	03df8eb3          	mul	t4,t6,t4
   1e3e0:	010f5a93          	srli	s5,t5,0x10
   1e3e4:	01d60633          	add	a2,a2,t4
   1e3e8:	00ca8633          	add	a2,s5,a2
   1e3ec:	03f404b3          	mul	s1,s0,t6
   1e3f0:	01d67463          	bleu	t4,a2,1e3f8 <__multf3+0x9f4>
   1e3f4:	014484b3          	add	s1,s1,s4
   1e3f8:	01065c13          	srli	s8,a2,0x10
   1e3fc:	00010cb7          	lui	s9,0x10
   1e400:	009c0c33          	add	s8,s8,s1
   1e404:	00ae0e33          	add	t3,t3,a0
   1e408:	fffc8493          	addi	s1,s9,-1 # ffff <_start-0x1>
   1e40c:	00ae3533          	sltu	a0,t3,a0
   1e410:	011686b3          	add	a3,a3,a7
   1e414:	00967633          	and	a2,a2,s1
   1e418:	00a68db3          	add	s11,a3,a0
   1e41c:	009f7f33          	and	t5,t5,s1
   1e420:	00be0e33          	add	t3,t3,a1
   1e424:	01061613          	slli	a2,a2,0x10
   1e428:	01e60633          	add	a2,a2,t5
   1e42c:	00be35b3          	sltu	a1,t3,a1
   1e430:	012d8f33          	add	t5,s11,s2
   1e434:	010e0e33          	add	t3,t3,a6
   1e438:	00bf0d33          	add	s10,t5,a1
   1e43c:	016d0eb3          	add	t4,s10,s6
   1e440:	07c12823          	sw	t3,112(sp)
   1e444:	010e3e33          	sltu	t3,t3,a6
   1e448:	01ce8a33          	add	s4,t4,t3
   1e44c:	0116b6b3          	sltu	a3,a3,a7
   1e450:	00bd35b3          	sltu	a1,s10,a1
   1e454:	00adb533          	sltu	a0,s11,a0
   1e458:	012f3933          	sltu	s2,t5,s2
   1e45c:	00a6e533          	or	a0,a3,a0
   1e460:	00b96933          	or	s2,s2,a1
   1e464:	016ebeb3          	sltu	t4,t4,s6
   1e468:	01ca3e33          	sltu	t3,s4,t3
   1e46c:	01250533          	add	a0,a0,s2
   1e470:	01ceeeb3          	or	t4,t4,t3
   1e474:	00ea0833          	add	a6,s4,a4
   1e478:	01d50533          	add	a0,a0,t4
   1e47c:	00e83733          	sltu	a4,a6,a4
   1e480:	00750533          	add	a0,a0,t2
   1e484:	00e506b3          	add	a3,a0,a4
   1e488:	007533b3          	sltu	t2,a0,t2
   1e48c:	03330533          	mul	a0,t1,s3
   1e490:	00c80833          	add	a6,a6,a2
   1e494:	00e6b733          	sltu	a4,a3,a4
   1e498:	00c83633          	sltu	a2,a6,a2
   1e49c:	018686b3          	add	a3,a3,s8
   1e4a0:	00c685b3          	add	a1,a3,a2
   1e4a4:	0186bc33          	sltu	s8,a3,s8
   1e4a8:	00c5b633          	sltu	a2,a1,a2
   1e4ac:	07012a23          	sw	a6,116(sp)
   1e4b0:	00e3e733          	or	a4,t2,a4
   1e4b4:	026f8333          	mul	t1,t6,t1
   1e4b8:	01055693          	srli	a3,a0,0x10
   1e4bc:	00cc6633          	or	a2,s8,a2
   1e4c0:	033289b3          	mul	s3,t0,s3
   1e4c4:	006989b3          	add	s3,s3,t1
   1e4c8:	03f28fb3          	mul	t6,t0,t6
   1e4cc:	013682b3          	add	t0,a3,s3
   1e4d0:	0062f463          	bleu	t1,t0,1e4d8 <__multf3+0xad4>
   1e4d4:	019f8fb3          	add	t6,t6,s9
   1e4d8:	0092f6b3          	and	a3,t0,s1
   1e4dc:	01069693          	slli	a3,a3,0x10
   1e4e0:	009574b3          	and	s1,a0,s1
   1e4e4:	009684b3          	add	s1,a3,s1
   1e4e8:	0102d293          	srli	t0,t0,0x10
   1e4ec:	009585b3          	add	a1,a1,s1
   1e4f0:	00e282b3          	add	t0,t0,a4
   1e4f4:	01412683          	lw	a3,20(sp)
   1e4f8:	02412703          	lw	a4,36(sp)
   1e4fc:	0095b4b3          	sltu	s1,a1,s1
   1e500:	00c282b3          	add	t0,t0,a2
   1e504:	009282b3          	add	t0,t0,s1
   1e508:	01f28fb3          	add	t6,t0,t6
   1e50c:	00d762b3          	or	t0,a4,a3
   1e510:	01812703          	lw	a4,24(sp)
   1e514:	00d79793          	slli	a5,a5,0xd
   1e518:	06b12c23          	sw	a1,120(sp)
   1e51c:	005762b3          	or	t0,a4,t0
   1e520:	07f12e23          	sw	t6,124(sp)
   1e524:	0057e7b3          	or	a5,a5,t0
   1e528:	06010713          	addi	a4,sp,96
   1e52c:	07010593          	addi	a1,sp,112
   1e530:	00c72683          	lw	a3,12(a4)
   1e534:	01072603          	lw	a2,16(a4)
   1e538:	00470713          	addi	a4,a4,4
   1e53c:	0136d693          	srli	a3,a3,0x13
   1e540:	00d61613          	slli	a2,a2,0xd
   1e544:	00c6e6b3          	or	a3,a3,a2
   1e548:	fed72e23          	sw	a3,-4(a4)
   1e54c:	fee592e3          	bne	a1,a4,1e530 <__multf3+0xb2c>
   1e550:	06012703          	lw	a4,96(sp)
   1e554:	06812683          	lw	a3,104(sp)
   1e558:	00f037b3          	snez	a5,a5
   1e55c:	00e7e7b3          	or	a5,a5,a4
   1e560:	04d12c23          	sw	a3,88(sp)
   1e564:	06c12703          	lw	a4,108(sp)
   1e568:	06412683          	lw	a3,100(sp)
   1e56c:	04f12823          	sw	a5,80(sp)
   1e570:	04e12e23          	sw	a4,92(sp)
   1e574:	04d12a23          	sw	a3,84(sp)
   1e578:	00b71693          	slli	a3,a4,0xb
   1e57c:	2206d863          	bgez	a3,1e7ac <__multf3+0xda8>
   1e580:	01f79793          	slli	a5,a5,0x1f
   1e584:	05010713          	addi	a4,sp,80
   1e588:	05c10593          	addi	a1,sp,92
   1e58c:	00072683          	lw	a3,0(a4)
   1e590:	00472603          	lw	a2,4(a4)
   1e594:	00470713          	addi	a4,a4,4
   1e598:	0016d693          	srli	a3,a3,0x1
   1e59c:	01f61613          	slli	a2,a2,0x1f
   1e5a0:	00c6e6b3          	or	a3,a3,a2
   1e5a4:	fed72e23          	sw	a3,-4(a4)
   1e5a8:	fee592e3          	bne	a1,a4,1e58c <__multf3+0xb88>
   1e5ac:	05c12703          	lw	a4,92(sp)
   1e5b0:	00f037b3          	snez	a5,a5
   1e5b4:	00175713          	srli	a4,a4,0x1
   1e5b8:	04e12e23          	sw	a4,92(sp)
   1e5bc:	05012703          	lw	a4,80(sp)
   1e5c0:	00f767b3          	or	a5,a4,a5
   1e5c4:	04f12823          	sw	a5,80(sp)
   1e5c8:	01c12703          	lw	a4,28(sp)
   1e5cc:	000047b7          	lui	a5,0x4
   1e5d0:	fff78793          	addi	a5,a5,-1 # 3fff <_start-0xc001>
   1e5d4:	00f707b3          	add	a5,a4,a5
   1e5d8:	1ef05c63          	blez	a5,1e7d0 <__multf3+0xdcc>
   1e5dc:	05012703          	lw	a4,80(sp)
   1e5e0:	00777693          	andi	a3,a4,7
   1e5e4:	04068463          	beqz	a3,1e62c <__multf3+0xc28>
   1e5e8:	00f77693          	andi	a3,a4,15
   1e5ec:	00400613          	li	a2,4
   1e5f0:	02c68e63          	beq	a3,a2,1e62c <__multf3+0xc28>
   1e5f4:	05412683          	lw	a3,84(sp)
   1e5f8:	00470713          	addi	a4,a4,4
   1e5fc:	04e12823          	sw	a4,80(sp)
   1e600:	00473713          	sltiu	a4,a4,4
   1e604:	00d706b3          	add	a3,a4,a3
   1e608:	00e6b733          	sltu	a4,a3,a4
   1e60c:	04d12a23          	sw	a3,84(sp)
   1e610:	05812683          	lw	a3,88(sp)
   1e614:	00d706b3          	add	a3,a4,a3
   1e618:	04d12c23          	sw	a3,88(sp)
   1e61c:	00e6b6b3          	sltu	a3,a3,a4
   1e620:	05c12703          	lw	a4,92(sp)
   1e624:	00e686b3          	add	a3,a3,a4
   1e628:	04d12e23          	sw	a3,92(sp)
   1e62c:	05c12703          	lw	a4,92(sp)
   1e630:	00b71693          	slli	a3,a4,0xb
   1e634:	0206d063          	bgez	a3,1e654 <__multf3+0xc50>
   1e638:	fff007b7          	lui	a5,0xfff00
   1e63c:	fff78793          	addi	a5,a5,-1 # ffefffff <_end+0xffed9b1f>
   1e640:	00f77733          	and	a4,a4,a5
   1e644:	04e12e23          	sw	a4,92(sp)
   1e648:	01c12703          	lw	a4,28(sp)
   1e64c:	000047b7          	lui	a5,0x4
   1e650:	00f707b3          	add	a5,a4,a5
   1e654:	05010713          	addi	a4,sp,80
   1e658:	05c10593          	addi	a1,sp,92
   1e65c:	00072683          	lw	a3,0(a4)
   1e660:	00472603          	lw	a2,4(a4)
   1e664:	00470713          	addi	a4,a4,4
   1e668:	0036d693          	srli	a3,a3,0x3
   1e66c:	01d61613          	slli	a2,a2,0x1d
   1e670:	00c6e6b3          	or	a3,a3,a2
   1e674:	fed72e23          	sw	a3,-4(a4)
   1e678:	feb712e3          	bne	a4,a1,1e65c <__multf3+0xc58>
   1e67c:	00008737          	lui	a4,0x8
   1e680:	ffe70693          	addi	a3,a4,-2 # 7ffe <_start-0x8002>
   1e684:	12f6ca63          	blt	a3,a5,1e7b8 <__multf3+0xdb4>
   1e688:	05c12703          	lw	a4,92(sp)
   1e68c:	00375713          	srli	a4,a4,0x3
   1e690:	04e12e23          	sw	a4,92(sp)
   1e694:	05c12703          	lw	a4,92(sp)
   1e698:	01179793          	slli	a5,a5,0x11
   1e69c:	800106b7          	lui	a3,0x80010
   1e6a0:	06e11623          	sh	a4,108(sp)
   1e6a4:	06c12703          	lw	a4,108(sp)
   1e6a8:	fff68693          	addi	a3,a3,-1 # 8000ffff <_end+0x7ffe9b1f>
   1e6ac:	0117d793          	srli	a5,a5,0x11
   1e6b0:	00d77733          	and	a4,a4,a3
   1e6b4:	01079793          	slli	a5,a5,0x10
   1e6b8:	00f767b3          	or	a5,a4,a5
   1e6bc:	01012703          	lw	a4,16(sp)
   1e6c0:	00179793          	slli	a5,a5,0x1
   1e6c4:	0017d793          	srli	a5,a5,0x1
   1e6c8:	01f71713          	slli	a4,a4,0x1f
   1e6cc:	00c12683          	lw	a3,12(sp)
   1e6d0:	00e7e7b3          	or	a5,a5,a4
   1e6d4:	05012703          	lw	a4,80(sp)
   1e6d8:	0bc12083          	lw	ra,188(sp)
   1e6dc:	0b812403          	lw	s0,184(sp)
   1e6e0:	00e6a023          	sw	a4,0(a3)
   1e6e4:	05412703          	lw	a4,84(sp)
   1e6e8:	00f6a623          	sw	a5,12(a3)
   1e6ec:	0b412483          	lw	s1,180(sp)
   1e6f0:	00e6a223          	sw	a4,4(a3)
   1e6f4:	05812703          	lw	a4,88(sp)
   1e6f8:	0b012903          	lw	s2,176(sp)
   1e6fc:	0ac12983          	lw	s3,172(sp)
   1e700:	00e6a423          	sw	a4,8(a3)
   1e704:	0a812a03          	lw	s4,168(sp)
   1e708:	0a412a83          	lw	s5,164(sp)
   1e70c:	0a012b03          	lw	s6,160(sp)
   1e710:	09c12b83          	lw	s7,156(sp)
   1e714:	09812c03          	lw	s8,152(sp)
   1e718:	09412c83          	lw	s9,148(sp)
   1e71c:	09012d03          	lw	s10,144(sp)
   1e720:	08c12d83          	lw	s11,140(sp)
   1e724:	00068513          	mv	a0,a3
   1e728:	0c010113          	addi	sp,sp,192
   1e72c:	00008067          	ret
   1e730:	01312823          	sw	s3,16(sp)
   1e734:	03012783          	lw	a5,48(sp)
   1e738:	04f12823          	sw	a5,80(sp)
   1e73c:	03412783          	lw	a5,52(sp)
   1e740:	04f12a23          	sw	a5,84(sp)
   1e744:	03812783          	lw	a5,56(sp)
   1e748:	04f12c23          	sw	a5,88(sp)
   1e74c:	03c12783          	lw	a5,60(sp)
   1e750:	04f12e23          	sw	a5,92(sp)
   1e754:	00200793          	li	a5,2
   1e758:	26fb8c63          	beq	s7,a5,1e9d0 <__multf3+0xfcc>
   1e75c:	00300793          	li	a5,3
   1e760:	28fb8663          	beq	s7,a5,1e9ec <__multf3+0xfe8>
   1e764:	00100793          	li	a5,1
   1e768:	e6fb90e3          	bne	s7,a5,1e5c8 <__multf3+0xbc4>
   1e76c:	04012e23          	sw	zero,92(sp)
   1e770:	04012c23          	sw	zero,88(sp)
   1e774:	04012a23          	sw	zero,84(sp)
   1e778:	04012823          	sw	zero,80(sp)
   1e77c:	2140006f          	j	1e990 <__multf3+0xf8c>
   1e780:	01212823          	sw	s2,16(sp)
   1e784:	04012783          	lw	a5,64(sp)
   1e788:	00070b93          	mv	s7,a4
   1e78c:	04f12823          	sw	a5,80(sp)
   1e790:	04412783          	lw	a5,68(sp)
   1e794:	04f12a23          	sw	a5,84(sp)
   1e798:	04812783          	lw	a5,72(sp)
   1e79c:	04f12c23          	sw	a5,88(sp)
   1e7a0:	04c12783          	lw	a5,76(sp)
   1e7a4:	04f12e23          	sw	a5,92(sp)
   1e7a8:	fadff06f          	j	1e754 <__multf3+0xd50>
   1e7ac:	02012783          	lw	a5,32(sp)
   1e7b0:	00f12e23          	sw	a5,28(sp)
   1e7b4:	e15ff06f          	j	1e5c8 <__multf3+0xbc4>
   1e7b8:	04012e23          	sw	zero,92(sp)
   1e7bc:	04012c23          	sw	zero,88(sp)
   1e7c0:	04012a23          	sw	zero,84(sp)
   1e7c4:	04012823          	sw	zero,80(sp)
   1e7c8:	fff70793          	addi	a5,a4,-1
   1e7cc:	ec9ff06f          	j	1e694 <__multf3+0xc90>
   1e7d0:	00100713          	li	a4,1
   1e7d4:	40f707b3          	sub	a5,a4,a5
   1e7d8:	07400713          	li	a4,116
   1e7dc:	1af74e63          	blt	a4,a5,1e998 <__multf3+0xf94>
   1e7e0:	4057d893          	srai	a7,a5,0x5
   1e7e4:	00000713          	li	a4,0
   1e7e8:	01f7f793          	andi	a5,a5,31
   1e7ec:	00000693          	li	a3,0
   1e7f0:	00269613          	slli	a2,a3,0x2
   1e7f4:	03169a63          	bne	a3,a7,1e828 <__multf3+0xe24>
   1e7f8:	04079463          	bnez	a5,1e840 <__multf3+0xe3c>
   1e7fc:	00300513          	li	a0,3
   1e800:	05010593          	addi	a1,sp,80
   1e804:	40d506b3          	sub	a3,a0,a3
   1e808:	00c58533          	add	a0,a1,a2
   1e80c:	00052503          	lw	a0,0(a0) # 10000 <_start>
   1e810:	00178793          	addi	a5,a5,1 # 4001 <_start-0xbfff>
   1e814:	00458593          	addi	a1,a1,4
   1e818:	fea5ae23          	sw	a0,-4(a1)
   1e81c:	fef6d6e3          	ble	a5,a3,1e808 <__multf3+0xe04>
   1e820:	00400613          	li	a2,4
   1e824:	0b80006f          	j	1e8dc <__multf3+0xed8>
   1e828:	05010593          	addi	a1,sp,80
   1e82c:	00c58633          	add	a2,a1,a2
   1e830:	00062603          	lw	a2,0(a2)
   1e834:	00168693          	addi	a3,a3,1
   1e838:	00c76733          	or	a4,a4,a2
   1e83c:	fb5ff06f          	j	1e7f0 <__multf3+0xdec>
   1e840:	08010693          	addi	a3,sp,128
   1e844:	00c686b3          	add	a3,a3,a2
   1e848:	fd06a683          	lw	a3,-48(a3)
   1e84c:	02000813          	li	a6,32
   1e850:	40f80833          	sub	a6,a6,a5
   1e854:	010696b3          	sll	a3,a3,a6
   1e858:	00d76733          	or	a4,a4,a3
   1e85c:	05010693          	addi	a3,sp,80
   1e860:	00c68633          	add	a2,a3,a2
   1e864:	00300693          	li	a3,3
   1e868:	00000513          	li	a0,0
   1e86c:	411686b3          	sub	a3,a3,a7
   1e870:	00460613          	addi	a2,a2,4
   1e874:	02d54463          	blt	a0,a3,1e89c <__multf3+0xe98>
   1e878:	08010613          	addi	a2,sp,128
   1e87c:	00269693          	slli	a3,a3,0x2
   1e880:	00d606b3          	add	a3,a2,a3
   1e884:	05c12603          	lw	a2,92(sp)
   1e888:	00f657b3          	srl	a5,a2,a5
   1e88c:	fcf6a823          	sw	a5,-48(a3)
   1e890:	00400793          	li	a5,4
   1e894:	411787b3          	sub	a5,a5,a7
   1e898:	f89ff06f          	j	1e820 <__multf3+0xe1c>
   1e89c:	00251313          	slli	t1,a0,0x2
   1e8a0:	05010593          	addi	a1,sp,80
   1e8a4:	00658333          	add	t1,a1,t1
   1e8a8:	00062e03          	lw	t3,0(a2)
   1e8ac:	ffc62583          	lw	a1,-4(a2)
   1e8b0:	00150513          	addi	a0,a0,1
   1e8b4:	010e1e33          	sll	t3,t3,a6
   1e8b8:	00f5d5b3          	srl	a1,a1,a5
   1e8bc:	01c5e5b3          	or	a1,a1,t3
   1e8c0:	00b32023          	sw	a1,0(t1)
   1e8c4:	fadff06f          	j	1e870 <__multf3+0xe6c>
   1e8c8:	00279693          	slli	a3,a5,0x2
   1e8cc:	05010593          	addi	a1,sp,80
   1e8d0:	00d586b3          	add	a3,a1,a3
   1e8d4:	0006a023          	sw	zero,0(a3)
   1e8d8:	00178793          	addi	a5,a5,1
   1e8dc:	fec796e3          	bne	a5,a2,1e8c8 <__multf3+0xec4>
   1e8e0:	05012683          	lw	a3,80(sp)
   1e8e4:	00e03733          	snez	a4,a4
   1e8e8:	00d76733          	or	a4,a4,a3
   1e8ec:	04e12823          	sw	a4,80(sp)
   1e8f0:	00777693          	andi	a3,a4,7
   1e8f4:	04068263          	beqz	a3,1e938 <__multf3+0xf34>
   1e8f8:	00f77693          	andi	a3,a4,15
   1e8fc:	02f68e63          	beq	a3,a5,1e938 <__multf3+0xf34>
   1e900:	05412783          	lw	a5,84(sp)
   1e904:	00470713          	addi	a4,a4,4
   1e908:	04e12823          	sw	a4,80(sp)
   1e90c:	00473713          	sltiu	a4,a4,4
   1e910:	00f707b3          	add	a5,a4,a5
   1e914:	00e7b733          	sltu	a4,a5,a4
   1e918:	04f12a23          	sw	a5,84(sp)
   1e91c:	05812783          	lw	a5,88(sp)
   1e920:	00f707b3          	add	a5,a4,a5
   1e924:	04f12c23          	sw	a5,88(sp)
   1e928:	00e7b7b3          	sltu	a5,a5,a4
   1e92c:	05c12703          	lw	a4,92(sp)
   1e930:	00e787b3          	add	a5,a5,a4
   1e934:	04f12e23          	sw	a5,92(sp)
   1e938:	05c12783          	lw	a5,92(sp)
   1e93c:	00c79713          	slli	a4,a5,0xc
   1e940:	00075e63          	bgez	a4,1e95c <__multf3+0xf58>
   1e944:	04012e23          	sw	zero,92(sp)
   1e948:	04012c23          	sw	zero,88(sp)
   1e94c:	04012a23          	sw	zero,84(sp)
   1e950:	04012823          	sw	zero,80(sp)
   1e954:	00100793          	li	a5,1
   1e958:	d3dff06f          	j	1e694 <__multf3+0xc90>
   1e95c:	05010793          	addi	a5,sp,80
   1e960:	05c10613          	addi	a2,sp,92
   1e964:	0007a703          	lw	a4,0(a5)
   1e968:	0047a683          	lw	a3,4(a5)
   1e96c:	00478793          	addi	a5,a5,4
   1e970:	00375713          	srli	a4,a4,0x3
   1e974:	01d69693          	slli	a3,a3,0x1d
   1e978:	00d76733          	or	a4,a4,a3
   1e97c:	fee7ae23          	sw	a4,-4(a5)
   1e980:	fef612e3          	bne	a2,a5,1e964 <__multf3+0xf60>
   1e984:	05c12783          	lw	a5,92(sp)
   1e988:	0037d793          	srli	a5,a5,0x3
   1e98c:	04f12e23          	sw	a5,92(sp)
   1e990:	00000793          	li	a5,0
   1e994:	d01ff06f          	j	1e694 <__multf3+0xc90>
   1e998:	05412783          	lw	a5,84(sp)
   1e99c:	05012703          	lw	a4,80(sp)
   1e9a0:	00f76733          	or	a4,a4,a5
   1e9a4:	05812783          	lw	a5,88(sp)
   1e9a8:	00f76733          	or	a4,a4,a5
   1e9ac:	05c12783          	lw	a5,92(sp)
   1e9b0:	00f76733          	or	a4,a4,a5
   1e9b4:	00000793          	li	a5,0
   1e9b8:	cc070ee3          	beqz	a4,1e694 <__multf3+0xc90>
   1e9bc:	04012e23          	sw	zero,92(sp)
   1e9c0:	04012c23          	sw	zero,88(sp)
   1e9c4:	04012a23          	sw	zero,84(sp)
   1e9c8:	04012823          	sw	zero,80(sp)
   1e9cc:	cc9ff06f          	j	1e694 <__multf3+0xc90>
   1e9d0:	000087b7          	lui	a5,0x8
   1e9d4:	04012e23          	sw	zero,92(sp)
   1e9d8:	04012c23          	sw	zero,88(sp)
   1e9dc:	04012a23          	sw	zero,84(sp)
   1e9e0:	04012823          	sw	zero,80(sp)
   1e9e4:	fff78793          	addi	a5,a5,-1 # 7fff <_start-0x8001>
   1e9e8:	cadff06f          	j	1e694 <__multf3+0xc90>
   1e9ec:	000087b7          	lui	a5,0x8
   1e9f0:	04f12e23          	sw	a5,92(sp)
   1e9f4:	04012c23          	sw	zero,88(sp)
   1e9f8:	04012a23          	sw	zero,84(sp)
   1e9fc:	04012823          	sw	zero,80(sp)
   1ea00:	fff78793          	addi	a5,a5,-1 # 7fff <_start-0x8001>
   1ea04:	00012823          	sw	zero,16(sp)
   1ea08:	c8dff06f          	j	1e694 <__multf3+0xc90>

0001ea0c <__subtf3>:
   1ea0c:	fa010113          	addi	sp,sp,-96
   1ea10:	0085a783          	lw	a5,8(a1)
   1ea14:	05212823          	sw	s2,80(sp)
   1ea18:	00c5a903          	lw	s2,12(a1)
   1ea1c:	0045a703          	lw	a4,4(a1)
   1ea20:	04912a23          	sw	s1,84(sp)
   1ea24:	00050493          	mv	s1,a0
   1ea28:	0005a503          	lw	a0,0(a1)
   1ea2c:	02f12c23          	sw	a5,56(sp)
   1ea30:	00f12c23          	sw	a5,24(sp)
   1ea34:	00062303          	lw	t1,0(a2)
   1ea38:	01091793          	slli	a5,s2,0x10
   1ea3c:	00462883          	lw	a7,4(a2)
   1ea40:	00862683          	lw	a3,8(a2)
   1ea44:	00c62803          	lw	a6,12(a2)
   1ea48:	04812c23          	sw	s0,88(sp)
   1ea4c:	0107d793          	srli	a5,a5,0x10
   1ea50:	00191413          	slli	s0,s2,0x1
   1ea54:	03212e23          	sw	s2,60(sp)
   1ea58:	04112e23          	sw	ra,92(sp)
   1ea5c:	05312623          	sw	s3,76(sp)
   1ea60:	05412423          	sw	s4,72(sp)
   1ea64:	05512223          	sw	s5,68(sp)
   1ea68:	02a12823          	sw	a0,48(sp)
   1ea6c:	02e12a23          	sw	a4,52(sp)
   1ea70:	00a12823          	sw	a0,16(sp)
   1ea74:	00e12a23          	sw	a4,20(sp)
   1ea78:	00f12e23          	sw	a5,28(sp)
   1ea7c:	01145413          	srli	s0,s0,0x11
   1ea80:	01f95913          	srli	s2,s2,0x1f
   1ea84:	01010e13          	addi	t3,sp,16
   1ea88:	01c10593          	addi	a1,sp,28
   1ea8c:	0005a783          	lw	a5,0(a1)
   1ea90:	ffc5a703          	lw	a4,-4(a1)
   1ea94:	ffc58593          	addi	a1,a1,-4
   1ea98:	00379793          	slli	a5,a5,0x3
   1ea9c:	01d75713          	srli	a4,a4,0x1d
   1eaa0:	00e7e7b3          	or	a5,a5,a4
   1eaa4:	00f5a223          	sw	a5,4(a1)
   1eaa8:	febe12e3          	bne	t3,a1,1ea8c <__subtf3+0x80>
   1eaac:	01012703          	lw	a4,16(sp)
   1eab0:	01081793          	slli	a5,a6,0x10
   1eab4:	00181613          	slli	a2,a6,0x1
   1eab8:	00371713          	slli	a4,a4,0x3
   1eabc:	0107d793          	srli	a5,a5,0x10
   1eac0:	02612823          	sw	t1,48(sp)
   1eac4:	03112a23          	sw	a7,52(sp)
   1eac8:	03012e23          	sw	a6,60(sp)
   1eacc:	02612023          	sw	t1,32(sp)
   1ead0:	03112223          	sw	a7,36(sp)
   1ead4:	00e12823          	sw	a4,16(sp)
   1ead8:	02d12c23          	sw	a3,56(sp)
   1eadc:	02d12423          	sw	a3,40(sp)
   1eae0:	02f12623          	sw	a5,44(sp)
   1eae4:	01165613          	srli	a2,a2,0x11
   1eae8:	01f85813          	srli	a6,a6,0x1f
   1eaec:	02010313          	addi	t1,sp,32
   1eaf0:	02c10893          	addi	a7,sp,44
   1eaf4:	0008a783          	lw	a5,0(a7)
   1eaf8:	ffc8a683          	lw	a3,-4(a7)
   1eafc:	ffc88893          	addi	a7,a7,-4
   1eb00:	00379793          	slli	a5,a5,0x3
   1eb04:	01d6d693          	srli	a3,a3,0x1d
   1eb08:	00d7e7b3          	or	a5,a5,a3
   1eb0c:	00f8a223          	sw	a5,4(a7)
   1eb10:	ff1312e3          	bne	t1,a7,1eaf4 <__subtf3+0xe8>
   1eb14:	02012783          	lw	a5,32(sp)
   1eb18:	000086b7          	lui	a3,0x8
   1eb1c:	fff68693          	addi	a3,a3,-1 # 7fff <_start-0x8001>
   1eb20:	00379793          	slli	a5,a5,0x3
   1eb24:	02f12023          	sw	a5,32(sp)
   1eb28:	02d61063          	bne	a2,a3,1eb48 <__subtf3+0x13c>
   1eb2c:	02812503          	lw	a0,40(sp)
   1eb30:	02412683          	lw	a3,36(sp)
   1eb34:	00a6e6b3          	or	a3,a3,a0
   1eb38:	02c12503          	lw	a0,44(sp)
   1eb3c:	00a6e6b3          	or	a3,a3,a0
   1eb40:	00f6e6b3          	or	a3,a3,a5
   1eb44:	00069463          	bnez	a3,1eb4c <__subtf3+0x140>
   1eb48:	00184813          	xori	a6,a6,1
   1eb4c:	40c40533          	sub	a0,s0,a2
   1eb50:	13281ce3          	bne	a6,s2,1f488 <__subtf3+0xa7c>
   1eb54:	30a05463          	blez	a0,1ee5c <__subtf3+0x450>
   1eb58:	0c061663          	bnez	a2,1ec24 <__subtf3+0x218>
   1eb5c:	02412583          	lw	a1,36(sp)
   1eb60:	02812603          	lw	a2,40(sp)
   1eb64:	02c12803          	lw	a6,44(sp)
   1eb68:	00c5e6b3          	or	a3,a1,a2
   1eb6c:	0106e6b3          	or	a3,a3,a6
   1eb70:	00f6e6b3          	or	a3,a3,a5
   1eb74:	02069063          	bnez	a3,1eb94 <__subtf3+0x188>
   1eb78:	01412783          	lw	a5,20(sp)
   1eb7c:	02e12823          	sw	a4,48(sp)
   1eb80:	02f12a23          	sw	a5,52(sp)
   1eb84:	01812783          	lw	a5,24(sp)
   1eb88:	02f12c23          	sw	a5,56(sp)
   1eb8c:	01c12783          	lw	a5,28(sp)
   1eb90:	30c0006f          	j	1ee9c <__subtf3+0x490>
   1eb94:	fff50693          	addi	a3,a0,-1
   1eb98:	06069063          	bnez	a3,1ebf8 <__subtf3+0x1ec>
   1eb9c:	01412683          	lw	a3,20(sp)
   1eba0:	00f707b3          	add	a5,a4,a5
   1eba4:	00e7b733          	sltu	a4,a5,a4
   1eba8:	00d585b3          	add	a1,a1,a3
   1ebac:	02f12823          	sw	a5,48(sp)
   1ebb0:	00e587b3          	add	a5,a1,a4
   1ebb4:	00e7b733          	sltu	a4,a5,a4
   1ebb8:	02f12a23          	sw	a5,52(sp)
   1ebbc:	01812783          	lw	a5,24(sp)
   1ebc0:	00d5b6b3          	sltu	a3,a1,a3
   1ebc4:	00e6e733          	or	a4,a3,a4
   1ebc8:	00f606b3          	add	a3,a2,a5
   1ebcc:	00e68633          	add	a2,a3,a4
   1ebd0:	00e63733          	sltu	a4,a2,a4
   1ebd4:	00f6b7b3          	sltu	a5,a3,a5
   1ebd8:	00e7e7b3          	or	a5,a5,a4
   1ebdc:	01c12703          	lw	a4,28(sp)
   1ebe0:	02c12c23          	sw	a2,56(sp)
   1ebe4:	00e80833          	add	a6,a6,a4
   1ebe8:	010787b3          	add	a5,a5,a6
   1ebec:	02f12e23          	sw	a5,60(sp)
   1ebf0:	00100413          	li	s0,1
   1ebf4:	1dc0006f          	j	1edd0 <__subtf3+0x3c4>
   1ebf8:	000087b7          	lui	a5,0x8
   1ebfc:	fff78793          	addi	a5,a5,-1 # 7fff <_start-0x8001>
   1ec00:	f6f50ce3          	beq	a0,a5,1eb78 <__subtf3+0x16c>
   1ec04:	07400793          	li	a5,116
   1ec08:	06d7d263          	ble	a3,a5,1ec6c <__subtf3+0x260>
   1ec0c:	00100793          	li	a5,1
   1ec10:	02012623          	sw	zero,44(sp)
   1ec14:	02012423          	sw	zero,40(sp)
   1ec18:	02012223          	sw	zero,36(sp)
   1ec1c:	02f12023          	sw	a5,32(sp)
   1ec20:	1480006f          	j	1ed68 <__subtf3+0x35c>
   1ec24:	000087b7          	lui	a5,0x8
   1ec28:	fff78793          	addi	a5,a5,-1 # 7fff <_start-0x8001>
   1ec2c:	02f41263          	bne	s0,a5,1ec50 <__subtf3+0x244>
   1ec30:	01412783          	lw	a5,20(sp)
   1ec34:	02e12823          	sw	a4,48(sp)
   1ec38:	02f12a23          	sw	a5,52(sp)
   1ec3c:	01812783          	lw	a5,24(sp)
   1ec40:	02f12c23          	sw	a5,56(sp)
   1ec44:	01c12783          	lw	a5,28(sp)
   1ec48:	02f12e23          	sw	a5,60(sp)
   1ec4c:	2580006f          	j	1eea4 <__subtf3+0x498>
   1ec50:	02c12783          	lw	a5,44(sp)
   1ec54:	00080737          	lui	a4,0x80
   1ec58:	00e7e7b3          	or	a5,a5,a4
   1ec5c:	02f12623          	sw	a5,44(sp)
   1ec60:	07400793          	li	a5,116
   1ec64:	faa7c4e3          	blt	a5,a0,1ec0c <__subtf3+0x200>
   1ec68:	00050693          	mv	a3,a0
   1ec6c:	4056de13          	srai	t3,a3,0x5
   1ec70:	01f6f793          	andi	a5,a3,31
   1ec74:	00000613          	li	a2,0
   1ec78:	00000713          	li	a4,0
   1ec7c:	00271693          	slli	a3,a4,0x2
   1ec80:	03c71863          	bne	a4,t3,1ecb0 <__subtf3+0x2a4>
   1ec84:	04079063          	bnez	a5,1ecc4 <__subtf3+0x2b8>
   1ec88:	00300593          	li	a1,3
   1ec8c:	40e58733          	sub	a4,a1,a4
   1ec90:	00d885b3          	add	a1,a7,a3
   1ec94:	0005a583          	lw	a1,0(a1)
   1ec98:	00178793          	addi	a5,a5,1
   1ec9c:	00488893          	addi	a7,a7,4
   1eca0:	feb8ae23          	sw	a1,-4(a7)
   1eca4:	fef756e3          	ble	a5,a4,1ec90 <__subtf3+0x284>
   1eca8:	00400693          	li	a3,4
   1ecac:	0a80006f          	j	1ed54 <__subtf3+0x348>
   1ecb0:	00d306b3          	add	a3,t1,a3
   1ecb4:	0006a683          	lw	a3,0(a3)
   1ecb8:	00170713          	addi	a4,a4,1 # 80001 <_end+0x59b21>
   1ecbc:	00d66633          	or	a2,a2,a3
   1ecc0:	fbdff06f          	j	1ec7c <__subtf3+0x270>
   1ecc4:	04010713          	addi	a4,sp,64
   1ecc8:	00d70733          	add	a4,a4,a3
   1eccc:	fe072703          	lw	a4,-32(a4)
   1ecd0:	02000813          	li	a6,32
   1ecd4:	40f80833          	sub	a6,a6,a5
   1ecd8:	01071733          	sll	a4,a4,a6
   1ecdc:	00e66633          	or	a2,a2,a4
   1ece0:	00300713          	li	a4,3
   1ece4:	00d306b3          	add	a3,t1,a3
   1ece8:	00000513          	li	a0,0
   1ecec:	41c70733          	sub	a4,a4,t3
   1ecf0:	00468693          	addi	a3,a3,4
   1ecf4:	02e54463          	blt	a0,a4,1ed1c <__subtf3+0x310>
   1ecf8:	04010693          	addi	a3,sp,64
   1ecfc:	00271713          	slli	a4,a4,0x2
   1ed00:	00e68733          	add	a4,a3,a4
   1ed04:	02c12683          	lw	a3,44(sp)
   1ed08:	00f6d7b3          	srl	a5,a3,a5
   1ed0c:	fef72023          	sw	a5,-32(a4)
   1ed10:	00400793          	li	a5,4
   1ed14:	41c787b3          	sub	a5,a5,t3
   1ed18:	f91ff06f          	j	1eca8 <__subtf3+0x29c>
   1ed1c:	ffc6a583          	lw	a1,-4(a3)
   1ed20:	0006ae83          	lw	t4,0(a3)
   1ed24:	00251893          	slli	a7,a0,0x2
   1ed28:	00f5d5b3          	srl	a1,a1,a5
   1ed2c:	010e9eb3          	sll	t4,t4,a6
   1ed30:	011308b3          	add	a7,t1,a7
   1ed34:	01d5e5b3          	or	a1,a1,t4
   1ed38:	00b8a023          	sw	a1,0(a7)
   1ed3c:	00150513          	addi	a0,a0,1
   1ed40:	fb1ff06f          	j	1ecf0 <__subtf3+0x2e4>
   1ed44:	00279713          	slli	a4,a5,0x2
   1ed48:	00e30733          	add	a4,t1,a4
   1ed4c:	00072023          	sw	zero,0(a4)
   1ed50:	00178793          	addi	a5,a5,1
   1ed54:	fed798e3          	bne	a5,a3,1ed44 <__subtf3+0x338>
   1ed58:	02012783          	lw	a5,32(sp)
   1ed5c:	00c03633          	snez	a2,a2
   1ed60:	00c7e633          	or	a2,a5,a2
   1ed64:	02c12023          	sw	a2,32(sp)
   1ed68:	01012683          	lw	a3,16(sp)
   1ed6c:	02012783          	lw	a5,32(sp)
   1ed70:	01412703          	lw	a4,20(sp)
   1ed74:	02812583          	lw	a1,40(sp)
   1ed78:	00f687b3          	add	a5,a3,a5
   1ed7c:	00d7b6b3          	sltu	a3,a5,a3
   1ed80:	02f12823          	sw	a5,48(sp)
   1ed84:	02412783          	lw	a5,36(sp)
   1ed88:	02c12503          	lw	a0,44(sp)
   1ed8c:	00f707b3          	add	a5,a4,a5
   1ed90:	00d78633          	add	a2,a5,a3
   1ed94:	00e7b733          	sltu	a4,a5,a4
   1ed98:	00d637b3          	sltu	a5,a2,a3
   1ed9c:	00f767b3          	or	a5,a4,a5
   1eda0:	01812703          	lw	a4,24(sp)
   1eda4:	01c12683          	lw	a3,28(sp)
   1eda8:	02c12a23          	sw	a2,52(sp)
   1edac:	00b705b3          	add	a1,a4,a1
   1edb0:	00f58633          	add	a2,a1,a5
   1edb4:	00e5b733          	sltu	a4,a1,a4
   1edb8:	00f637b3          	sltu	a5,a2,a5
   1edbc:	00a686b3          	add	a3,a3,a0
   1edc0:	00f76733          	or	a4,a4,a5
   1edc4:	00e68733          	add	a4,a3,a4
   1edc8:	02c12c23          	sw	a2,56(sp)
   1edcc:	02e12e23          	sw	a4,60(sp)
   1edd0:	03c12783          	lw	a5,60(sp)
   1edd4:	00c79713          	slli	a4,a5,0xc
   1edd8:	0c075663          	bgez	a4,1eea4 <__subtf3+0x498>
   1eddc:	fff80737          	lui	a4,0xfff80
   1ede0:	fff70713          	addi	a4,a4,-1 # fff7ffff <_end+0xfff59b1f>
   1ede4:	00e7f7b3          	and	a5,a5,a4
   1ede8:	02f12e23          	sw	a5,60(sp)
   1edec:	03012783          	lw	a5,48(sp)
   1edf0:	00140413          	addi	s0,s0,1 # 800001 <_end+0x7d9b21>
   1edf4:	03c10593          	addi	a1,sp,60
   1edf8:	01f79713          	slli	a4,a5,0x1f
   1edfc:	03010793          	addi	a5,sp,48
   1ee00:	0007a683          	lw	a3,0(a5)
   1ee04:	0047a603          	lw	a2,4(a5)
   1ee08:	00478793          	addi	a5,a5,4
   1ee0c:	0016d693          	srli	a3,a3,0x1
   1ee10:	01f61613          	slli	a2,a2,0x1f
   1ee14:	00c6e6b3          	or	a3,a3,a2
   1ee18:	fed7ae23          	sw	a3,-4(a5)
   1ee1c:	fef592e3          	bne	a1,a5,1ee00 <__subtf3+0x3f4>
   1ee20:	03c12783          	lw	a5,60(sp)
   1ee24:	0017d793          	srli	a5,a5,0x1
   1ee28:	02f12e23          	sw	a5,60(sp)
   1ee2c:	00e037b3          	snez	a5,a4
   1ee30:	03012703          	lw	a4,48(sp)
   1ee34:	00f767b3          	or	a5,a4,a5
   1ee38:	02f12823          	sw	a5,48(sp)
   1ee3c:	000087b7          	lui	a5,0x8
   1ee40:	fff78793          	addi	a5,a5,-1 # 7fff <_start-0x8001>
   1ee44:	06f41063          	bne	s0,a5,1eea4 <__subtf3+0x498>
   1ee48:	02012e23          	sw	zero,60(sp)
   1ee4c:	02012c23          	sw	zero,56(sp)
   1ee50:	02012a23          	sw	zero,52(sp)
   1ee54:	02012823          	sw	zero,48(sp)
   1ee58:	04c0006f          	j	1eea4 <__subtf3+0x498>
   1ee5c:	40050863          	beqz	a0,1f26c <__subtf3+0x860>
   1ee60:	40860533          	sub	a0,a2,s0
   1ee64:	22041c63          	bnez	s0,1f09c <__subtf3+0x690>
   1ee68:	01412883          	lw	a7,20(sp)
   1ee6c:	01812803          	lw	a6,24(sp)
   1ee70:	01c12303          	lw	t1,28(sp)
   1ee74:	0108e6b3          	or	a3,a7,a6
   1ee78:	0066e6b3          	or	a3,a3,t1
   1ee7c:	00e6e6b3          	or	a3,a3,a4
   1ee80:	18069863          	bnez	a3,1f010 <__subtf3+0x604>
   1ee84:	02f12823          	sw	a5,48(sp)
   1ee88:	02412783          	lw	a5,36(sp)
   1ee8c:	02f12a23          	sw	a5,52(sp)
   1ee90:	02812783          	lw	a5,40(sp)
   1ee94:	02f12c23          	sw	a5,56(sp)
   1ee98:	02c12783          	lw	a5,44(sp)
   1ee9c:	02f12e23          	sw	a5,60(sp)
   1eea0:	00050413          	mv	s0,a0
   1eea4:	03012783          	lw	a5,48(sp)
   1eea8:	0077f713          	andi	a4,a5,7
   1eeac:	04070463          	beqz	a4,1eef4 <__subtf3+0x4e8>
   1eeb0:	00f7f713          	andi	a4,a5,15
   1eeb4:	00400693          	li	a3,4
   1eeb8:	02d70e63          	beq	a4,a3,1eef4 <__subtf3+0x4e8>
   1eebc:	03412703          	lw	a4,52(sp)
   1eec0:	00478793          	addi	a5,a5,4
   1eec4:	02f12823          	sw	a5,48(sp)
   1eec8:	0047b793          	sltiu	a5,a5,4
   1eecc:	00e78733          	add	a4,a5,a4
   1eed0:	00f737b3          	sltu	a5,a4,a5
   1eed4:	02e12a23          	sw	a4,52(sp)
   1eed8:	03812703          	lw	a4,56(sp)
   1eedc:	00e78733          	add	a4,a5,a4
   1eee0:	02e12c23          	sw	a4,56(sp)
   1eee4:	00f73733          	sltu	a4,a4,a5
   1eee8:	03c12783          	lw	a5,60(sp)
   1eeec:	00f70733          	add	a4,a4,a5
   1eef0:	02e12e23          	sw	a4,60(sp)
   1eef4:	03c12783          	lw	a5,60(sp)
   1eef8:	00c79713          	slli	a4,a5,0xc
   1eefc:	02075463          	bgez	a4,1ef24 <__subtf3+0x518>
   1ef00:	00008737          	lui	a4,0x8
   1ef04:	00140413          	addi	s0,s0,1
   1ef08:	fff70713          	addi	a4,a4,-1 # 7fff <_start-0x8001>
   1ef0c:	00e41463          	bne	s0,a4,1ef14 <__subtf3+0x508>
   1ef10:	0000106f          	j	1ff10 <__subtf3+0x1504>
   1ef14:	fff80737          	lui	a4,0xfff80
   1ef18:	fff70713          	addi	a4,a4,-1 # fff7ffff <_end+0xfff59b1f>
   1ef1c:	00e7f7b3          	and	a5,a5,a4
   1ef20:	02f12e23          	sw	a5,60(sp)
   1ef24:	03010793          	addi	a5,sp,48
   1ef28:	03c10613          	addi	a2,sp,60
   1ef2c:	0007a703          	lw	a4,0(a5)
   1ef30:	0047a683          	lw	a3,4(a5)
   1ef34:	00478793          	addi	a5,a5,4
   1ef38:	00375713          	srli	a4,a4,0x3
   1ef3c:	01d69693          	slli	a3,a3,0x1d
   1ef40:	00d76733          	or	a4,a4,a3
   1ef44:	fee7ae23          	sw	a4,-4(a5)
   1ef48:	fef612e3          	bne	a2,a5,1ef2c <__subtf3+0x520>
   1ef4c:	03c12783          	lw	a5,60(sp)
   1ef50:	000086b7          	lui	a3,0x8
   1ef54:	0037d713          	srli	a4,a5,0x3
   1ef58:	02e12e23          	sw	a4,60(sp)
   1ef5c:	fff68793          	addi	a5,a3,-1 # 7fff <_start-0x8001>
   1ef60:	02f41a63          	bne	s0,a5,1ef94 <__subtf3+0x588>
   1ef64:	03412603          	lw	a2,52(sp)
   1ef68:	03012783          	lw	a5,48(sp)
   1ef6c:	00c7e7b3          	or	a5,a5,a2
   1ef70:	03812603          	lw	a2,56(sp)
   1ef74:	00c7e7b3          	or	a5,a5,a2
   1ef78:	00e7e7b3          	or	a5,a5,a4
   1ef7c:	00078c63          	beqz	a5,1ef94 <__subtf3+0x588>
   1ef80:	02d12e23          	sw	a3,60(sp)
   1ef84:	02012c23          	sw	zero,56(sp)
   1ef88:	02012a23          	sw	zero,52(sp)
   1ef8c:	02012823          	sw	zero,48(sp)
   1ef90:	00000913          	li	s2,0
   1ef94:	03c12783          	lw	a5,60(sp)
   1ef98:	01141413          	slli	s0,s0,0x11
   1ef9c:	01145413          	srli	s0,s0,0x11
   1efa0:	00f11623          	sh	a5,12(sp)
   1efa4:	01041793          	slli	a5,s0,0x10
   1efa8:	00c12403          	lw	s0,12(sp)
   1efac:	80010737          	lui	a4,0x80010
   1efb0:	fff70713          	addi	a4,a4,-1 # 8000ffff <_end+0x7ffe9b1f>
   1efb4:	00e47433          	and	s0,s0,a4
   1efb8:	00f46433          	or	s0,s0,a5
   1efbc:	03012783          	lw	a5,48(sp)
   1efc0:	00141413          	slli	s0,s0,0x1
   1efc4:	01f91913          	slli	s2,s2,0x1f
   1efc8:	00f4a023          	sw	a5,0(s1)
   1efcc:	03412783          	lw	a5,52(sp)
   1efd0:	00145413          	srli	s0,s0,0x1
   1efd4:	01246433          	or	s0,s0,s2
   1efd8:	00f4a223          	sw	a5,4(s1)
   1efdc:	03812783          	lw	a5,56(sp)
   1efe0:	0084a623          	sw	s0,12(s1)
   1efe4:	05c12083          	lw	ra,92(sp)
   1efe8:	05812403          	lw	s0,88(sp)
   1efec:	00f4a423          	sw	a5,8(s1)
   1eff0:	00048513          	mv	a0,s1
   1eff4:	05012903          	lw	s2,80(sp)
   1eff8:	05412483          	lw	s1,84(sp)
   1effc:	04c12983          	lw	s3,76(sp)
   1f000:	04812a03          	lw	s4,72(sp)
   1f004:	04412a83          	lw	s5,68(sp)
   1f008:	06010113          	addi	sp,sp,96
   1f00c:	00008067          	ret
   1f010:	fff50693          	addi	a3,a0,-1
   1f014:	04069e63          	bnez	a3,1f070 <__subtf3+0x664>
   1f018:	02412683          	lw	a3,36(sp)
   1f01c:	00f70733          	add	a4,a4,a5
   1f020:	00f737b3          	sltu	a5,a4,a5
   1f024:	00d88633          	add	a2,a7,a3
   1f028:	02e12823          	sw	a4,48(sp)
   1f02c:	00f60733          	add	a4,a2,a5
   1f030:	00f737b3          	sltu	a5,a4,a5
   1f034:	02e12a23          	sw	a4,52(sp)
   1f038:	02812703          	lw	a4,40(sp)
   1f03c:	00d636b3          	sltu	a3,a2,a3
   1f040:	00f6e7b3          	or	a5,a3,a5
   1f044:	00e806b3          	add	a3,a6,a4
   1f048:	00f68633          	add	a2,a3,a5
   1f04c:	00f637b3          	sltu	a5,a2,a5
   1f050:	00e6b733          	sltu	a4,a3,a4
   1f054:	00f76733          	or	a4,a4,a5
   1f058:	02c12783          	lw	a5,44(sp)
   1f05c:	02c12c23          	sw	a2,56(sp)
   1f060:	00f30333          	add	t1,t1,a5
   1f064:	00670733          	add	a4,a4,t1
   1f068:	02e12e23          	sw	a4,60(sp)
   1f06c:	b85ff06f          	j	1ebf0 <__subtf3+0x1e4>
   1f070:	00008737          	lui	a4,0x8
   1f074:	fff70713          	addi	a4,a4,-1 # 7fff <_start-0x8001>
   1f078:	e0e506e3          	beq	a0,a4,1ee84 <__subtf3+0x478>
   1f07c:	07400793          	li	a5,116
   1f080:	06d7d463          	ble	a3,a5,1f0e8 <__subtf3+0x6dc>
   1f084:	00100793          	li	a5,1
   1f088:	00012e23          	sw	zero,28(sp)
   1f08c:	00012c23          	sw	zero,24(sp)
   1f090:	00012a23          	sw	zero,20(sp)
   1f094:	00f12823          	sw	a5,16(sp)
   1f098:	1640006f          	j	1f1fc <__subtf3+0x7f0>
   1f09c:	00008737          	lui	a4,0x8
   1f0a0:	fff70713          	addi	a4,a4,-1 # 7fff <_start-0x8001>
   1f0a4:	02e61463          	bne	a2,a4,1f0cc <__subtf3+0x6c0>
   1f0a8:	02f12823          	sw	a5,48(sp)
   1f0ac:	02412783          	lw	a5,36(sp)
   1f0b0:	00060413          	mv	s0,a2
   1f0b4:	02f12a23          	sw	a5,52(sp)
   1f0b8:	02812783          	lw	a5,40(sp)
   1f0bc:	02f12c23          	sw	a5,56(sp)
   1f0c0:	02c12783          	lw	a5,44(sp)
   1f0c4:	02f12e23          	sw	a5,60(sp)
   1f0c8:	dddff06f          	j	1eea4 <__subtf3+0x498>
   1f0cc:	01c12783          	lw	a5,28(sp)
   1f0d0:	00080737          	lui	a4,0x80
   1f0d4:	00e7e7b3          	or	a5,a5,a4
   1f0d8:	00f12e23          	sw	a5,28(sp)
   1f0dc:	07400793          	li	a5,116
   1f0e0:	faa7c2e3          	blt	a5,a0,1f084 <__subtf3+0x678>
   1f0e4:	00050693          	mv	a3,a0
   1f0e8:	02000793          	li	a5,32
   1f0ec:	02f6c533          	div	a0,a3,a5
   1f0f0:	00000713          	li	a4,0
   1f0f4:	02f6e7b3          	rem	a5,a3,a5
   1f0f8:	00000693          	li	a3,0
   1f0fc:	04a74063          	blt	a4,a0,1f13c <__subtf3+0x730>
   1f100:	00050813          	mv	a6,a0
   1f104:	00055463          	bgez	a0,1f10c <__subtf3+0x700>
   1f108:	00000813          	li	a6,0
   1f10c:	00251713          	slli	a4,a0,0x2
   1f110:	04079263          	bnez	a5,1f154 <__subtf3+0x748>
   1f114:	00300813          	li	a6,3
   1f118:	40a80533          	sub	a0,a6,a0
   1f11c:	00e58833          	add	a6,a1,a4
   1f120:	00082803          	lw	a6,0(a6)
   1f124:	00178793          	addi	a5,a5,1
   1f128:	00458593          	addi	a1,a1,4
   1f12c:	ff05ae23          	sw	a6,-4(a1)
   1f130:	fef556e3          	ble	a5,a0,1f11c <__subtf3+0x710>
   1f134:	00300593          	li	a1,3
   1f138:	0b00006f          	j	1f1e8 <__subtf3+0x7dc>
   1f13c:	00271813          	slli	a6,a4,0x2
   1f140:	010e0833          	add	a6,t3,a6
   1f144:	00082803          	lw	a6,0(a6)
   1f148:	00170713          	addi	a4,a4,1 # 80001 <_end+0x59b21>
   1f14c:	0106e6b3          	or	a3,a3,a6
   1f150:	fadff06f          	j	1f0fc <__subtf3+0x6f0>
   1f154:	04010593          	addi	a1,sp,64
   1f158:	00281813          	slli	a6,a6,0x2
   1f15c:	01058833          	add	a6,a1,a6
   1f160:	fd082583          	lw	a1,-48(a6)
   1f164:	02000313          	li	t1,32
   1f168:	40f30333          	sub	t1,t1,a5
   1f16c:	006595b3          	sll	a1,a1,t1
   1f170:	00b6e6b3          	or	a3,a3,a1
   1f174:	00ee05b3          	add	a1,t3,a4
   1f178:	00300713          	li	a4,3
   1f17c:	00000893          	li	a7,0
   1f180:	40a70733          	sub	a4,a4,a0
   1f184:	00458593          	addi	a1,a1,4
   1f188:	02e8c463          	blt	a7,a4,1f1b0 <__subtf3+0x7a4>
   1f18c:	04010593          	addi	a1,sp,64
   1f190:	00271713          	slli	a4,a4,0x2
   1f194:	00e58733          	add	a4,a1,a4
   1f198:	01c12583          	lw	a1,28(sp)
   1f19c:	00f5d7b3          	srl	a5,a1,a5
   1f1a0:	fcf72823          	sw	a5,-48(a4)
   1f1a4:	00400793          	li	a5,4
   1f1a8:	40a787b3          	sub	a5,a5,a0
   1f1ac:	f89ff06f          	j	1f134 <__subtf3+0x728>
   1f1b0:	ffc5a803          	lw	a6,-4(a1)
   1f1b4:	0005af03          	lw	t5,0(a1)
   1f1b8:	00289e93          	slli	t4,a7,0x2
   1f1bc:	00f85833          	srl	a6,a6,a5
   1f1c0:	006f1f33          	sll	t5,t5,t1
   1f1c4:	01de0eb3          	add	t4,t3,t4
   1f1c8:	01e86833          	or	a6,a6,t5
   1f1cc:	010ea023          	sw	a6,0(t4)
   1f1d0:	00188893          	addi	a7,a7,1
   1f1d4:	fb1ff06f          	j	1f184 <__subtf3+0x778>
   1f1d8:	00279713          	slli	a4,a5,0x2
   1f1dc:	00ee0733          	add	a4,t3,a4
   1f1e0:	00072023          	sw	zero,0(a4)
   1f1e4:	00178793          	addi	a5,a5,1
   1f1e8:	fef5d8e3          	ble	a5,a1,1f1d8 <__subtf3+0x7cc>
   1f1ec:	01012783          	lw	a5,16(sp)
   1f1f0:	00d036b3          	snez	a3,a3
   1f1f4:	00d7e6b3          	or	a3,a5,a3
   1f1f8:	00d12823          	sw	a3,16(sp)
   1f1fc:	02012683          	lw	a3,32(sp)
   1f200:	01012783          	lw	a5,16(sp)
   1f204:	02412703          	lw	a4,36(sp)
   1f208:	01812503          	lw	a0,24(sp)
   1f20c:	00f687b3          	add	a5,a3,a5
   1f210:	00d7b6b3          	sltu	a3,a5,a3
   1f214:	02f12823          	sw	a5,48(sp)
   1f218:	01412783          	lw	a5,20(sp)
   1f21c:	01c12803          	lw	a6,28(sp)
   1f220:	00060413          	mv	s0,a2
   1f224:	00f707b3          	add	a5,a4,a5
   1f228:	00d785b3          	add	a1,a5,a3
   1f22c:	00e7b733          	sltu	a4,a5,a4
   1f230:	00d5b7b3          	sltu	a5,a1,a3
   1f234:	00f767b3          	or	a5,a4,a5
   1f238:	02812703          	lw	a4,40(sp)
   1f23c:	02c12683          	lw	a3,44(sp)
   1f240:	02b12a23          	sw	a1,52(sp)
   1f244:	00a70533          	add	a0,a4,a0
   1f248:	00f505b3          	add	a1,a0,a5
   1f24c:	00e53733          	sltu	a4,a0,a4
   1f250:	00f5b7b3          	sltu	a5,a1,a5
   1f254:	010686b3          	add	a3,a3,a6
   1f258:	00f76733          	or	a4,a4,a5
   1f25c:	00e68733          	add	a4,a3,a4
   1f260:	02b12c23          	sw	a1,56(sp)
   1f264:	02e12e23          	sw	a4,60(sp)
   1f268:	b69ff06f          	j	1edd0 <__subtf3+0x3c4>
   1f26c:	00008fb7          	lui	t6,0x8
   1f270:	00140f13          	addi	t5,s0,1
   1f274:	ffef8613          	addi	a2,t6,-2 # 7ffe <_start-0x8002>
   1f278:	00cf7633          	and	a2,t5,a2
   1f27c:	02412683          	lw	a3,36(sp)
   1f280:	02812583          	lw	a1,40(sp)
   1f284:	02c12503          	lw	a0,44(sp)
   1f288:	01412303          	lw	t1,20(sp)
   1f28c:	01812883          	lw	a7,24(sp)
   1f290:	01c12e03          	lw	t3,28(sp)
   1f294:	03010813          	addi	a6,sp,48
   1f298:	03c10e93          	addi	t4,sp,60
   1f29c:	14061663          	bnez	a2,1f3e8 <__subtf3+0x9dc>
   1f2a0:	01136633          	or	a2,t1,a7
   1f2a4:	01c66633          	or	a2,a2,t3
   1f2a8:	00e66633          	or	a2,a2,a4
   1f2ac:	0a041663          	bnez	s0,1f358 <__subtf3+0x94c>
   1f2b0:	00061c63          	bnez	a2,1f2c8 <__subtf3+0x8bc>
   1f2b4:	02f12823          	sw	a5,48(sp)
   1f2b8:	02d12a23          	sw	a3,52(sp)
   1f2bc:	02b12c23          	sw	a1,56(sp)
   1f2c0:	02a12e23          	sw	a0,60(sp)
   1f2c4:	be1ff06f          	j	1eea4 <__subtf3+0x498>
   1f2c8:	00b6e633          	or	a2,a3,a1
   1f2cc:	00a66633          	or	a2,a2,a0
   1f2d0:	00f66633          	or	a2,a2,a5
   1f2d4:	00061c63          	bnez	a2,1f2ec <__subtf3+0x8e0>
   1f2d8:	02e12823          	sw	a4,48(sp)
   1f2dc:	02612a23          	sw	t1,52(sp)
   1f2e0:	03112c23          	sw	a7,56(sp)
   1f2e4:	03c12e23          	sw	t3,60(sp)
   1f2e8:	bbdff06f          	j	1eea4 <__subtf3+0x498>
   1f2ec:	00f707b3          	add	a5,a4,a5
   1f2f0:	00e7b733          	sltu	a4,a5,a4
   1f2f4:	006686b3          	add	a3,a3,t1
   1f2f8:	02f12823          	sw	a5,48(sp)
   1f2fc:	00e687b3          	add	a5,a3,a4
   1f300:	00e7b733          	sltu	a4,a5,a4
   1f304:	0066b6b3          	sltu	a3,a3,t1
   1f308:	00e6e733          	or	a4,a3,a4
   1f30c:	011585b3          	add	a1,a1,a7
   1f310:	02f12a23          	sw	a5,52(sp)
   1f314:	00e587b3          	add	a5,a1,a4
   1f318:	0115b633          	sltu	a2,a1,a7
   1f31c:	00e7b733          	sltu	a4,a5,a4
   1f320:	00e66733          	or	a4,a2,a4
   1f324:	01c50633          	add	a2,a0,t3
   1f328:	00c70633          	add	a2,a4,a2
   1f32c:	02f12c23          	sw	a5,56(sp)
   1f330:	00c61793          	slli	a5,a2,0xc
   1f334:	0007c663          	bltz	a5,1f340 <__subtf3+0x934>
   1f338:	02c12e23          	sw	a2,60(sp)
   1f33c:	b69ff06f          	j	1eea4 <__subtf3+0x498>
   1f340:	fff80737          	lui	a4,0xfff80
   1f344:	fff70713          	addi	a4,a4,-1 # fff7ffff <_end+0xfff59b1f>
   1f348:	00e67633          	and	a2,a2,a4
   1f34c:	02c12e23          	sw	a2,60(sp)
   1f350:	00100413          	li	s0,1
   1f354:	b51ff06f          	j	1eea4 <__subtf3+0x498>
   1f358:	00061e63          	bnez	a2,1f374 <__subtf3+0x968>
   1f35c:	02f12823          	sw	a5,48(sp)
   1f360:	02d12a23          	sw	a3,52(sp)
   1f364:	02b12c23          	sw	a1,56(sp)
   1f368:	02a12e23          	sw	a0,60(sp)
   1f36c:	ffff8413          	addi	s0,t6,-1
   1f370:	b35ff06f          	j	1eea4 <__subtf3+0x498>
   1f374:	00b6e633          	or	a2,a3,a1
   1f378:	00a66633          	or	a2,a2,a0
   1f37c:	00f667b3          	or	a5,a2,a5
   1f380:	00079c63          	bnez	a5,1f398 <__subtf3+0x98c>
   1f384:	02e12823          	sw	a4,48(sp)
   1f388:	02612a23          	sw	t1,52(sp)
   1f38c:	03112c23          	sw	a7,56(sp)
   1f390:	03c12e23          	sw	t3,60(sp)
   1f394:	fd9ff06f          	j	1f36c <__subtf3+0x960>
   1f398:	03f12e23          	sw	t6,60(sp)
   1f39c:	02012c23          	sw	zero,56(sp)
   1f3a0:	02012a23          	sw	zero,52(sp)
   1f3a4:	02012823          	sw	zero,48(sp)
   1f3a8:	000e8793          	mv	a5,t4
   1f3ac:	0007a703          	lw	a4,0(a5)
   1f3b0:	ffc7a683          	lw	a3,-4(a5)
   1f3b4:	ffc78793          	addi	a5,a5,-4
   1f3b8:	00371713          	slli	a4,a4,0x3
   1f3bc:	01d6d693          	srli	a3,a3,0x1d
   1f3c0:	00d76733          	or	a4,a4,a3
   1f3c4:	00e7a223          	sw	a4,4(a5)
   1f3c8:	fef812e3          	bne	a6,a5,1f3ac <__subtf3+0x9a0>
   1f3cc:	03012783          	lw	a5,48(sp)
   1f3d0:	00008437          	lui	s0,0x8
   1f3d4:	00000913          	li	s2,0
   1f3d8:	00379793          	slli	a5,a5,0x3
   1f3dc:	02f12823          	sw	a5,48(sp)
   1f3e0:	fff40413          	addi	s0,s0,-1 # 7fff <_start-0x8001>
   1f3e4:	ac1ff06f          	j	1eea4 <__subtf3+0x498>
   1f3e8:	00f707b3          	add	a5,a4,a5
   1f3ec:	00e7b733          	sltu	a4,a5,a4
   1f3f0:	006686b3          	add	a3,a3,t1
   1f3f4:	02f12823          	sw	a5,48(sp)
   1f3f8:	00e687b3          	add	a5,a3,a4
   1f3fc:	00e7b733          	sltu	a4,a5,a4
   1f400:	0066b6b3          	sltu	a3,a3,t1
   1f404:	00e6e733          	or	a4,a3,a4
   1f408:	01158633          	add	a2,a1,a7
   1f40c:	00e606b3          	add	a3,a2,a4
   1f410:	00e6b733          	sltu	a4,a3,a4
   1f414:	01163633          	sltu	a2,a2,a7
   1f418:	00e66633          	or	a2,a2,a4
   1f41c:	01c50733          	add	a4,a0,t3
   1f420:	00e60633          	add	a2,a2,a4
   1f424:	02f12a23          	sw	a5,52(sp)
   1f428:	02d12c23          	sw	a3,56(sp)
   1f42c:	02c12e23          	sw	a2,60(sp)
   1f430:	00080793          	mv	a5,a6
   1f434:	0007a703          	lw	a4,0(a5)
   1f438:	0047a683          	lw	a3,4(a5)
   1f43c:	00478793          	addi	a5,a5,4
   1f440:	00175713          	srli	a4,a4,0x1
   1f444:	01f69693          	slli	a3,a3,0x1f
   1f448:	00d76733          	or	a4,a4,a3
   1f44c:	fee7ae23          	sw	a4,-4(a5)
   1f450:	fefe92e3          	bne	t4,a5,1f434 <__subtf3+0xa28>
   1f454:	000087b7          	lui	a5,0x8
   1f458:	fff78793          	addi	a5,a5,-1 # 7fff <_start-0x8001>
   1f45c:	00ff0c63          	beq	t5,a5,1f474 <__subtf3+0xa68>
   1f460:	03c12783          	lw	a5,60(sp)
   1f464:	0017d793          	srli	a5,a5,0x1
   1f468:	02f12e23          	sw	a5,60(sp)
   1f46c:	000f0413          	mv	s0,t5
   1f470:	a35ff06f          	j	1eea4 <__subtf3+0x498>
   1f474:	02012e23          	sw	zero,60(sp)
   1f478:	02012c23          	sw	zero,56(sp)
   1f47c:	02012a23          	sw	zero,52(sp)
   1f480:	02012823          	sw	zero,48(sp)
   1f484:	fe9ff06f          	j	1f46c <__subtf3+0xa60>
   1f488:	28a05263          	blez	a0,1f70c <__subtf3+0xd00>
   1f48c:	0c061263          	bnez	a2,1f550 <__subtf3+0xb44>
   1f490:	02412803          	lw	a6,36(sp)
   1f494:	02812603          	lw	a2,40(sp)
   1f498:	02c12e03          	lw	t3,44(sp)
   1f49c:	00c865b3          	or	a1,a6,a2
   1f4a0:	01c5e5b3          	or	a1,a1,t3
   1f4a4:	00f5e5b3          	or	a1,a1,a5
   1f4a8:	ec058863          	beqz	a1,1eb78 <__subtf3+0x16c>
   1f4ac:	fff50693          	addi	a3,a0,-1
   1f4b0:	06069a63          	bnez	a3,1f524 <__subtf3+0xb18>
   1f4b4:	01412883          	lw	a7,20(sp)
   1f4b8:	40f707b3          	sub	a5,a4,a5
   1f4bc:	00f735b3          	sltu	a1,a4,a5
   1f4c0:	41088533          	sub	a0,a7,a6
   1f4c4:	00a8b333          	sltu	t1,a7,a0
   1f4c8:	40b50533          	sub	a0,a0,a1
   1f4cc:	02f12823          	sw	a5,48(sp)
   1f4d0:	02a12a23          	sw	a0,52(sp)
   1f4d4:	00000593          	li	a1,0
   1f4d8:	00f77663          	bleu	a5,a4,1f4e4 <__subtf3+0xad8>
   1f4dc:	411805b3          	sub	a1,a6,a7
   1f4e0:	0015b593          	seqz	a1,a1
   1f4e4:	01812803          	lw	a6,24(sp)
   1f4e8:	0065e5b3          	or	a1,a1,t1
   1f4ec:	40c80533          	sub	a0,a6,a2
   1f4f0:	00a837b3          	sltu	a5,a6,a0
   1f4f4:	40b50533          	sub	a0,a0,a1
   1f4f8:	02a12c23          	sw	a0,56(sp)
   1f4fc:	00058663          	beqz	a1,1f508 <__subtf3+0xafc>
   1f500:	41060633          	sub	a2,a2,a6
   1f504:	00163693          	seqz	a3,a2
   1f508:	01c12703          	lw	a4,28(sp)
   1f50c:	00f6e7b3          	or	a5,a3,a5
   1f510:	41c70733          	sub	a4,a4,t3
   1f514:	40f707b3          	sub	a5,a4,a5
   1f518:	02f12e23          	sw	a5,60(sp)
   1f51c:	00100413          	li	s0,1
   1f520:	1cc0006f          	j	1f6ec <__subtf3+0xce0>
   1f524:	000087b7          	lui	a5,0x8
   1f528:	fff78793          	addi	a5,a5,-1 # 7fff <_start-0x8001>
   1f52c:	e4f50663          	beq	a0,a5,1eb78 <__subtf3+0x16c>
   1f530:	07400793          	li	a5,116
   1f534:	04d7d263          	ble	a3,a5,1f578 <__subtf3+0xb6c>
   1f538:	00100793          	li	a5,1
   1f53c:	02012623          	sw	zero,44(sp)
   1f540:	02012423          	sw	zero,40(sp)
   1f544:	02012223          	sw	zero,36(sp)
   1f548:	02f12023          	sw	a5,32(sp)
   1f54c:	1280006f          	j	1f674 <__subtf3+0xc68>
   1f550:	000087b7          	lui	a5,0x8
   1f554:	fff78793          	addi	a5,a5,-1 # 7fff <_start-0x8001>
   1f558:	ecf40c63          	beq	s0,a5,1ec30 <__subtf3+0x224>
   1f55c:	02c12783          	lw	a5,44(sp)
   1f560:	00080737          	lui	a4,0x80
   1f564:	00e7e7b3          	or	a5,a5,a4
   1f568:	02f12623          	sw	a5,44(sp)
   1f56c:	07400793          	li	a5,116
   1f570:	fca7c4e3          	blt	a5,a0,1f538 <__subtf3+0xb2c>
   1f574:	00050693          	mv	a3,a0
   1f578:	4056de13          	srai	t3,a3,0x5
   1f57c:	01f6f793          	andi	a5,a3,31
   1f580:	00000613          	li	a2,0
   1f584:	00000713          	li	a4,0
   1f588:	00271693          	slli	a3,a4,0x2
   1f58c:	03c71863          	bne	a4,t3,1f5bc <__subtf3+0xbb0>
   1f590:	04079063          	bnez	a5,1f5d0 <__subtf3+0xbc4>
   1f594:	00300593          	li	a1,3
   1f598:	40e58733          	sub	a4,a1,a4
   1f59c:	00d885b3          	add	a1,a7,a3
   1f5a0:	0005a583          	lw	a1,0(a1)
   1f5a4:	00178793          	addi	a5,a5,1
   1f5a8:	00488893          	addi	a7,a7,4
   1f5ac:	feb8ae23          	sw	a1,-4(a7)
   1f5b0:	fef756e3          	ble	a5,a4,1f59c <__subtf3+0xb90>
   1f5b4:	00400693          	li	a3,4
   1f5b8:	0a80006f          	j	1f660 <__subtf3+0xc54>
   1f5bc:	00d306b3          	add	a3,t1,a3
   1f5c0:	0006a683          	lw	a3,0(a3)
   1f5c4:	00170713          	addi	a4,a4,1 # 80001 <_end+0x59b21>
   1f5c8:	00d66633          	or	a2,a2,a3
   1f5cc:	fbdff06f          	j	1f588 <__subtf3+0xb7c>
   1f5d0:	04010713          	addi	a4,sp,64
   1f5d4:	00d70733          	add	a4,a4,a3
   1f5d8:	fe072703          	lw	a4,-32(a4)
   1f5dc:	02000813          	li	a6,32
   1f5e0:	40f80833          	sub	a6,a6,a5
   1f5e4:	01071733          	sll	a4,a4,a6
   1f5e8:	00e66633          	or	a2,a2,a4
   1f5ec:	00300713          	li	a4,3
   1f5f0:	00d306b3          	add	a3,t1,a3
   1f5f4:	00000513          	li	a0,0
   1f5f8:	41c70733          	sub	a4,a4,t3
   1f5fc:	00468693          	addi	a3,a3,4
   1f600:	02e54463          	blt	a0,a4,1f628 <__subtf3+0xc1c>
   1f604:	04010693          	addi	a3,sp,64
   1f608:	00271713          	slli	a4,a4,0x2
   1f60c:	00e68733          	add	a4,a3,a4
   1f610:	02c12683          	lw	a3,44(sp)
   1f614:	00f6d7b3          	srl	a5,a3,a5
   1f618:	fef72023          	sw	a5,-32(a4)
   1f61c:	00400793          	li	a5,4
   1f620:	41c787b3          	sub	a5,a5,t3
   1f624:	f91ff06f          	j	1f5b4 <__subtf3+0xba8>
   1f628:	ffc6a583          	lw	a1,-4(a3)
   1f62c:	0006ae83          	lw	t4,0(a3)
   1f630:	00251893          	slli	a7,a0,0x2
   1f634:	00f5d5b3          	srl	a1,a1,a5
   1f638:	010e9eb3          	sll	t4,t4,a6
   1f63c:	011308b3          	add	a7,t1,a7
   1f640:	01d5e5b3          	or	a1,a1,t4
   1f644:	00b8a023          	sw	a1,0(a7)
   1f648:	00150513          	addi	a0,a0,1
   1f64c:	fb1ff06f          	j	1f5fc <__subtf3+0xbf0>
   1f650:	00279713          	slli	a4,a5,0x2
   1f654:	00e30733          	add	a4,t1,a4
   1f658:	00072023          	sw	zero,0(a4)
   1f65c:	00178793          	addi	a5,a5,1
   1f660:	fed798e3          	bne	a5,a3,1f650 <__subtf3+0xc44>
   1f664:	02012783          	lw	a5,32(sp)
   1f668:	00c03633          	snez	a2,a2
   1f66c:	00c7e633          	or	a2,a5,a2
   1f670:	02c12023          	sw	a2,32(sp)
   1f674:	01412683          	lw	a3,20(sp)
   1f678:	01012583          	lw	a1,16(sp)
   1f67c:	02012703          	lw	a4,32(sp)
   1f680:	02412783          	lw	a5,36(sp)
   1f684:	40e58733          	sub	a4,a1,a4
   1f688:	40f687b3          	sub	a5,a3,a5
   1f68c:	00f6b633          	sltu	a2,a3,a5
   1f690:	00e5b6b3          	sltu	a3,a1,a4
   1f694:	40d786b3          	sub	a3,a5,a3
   1f698:	02d12a23          	sw	a3,52(sp)
   1f69c:	02e12823          	sw	a4,48(sp)
   1f6a0:	00000693          	li	a3,0
   1f6a4:	00e5f463          	bleu	a4,a1,1f6ac <__subtf3+0xca0>
   1f6a8:	0017b693          	seqz	a3,a5
   1f6ac:	00c6e6b3          	or	a3,a3,a2
   1f6b0:	02812703          	lw	a4,40(sp)
   1f6b4:	01812603          	lw	a2,24(sp)
   1f6b8:	40e60733          	sub	a4,a2,a4
   1f6bc:	40d707b3          	sub	a5,a4,a3
   1f6c0:	02f12c23          	sw	a5,56(sp)
   1f6c4:	00e635b3          	sltu	a1,a2,a4
   1f6c8:	00000613          	li	a2,0
   1f6cc:	00068463          	beqz	a3,1f6d4 <__subtf3+0xcc8>
   1f6d0:	00173613          	seqz	a2,a4
   1f6d4:	01c12783          	lw	a5,28(sp)
   1f6d8:	02c12703          	lw	a4,44(sp)
   1f6dc:	00b66633          	or	a2,a2,a1
   1f6e0:	40e787b3          	sub	a5,a5,a4
   1f6e4:	40c787b3          	sub	a5,a5,a2
   1f6e8:	02f12e23          	sw	a5,60(sp)
   1f6ec:	03c12783          	lw	a5,60(sp)
   1f6f0:	00c79713          	slli	a4,a5,0xc
   1f6f4:	fa075863          	bgez	a4,1eea4 <__subtf3+0x498>
   1f6f8:	00080737          	lui	a4,0x80
   1f6fc:	fff70713          	addi	a4,a4,-1 # 7ffff <_end+0x59b1f>
   1f700:	00e7f7b3          	and	a5,a5,a4
   1f704:	02f12e23          	sw	a5,60(sp)
   1f708:	59c0006f          	j	1fca4 <__subtf3+0x1298>
   1f70c:	2c050e63          	beqz	a0,1f9e8 <__subtf3+0xfdc>
   1f710:	408606b3          	sub	a3,a2,s0
   1f714:	0e041663          	bnez	s0,1f800 <__subtf3+0xdf4>
   1f718:	01412303          	lw	t1,20(sp)
   1f71c:	01812883          	lw	a7,24(sp)
   1f720:	01c12f03          	lw	t5,28(sp)
   1f724:	01136eb3          	or	t4,t1,a7
   1f728:	01eeeeb3          	or	t4,t4,t5
   1f72c:	00eeeeb3          	or	t4,t4,a4
   1f730:	020e9663          	bnez	t4,1f75c <__subtf3+0xd50>
   1f734:	02f12823          	sw	a5,48(sp)
   1f738:	02412783          	lw	a5,36(sp)
   1f73c:	00068413          	mv	s0,a3
   1f740:	02f12a23          	sw	a5,52(sp)
   1f744:	02812783          	lw	a5,40(sp)
   1f748:	02f12c23          	sw	a5,56(sp)
   1f74c:	02c12783          	lw	a5,44(sp)
   1f750:	02f12e23          	sw	a5,60(sp)
   1f754:	00080913          	mv	s2,a6
   1f758:	f4cff06f          	j	1eea4 <__subtf3+0x498>
   1f75c:	fff68513          	addi	a0,a3,-1
   1f760:	06051a63          	bnez	a0,1f7d4 <__subtf3+0xdc8>
   1f764:	02412583          	lw	a1,36(sp)
   1f768:	40e78733          	sub	a4,a5,a4
   1f76c:	00e7b6b3          	sltu	a3,a5,a4
   1f770:	40658633          	sub	a2,a1,t1
   1f774:	00c5be33          	sltu	t3,a1,a2
   1f778:	40d60633          	sub	a2,a2,a3
   1f77c:	02e12823          	sw	a4,48(sp)
   1f780:	02c12a23          	sw	a2,52(sp)
   1f784:	00000693          	li	a3,0
   1f788:	00e7f663          	bleu	a4,a5,1f794 <__subtf3+0xd88>
   1f78c:	40b306b3          	sub	a3,t1,a1
   1f790:	0016b693          	seqz	a3,a3
   1f794:	02812583          	lw	a1,40(sp)
   1f798:	01c6e733          	or	a4,a3,t3
   1f79c:	411586b3          	sub	a3,a1,a7
   1f7a0:	00d5b633          	sltu	a2,a1,a3
   1f7a4:	40e686b3          	sub	a3,a3,a4
   1f7a8:	02d12c23          	sw	a3,56(sp)
   1f7ac:	00070663          	beqz	a4,1f7b8 <__subtf3+0xdac>
   1f7b0:	40b888b3          	sub	a7,a7,a1
   1f7b4:	0018b513          	seqz	a0,a7
   1f7b8:	02c12783          	lw	a5,44(sp)
   1f7bc:	00c56533          	or	a0,a0,a2
   1f7c0:	00080913          	mv	s2,a6
   1f7c4:	41e787b3          	sub	a5,a5,t5
   1f7c8:	40a78533          	sub	a0,a5,a0
   1f7cc:	02a12e23          	sw	a0,60(sp)
   1f7d0:	d4dff06f          	j	1f51c <__subtf3+0xb10>
   1f7d4:	00008737          	lui	a4,0x8
   1f7d8:	fff70713          	addi	a4,a4,-1 # 7fff <_start-0x8001>
   1f7dc:	f4e68ce3          	beq	a3,a4,1f734 <__subtf3+0xd28>
   1f7e0:	07400793          	li	a5,116
   1f7e4:	0aa7dc63          	ble	a0,a5,1f89c <__subtf3+0xe90>
   1f7e8:	00100793          	li	a5,1
   1f7ec:	00012e23          	sw	zero,28(sp)
   1f7f0:	00012c23          	sw	zero,24(sp)
   1f7f4:	00012a23          	sw	zero,20(sp)
   1f7f8:	00f12823          	sw	a5,16(sp)
   1f7fc:	1680006f          	j	1f964 <__subtf3+0xf58>
   1f800:	00008737          	lui	a4,0x8
   1f804:	fff70713          	addi	a4,a4,-1 # 7fff <_start-0x8001>
   1f808:	02e61463          	bne	a2,a4,1f830 <__subtf3+0xe24>
   1f80c:	02f12823          	sw	a5,48(sp)
   1f810:	02412783          	lw	a5,36(sp)
   1f814:	00060413          	mv	s0,a2
   1f818:	02f12a23          	sw	a5,52(sp)
   1f81c:	02812783          	lw	a5,40(sp)
   1f820:	02f12c23          	sw	a5,56(sp)
   1f824:	02c12783          	lw	a5,44(sp)
   1f828:	02f12e23          	sw	a5,60(sp)
   1f82c:	f29ff06f          	j	1f754 <__subtf3+0xd48>
   1f830:	01c12783          	lw	a5,28(sp)
   1f834:	00080737          	lui	a4,0x80
   1f838:	00e7e7b3          	or	a5,a5,a4
   1f83c:	00f12e23          	sw	a5,28(sp)
   1f840:	07400793          	li	a5,116
   1f844:	fad7c2e3          	blt	a5,a3,1f7e8 <__subtf3+0xddc>
   1f848:	02000793          	li	a5,32
   1f84c:	02f6c533          	div	a0,a3,a5
   1f850:	00000713          	li	a4,0
   1f854:	02f6e7b3          	rem	a5,a3,a5
   1f858:	00000693          	li	a3,0
   1f85c:	04a74463          	blt	a4,a0,1f8a4 <__subtf3+0xe98>
   1f860:	00050893          	mv	a7,a0
   1f864:	00055463          	bgez	a0,1f86c <__subtf3+0xe60>
   1f868:	00000893          	li	a7,0
   1f86c:	00251713          	slli	a4,a0,0x2
   1f870:	04079663          	bnez	a5,1f8bc <__subtf3+0xeb0>
   1f874:	00300893          	li	a7,3
   1f878:	40a88533          	sub	a0,a7,a0
   1f87c:	00e588b3          	add	a7,a1,a4
   1f880:	0008a883          	lw	a7,0(a7)
   1f884:	00178793          	addi	a5,a5,1
   1f888:	00458593          	addi	a1,a1,4
   1f88c:	ff15ae23          	sw	a7,-4(a1)
   1f890:	fef556e3          	ble	a5,a0,1f87c <__subtf3+0xe70>
   1f894:	00300593          	li	a1,3
   1f898:	0b80006f          	j	1f950 <__subtf3+0xf44>
   1f89c:	00050693          	mv	a3,a0
   1f8a0:	fa9ff06f          	j	1f848 <__subtf3+0xe3c>
   1f8a4:	00271893          	slli	a7,a4,0x2
   1f8a8:	011e08b3          	add	a7,t3,a7
   1f8ac:	0008a883          	lw	a7,0(a7)
   1f8b0:	00170713          	addi	a4,a4,1 # 80001 <_end+0x59b21>
   1f8b4:	0116e6b3          	or	a3,a3,a7
   1f8b8:	fa5ff06f          	j	1f85c <__subtf3+0xe50>
   1f8bc:	04010593          	addi	a1,sp,64
   1f8c0:	00289893          	slli	a7,a7,0x2
   1f8c4:	011588b3          	add	a7,a1,a7
   1f8c8:	fd08a583          	lw	a1,-48(a7)
   1f8cc:	02000e93          	li	t4,32
   1f8d0:	40fe8eb3          	sub	t4,t4,a5
   1f8d4:	01d595b3          	sll	a1,a1,t4
   1f8d8:	00b6e6b3          	or	a3,a3,a1
   1f8dc:	00ee05b3          	add	a1,t3,a4
   1f8e0:	00300713          	li	a4,3
   1f8e4:	00000313          	li	t1,0
   1f8e8:	40a70733          	sub	a4,a4,a0
   1f8ec:	00458593          	addi	a1,a1,4
   1f8f0:	02e34463          	blt	t1,a4,1f918 <__subtf3+0xf0c>
   1f8f4:	04010593          	addi	a1,sp,64
   1f8f8:	00271713          	slli	a4,a4,0x2
   1f8fc:	00e58733          	add	a4,a1,a4
   1f900:	01c12583          	lw	a1,28(sp)
   1f904:	00f5d7b3          	srl	a5,a1,a5
   1f908:	fcf72823          	sw	a5,-48(a4)
   1f90c:	00400793          	li	a5,4
   1f910:	40a787b3          	sub	a5,a5,a0
   1f914:	f81ff06f          	j	1f894 <__subtf3+0xe88>
   1f918:	ffc5a883          	lw	a7,-4(a1)
   1f91c:	0005af83          	lw	t6,0(a1)
   1f920:	00231f13          	slli	t5,t1,0x2
   1f924:	00f8d8b3          	srl	a7,a7,a5
   1f928:	01df9fb3          	sll	t6,t6,t4
   1f92c:	01ee0f33          	add	t5,t3,t5
   1f930:	01f8e8b3          	or	a7,a7,t6
   1f934:	011f2023          	sw	a7,0(t5)
   1f938:	00130313          	addi	t1,t1,1
   1f93c:	fb1ff06f          	j	1f8ec <__subtf3+0xee0>
   1f940:	00279713          	slli	a4,a5,0x2
   1f944:	00ee0733          	add	a4,t3,a4
   1f948:	00072023          	sw	zero,0(a4)
   1f94c:	00178793          	addi	a5,a5,1
   1f950:	fef5d8e3          	ble	a5,a1,1f940 <__subtf3+0xf34>
   1f954:	01012783          	lw	a5,16(sp)
   1f958:	00d036b3          	snez	a3,a3
   1f95c:	00d7e6b3          	or	a3,a5,a3
   1f960:	00d12823          	sw	a3,16(sp)
   1f964:	02412683          	lw	a3,36(sp)
   1f968:	02012503          	lw	a0,32(sp)
   1f96c:	01012703          	lw	a4,16(sp)
   1f970:	01412783          	lw	a5,20(sp)
   1f974:	40e50733          	sub	a4,a0,a4
   1f978:	40f687b3          	sub	a5,a3,a5
   1f97c:	00f6b5b3          	sltu	a1,a3,a5
   1f980:	00e536b3          	sltu	a3,a0,a4
   1f984:	40d786b3          	sub	a3,a5,a3
   1f988:	02d12a23          	sw	a3,52(sp)
   1f98c:	02e12823          	sw	a4,48(sp)
   1f990:	00000693          	li	a3,0
   1f994:	00e57463          	bleu	a4,a0,1f99c <__subtf3+0xf90>
   1f998:	0017b693          	seqz	a3,a5
   1f99c:	00b6e6b3          	or	a3,a3,a1
   1f9a0:	01812703          	lw	a4,24(sp)
   1f9a4:	02812583          	lw	a1,40(sp)
   1f9a8:	40e58733          	sub	a4,a1,a4
   1f9ac:	40d707b3          	sub	a5,a4,a3
   1f9b0:	02f12c23          	sw	a5,56(sp)
   1f9b4:	00e5b533          	sltu	a0,a1,a4
   1f9b8:	00000593          	li	a1,0
   1f9bc:	00068463          	beqz	a3,1f9c4 <__subtf3+0xfb8>
   1f9c0:	00173593          	seqz	a1,a4
   1f9c4:	02c12783          	lw	a5,44(sp)
   1f9c8:	01c12703          	lw	a4,28(sp)
   1f9cc:	00a5e5b3          	or	a1,a1,a0
   1f9d0:	00060413          	mv	s0,a2
   1f9d4:	40e787b3          	sub	a5,a5,a4
   1f9d8:	40b787b3          	sub	a5,a5,a1
   1f9dc:	02f12e23          	sw	a5,60(sp)
   1f9e0:	00080913          	mv	s2,a6
   1f9e4:	d09ff06f          	j	1f6ec <__subtf3+0xce0>
   1f9e8:	00008fb7          	lui	t6,0x8
   1f9ec:	ffef8693          	addi	a3,t6,-2 # 7ffe <_start-0x8002>
   1f9f0:	00140593          	addi	a1,s0,1
   1f9f4:	00d5f5b3          	and	a1,a1,a3
   1f9f8:	02412603          	lw	a2,36(sp)
   1f9fc:	01412683          	lw	a3,20(sp)
   1fa00:	01812883          	lw	a7,24(sp)
   1fa04:	01c12e83          	lw	t4,28(sp)
   1fa08:	02812303          	lw	t1,40(sp)
   1fa0c:	02c12e03          	lw	t3,44(sp)
   1fa10:	1c059c63          	bnez	a1,1fbe8 <__subtf3+0x11dc>
   1fa14:	006665b3          	or	a1,a2,t1
   1fa18:	0116ef33          	or	t5,a3,a7
   1fa1c:	01c5e5b3          	or	a1,a1,t3
   1fa20:	01df6f33          	or	t5,t5,t4
   1fa24:	00f5e5b3          	or	a1,a1,a5
   1fa28:	00ef6f33          	or	t5,t5,a4
   1fa2c:	10041863          	bnez	s0,1fb3c <__subtf3+0x1130>
   1fa30:	020f1463          	bnez	t5,1fa58 <__subtf3+0x104c>
   1fa34:	02f12823          	sw	a5,48(sp)
   1fa38:	02c12a23          	sw	a2,52(sp)
   1fa3c:	02612c23          	sw	t1,56(sp)
   1fa40:	03c12e23          	sw	t3,60(sp)
   1fa44:	00080913          	mv	s2,a6
   1fa48:	c4059e63          	bnez	a1,1eea4 <__subtf3+0x498>
   1fa4c:	00000413          	li	s0,0
   1fa50:	00000913          	li	s2,0
   1fa54:	c50ff06f          	j	1eea4 <__subtf3+0x498>
   1fa58:	00059c63          	bnez	a1,1fa70 <__subtf3+0x1064>
   1fa5c:	02e12823          	sw	a4,48(sp)
   1fa60:	02d12a23          	sw	a3,52(sp)
   1fa64:	03112c23          	sw	a7,56(sp)
   1fa68:	03d12e23          	sw	t4,60(sp)
   1fa6c:	c38ff06f          	j	1eea4 <__subtf3+0x498>
   1fa70:	40f705b3          	sub	a1,a4,a5
   1fa74:	40c682b3          	sub	t0,a3,a2
   1fa78:	00b73fb3          	sltu	t6,a4,a1
   1fa7c:	0056bf33          	sltu	t5,a3,t0
   1fa80:	41f282b3          	sub	t0,t0,t6
   1fa84:	02b12823          	sw	a1,48(sp)
   1fa88:	02512a23          	sw	t0,52(sp)
   1fa8c:	00000f93          	li	t6,0
   1fa90:	00b77663          	bleu	a1,a4,1fa9c <__subtf3+0x1090>
   1fa94:	40d60fb3          	sub	t6,a2,a3
   1fa98:	001fbf93          	seqz	t6,t6
   1fa9c:	406883b3          	sub	t2,a7,t1
   1faa0:	01efefb3          	or	t6,t6,t5
   1faa4:	41f38a33          	sub	s4,t2,t6
   1faa8:	03412c23          	sw	s4,56(sp)
   1faac:	0078bab3          	sltu	s5,a7,t2
   1fab0:	00000993          	li	s3,0
   1fab4:	000f8463          	beqz	t6,1fabc <__subtf3+0x10b0>
   1fab8:	0013b993          	seqz	s3,t2
   1fabc:	41ce8f33          	sub	t5,t4,t3
   1fac0:	0159e9b3          	or	s3,s3,s5
   1fac4:	413f0f33          	sub	t5,t5,s3
   1fac8:	03e12e23          	sw	t5,60(sp)
   1facc:	00cf1f93          	slli	t6,t5,0xc
   1fad0:	040fde63          	bgez	t6,1fb2c <__subtf3+0x1120>
   1fad4:	40e78733          	sub	a4,a5,a4
   1fad8:	40d606b3          	sub	a3,a2,a3
   1fadc:	00e7b5b3          	sltu	a1,a5,a4
   1fae0:	40b685b3          	sub	a1,a3,a1
   1fae4:	02b12a23          	sw	a1,52(sp)
   1fae8:	02e12823          	sw	a4,48(sp)
   1faec:	00d63633          	sltu	a2,a2,a3
   1faf0:	00000593          	li	a1,0
   1faf4:	00e7f463          	bleu	a4,a5,1fafc <__subtf3+0x10f0>
   1faf8:	0016b593          	seqz	a1,a3
   1fafc:	41130733          	sub	a4,t1,a7
   1fb00:	00c5e633          	or	a2,a1,a2
   1fb04:	00e337b3          	sltu	a5,t1,a4
   1fb08:	40c70733          	sub	a4,a4,a2
   1fb0c:	02e12c23          	sw	a4,56(sp)
   1fb10:	00060463          	beqz	a2,1fb18 <__subtf3+0x110c>
   1fb14:	0013b513          	seqz	a0,t2
   1fb18:	41de0733          	sub	a4,t3,t4
   1fb1c:	00f567b3          	or	a5,a0,a5
   1fb20:	40f70e33          	sub	t3,a4,a5
   1fb24:	03c12e23          	sw	t3,60(sp)
   1fb28:	c2dff06f          	j	1f754 <__subtf3+0xd48>
   1fb2c:	0055e5b3          	or	a1,a1,t0
   1fb30:	0145e5b3          	or	a1,a1,s4
   1fb34:	01e5e5b3          	or	a1,a1,t5
   1fb38:	f11ff06f          	j	1fa48 <__subtf3+0x103c>
   1fb3c:	03010513          	addi	a0,sp,48
   1fb40:	040f1c63          	bnez	t5,1fb98 <__subtf3+0x118c>
   1fb44:	02059e63          	bnez	a1,1fb80 <__subtf3+0x1174>
   1fb48:	03f12e23          	sw	t6,60(sp)
   1fb4c:	02012c23          	sw	zero,56(sp)
   1fb50:	02012a23          	sw	zero,52(sp)
   1fb54:	02012823          	sw	zero,48(sp)
   1fb58:	03c10793          	addi	a5,sp,60
   1fb5c:	0007a703          	lw	a4,0(a5)
   1fb60:	ffc7a683          	lw	a3,-4(a5)
   1fb64:	ffc78793          	addi	a5,a5,-4
   1fb68:	00371713          	slli	a4,a4,0x3
   1fb6c:	01d6d693          	srli	a3,a3,0x1d
   1fb70:	00d76733          	or	a4,a4,a3
   1fb74:	00e7a223          	sw	a4,4(a5)
   1fb78:	fef512e3          	bne	a0,a5,1fb5c <__subtf3+0x1150>
   1fb7c:	851ff06f          	j	1f3cc <__subtf3+0x9c0>
   1fb80:	02f12823          	sw	a5,48(sp)
   1fb84:	02c12a23          	sw	a2,52(sp)
   1fb88:	02612c23          	sw	t1,56(sp)
   1fb8c:	03c12e23          	sw	t3,60(sp)
   1fb90:	00080913          	mv	s2,a6
   1fb94:	fd8ff06f          	j	1f36c <__subtf3+0x960>
   1fb98:	00059c63          	bnez	a1,1fbb0 <__subtf3+0x11a4>
   1fb9c:	02e12823          	sw	a4,48(sp)
   1fba0:	02d12a23          	sw	a3,52(sp)
   1fba4:	03112c23          	sw	a7,56(sp)
   1fba8:	03d12e23          	sw	t4,60(sp)
   1fbac:	fc0ff06f          	j	1f36c <__subtf3+0x960>
   1fbb0:	03f12e23          	sw	t6,60(sp)
   1fbb4:	02012c23          	sw	zero,56(sp)
   1fbb8:	02012a23          	sw	zero,52(sp)
   1fbbc:	02012823          	sw	zero,48(sp)
   1fbc0:	03c10793          	addi	a5,sp,60
   1fbc4:	0007a703          	lw	a4,0(a5)
   1fbc8:	ffc7a683          	lw	a3,-4(a5)
   1fbcc:	ffc78793          	addi	a5,a5,-4
   1fbd0:	00371713          	slli	a4,a4,0x3
   1fbd4:	01d6d693          	srli	a3,a3,0x1d
   1fbd8:	00d76733          	or	a4,a4,a3
   1fbdc:	00e7a223          	sw	a4,4(a5)
   1fbe0:	fef512e3          	bne	a0,a5,1fbc4 <__subtf3+0x11b8>
   1fbe4:	fe8ff06f          	j	1f3cc <__subtf3+0x9c0>
   1fbe8:	40f705b3          	sub	a1,a4,a5
   1fbec:	40c682b3          	sub	t0,a3,a2
   1fbf0:	00b73fb3          	sltu	t6,a4,a1
   1fbf4:	0056bf33          	sltu	t5,a3,t0
   1fbf8:	41f282b3          	sub	t0,t0,t6
   1fbfc:	02b12823          	sw	a1,48(sp)
   1fc00:	02512a23          	sw	t0,52(sp)
   1fc04:	00000f93          	li	t6,0
   1fc08:	00b77663          	bleu	a1,a4,1fc14 <__subtf3+0x1208>
   1fc0c:	40d60fb3          	sub	t6,a2,a3
   1fc10:	001fbf93          	seqz	t6,t6
   1fc14:	406883b3          	sub	t2,a7,t1
   1fc18:	01efefb3          	or	t6,t6,t5
   1fc1c:	41f38a33          	sub	s4,t2,t6
   1fc20:	03412c23          	sw	s4,56(sp)
   1fc24:	0078bab3          	sltu	s5,a7,t2
   1fc28:	00000993          	li	s3,0
   1fc2c:	000f8463          	beqz	t6,1fc34 <__subtf3+0x1228>
   1fc30:	0013b993          	seqz	s3,t2
   1fc34:	41ce8f33          	sub	t5,t4,t3
   1fc38:	0159e9b3          	or	s3,s3,s5
   1fc3c:	413f0f33          	sub	t5,t5,s3
   1fc40:	03e12e23          	sw	t5,60(sp)
   1fc44:	00cf1f93          	slli	t6,t5,0xc
   1fc48:	0a0fde63          	bgez	t6,1fd04 <__subtf3+0x12f8>
   1fc4c:	40e78733          	sub	a4,a5,a4
   1fc50:	40d606b3          	sub	a3,a2,a3
   1fc54:	00e7b5b3          	sltu	a1,a5,a4
   1fc58:	40b685b3          	sub	a1,a3,a1
   1fc5c:	02b12a23          	sw	a1,52(sp)
   1fc60:	02e12823          	sw	a4,48(sp)
   1fc64:	00d63633          	sltu	a2,a2,a3
   1fc68:	00000593          	li	a1,0
   1fc6c:	00e7f463          	bleu	a4,a5,1fc74 <__subtf3+0x1268>
   1fc70:	0016b593          	seqz	a1,a3
   1fc74:	41130733          	sub	a4,t1,a7
   1fc78:	00c5e633          	or	a2,a1,a2
   1fc7c:	00e336b3          	sltu	a3,t1,a4
   1fc80:	40c70733          	sub	a4,a4,a2
   1fc84:	02e12c23          	sw	a4,56(sp)
   1fc88:	00060463          	beqz	a2,1fc90 <__subtf3+0x1284>
   1fc8c:	0013b513          	seqz	a0,t2
   1fc90:	41de0733          	sub	a4,t3,t4
   1fc94:	00d567b3          	or	a5,a0,a3
   1fc98:	40f707b3          	sub	a5,a4,a5
   1fc9c:	02f12e23          	sw	a5,60(sp)
   1fca0:	00080913          	mv	s2,a6
   1fca4:	03c12503          	lw	a0,60(sp)
   1fca8:	06050863          	beqz	a0,1fd18 <__subtf3+0x130c>
   1fcac:	295000ef          	jal	ra,20740 <__clzsi2>
   1fcb0:	ff450513          	addi	a0,a0,-12
   1fcb4:	02000693          	li	a3,32
   1fcb8:	02d56833          	rem	a6,a0,a3
   1fcbc:	02d547b3          	div	a5,a0,a3
   1fcc0:	08080863          	beqz	a6,1fd50 <__subtf3+0x1344>
   1fcc4:	ffc00713          	li	a4,-4
   1fcc8:	03010313          	addi	t1,sp,48
   1fccc:	00279593          	slli	a1,a5,0x2
   1fcd0:	410686b3          	sub	a3,a3,a6
   1fcd4:	02e78733          	mul	a4,a5,a4
   1fcd8:	00c70713          	addi	a4,a4,12
   1fcdc:	00e30733          	add	a4,t1,a4
   1fce0:	0ae31063          	bne	t1,a4,1fd80 <__subtf3+0x1374>
   1fce4:	04010713          	addi	a4,sp,64
   1fce8:	00b705b3          	add	a1,a4,a1
   1fcec:	03012703          	lw	a4,48(sp)
   1fcf0:	fff78793          	addi	a5,a5,-1
   1fcf4:	01071833          	sll	a6,a4,a6
   1fcf8:	ff05a823          	sw	a6,-16(a1)
   1fcfc:	fff00693          	li	a3,-1
   1fd00:	0b80006f          	j	1fdb8 <__subtf3+0x13ac>
   1fd04:	0055e5b3          	or	a1,a1,t0
   1fd08:	0145e5b3          	or	a1,a1,s4
   1fd0c:	01e5e5b3          	or	a1,a1,t5
   1fd10:	d2058ee3          	beqz	a1,1fa4c <__subtf3+0x1040>
   1fd14:	f91ff06f          	j	1fca4 <__subtf3+0x1298>
   1fd18:	03812503          	lw	a0,56(sp)
   1fd1c:	00050863          	beqz	a0,1fd2c <__subtf3+0x1320>
   1fd20:	221000ef          	jal	ra,20740 <__clzsi2>
   1fd24:	02050513          	addi	a0,a0,32
   1fd28:	f89ff06f          	j	1fcb0 <__subtf3+0x12a4>
   1fd2c:	03412503          	lw	a0,52(sp)
   1fd30:	00050863          	beqz	a0,1fd40 <__subtf3+0x1334>
   1fd34:	20d000ef          	jal	ra,20740 <__clzsi2>
   1fd38:	04050513          	addi	a0,a0,64
   1fd3c:	f75ff06f          	j	1fcb0 <__subtf3+0x12a4>
   1fd40:	03012503          	lw	a0,48(sp)
   1fd44:	1fd000ef          	jal	ra,20740 <__clzsi2>
   1fd48:	06050513          	addi	a0,a0,96
   1fd4c:	f65ff06f          	j	1fcb0 <__subtf3+0x12a4>
   1fd50:	ffc00613          	li	a2,-4
   1fd54:	02c78633          	mul	a2,a5,a2
   1fd58:	03c10713          	addi	a4,sp,60
   1fd5c:	00300693          	li	a3,3
   1fd60:	00c705b3          	add	a1,a4,a2
   1fd64:	0005a583          	lw	a1,0(a1)
   1fd68:	fff68693          	addi	a3,a3,-1
   1fd6c:	ffc70713          	addi	a4,a4,-4
   1fd70:	00b72223          	sw	a1,4(a4)
   1fd74:	fef6d6e3          	ble	a5,a3,1fd60 <__subtf3+0x1354>
   1fd78:	fff78793          	addi	a5,a5,-1
   1fd7c:	f81ff06f          	j	1fcfc <__subtf3+0x12f0>
   1fd80:	ffc72603          	lw	a2,-4(a4)
   1fd84:	00072883          	lw	a7,0(a4)
   1fd88:	00b70e33          	add	t3,a4,a1
   1fd8c:	00d65633          	srl	a2,a2,a3
   1fd90:	010898b3          	sll	a7,a7,a6
   1fd94:	01166633          	or	a2,a2,a7
   1fd98:	00ce2023          	sw	a2,0(t3)
   1fd9c:	ffc70713          	addi	a4,a4,-4
   1fda0:	f41ff06f          	j	1fce0 <__subtf3+0x12d4>
   1fda4:	00279713          	slli	a4,a5,0x2
   1fda8:	03010613          	addi	a2,sp,48
   1fdac:	00e60733          	add	a4,a2,a4
   1fdb0:	00072023          	sw	zero,0(a4)
   1fdb4:	fff78793          	addi	a5,a5,-1
   1fdb8:	fed796e3          	bne	a5,a3,1fda4 <__subtf3+0x1398>
   1fdbc:	12854e63          	blt	a0,s0,1fef8 <__subtf3+0x14ec>
   1fdc0:	40850433          	sub	s0,a0,s0
   1fdc4:	00140413          	addi	s0,s0,1
   1fdc8:	02000793          	li	a5,32
   1fdcc:	02f44833          	div	a6,s0,a5
   1fdd0:	00000513          	li	a0,0
   1fdd4:	00000713          	li	a4,0
   1fdd8:	02f46433          	rem	s0,s0,a5
   1fddc:	05074263          	blt	a4,a6,1fe20 <__subtf3+0x1414>
   1fde0:	00080693          	mv	a3,a6
   1fde4:	00085463          	bgez	a6,1fdec <__subtf3+0x13e0>
   1fde8:	00000693          	li	a3,0
   1fdec:	00281713          	slli	a4,a6,0x2
   1fdf0:	04041663          	bnez	s0,1fe3c <__subtf3+0x1430>
   1fdf4:	00300793          	li	a5,3
   1fdf8:	03010693          	addi	a3,sp,48
   1fdfc:	41078833          	sub	a6,a5,a6
   1fe00:	00e687b3          	add	a5,a3,a4
   1fe04:	0007a783          	lw	a5,0(a5)
   1fe08:	00140413          	addi	s0,s0,1
   1fe0c:	00468693          	addi	a3,a3,4
   1fe10:	fef6ae23          	sw	a5,-4(a3)
   1fe14:	fe8856e3          	ble	s0,a6,1fe00 <__subtf3+0x13f4>
   1fe18:	00300713          	li	a4,3
   1fe1c:	0c00006f          	j	1fedc <__subtf3+0x14d0>
   1fe20:	00271793          	slli	a5,a4,0x2
   1fe24:	03010693          	addi	a3,sp,48
   1fe28:	00f687b3          	add	a5,a3,a5
   1fe2c:	0007a783          	lw	a5,0(a5)
   1fe30:	00170713          	addi	a4,a4,1
   1fe34:	00f56533          	or	a0,a0,a5
   1fe38:	fa5ff06f          	j	1fddc <__subtf3+0x13d0>
   1fe3c:	04010793          	addi	a5,sp,64
   1fe40:	00269693          	slli	a3,a3,0x2
   1fe44:	00d786b3          	add	a3,a5,a3
   1fe48:	ff06a783          	lw	a5,-16(a3)
   1fe4c:	02000593          	li	a1,32
   1fe50:	408585b3          	sub	a1,a1,s0
   1fe54:	00b797b3          	sll	a5,a5,a1
   1fe58:	00f56533          	or	a0,a0,a5
   1fe5c:	03010793          	addi	a5,sp,48
   1fe60:	00e78733          	add	a4,a5,a4
   1fe64:	00300793          	li	a5,3
   1fe68:	00000613          	li	a2,0
   1fe6c:	410787b3          	sub	a5,a5,a6
   1fe70:	00470713          	addi	a4,a4,4
   1fe74:	02f64463          	blt	a2,a5,1fe9c <__subtf3+0x1490>
   1fe78:	04010713          	addi	a4,sp,64
   1fe7c:	00279793          	slli	a5,a5,0x2
   1fe80:	00f707b3          	add	a5,a4,a5
   1fe84:	03c12703          	lw	a4,60(sp)
   1fe88:	00875433          	srl	s0,a4,s0
   1fe8c:	fe87a823          	sw	s0,-16(a5)
   1fe90:	00400413          	li	s0,4
   1fe94:	41040433          	sub	s0,s0,a6
   1fe98:	f81ff06f          	j	1fe18 <__subtf3+0x140c>
   1fe9c:	00261893          	slli	a7,a2,0x2
   1fea0:	03010693          	addi	a3,sp,48
   1fea4:	011688b3          	add	a7,a3,a7
   1fea8:	00072303          	lw	t1,0(a4)
   1feac:	ffc72683          	lw	a3,-4(a4)
   1feb0:	00160613          	addi	a2,a2,1
   1feb4:	00b31333          	sll	t1,t1,a1
   1feb8:	0086d6b3          	srl	a3,a3,s0
   1febc:	0066e6b3          	or	a3,a3,t1
   1fec0:	00d8a023          	sw	a3,0(a7)
   1fec4:	fadff06f          	j	1fe70 <__subtf3+0x1464>
   1fec8:	00241793          	slli	a5,s0,0x2
   1fecc:	03010693          	addi	a3,sp,48
   1fed0:	00f687b3          	add	a5,a3,a5
   1fed4:	0007a023          	sw	zero,0(a5)
   1fed8:	00140413          	addi	s0,s0,1
   1fedc:	fe8756e3          	ble	s0,a4,1fec8 <__subtf3+0x14bc>
   1fee0:	03012703          	lw	a4,48(sp)
   1fee4:	00a037b3          	snez	a5,a0
   1fee8:	00000413          	li	s0,0
   1feec:	00f767b3          	or	a5,a4,a5
   1fef0:	02f12823          	sw	a5,48(sp)
   1fef4:	fb1fe06f          	j	1eea4 <__subtf3+0x498>
   1fef8:	03c12783          	lw	a5,60(sp)
   1fefc:	fff80737          	lui	a4,0xfff80
   1ff00:	fff70713          	addi	a4,a4,-1 # fff7ffff <_end+0xfff59b1f>
   1ff04:	40a40433          	sub	s0,s0,a0
   1ff08:	00e7f7b3          	and	a5,a5,a4
   1ff0c:	d3dfe06f          	j	1ec48 <__subtf3+0x23c>
   1ff10:	02012e23          	sw	zero,60(sp)
   1ff14:	02012c23          	sw	zero,56(sp)
   1ff18:	02012a23          	sw	zero,52(sp)
   1ff1c:	02012823          	sw	zero,48(sp)
   1ff20:	804ff06f          	j	1ef24 <__subtf3+0x518>

0001ff24 <__fixtfsi>:
   1ff24:	00c52703          	lw	a4,12(a0)
   1ff28:	00852783          	lw	a5,8(a0)
   1ff2c:	00452683          	lw	a3,4(a0)
   1ff30:	00052603          	lw	a2,0(a0)
   1ff34:	fe010113          	addi	sp,sp,-32
   1ff38:	00f12423          	sw	a5,8(sp)
   1ff3c:	00e12623          	sw	a4,12(sp)
   1ff40:	00f12c23          	sw	a5,24(sp)
   1ff44:	01071593          	slli	a1,a4,0x10
   1ff48:	00171793          	slli	a5,a4,0x1
   1ff4c:	01f75813          	srli	a6,a4,0x1f
   1ff50:	00004737          	lui	a4,0x4
   1ff54:	00d12223          	sw	a3,4(sp)
   1ff58:	00d12a23          	sw	a3,20(sp)
   1ff5c:	00c12023          	sw	a2,0(sp)
   1ff60:	0117d693          	srli	a3,a5,0x11
   1ff64:	00c12823          	sw	a2,16(sp)
   1ff68:	ffe70793          	addi	a5,a4,-2 # 3ffe <_start-0xc002>
   1ff6c:	00000513          	li	a0,0
   1ff70:	00d7dc63          	ble	a3,a5,1ff88 <__fixtfsi+0x64>
   1ff74:	01d70793          	addi	a5,a4,29
   1ff78:	00d7dc63          	ble	a3,a5,1ff90 <__fixtfsi+0x6c>
   1ff7c:	80000537          	lui	a0,0x80000
   1ff80:	fff54513          	not	a0,a0
   1ff84:	00a80533          	add	a0,a6,a0
   1ff88:	02010113          	addi	sp,sp,32
   1ff8c:	00008067          	ret
   1ff90:	000107b7          	lui	a5,0x10
   1ff94:	0105d593          	srli	a1,a1,0x10
   1ff98:	00f5e5b3          	or	a1,a1,a5
   1ff9c:	06f70793          	addi	a5,a4,111
   1ffa0:	40d787b3          	sub	a5,a5,a3
   1ffa4:	4057d713          	srai	a4,a5,0x5
   1ffa8:	00b12e23          	sw	a1,28(sp)
   1ffac:	01f7f793          	andi	a5,a5,31
   1ffb0:	08079863          	bnez	a5,20040 <__fixtfsi+0x11c>
   1ffb4:	00271793          	slli	a5,a4,0x2
   1ffb8:	02010693          	addi	a3,sp,32
   1ffbc:	00f687b3          	add	a5,a3,a5
   1ffc0:	ff07a783          	lw	a5,-16(a5) # fff0 <_start-0x10>
   1ffc4:	00200613          	li	a2,2
   1ffc8:	00f12823          	sw	a5,16(sp)
   1ffcc:	00200793          	li	a5,2
   1ffd0:	00e78463          	beq	a5,a4,1ffd8 <__fixtfsi+0xb4>
   1ffd4:	00100613          	li	a2,1
   1ffd8:	00400713          	li	a4,4
   1ffdc:	00261793          	slli	a5,a2,0x2
   1ffe0:	01010693          	addi	a3,sp,16
   1ffe4:	00f687b3          	add	a5,a3,a5
   1ffe8:	0007a023          	sw	zero,0(a5)
   1ffec:	00160613          	addi	a2,a2,1
   1fff0:	fee616e3          	bne	a2,a4,1ffdc <__fixtfsi+0xb8>
   1fff4:	01012503          	lw	a0,16(sp)
   1fff8:	f80808e3          	beqz	a6,1ff88 <__fixtfsi+0x64>
   1fffc:	40a00533          	neg	a0,a0
   20000:	f89ff06f          	j	1ff88 <__fixtfsi+0x64>
   20004:	ff062683          	lw	a3,-16(a2)
   20008:	ff072303          	lw	t1,-16(a4)
   2000c:	011696b3          	sll	a3,a3,a7
   20010:	00f35333          	srl	t1,t1,a5
   20014:	0066e6b3          	or	a3,a3,t1
   20018:	00d12823          	sw	a3,16(sp)
   2001c:	00100693          	li	a3,1
   20020:	fea6c2e3          	blt	a3,a0,20004 <__fixtfsi+0xe0>
   20024:	00168613          	addi	a2,a3,1
   20028:	02010713          	addi	a4,sp,32
   2002c:	00269693          	slli	a3,a3,0x2
   20030:	00d706b3          	add	a3,a4,a3
   20034:	00f5d7b3          	srl	a5,a1,a5
   20038:	fef6a823          	sw	a5,-16(a3)
   2003c:	f9dff06f          	j	1ffd8 <__fixtfsi+0xb4>
   20040:	00170613          	addi	a2,a4,1
   20044:	02010893          	addi	a7,sp,32
   20048:	00300513          	li	a0,3
   2004c:	00261613          	slli	a2,a2,0x2
   20050:	40e50533          	sub	a0,a0,a4
   20054:	00c88633          	add	a2,a7,a2
   20058:	00271713          	slli	a4,a4,0x2
   2005c:	02000893          	li	a7,32
   20060:	02010313          	addi	t1,sp,32
   20064:	00000693          	li	a3,0
   20068:	40f888b3          	sub	a7,a7,a5
   2006c:	00e30733          	add	a4,t1,a4
   20070:	fb1ff06f          	j	20020 <__fixtfsi+0xfc>

00020074 <__floatsitf>:
   20074:	fd010113          	addi	sp,sp,-48
   20078:	02912223          	sw	s1,36(sp)
   2007c:	02112623          	sw	ra,44(sp)
   20080:	02812423          	sw	s0,40(sp)
   20084:	03212023          	sw	s2,32(sp)
   20088:	00050493          	mv	s1,a0
   2008c:	14058c63          	beqz	a1,201e4 <__floatsitf+0x170>
   20090:	00058413          	mv	s0,a1
   20094:	01f5d913          	srli	s2,a1,0x1f
   20098:	0005d463          	bgez	a1,200a0 <__floatsitf+0x2c>
   2009c:	40b00433          	neg	s0,a1
   200a0:	00040513          	mv	a0,s0
   200a4:	69c000ef          	jal	ra,20740 <__clzsi2>
   200a8:	00004737          	lui	a4,0x4
   200ac:	01e70713          	addi	a4,a4,30 # 401e <_start-0xbfe2>
   200b0:	40a70733          	sub	a4,a4,a0
   200b4:	05150513          	addi	a0,a0,81 # 80000051 <_end+0x7ffd9b71>
   200b8:	00812823          	sw	s0,16(sp)
   200bc:	00012a23          	sw	zero,20(sp)
   200c0:	00012c23          	sw	zero,24(sp)
   200c4:	00012e23          	sw	zero,28(sp)
   200c8:	01f57593          	andi	a1,a0,31
   200cc:	04058063          	beqz	a1,2010c <__floatsitf+0x98>
   200d0:	05f00793          	li	a5,95
   200d4:	00300693          	li	a3,3
   200d8:	00a7cc63          	blt	a5,a0,200f0 <__floatsitf+0x7c>
   200dc:	02000693          	li	a3,32
   200e0:	40b686b3          	sub	a3,a3,a1
   200e4:	00d456b3          	srl	a3,s0,a3
   200e8:	00d12e23          	sw	a3,28(sp)
   200ec:	00200693          	li	a3,2
   200f0:	fff68613          	addi	a2,a3,-1
   200f4:	02010793          	addi	a5,sp,32
   200f8:	00269693          	slli	a3,a3,0x2
   200fc:	00d786b3          	add	a3,a5,a3
   20100:	00b41433          	sll	s0,s0,a1
   20104:	fe86a823          	sw	s0,-16(a3)
   20108:	0500006f          	j	20158 <__floatsitf+0xe4>
   2010c:	40555793          	srai	a5,a0,0x5
   20110:	00300613          	li	a2,3
   20114:	40f60633          	sub	a2,a2,a5
   20118:	02010693          	addi	a3,sp,32
   2011c:	00261613          	slli	a2,a2,0x2
   20120:	00c68633          	add	a2,a3,a2
   20124:	ff062683          	lw	a3,-16(a2)
   20128:	00200613          	li	a2,2
   2012c:	00d12e23          	sw	a3,28(sp)
   20130:	05f00693          	li	a3,95
   20134:	02a6c263          	blt	a3,a0,20158 <__floatsitf+0xe4>
   20138:	00200693          	li	a3,2
   2013c:	40f686b3          	sub	a3,a3,a5
   20140:	00269693          	slli	a3,a3,0x2
   20144:	02010793          	addi	a5,sp,32
   20148:	00d786b3          	add	a3,a5,a3
   2014c:	ff06a783          	lw	a5,-16(a3)
   20150:	00100613          	li	a2,1
   20154:	00f12c23          	sw	a5,24(sp)
   20158:	fff00693          	li	a3,-1
   2015c:	00261793          	slli	a5,a2,0x2
   20160:	01010593          	addi	a1,sp,16
   20164:	00f587b3          	add	a5,a1,a5
   20168:	0007a023          	sw	zero,0(a5)
   2016c:	fff60613          	addi	a2,a2,-1
   20170:	fed616e3          	bne	a2,a3,2015c <__floatsitf+0xe8>
   20174:	01c12783          	lw	a5,28(sp)
   20178:	01171713          	slli	a4,a4,0x11
   2017c:	01175713          	srli	a4,a4,0x11
   20180:	00f11623          	sh	a5,12(sp)
   20184:	01071793          	slli	a5,a4,0x10
   20188:	00c12703          	lw	a4,12(sp)
   2018c:	800106b7          	lui	a3,0x80010
   20190:	fff68693          	addi	a3,a3,-1 # 8000ffff <_end+0x7ffe9b1f>
   20194:	00d77733          	and	a4,a4,a3
   20198:	00f76733          	or	a4,a4,a5
   2019c:	00171793          	slli	a5,a4,0x1
   201a0:	01012703          	lw	a4,16(sp)
   201a4:	01f91913          	slli	s2,s2,0x1f
   201a8:	02c12083          	lw	ra,44(sp)
   201ac:	00e4a023          	sw	a4,0(s1)
   201b0:	01412703          	lw	a4,20(sp)
   201b4:	02812403          	lw	s0,40(sp)
   201b8:	0017d793          	srli	a5,a5,0x1
   201bc:	00e4a223          	sw	a4,4(s1)
   201c0:	01812703          	lw	a4,24(sp)
   201c4:	0127e7b3          	or	a5,a5,s2
   201c8:	00f4a623          	sw	a5,12(s1)
   201cc:	00e4a423          	sw	a4,8(s1)
   201d0:	00048513          	mv	a0,s1
   201d4:	02012903          	lw	s2,32(sp)
   201d8:	02412483          	lw	s1,36(sp)
   201dc:	03010113          	addi	sp,sp,48
   201e0:	00008067          	ret
   201e4:	00012e23          	sw	zero,28(sp)
   201e8:	00012c23          	sw	zero,24(sp)
   201ec:	00012a23          	sw	zero,20(sp)
   201f0:	00012823          	sw	zero,16(sp)
   201f4:	00000713          	li	a4,0
   201f8:	00000913          	li	s2,0
   201fc:	f79ff06f          	j	20174 <__floatsitf+0x100>

00020200 <__extenddftf2>:
   20200:	01465793          	srli	a5,a2,0x14
   20204:	00c61713          	slli	a4,a2,0xc
   20208:	7ff7f793          	andi	a5,a5,2047
   2020c:	fd010113          	addi	sp,sp,-48
   20210:	00c75713          	srli	a4,a4,0xc
   20214:	00178693          	addi	a3,a5,1
   20218:	02812423          	sw	s0,40(sp)
   2021c:	02912223          	sw	s1,36(sp)
   20220:	02112623          	sw	ra,44(sp)
   20224:	00b12823          	sw	a1,16(sp)
   20228:	00e12a23          	sw	a4,20(sp)
   2022c:	00012e23          	sw	zero,28(sp)
   20230:	00012c23          	sw	zero,24(sp)
   20234:	7fe6f693          	andi	a3,a3,2046
   20238:	00050493          	mv	s1,a0
   2023c:	01f65413          	srli	s0,a2,0x1f
   20240:	0a068063          	beqz	a3,202e0 <__extenddftf2+0xe0>
   20244:	000046b7          	lui	a3,0x4
   20248:	c0068693          	addi	a3,a3,-1024 # 3c00 <_start-0xc400>
   2024c:	0045d513          	srli	a0,a1,0x4
   20250:	00d787b3          	add	a5,a5,a3
   20254:	00475693          	srli	a3,a4,0x4
   20258:	01c71713          	slli	a4,a4,0x1c
   2025c:	00a76733          	or	a4,a4,a0
   20260:	01c59593          	slli	a1,a1,0x1c
   20264:	00d12e23          	sw	a3,28(sp)
   20268:	00e12c23          	sw	a4,24(sp)
   2026c:	00b12a23          	sw	a1,20(sp)
   20270:	00012823          	sw	zero,16(sp)
   20274:	01c12703          	lw	a4,28(sp)
   20278:	01179793          	slli	a5,a5,0x11
   2027c:	800106b7          	lui	a3,0x80010
   20280:	00e11623          	sh	a4,12(sp)
   20284:	00c12703          	lw	a4,12(sp)
   20288:	0117d793          	srli	a5,a5,0x11
   2028c:	fff68693          	addi	a3,a3,-1 # 8000ffff <_end+0x7ffe9b1f>
   20290:	00d77733          	and	a4,a4,a3
   20294:	01079793          	slli	a5,a5,0x10
   20298:	00f767b3          	or	a5,a4,a5
   2029c:	01012703          	lw	a4,16(sp)
   202a0:	00179793          	slli	a5,a5,0x1
   202a4:	01f41413          	slli	s0,s0,0x1f
   202a8:	00e4a023          	sw	a4,0(s1)
   202ac:	01412703          	lw	a4,20(sp)
   202b0:	0017d793          	srli	a5,a5,0x1
   202b4:	0087e7b3          	or	a5,a5,s0
   202b8:	00e4a223          	sw	a4,4(s1)
   202bc:	01812703          	lw	a4,24(sp)
   202c0:	02c12083          	lw	ra,44(sp)
   202c4:	02812403          	lw	s0,40(sp)
   202c8:	00e4a423          	sw	a4,8(s1)
   202cc:	00f4a623          	sw	a5,12(s1)
   202d0:	00048513          	mv	a0,s1
   202d4:	02412483          	lw	s1,36(sp)
   202d8:	03010113          	addi	sp,sp,48
   202dc:	00008067          	ret
   202e0:	00b76533          	or	a0,a4,a1
   202e4:	0e079663          	bnez	a5,203d0 <__extenddftf2+0x1d0>
   202e8:	f80506e3          	beqz	a0,20274 <__extenddftf2+0x74>
   202ec:	04070e63          	beqz	a4,20348 <__extenddftf2+0x148>
   202f0:	00070513          	mv	a0,a4
   202f4:	44c000ef          	jal	ra,20740 <__clzsi2>
   202f8:	03150613          	addi	a2,a0,49
   202fc:	40565713          	srai	a4,a2,0x5
   20300:	01f67613          	andi	a2,a2,31
   20304:	04060863          	beqz	a2,20354 <__extenddftf2+0x154>
   20308:	ffc00693          	li	a3,-4
   2030c:	02d706b3          	mul	a3,a4,a3
   20310:	01010313          	addi	t1,sp,16
   20314:	02000793          	li	a5,32
   20318:	00271813          	slli	a6,a4,0x2
   2031c:	40c787b3          	sub	a5,a5,a2
   20320:	00c68693          	addi	a3,a3,12
   20324:	00d306b3          	add	a3,t1,a3
   20328:	08d31263          	bne	t1,a3,203ac <__extenddftf2+0x1ac>
   2032c:	02010793          	addi	a5,sp,32
   20330:	01078833          	add	a6,a5,a6
   20334:	01012783          	lw	a5,16(sp)
   20338:	fff70713          	addi	a4,a4,-1
   2033c:	00c79633          	sll	a2,a5,a2
   20340:	fec82823          	sw	a2,-16(a6)
   20344:	03c0006f          	j	20380 <__extenddftf2+0x180>
   20348:	3f8000ef          	jal	ra,20740 <__clzsi2>
   2034c:	02050513          	addi	a0,a0,32
   20350:	fa9ff06f          	j	202f8 <__extenddftf2+0xf8>
   20354:	ffc00613          	li	a2,-4
   20358:	02c70633          	mul	a2,a4,a2
   2035c:	01c10693          	addi	a3,sp,28
   20360:	00300793          	li	a5,3
   20364:	00c685b3          	add	a1,a3,a2
   20368:	0005a583          	lw	a1,0(a1)
   2036c:	fff78793          	addi	a5,a5,-1
   20370:	ffc68693          	addi	a3,a3,-4
   20374:	00b6a223          	sw	a1,4(a3)
   20378:	fee7d6e3          	ble	a4,a5,20364 <__extenddftf2+0x164>
   2037c:	fff70713          	addi	a4,a4,-1
   20380:	fff00693          	li	a3,-1
   20384:	00271793          	slli	a5,a4,0x2
   20388:	01010613          	addi	a2,sp,16
   2038c:	00f607b3          	add	a5,a2,a5
   20390:	0007a023          	sw	zero,0(a5)
   20394:	fff70713          	addi	a4,a4,-1
   20398:	fed716e3          	bne	a4,a3,20384 <__extenddftf2+0x184>
   2039c:	000047b7          	lui	a5,0x4
   203a0:	c0c78793          	addi	a5,a5,-1012 # 3c0c <_start-0xc3f4>
   203a4:	40a787b3          	sub	a5,a5,a0
   203a8:	ecdff06f          	j	20274 <__extenddftf2+0x74>
   203ac:	ffc6a583          	lw	a1,-4(a3)
   203b0:	0006a883          	lw	a7,0(a3)
   203b4:	01068e33          	add	t3,a3,a6
   203b8:	00f5d5b3          	srl	a1,a1,a5
   203bc:	00c898b3          	sll	a7,a7,a2
   203c0:	0115e5b3          	or	a1,a1,a7
   203c4:	00be2023          	sw	a1,0(t3)
   203c8:	ffc68693          	addi	a3,a3,-4
   203cc:	f5dff06f          	j	20328 <__extenddftf2+0x128>
   203d0:	000087b7          	lui	a5,0x8
   203d4:	02050863          	beqz	a0,20404 <__extenddftf2+0x204>
   203d8:	01c71793          	slli	a5,a4,0x1c
   203dc:	0045d693          	srli	a3,a1,0x4
   203e0:	00d7e7b3          	or	a5,a5,a3
   203e4:	00f12c23          	sw	a5,24(sp)
   203e8:	00475713          	srli	a4,a4,0x4
   203ec:	000087b7          	lui	a5,0x8
   203f0:	01c59593          	slli	a1,a1,0x1c
   203f4:	00f76733          	or	a4,a4,a5
   203f8:	00b12a23          	sw	a1,20(sp)
   203fc:	00012823          	sw	zero,16(sp)
   20400:	00e12e23          	sw	a4,28(sp)
   20404:	fff78793          	addi	a5,a5,-1 # 7fff <_start-0x8001>
   20408:	e6dff06f          	j	20274 <__extenddftf2+0x74>

0002040c <__trunctfdf2>:
   2040c:	00c52583          	lw	a1,12(a0)
   20410:	00852783          	lw	a5,8(a0)
   20414:	00452703          	lw	a4,4(a0)
   20418:	fe010113          	addi	sp,sp,-32
   2041c:	00052683          	lw	a3,0(a0)
   20420:	00f12423          	sw	a5,8(sp)
   20424:	00f12c23          	sw	a5,24(sp)
   20428:	01059793          	slli	a5,a1,0x10
   2042c:	00e12223          	sw	a4,4(sp)
   20430:	00e12a23          	sw	a4,20(sp)
   20434:	0107d793          	srli	a5,a5,0x10
   20438:	00159713          	slli	a4,a1,0x1
   2043c:	00b12623          	sw	a1,12(sp)
   20440:	00d12023          	sw	a3,0(sp)
   20444:	00d12823          	sw	a3,16(sp)
   20448:	00f12e23          	sw	a5,28(sp)
   2044c:	01175713          	srli	a4,a4,0x11
   20450:	01f5d593          	srli	a1,a1,0x1f
   20454:	01010313          	addi	t1,sp,16
   20458:	01c10613          	addi	a2,sp,28
   2045c:	00062783          	lw	a5,0(a2)
   20460:	ffc62683          	lw	a3,-4(a2)
   20464:	ffc60613          	addi	a2,a2,-4
   20468:	00379793          	slli	a5,a5,0x3
   2046c:	01d6d693          	srli	a3,a3,0x1d
   20470:	00d7e7b3          	or	a5,a5,a3
   20474:	00f62223          	sw	a5,4(a2)
   20478:	fec312e3          	bne	t1,a2,2045c <__trunctfdf2+0x50>
   2047c:	01012683          	lw	a3,16(sp)
   20480:	00170793          	addi	a5,a4,1
   20484:	00369513          	slli	a0,a3,0x3
   20488:	000086b7          	lui	a3,0x8
   2048c:	ffe68693          	addi	a3,a3,-2 # 7ffe <_start-0x8002>
   20490:	00a12823          	sw	a0,16(sp)
   20494:	00d7f7b3          	and	a5,a5,a3
   20498:	1a078a63          	beqz	a5,2064c <__trunctfdf2+0x240>
   2049c:	ffffc7b7          	lui	a5,0xffffc
   204a0:	40078793          	addi	a5,a5,1024 # ffffc400 <_end+0xfffd5f20>
   204a4:	00f70733          	add	a4,a4,a5
   204a8:	7fe00793          	li	a5,2046
   204ac:	1ee7cc63          	blt	a5,a4,206a4 <__trunctfdf2+0x298>
   204b0:	06e05863          	blez	a4,20520 <__trunctfdf2+0x114>
   204b4:	01812803          	lw	a6,24(sp)
   204b8:	01c12603          	lw	a2,28(sp)
   204bc:	01412783          	lw	a5,20(sp)
   204c0:	01c85693          	srli	a3,a6,0x1c
   204c4:	00461613          	slli	a2,a2,0x4
   204c8:	00d66633          	or	a2,a2,a3
   204cc:	00479693          	slli	a3,a5,0x4
   204d0:	00a6e6b3          	or	a3,a3,a0
   204d4:	01c7d793          	srli	a5,a5,0x1c
   204d8:	00481813          	slli	a6,a6,0x4
   204dc:	00d036b3          	snez	a3,a3
   204e0:	0107e7b3          	or	a5,a5,a6
   204e4:	00f6e6b3          	or	a3,a3,a5
   204e8:	00c12a23          	sw	a2,20(sp)
   204ec:	00d12823          	sw	a3,16(sp)
   204f0:	01012683          	lw	a3,16(sp)
   204f4:	01412783          	lw	a5,20(sp)
   204f8:	0076f613          	andi	a2,a3,7
   204fc:	1a060a63          	beqz	a2,206b0 <__trunctfdf2+0x2a4>
   20500:	00f6f613          	andi	a2,a3,15
   20504:	00400513          	li	a0,4
   20508:	1aa60463          	beq	a2,a0,206b0 <__trunctfdf2+0x2a4>
   2050c:	00468613          	addi	a2,a3,4
   20510:	00d636b3          	sltu	a3,a2,a3
   20514:	00d787b3          	add	a5,a5,a3
   20518:	00060693          	mv	a3,a2
   2051c:	1940006f          	j	206b0 <__trunctfdf2+0x2a4>
   20520:	fcc00793          	li	a5,-52
   20524:	00f75c63          	ble	a5,a4,2053c <__trunctfdf2+0x130>
   20528:	00012a23          	sw	zero,20(sp)
   2052c:	00100793          	li	a5,1
   20530:	00f12823          	sw	a5,16(sp)
   20534:	00000713          	li	a4,0
   20538:	fb9ff06f          	j	204f0 <__trunctfdf2+0xe4>
   2053c:	01c12783          	lw	a5,28(sp)
   20540:	000806b7          	lui	a3,0x80
   20544:	00000e13          	li	t3,0
   20548:	00d7e7b3          	or	a5,a5,a3
   2054c:	00f12e23          	sw	a5,28(sp)
   20550:	03d00793          	li	a5,61
   20554:	40e78733          	sub	a4,a5,a4
   20558:	40575513          	srai	a0,a4,0x5
   2055c:	00030693          	mv	a3,t1
   20560:	01f77713          	andi	a4,a4,31
   20564:	00000793          	li	a5,0
   20568:	0006a803          	lw	a6,0(a3) # 80000 <_end+0x59b20>
   2056c:	00178793          	addi	a5,a5,1
   20570:	00468693          	addi	a3,a3,4
   20574:	010e6e33          	or	t3,t3,a6
   20578:	fef518e3          	bne	a0,a5,20568 <__trunctfdf2+0x15c>
   2057c:	00251693          	slli	a3,a0,0x2
   20580:	04071663          	bnez	a4,205cc <__trunctfdf2+0x1c0>
   20584:	00300793          	li	a5,3
   20588:	40a78533          	sub	a0,a5,a0
   2058c:	00d607b3          	add	a5,a2,a3
   20590:	0007a783          	lw	a5,0(a5)
   20594:	00170713          	addi	a4,a4,1
   20598:	00460613          	addi	a2,a2,4
   2059c:	fef62e23          	sw	a5,-4(a2)
   205a0:	fee556e3          	ble	a4,a0,2058c <__trunctfdf2+0x180>
   205a4:	00400693          	li	a3,4
   205a8:	00271793          	slli	a5,a4,0x2
   205ac:	00f307b3          	add	a5,t1,a5
   205b0:	0007a023          	sw	zero,0(a5)
   205b4:	00170713          	addi	a4,a4,1
   205b8:	fed718e3          	bne	a4,a3,205a8 <__trunctfdf2+0x19c>
   205bc:	01012703          	lw	a4,16(sp)
   205c0:	01c037b3          	snez	a5,t3
   205c4:	00f767b3          	or	a5,a4,a5
   205c8:	f69ff06f          	j	20530 <__trunctfdf2+0x124>
   205cc:	02010793          	addi	a5,sp,32
   205d0:	00d787b3          	add	a5,a5,a3
   205d4:	ff07a783          	lw	a5,-16(a5)
   205d8:	02000893          	li	a7,32
   205dc:	40e888b3          	sub	a7,a7,a4
   205e0:	011797b3          	sll	a5,a5,a7
   205e4:	00fe6e33          	or	t3,t3,a5
   205e8:	00300793          	li	a5,3
   205ec:	00d306b3          	add	a3,t1,a3
   205f0:	00000813          	li	a6,0
   205f4:	40a787b3          	sub	a5,a5,a0
   205f8:	00468693          	addi	a3,a3,4
   205fc:	02f84463          	blt	a6,a5,20624 <__trunctfdf2+0x218>
   20600:	02010693          	addi	a3,sp,32
   20604:	00279793          	slli	a5,a5,0x2
   20608:	00f687b3          	add	a5,a3,a5
   2060c:	01c12683          	lw	a3,28(sp)
   20610:	00e6d733          	srl	a4,a3,a4
   20614:	fee7a823          	sw	a4,-16(a5)
   20618:	00400713          	li	a4,4
   2061c:	40a70733          	sub	a4,a4,a0
   20620:	f85ff06f          	j	205a4 <__trunctfdf2+0x198>
   20624:	ffc6a603          	lw	a2,-4(a3)
   20628:	0006af03          	lw	t5,0(a3)
   2062c:	00281e93          	slli	t4,a6,0x2
   20630:	00e65633          	srl	a2,a2,a4
   20634:	011f1f33          	sll	t5,t5,a7
   20638:	01d30eb3          	add	t4,t1,t4
   2063c:	01e66633          	or	a2,a2,t5
   20640:	00cea023          	sw	a2,0(t4)
   20644:	00180813          	addi	a6,a6,1
   20648:	fb1ff06f          	j	205f8 <__trunctfdf2+0x1ec>
   2064c:	01412603          	lw	a2,20(sp)
   20650:	01812783          	lw	a5,24(sp)
   20654:	01c12803          	lw	a6,28(sp)
   20658:	00f666b3          	or	a3,a2,a5
   2065c:	0106e6b3          	or	a3,a3,a6
   20660:	00a6e6b3          	or	a3,a3,a0
   20664:	00071863          	bnez	a4,20674 <__trunctfdf2+0x268>
   20668:	00d036b3          	snez	a3,a3
   2066c:	00000793          	li	a5,0
   20670:	e89ff06f          	j	204f8 <__trunctfdf2+0xec>
   20674:	0a068c63          	beqz	a3,2072c <__trunctfdf2+0x320>
   20678:	01c65693          	srli	a3,a2,0x1c
   2067c:	00481813          	slli	a6,a6,0x4
   20680:	00479613          	slli	a2,a5,0x4
   20684:	01c7d793          	srli	a5,a5,0x1c
   20688:	00400737          	lui	a4,0x400
   2068c:	00c6e6b3          	or	a3,a3,a2
   20690:	0107e7b3          	or	a5,a5,a6
   20694:	00e7e7b3          	or	a5,a5,a4
   20698:	ff86f693          	andi	a3,a3,-8
   2069c:	7ff00713          	li	a4,2047
   206a0:	e59ff06f          	j	204f8 <__trunctfdf2+0xec>
   206a4:	00000793          	li	a5,0
   206a8:	00000693          	li	a3,0
   206ac:	7ff00713          	li	a4,2047
   206b0:	00879613          	slli	a2,a5,0x8
   206b4:	00065e63          	bgez	a2,206d0 <__trunctfdf2+0x2c4>
   206b8:	00170713          	addi	a4,a4,1 # 400001 <_end+0x3d9b21>
   206bc:	7ff00613          	li	a2,2047
   206c0:	06c70a63          	beq	a4,a2,20734 <__trunctfdf2+0x328>
   206c4:	ff800637          	lui	a2,0xff800
   206c8:	fff60613          	addi	a2,a2,-1 # ff7fffff <_end+0xff7d9b1f>
   206cc:	00c7f7b3          	and	a5,a5,a2
   206d0:	01d79613          	slli	a2,a5,0x1d
   206d4:	0036d693          	srli	a3,a3,0x3
   206d8:	00d666b3          	or	a3,a2,a3
   206dc:	7ff00613          	li	a2,2047
   206e0:	0037d793          	srli	a5,a5,0x3
   206e4:	00c71e63          	bne	a4,a2,20700 <__trunctfdf2+0x2f4>
   206e8:	00f6e6b3          	or	a3,a3,a5
   206ec:	00000793          	li	a5,0
   206f0:	00068863          	beqz	a3,20700 <__trunctfdf2+0x2f4>
   206f4:	000807b7          	lui	a5,0x80
   206f8:	00000693          	li	a3,0
   206fc:	00000593          	li	a1,0
   20700:	00c79793          	slli	a5,a5,0xc
   20704:	7ff77713          	andi	a4,a4,2047
   20708:	01471713          	slli	a4,a4,0x14
   2070c:	00c7d793          	srli	a5,a5,0xc
   20710:	01f59593          	slli	a1,a1,0x1f
   20714:	00e7e7b3          	or	a5,a5,a4
   20718:	00b7e733          	or	a4,a5,a1
   2071c:	00068513          	mv	a0,a3
   20720:	00070593          	mv	a1,a4
   20724:	02010113          	addi	sp,sp,32
   20728:	00008067          	ret
   2072c:	00000793          	li	a5,0
   20730:	f7dff06f          	j	206ac <__trunctfdf2+0x2a0>
   20734:	00000793          	li	a5,0
   20738:	00000693          	li	a3,0
   2073c:	f95ff06f          	j	206d0 <__trunctfdf2+0x2c4>

00020740 <__clzsi2>:
   20740:	000107b7          	lui	a5,0x10
   20744:	02f57a63          	bleu	a5,a0,20778 <__clzsi2+0x38>
   20748:	0ff00793          	li	a5,255
   2074c:	00a7b7b3          	sltu	a5,a5,a0
   20750:	00379793          	slli	a5,a5,0x3
   20754:	02000713          	li	a4,32
   20758:	40f70733          	sub	a4,a4,a5
   2075c:	00f557b3          	srl	a5,a0,a5
   20760:	00022537          	lui	a0,0x22
   20764:	15c50513          	addi	a0,a0,348 # 2215c <__clz_tab>
   20768:	00a787b3          	add	a5,a5,a0
   2076c:	0007c503          	lbu	a0,0(a5) # 10000 <_start>
   20770:	40a70533          	sub	a0,a4,a0
   20774:	00008067          	ret
   20778:	01000737          	lui	a4,0x1000
   2077c:	01000793          	li	a5,16
   20780:	fce56ae3          	bltu	a0,a4,20754 <__clzsi2+0x14>
   20784:	01800793          	li	a5,24
   20788:	fcdff06f          	j	20754 <__clzsi2+0x14>

0002078c <main>:
   2078c:	f5010113          	addi	sp,sp,-176
   20790:	03000513          	li	a0,48
   20794:	0a112623          	sw	ra,172(sp)
   20798:	0a812423          	sw	s0,168(sp)
   2079c:	09812423          	sw	s8,136(sp)
   207a0:	0a912223          	sw	s1,164(sp)
   207a4:	0b212023          	sw	s2,160(sp)
   207a8:	09312e23          	sw	s3,156(sp)
   207ac:	09412c23          	sw	s4,152(sp)
   207b0:	09512a23          	sw	s5,148(sp)
   207b4:	09612823          	sw	s6,144(sp)
   207b8:	09712623          	sw	s7,140(sp)
   207bc:	09912223          	sw	s9,132(sp)
   207c0:	09a12023          	sw	s10,128(sp)
   207c4:	07b12e23          	sw	s11,124(sp)
   207c8:	ed9ef0ef          	jal	ra,106a0 <malloc>
   207cc:	00050413          	mv	s0,a0
   207d0:	000267b7          	lui	a5,0x26
   207d4:	03000513          	li	a0,48
   207d8:	3e87ac23          	sw	s0,1016(a5) # 263f8 <Next_Ptr_Glob>
   207dc:	ec5ef0ef          	jal	ra,106a0 <malloc>
   207e0:	00021637          	lui	a2,0x21
   207e4:	000216b7          	lui	a3,0x21
   207e8:	fa060713          	addi	a4,a2,-96 # 20fa0 <main+0x814>
   207ec:	4fc68793          	addi	a5,a3,1276 # 214fc <main+0xd70>
   207f0:	fa062383          	lw	t2,-96(a2)
   207f4:	00472283          	lw	t0,4(a4) # 1000004 <_end+0xfd9b24>
   207f8:	00872f83          	lw	t6,8(a4)
   207fc:	00c72f03          	lw	t5,12(a4)
   20800:	01072e83          	lw	t4,16(a4)
   20804:	01472e03          	lw	t3,20(a4)
   20808:	01872303          	lw	t1,24(a4)
   2080c:	01c75803          	lhu	a6,28(a4)
   20810:	01e74583          	lbu	a1,30(a4)
   20814:	4fc6a603          	lw	a2,1276(a3)
   20818:	0047a683          	lw	a3,4(a5)
   2081c:	0087a883          	lw	a7,8(a5)
   20820:	00200713          	li	a4,2
   20824:	00e52423          	sw	a4,8(a0)
   20828:	00026c37          	lui	s8,0x26
   2082c:	02800713          	li	a4,40
   20830:	00752823          	sw	t2,16(a0)
   20834:	00552a23          	sw	t0,20(a0)
   20838:	01f52c23          	sw	t6,24(a0)
   2083c:	01e52e23          	sw	t5,28(a0)
   20840:	03d52023          	sw	t4,32(a0)
   20844:	03c52223          	sw	t3,36(a0)
   20848:	02652423          	sw	t1,40(a0)
   2084c:	00e52623          	sw	a4,12(a0)
   20850:	03051623          	sh	a6,44(a0)
   20854:	02b50723          	sb	a1,46(a0)
   20858:	00852023          	sw	s0,0(a0)
   2085c:	00052223          	sw	zero,4(a0)
   20860:	40ac2223          	sw	a0,1028(s8) # 26404 <Ptr_Glob>
   20864:	02c12823          	sw	a2,48(sp)
   20868:	02d12a23          	sw	a3,52(sp)
   2086c:	00c7a803          	lw	a6,12(a5)
   20870:	0107a583          	lw	a1,16(a5)
   20874:	0147a603          	lw	a2,20(a5)
   20878:	0187a683          	lw	a3,24(a5)
   2087c:	03112c23          	sw	a7,56(sp)
   20880:	01c7d703          	lhu	a4,28(a5)
   20884:	01e7c783          	lbu	a5,30(a5)
   20888:	00a00513          	li	a0,10
   2088c:	04e11623          	sh	a4,76(sp)
   20890:	00024737          	lui	a4,0x24
   20894:	ce470713          	addi	a4,a4,-796 # 23ce4 <Arr_2_Glob>
   20898:	04f10723          	sb	a5,78(sp)
   2089c:	00a00793          	li	a5,10
   208a0:	64f72e23          	sw	a5,1628(a4)
   208a4:	03012e23          	sw	a6,60(sp)
   208a8:	04b12023          	sw	a1,64(sp)
   208ac:	04c12223          	sw	a2,68(sp)
   208b0:	04d12423          	sw	a3,72(sp)
   208b4:	ddcf00ef          	jal	ra,10e90 <putchar>
   208b8:	00021537          	lui	a0,0x21
   208bc:	fc050513          	addi	a0,a0,-64 # 20fc0 <main+0x834>
   208c0:	f48f00ef          	jal	ra,11008 <puts>
   208c4:	00a00513          	li	a0,10
   208c8:	dc8f00ef          	jal	ra,10e90 <putchar>
   208cc:	82c1a783          	lw	a5,-2004(gp) # 23c74 <_edata>
   208d0:	6a078a63          	beqz	a5,20f84 <main+0x7f8>
   208d4:	00021537          	lui	a0,0x21
   208d8:	ff050513          	addi	a0,a0,-16 # 20ff0 <main+0x864>
   208dc:	f2cf00ef          	jal	ra,11008 <puts>
   208e0:	00a00513          	li	a0,10
   208e4:	dacf00ef          	jal	ra,10e90 <putchar>
   208e8:	00021537          	lui	a0,0x21
   208ec:	04c50513          	addi	a0,a0,76 # 2104c <main+0x8c0>
   208f0:	d4cf00ef          	jal	ra,10e3c <printf>
   208f4:	00a00513          	li	a0,10
   208f8:	d98f00ef          	jal	ra,10e90 <putchar>
   208fc:	00021537          	lui	a0,0x21
   20900:	06400593          	li	a1,100
   20904:	08450513          	addi	a0,a0,132 # 21084 <main+0x8f8>
   20908:	d34f00ef          	jal	ra,10e3c <printf>
   2090c:	00000513          	li	a0,0
   20910:	b85ef0ef          	jal	ra,10494 <time>
   20914:	88a1ac23          	sw	a0,-1896(gp) # 23ce0 <Begin_Time>
   20918:	00000513          	li	a0,0
   2091c:	b81ef0ef          	jal	ra,1049c <insn>
   20920:	000217b7          	lui	a5,0x21
   20924:	51c78b93          	addi	s7,a5,1308 # 2151c <main+0xd90>
   20928:	51c7a783          	lw	a5,1308(a5)
   2092c:	00021d37          	lui	s10,0x21
   20930:	53cd2b03          	lw	s6,1340(s10) # 2153c <main+0xdb0>
   20934:	00f12023          	sw	a5,0(sp)
   20938:	004ba783          	lw	a5,4(s7)
   2093c:	00100493          	li	s1,1
   20940:	000269b7          	lui	s3,0x26
   20944:	00f12223          	sw	a5,4(sp)
   20948:	008ba783          	lw	a5,8(s7)
   2094c:	00026a37          	lui	s4,0x26
   20950:	00026437          	lui	s0,0x26
   20954:	00f12423          	sw	a5,8(sp)
   20958:	00cba783          	lw	a5,12(s7)
   2095c:	00026ab7          	lui	s5,0x26
   20960:	00f12623          	sw	a5,12(sp)
   20964:	010ba783          	lw	a5,16(s7)
   20968:	00f12823          	sw	a5,16(sp)
   2096c:	014ba783          	lw	a5,20(s7)
   20970:	00f12a23          	sw	a5,20(sp)
   20974:	018ba783          	lw	a5,24(s7)
   20978:	00f12c23          	sw	a5,24(sp)
   2097c:	01cbd783          	lhu	a5,28(s7)
   20980:	00f11f23          	sh	a5,30(sp)
   20984:	000267b7          	lui	a5,0x26
   20988:	40a7a423          	sw	a0,1032(a5) # 26408 <Begin_Insn>
   2098c:	04100693          	li	a3,65
   20990:	40d98023          	sb	a3,1024(s3) # 26400 <Ch_1_Glob>
   20994:	04200693          	li	a3,66
   20998:	40d400a3          	sb	a3,1025(s0) # 26401 <Ch_2_Glob>
   2099c:	00012683          	lw	a3,0(sp)
   209a0:	01ebc703          	lbu	a4,30(s7)
   209a4:	00100793          	li	a5,1
   209a8:	04d12823          	sw	a3,80(sp)
   209ac:	00412683          	lw	a3,4(sp)
   209b0:	05010593          	addi	a1,sp,80
   209b4:	03010513          	addi	a0,sp,48
   209b8:	04d12a23          	sw	a3,84(sp)
   209bc:	00812683          	lw	a3,8(sp)
   209c0:	06e10723          	sb	a4,110(sp)
   209c4:	4cfa2a23          	sw	a5,1236(s4) # 264d4 <Bool_Glob>
   209c8:	04d12c23          	sw	a3,88(sp)
   209cc:	00c12683          	lw	a3,12(sp)
   209d0:	02f12623          	sw	a5,44(sp)
   209d4:	04100d93          	li	s11,65
   209d8:	04d12e23          	sw	a3,92(sp)
   209dc:	01012683          	lw	a3,16(sp)
   209e0:	00300913          	li	s2,3
   209e4:	53cd0c93          	addi	s9,s10,1340
   209e8:	06d12023          	sw	a3,96(sp)
   209ec:	01412683          	lw	a3,20(sp)
   209f0:	06d12223          	sw	a3,100(sp)
   209f4:	01812683          	lw	a3,24(sp)
   209f8:	06d12423          	sw	a3,104(sp)
   209fc:	01e15683          	lhu	a3,30(sp)
   20a00:	06d11623          	sh	a3,108(sp)
   20a04:	a41ef0ef          	jal	ra,10444 <Func_2>
   20a08:	00153793          	seqz	a5,a0
   20a0c:	02810613          	addi	a2,sp,40
   20a10:	00300593          	li	a1,3
   20a14:	4cfa2a23          	sw	a5,1236(s4)
   20a18:	00200513          	li	a0,2
   20a1c:	00700793          	li	a5,7
   20a20:	02f12423          	sw	a5,40(sp)
   20a24:	985ef0ef          	jal	ra,103a8 <Proc_7>
   20a28:	02812683          	lw	a3,40(sp)
   20a2c:	000247b7          	lui	a5,0x24
   20a30:	ce478593          	addi	a1,a5,-796 # 23ce4 <Arr_2_Glob>
   20a34:	000267b7          	lui	a5,0x26
   20a38:	00300613          	li	a2,3
   20a3c:	40c78513          	addi	a0,a5,1036 # 2640c <Arr_1_Glob>
   20a40:	979ef0ef          	jal	ra,103b8 <Proc_8>
   20a44:	404c2503          	lw	a0,1028(s8)
   20a48:	ef0ef0ef          	jal	ra,10138 <Proc_1>
   20a4c:	40144683          	lbu	a3,1025(s0)
   20a50:	04000713          	li	a4,64
   20a54:	52d77463          	bleu	a3,a4,20f7c <main+0x7f0>
   20a58:	000d8513          	mv	a0,s11
   20a5c:	04300593          	li	a1,67
   20a60:	9c1ef0ef          	jal	ra,10420 <Func_1>
   20a64:	02c12783          	lw	a5,44(sp)
   20a68:	001d8713          	addi	a4,s11,1
   20a6c:	4af50263          	beq	a0,a5,20f10 <main+0x784>
   20a70:	40144783          	lbu	a5,1025(s0)
   20a74:	0ff77d93          	andi	s11,a4,255
   20a78:	ffb7f0e3          	bleu	s11,a5,20a58 <main+0x2cc>
   20a7c:	00191793          	slli	a5,s2,0x1
   20a80:	01278933          	add	s2,a5,s2
   20a84:	02812803          	lw	a6,40(sp)
   20a88:	4009c683          	lbu	a3,1024(s3)
   20a8c:	04100713          	li	a4,65
   20a90:	03094633          	div	a2,s2,a6
   20a94:	00060793          	mv	a5,a2
   20a98:	00e69863          	bne	a3,a4,20aa8 <main+0x31c>
   20a9c:	3fcaa703          	lw	a4,1020(s5) # 263fc <Int_Glob>
   20aa0:	00960793          	addi	a5,a2,9
   20aa4:	40e787b3          	sub	a5,a5,a4
   20aa8:	00148493          	addi	s1,s1,1
   20aac:	06500713          	li	a4,101
   20ab0:	ece49ee3          	bne	s1,a4,2098c <main+0x200>
   20ab4:	00000513          	li	a0,0
   20ab8:	01012423          	sw	a6,8(sp)
   20abc:	00c12223          	sw	a2,4(sp)
   20ac0:	00f12023          	sw	a5,0(sp)
   20ac4:	9d1ef0ef          	jal	ra,10494 <time>
   20ac8:	00026737          	lui	a4,0x26
   20acc:	3ea72a23          	sw	a0,1012(a4) # 263f4 <End_Time>
   20ad0:	00000513          	li	a0,0
   20ad4:	9c9ef0ef          	jal	ra,1049c <insn>
   20ad8:	000266b7          	lui	a3,0x26
   20adc:	4ca6ac23          	sw	a0,1240(a3) # 264d8 <End_Insn>
   20ae0:	00021537          	lui	a0,0x21
   20ae4:	0b450513          	addi	a0,a0,180 # 210b4 <main+0x928>
   20ae8:	d20f00ef          	jal	ra,11008 <puts>
   20aec:	00a00513          	li	a0,10
   20af0:	ba0f00ef          	jal	ra,10e90 <putchar>
   20af4:	00021537          	lui	a0,0x21
   20af8:	0c450513          	addi	a0,a0,196 # 210c4 <main+0x938>
   20afc:	d0cf00ef          	jal	ra,11008 <puts>
   20b00:	00a00513          	li	a0,10
   20b04:	b8cf00ef          	jal	ra,10e90 <putchar>
   20b08:	3fcaa583          	lw	a1,1020(s5)
   20b0c:	00021537          	lui	a0,0x21
   20b10:	0fc50513          	addi	a0,a0,252 # 210fc <main+0x970>
   20b14:	000214b7          	lui	s1,0x21
   20b18:	b24f00ef          	jal	ra,10e3c <printf>
   20b1c:	00500593          	li	a1,5
   20b20:	11848513          	addi	a0,s1,280 # 21118 <main+0x98c>
   20b24:	b18f00ef          	jal	ra,10e3c <printf>
   20b28:	4d4a2583          	lw	a1,1236(s4)
   20b2c:	00021537          	lui	a0,0x21
   20b30:	13450513          	addi	a0,a0,308 # 21134 <main+0x9a8>
   20b34:	b08f00ef          	jal	ra,10e3c <printf>
   20b38:	00100593          	li	a1,1
   20b3c:	11848513          	addi	a0,s1,280
   20b40:	afcf00ef          	jal	ra,10e3c <printf>
   20b44:	4009c583          	lbu	a1,1024(s3)
   20b48:	00021537          	lui	a0,0x21
   20b4c:	15050513          	addi	a0,a0,336 # 21150 <main+0x9c4>
   20b50:	aecf00ef          	jal	ra,10e3c <printf>
   20b54:	000219b7          	lui	s3,0x21
   20b58:	04100593          	li	a1,65
   20b5c:	16c98513          	addi	a0,s3,364 # 2116c <main+0x9e0>
   20b60:	adcf00ef          	jal	ra,10e3c <printf>
   20b64:	40144583          	lbu	a1,1025(s0)
   20b68:	00021537          	lui	a0,0x21
   20b6c:	18850513          	addi	a0,a0,392 # 21188 <main+0x9fc>
   20b70:	accf00ef          	jal	ra,10e3c <printf>
   20b74:	04200593          	li	a1,66
   20b78:	16c98513          	addi	a0,s3,364
   20b7c:	ac0f00ef          	jal	ra,10e3c <printf>
   20b80:	000267b7          	lui	a5,0x26
   20b84:	40c78c93          	addi	s9,a5,1036 # 2640c <Arr_1_Glob>
   20b88:	020ca583          	lw	a1,32(s9)
   20b8c:	00021537          	lui	a0,0x21
   20b90:	1a450513          	addi	a0,a0,420 # 211a4 <main+0xa18>
   20b94:	aa8f00ef          	jal	ra,10e3c <printf>
   20b98:	00700593          	li	a1,7
   20b9c:	11848513          	addi	a0,s1,280
   20ba0:	a9cf00ef          	jal	ra,10e3c <printf>
   20ba4:	000247b7          	lui	a5,0x24
   20ba8:	ce478793          	addi	a5,a5,-796 # 23ce4 <Arr_2_Glob>
   20bac:	65c7a583          	lw	a1,1628(a5)
   20bb0:	00021537          	lui	a0,0x21
   20bb4:	1c050513          	addi	a0,a0,448 # 211c0 <main+0xa34>
   20bb8:	a84f00ef          	jal	ra,10e3c <printf>
   20bbc:	00021537          	lui	a0,0x21
   20bc0:	1dc50513          	addi	a0,a0,476 # 211dc <main+0xa50>
   20bc4:	c44f00ef          	jal	ra,11008 <puts>
   20bc8:	00021537          	lui	a0,0x21
   20bcc:	20850513          	addi	a0,a0,520 # 21208 <main+0xa7c>
   20bd0:	c38f00ef          	jal	ra,11008 <puts>
   20bd4:	404c2583          	lw	a1,1028(s8)
   20bd8:	000218b7          	lui	a7,0x21
   20bdc:	21488513          	addi	a0,a7,532 # 21214 <main+0xa88>
   20be0:	0005a583          	lw	a1,0(a1)
   20be4:	00021cb7          	lui	s9,0x21
   20be8:	00021bb7          	lui	s7,0x21
   20bec:	a50f00ef          	jal	ra,10e3c <printf>
   20bf0:	00021537          	lui	a0,0x21
   20bf4:	23050513          	addi	a0,a0,560 # 21230 <main+0xaa4>
   20bf8:	c10f00ef          	jal	ra,11008 <puts>
   20bfc:	404c2583          	lw	a1,1028(s8)
   20c00:	260c8513          	addi	a0,s9,608 # 21260 <main+0xad4>
   20c04:	00021b37          	lui	s6,0x21
   20c08:	0045a583          	lw	a1,4(a1)
   20c0c:	00021ab7          	lui	s5,0x21
   20c10:	00021a37          	lui	s4,0x21
   20c14:	a28f00ef          	jal	ra,10e3c <printf>
   20c18:	00000593          	li	a1,0
   20c1c:	11848513          	addi	a0,s1,280
   20c20:	a1cf00ef          	jal	ra,10e3c <printf>
   20c24:	404c2583          	lw	a1,1028(s8)
   20c28:	27cb8513          	addi	a0,s7,636 # 2127c <main+0xaf0>
   20c2c:	0085a583          	lw	a1,8(a1)
   20c30:	3e800d93          	li	s11,1000
   20c34:	a08f00ef          	jal	ra,10e3c <printf>
   20c38:	00200593          	li	a1,2
   20c3c:	11848513          	addi	a0,s1,280
   20c40:	9fcf00ef          	jal	ra,10e3c <printf>
   20c44:	404c2583          	lw	a1,1028(s8)
   20c48:	298b0513          	addi	a0,s6,664 # 21298 <main+0xb0c>
   20c4c:	00a00d13          	li	s10,10
   20c50:	00c5a583          	lw	a1,12(a1)
   20c54:	9e8f00ef          	jal	ra,10e3c <printf>
   20c58:	01100593          	li	a1,17
   20c5c:	11848513          	addi	a0,s1,280
   20c60:	9dcf00ef          	jal	ra,10e3c <printf>
   20c64:	404c2583          	lw	a1,1028(s8)
   20c68:	2b4a8513          	addi	a0,s5,692 # 212b4 <main+0xb28>
   20c6c:	00026c37          	lui	s8,0x26
   20c70:	01058593          	addi	a1,a1,16
   20c74:	9c8f00ef          	jal	ra,10e3c <printf>
   20c78:	2d0a0513          	addi	a0,s4,720 # 212d0 <main+0xb44>
   20c7c:	b8cf00ef          	jal	ra,11008 <puts>
   20c80:	00021537          	lui	a0,0x21
   20c84:	30450513          	addi	a0,a0,772 # 21304 <main+0xb78>
   20c88:	b80f00ef          	jal	ra,11008 <puts>
   20c8c:	3f8c2583          	lw	a1,1016(s8) # 263f8 <Next_Ptr_Glob>
   20c90:	000218b7          	lui	a7,0x21
   20c94:	21488513          	addi	a0,a7,532 # 21214 <main+0xa88>
   20c98:	0005a583          	lw	a1,0(a1)
   20c9c:	9a0f00ef          	jal	ra,10e3c <printf>
   20ca0:	00021537          	lui	a0,0x21
   20ca4:	31450513          	addi	a0,a0,788 # 21314 <main+0xb88>
   20ca8:	b60f00ef          	jal	ra,11008 <puts>
   20cac:	3f8c2583          	lw	a1,1016(s8)
   20cb0:	260c8513          	addi	a0,s9,608
   20cb4:	0045a583          	lw	a1,4(a1)
   20cb8:	984f00ef          	jal	ra,10e3c <printf>
   20cbc:	00000593          	li	a1,0
   20cc0:	11848513          	addi	a0,s1,280
   20cc4:	978f00ef          	jal	ra,10e3c <printf>
   20cc8:	3f8c2583          	lw	a1,1016(s8)
   20ccc:	27cb8513          	addi	a0,s7,636
   20cd0:	0085a583          	lw	a1,8(a1)
   20cd4:	968f00ef          	jal	ra,10e3c <printf>
   20cd8:	00100593          	li	a1,1
   20cdc:	11848513          	addi	a0,s1,280
   20ce0:	95cf00ef          	jal	ra,10e3c <printf>
   20ce4:	3f8c2583          	lw	a1,1016(s8)
   20ce8:	298b0513          	addi	a0,s6,664
   20cec:	00c5a583          	lw	a1,12(a1)
   20cf0:	94cf00ef          	jal	ra,10e3c <printf>
   20cf4:	01200593          	li	a1,18
   20cf8:	11848513          	addi	a0,s1,280
   20cfc:	940f00ef          	jal	ra,10e3c <printf>
   20d00:	3f8c2583          	lw	a1,1016(s8)
   20d04:	2b4a8513          	addi	a0,s5,692
   20d08:	01058593          	addi	a1,a1,16
   20d0c:	930f00ef          	jal	ra,10e3c <printf>
   20d10:	2d0a0513          	addi	a0,s4,720
   20d14:	af4f00ef          	jal	ra,11008 <puts>
   20d18:	00012783          	lw	a5,0(sp)
   20d1c:	00021537          	lui	a0,0x21
   20d20:	35450513          	addi	a0,a0,852 # 21354 <main+0xbc8>
   20d24:	00078593          	mv	a1,a5
   20d28:	914f00ef          	jal	ra,10e3c <printf>
   20d2c:	00500593          	li	a1,5
   20d30:	11848513          	addi	a0,s1,280
   20d34:	908f00ef          	jal	ra,10e3c <printf>
   20d38:	00812803          	lw	a6,8(sp)
   20d3c:	00412603          	lw	a2,4(sp)
   20d40:	00021537          	lui	a0,0x21
   20d44:	41090933          	sub	s2,s2,a6
   20d48:	00391793          	slli	a5,s2,0x3
   20d4c:	41278933          	sub	s2,a5,s2
   20d50:	40c905b3          	sub	a1,s2,a2
   20d54:	37050513          	addi	a0,a0,880 # 21370 <main+0xbe4>
   20d58:	8e4f00ef          	jal	ra,10e3c <printf>
   20d5c:	00d00593          	li	a1,13
   20d60:	11848513          	addi	a0,s1,280
   20d64:	8d8f00ef          	jal	ra,10e3c <printf>
   20d68:	02812583          	lw	a1,40(sp)
   20d6c:	00021537          	lui	a0,0x21
   20d70:	38c50513          	addi	a0,a0,908 # 2138c <main+0xc00>
   20d74:	8c8f00ef          	jal	ra,10e3c <printf>
   20d78:	00700593          	li	a1,7
   20d7c:	11848513          	addi	a0,s1,280
   20d80:	8bcf00ef          	jal	ra,10e3c <printf>
   20d84:	02c12583          	lw	a1,44(sp)
   20d88:	00021537          	lui	a0,0x21
   20d8c:	3a850513          	addi	a0,a0,936 # 213a8 <main+0xc1c>
   20d90:	8acf00ef          	jal	ra,10e3c <printf>
   20d94:	00100593          	li	a1,1
   20d98:	11848513          	addi	a0,s1,280
   20d9c:	8a0f00ef          	jal	ra,10e3c <printf>
   20da0:	00021537          	lui	a0,0x21
   20da4:	03010593          	addi	a1,sp,48
   20da8:	3c450513          	addi	a0,a0,964 # 213c4 <main+0xc38>
   20dac:	890f00ef          	jal	ra,10e3c <printf>
   20db0:	00021537          	lui	a0,0x21
   20db4:	3e050513          	addi	a0,a0,992 # 213e0 <main+0xc54>
   20db8:	a50f00ef          	jal	ra,11008 <puts>
   20dbc:	00021537          	lui	a0,0x21
   20dc0:	05010593          	addi	a1,sp,80
   20dc4:	41450513          	addi	a0,a0,1044 # 21414 <main+0xc88>
   20dc8:	874f00ef          	jal	ra,10e3c <printf>
   20dcc:	00021537          	lui	a0,0x21
   20dd0:	43050513          	addi	a0,a0,1072 # 21430 <main+0xca4>
   20dd4:	a34f00ef          	jal	ra,11008 <puts>
   20dd8:	00a00513          	li	a0,10
   20ddc:	8b4f00ef          	jal	ra,10e90 <putchar>
   20de0:	000266b7          	lui	a3,0x26
   20de4:	8981a603          	lw	a2,-1896(gp) # 23ce0 <Begin_Time>
   20de8:	00026737          	lui	a4,0x26
   20dec:	4d86a783          	lw	a5,1240(a3) # 264d8 <End_Insn>
   20df0:	000266b7          	lui	a3,0x26
   20df4:	4086a683          	lw	a3,1032(a3) # 26408 <Begin_Insn>
   20df8:	3f472703          	lw	a4,1012(a4) # 263f4 <End_Time>
   20dfc:	00021537          	lui	a0,0x21
   20e00:	40d787b3          	sub	a5,a5,a3
   20e04:	40c70733          	sub	a4,a4,a2
   20e08:	06400593          	li	a1,100
   20e0c:	46450513          	addi	a0,a0,1124 # 21464 <main+0xcd8>
   20e10:	88e1aa23          	sw	a4,-1900(gp) # 23cdc <User_Time>
   20e14:	88f1a823          	sw	a5,-1904(gp) # 23cd8 <User_Insn>
   20e18:	824f00ef          	jal	ra,10e3c <printf>
   20e1c:	8901a603          	lw	a2,-1904(gp) # 23cd8 <User_Insn>
   20e20:	8941a583          	lw	a1,-1900(gp) # 23cdc <User_Time>
   20e24:	00021537          	lui	a0,0x21
   20e28:	47850513          	addi	a0,a0,1144 # 21478 <main+0xcec>
   20e2c:	810f00ef          	jal	ra,10e3c <printf>
   20e30:	8941a583          	lw	a1,-1900(gp) # 23cdc <User_Time>
   20e34:	8901a783          	lw	a5,-1904(gp) # 23cd8 <User_Insn>
   20e38:	06400613          	li	a2,100
   20e3c:	02bd85b3          	mul	a1,s11,a1
   20e40:	00021537          	lui	a0,0x21
   20e44:	49850513          	addi	a0,a0,1176 # 21498 <main+0xd0c>
   20e48:	02f5c5b3          	div	a1,a1,a5
   20e4c:	03a5c6b3          	div	a3,a1,s10
   20e50:	02c5c633          	div	a2,a1,a2
   20e54:	03a5e733          	rem	a4,a1,s10
   20e58:	03a6e6b3          	rem	a3,a3,s10
   20e5c:	03a66633          	rem	a2,a2,s10
   20e60:	03b5c5b3          	div	a1,a1,s11
   20e64:	fd9ef0ef          	jal	ra,10e3c <printf>
   20e68:	8941a403          	lw	s0,-1900(gp) # 23cdc <User_Time>
   20e6c:	05f5e7b7          	lui	a5,0x5f5e
   20e70:	10078793          	addi	a5,a5,256 # 5f5e100 <_end+0x5f37c20>
   20e74:	0287c433          	div	s0,a5,s0
   20e78:	00021537          	lui	a0,0x21
   20e7c:	4bc50513          	addi	a0,a0,1212 # 214bc <main+0xd30>
   20e80:	00040593          	mv	a1,s0
   20e84:	03b40433          	mul	s0,s0,s11
   20e88:	fb5ef0ef          	jal	ra,10e3c <printf>
   20e8c:	000046b7          	lui	a3,0x4
   20e90:	0002b637          	lui	a2,0x2b
   20e94:	6dd00713          	li	a4,1757
   20e98:	4a268693          	addi	a3,a3,1186 # 44a2 <_start-0xbb5e>
   20e9c:	e5460613          	addi	a2,a2,-428 # 2ae54 <_end+0x4974>
   20ea0:	001ad5b7          	lui	a1,0x1ad
   20ea4:	f4858593          	addi	a1,a1,-184 # 1acf48 <_end+0x186a68>
   20ea8:	00021537          	lui	a0,0x21
   20eac:	02e44733          	div	a4,s0,a4
   20eb0:	4e050513          	addi	a0,a0,1248 # 214e0 <main+0xd54>
   20eb4:	02d446b3          	div	a3,s0,a3
   20eb8:	02c44633          	div	a2,s0,a2
   20ebc:	03a76733          	rem	a4,a4,s10
   20ec0:	03a6e6b3          	rem	a3,a3,s10
   20ec4:	03a66633          	rem	a2,a2,s10
   20ec8:	02b445b3          	div	a1,s0,a1
   20ecc:	f71ef0ef          	jal	ra,10e3c <printf>
   20ed0:	0ac12083          	lw	ra,172(sp)
   20ed4:	0a812403          	lw	s0,168(sp)
   20ed8:	0a412483          	lw	s1,164(sp)
   20edc:	0a012903          	lw	s2,160(sp)
   20ee0:	09c12983          	lw	s3,156(sp)
   20ee4:	09812a03          	lw	s4,152(sp)
   20ee8:	09412a83          	lw	s5,148(sp)
   20eec:	09012b03          	lw	s6,144(sp)
   20ef0:	08c12b83          	lw	s7,140(sp)
   20ef4:	08812c03          	lw	s8,136(sp)
   20ef8:	08412c83          	lw	s9,132(sp)
   20efc:	08012d03          	lw	s10,128(sp)
   20f00:	07c12d83          	lw	s11,124(sp)
   20f04:	00000513          	li	a0,0
   20f08:	0b010113          	addi	sp,sp,176
   20f0c:	00008067          	ret
   20f10:	02c10593          	addi	a1,sp,44
   20f14:	00000513          	li	a0,0
   20f18:	c3cef0ef          	jal	ra,10354 <Proc_6>
   20f1c:	004ca303          	lw	t1,4(s9)
   20f20:	008ca883          	lw	a7,8(s9)
   20f24:	00cca803          	lw	a6,12(s9)
   20f28:	010ca503          	lw	a0,16(s9)
   20f2c:	014ca583          	lw	a1,20(s9)
   20f30:	018ca603          	lw	a2,24(s9)
   20f34:	01ccd683          	lhu	a3,28(s9)
   20f38:	01ecc703          	lbu	a4,30(s9)
   20f3c:	40144783          	lbu	a5,1025(s0)
   20f40:	001d8d93          	addi	s11,s11,1
   20f44:	05612823          	sw	s6,80(sp)
   20f48:	04612a23          	sw	t1,84(sp)
   20f4c:	05112c23          	sw	a7,88(sp)
   20f50:	05012e23          	sw	a6,92(sp)
   20f54:	06a12023          	sw	a0,96(sp)
   20f58:	06b12223          	sw	a1,100(sp)
   20f5c:	06c12423          	sw	a2,104(sp)
   20f60:	06d11623          	sh	a3,108(sp)
   20f64:	06e10723          	sb	a4,110(sp)
   20f68:	3e9aae23          	sw	s1,1020(s5)
   20f6c:	0ffdfd93          	andi	s11,s11,255
   20f70:	00048913          	mv	s2,s1
   20f74:	afb7f2e3          	bleu	s11,a5,20a58 <main+0x2cc>
   20f78:	b05ff06f          	j	20a7c <main+0x2f0>
   20f7c:	00900913          	li	s2,9
   20f80:	b05ff06f          	j	20a84 <main+0x2f8>
   20f84:	00021537          	lui	a0,0x21
   20f88:	01c50513          	addi	a0,a0,28 # 2101c <main+0x890>
   20f8c:	87cf00ef          	jal	ra,11008 <puts>
   20f90:	00a00513          	li	a0,10
   20f94:	efdef0ef          	jal	ra,10e90 <putchar>
   20f98:	951ff06f          	j	208e8 <main+0x15c>

Disassembly of section .rodata:

00020fa0 <blanks.4513-0x74c>:
   20fa0:	4844                	lw	s1,20(s0)
   20fa2:	5952                	lw	s2,52(sp)
   20fa4:	4e4f5453          	0x4e4f5453
   20fa8:	2045                	jal	21048 <main+0x8bc>
   20faa:	5250                	lw	a2,36(a2)
   20fac:	4152474f          	fnmadd.s	fa4,ft4,fs5,fs0,rmm
   20fb0:	2c4d                	jal	21262 <main+0xad6>
   20fb2:	5320                	lw	s0,96(a4)
   20fb4:	20454d4f          	fnmadd.s	fs10,fa0,ft4,ft4,rmm
   20fb8:	49525453          	0x49525453
   20fbc:	474e                	lw	a4,208(sp)
   20fbe:	0000                	unimp
   20fc0:	6844                	flw	fs1,20(s0)
   20fc2:	7972                	flw	fs2,60(sp)
   20fc4:	6e6f7473          	csrrci	s0,0x6e6,30
   20fc8:	2065                	jal	21070 <main+0x8e4>
   20fca:	6542                	flw	fa0,16(sp)
   20fcc:	636e                	flw	ft6,216(sp)
   20fce:	6d68                	flw	fa0,92(a0)
   20fd0:	7261                	lui	tp,0xffff8
   20fd2:	56202c6b          	0x56202c6b
   20fd6:	7265                	lui	tp,0xffff9
   20fd8:	6e6f6973          	csrrsi	s2,0x6e6,30
   20fdc:	3220                	fld	fs0,96(a2)
   20fde:	312e                	fld	ft2,232(sp)
   20fe0:	2820                	fld	fs0,80(s0)
   20fe2:	614c                	flw	fa1,4(a0)
   20fe4:	676e                	flw	fa4,216(sp)
   20fe6:	6175                	addi	sp,sp,368
   20fe8:	203a6567          	0x203a6567
   20fec:	00002943          	fmadd.s	fs2,ft0,ft0,ft0,rdn
   20ff0:	7250                	flw	fa2,36(a2)
   20ff2:	6172676f          	jal	a4,47e08 <_end+0x21928>
   20ff6:	206d                	jal	210a0 <main+0x914>
   20ff8:	706d6f63          	bltu	s10,t1,21716 <zeroes.4514+0x1a>
   20ffc:	6c69                	lui	s8,0x1a
   20ffe:	6465                	lui	s0,0x19
   21000:	7720                	flw	fs0,104(a4)
   21002:	7469                	lui	s0,0xffffa
   21004:	2068                	fld	fa0,192(s0)
   21006:	67657227          	0x67657227
   2100a:	7369                	lui	t1,0xffffa
   2100c:	6574                	flw	fa3,76(a0)
   2100e:	2772                	fld	fa4,280(sp)
   21010:	6120                	flw	fs0,64(a0)
   21012:	7474                	flw	fa3,108(s0)
   21014:	6972                	flw	fs2,28(sp)
   21016:	7562                	flw	fa0,56(sp)
   21018:	6574                	flw	fa3,76(a0)
   2101a:	0000                	unimp
   2101c:	7250                	flw	fa2,36(a2)
   2101e:	6172676f          	jal	a4,47e34 <_end+0x21954>
   21022:	206d                	jal	210cc <main+0x940>
   21024:	706d6f63          	bltu	s10,t1,21742 <zeroes.4514+0x46>
   21028:	6c69                	lui	s8,0x1a
   2102a:	6465                	lui	s0,0x19
   2102c:	7720                	flw	fs0,104(a4)
   2102e:	7469                	lui	s0,0xffffa
   21030:	6f68                	flw	fa0,92(a4)
   21032:	7475                	lui	s0,0xffffd
   21034:	2720                	fld	fs0,72(a4)
   21036:	6572                	flw	fa0,28(sp)
   21038:	74736967          	0x74736967
   2103c:	7265                	lui	tp,0xffff9
   2103e:	74612027          	fsw	ft6,1856(sp)
   21042:	7274                	flw	fa3,100(a2)
   21044:	6269                	lui	tp,0x1a
   21046:	7475                	lui	s0,0xffffd
   21048:	0065                	c.nop	25
   2104a:	0000                	unimp
   2104c:	6c50                	flw	fa2,28(s0)
   2104e:	6165                	addi	sp,sp,112
   21050:	67206573          	csrrsi	a0,0x672,0
   21054:	7669                	lui	a2,0xffffa
   21056:	2065                	jal	210fe <main+0x972>
   21058:	6874                	flw	fa3,84(s0)
   2105a:	2065                	jal	21102 <main+0x976>
   2105c:	756e                	flw	fa0,248(sp)
   2105e:	626d                	lui	tp,0x1b
   21060:	7265                	lui	tp,0xffff9
   21062:	6f20                	flw	fs0,88(a4)
   21064:	2066                	fld	ft0,88(sp)
   21066:	7572                	flw	fa0,60(sp)
   21068:	736e                	flw	ft6,248(sp)
   2106a:	7420                	flw	fs0,104(s0)
   2106c:	7268                	flw	fa0,100(a2)
   2106e:	6867756f          	jal	a0,986f4 <_end+0x72214>
   21072:	7420                	flw	fs0,104(s0)
   21074:	6568                	flw	fa0,76(a0)
   21076:	6220                	flw	fs0,64(a2)
   21078:	6e65                	lui	t3,0x19
   2107a:	616d6863          	bltu	s10,s6,2168a <main+0xefe>
   2107e:	6b72                	flw	fs6,28(sp)
   21080:	203a                	fld	ft0,392(sp)
   21082:	0000                	unimp
   21084:	7845                	lui	a6,0xffff1
   21086:	6365                	lui	t1,0x19
   21088:	7475                	lui	s0,0xffffd
   2108a:	6f69                	lui	t5,0x1a
   2108c:	206e                	fld	ft0,216(sp)
   2108e:	72617473          	csrrci	s0,0x726,2
   21092:	7374                	flw	fa3,100(a4)
   21094:	202c                	fld	fa1,64(s0)
   21096:	6425                	lui	s0,0x9
   21098:	7220                	flw	fs0,96(a2)
   2109a:	6e75                	lui	t3,0x1d
   2109c:	68742073          	csrs	0x687,s0
   210a0:	6f72                	flw	ft10,28(sp)
   210a2:	6775                	lui	a4,0x1d
   210a4:	2068                	fld	fa0,192(s0)
   210a6:	6844                	flw	fs1,20(s0)
   210a8:	7972                	flw	fs2,60(sp)
   210aa:	6e6f7473          	csrrci	s0,0x6e6,30
   210ae:	0a65                	addi	s4,s4,25
   210b0:	0000                	unimp
   210b2:	0000                	unimp
   210b4:	7845                	lui	a6,0xffff1
   210b6:	6365                	lui	t1,0x19
   210b8:	7475                	lui	s0,0xffffd
   210ba:	6f69                	lui	t5,0x1a
   210bc:	206e                	fld	ft0,216(sp)
   210be:	6e65                	lui	t3,0x19
   210c0:	7364                	flw	fs1,100(a4)
   210c2:	0000                	unimp
   210c4:	6946                	flw	fs2,80(sp)
   210c6:	616e                	flw	ft2,216(sp)
   210c8:	206c                	fld	fa1,192(s0)
   210ca:	6176                	flw	ft2,92(sp)
   210cc:	756c                	flw	fa1,108(a0)
   210ce:	7365                	lui	t1,0xffff9
   210d0:	6f20                	flw	fs0,88(a4)
   210d2:	2066                	fld	ft0,88(sp)
   210d4:	6874                	flw	fa3,84(s0)
   210d6:	2065                	jal	2117e <main+0x9f2>
   210d8:	6176                	flw	ft2,92(sp)
   210da:	6972                	flw	fs2,28(sp)
   210dc:	6261                	lui	tp,0x18
   210de:	656c                	flw	fa1,76(a0)
   210e0:	73752073          	csrs	0x737,a0
   210e4:	6465                	lui	s0,0x19
   210e6:	6920                	flw	fs0,80(a0)
   210e8:	206e                	fld	ft0,216(sp)
   210ea:	6874                	flw	fa3,84(s0)
   210ec:	2065                	jal	21194 <main+0xa08>
   210ee:	6562                	flw	fa0,24(sp)
   210f0:	636e                	flw	ft6,216(sp)
   210f2:	6d68                	flw	fa0,92(a0)
   210f4:	7261                	lui	tp,0xffff8
   210f6:	00003a6b          	0x3a6b
   210fa:	0000                	unimp
   210fc:	6e49                	lui	t3,0x12
   210fe:	5f74                	lw	a3,124(a4)
   21100:	626f6c47          	fmsub.d	fs8,ft10,ft6,fa2,unknown
   21104:	203a                	fld	ft0,392(sp)
   21106:	2020                	fld	fs0,64(s0)
   21108:	2020                	fld	fs0,64(s0)
   2110a:	2020                	fld	fs0,64(s0)
   2110c:	2020                	fld	fs0,64(s0)
   2110e:	2020                	fld	fs0,64(s0)
   21110:	2520                	fld	fs0,72(a0)
   21112:	0a64                	addi	s1,sp,284
   21114:	0000                	unimp
   21116:	0000                	unimp
   21118:	2020                	fld	fs0,64(s0)
   2111a:	2020                	fld	fs0,64(s0)
   2111c:	2020                	fld	fs0,64(s0)
   2111e:	2020                	fld	fs0,64(s0)
   21120:	756f6873          	csrrsi	a6,0x756,30
   21124:	646c                	flw	fa1,76(s0)
   21126:	6220                	flw	fs0,64(a2)
   21128:	3a65                	jal	20ae0 <main+0x354>
   2112a:	2020                	fld	fs0,64(s0)
   2112c:	2520                	fld	fs0,72(a0)
   2112e:	0a64                	addi	s1,sp,284
   21130:	0000                	unimp
   21132:	0000                	unimp
   21134:	6f42                	flw	ft10,16(sp)
   21136:	475f6c6f          	jal	s8,117daa <_end+0xf18ca>
   2113a:	6f6c                	flw	fa1,92(a4)
   2113c:	3a62                	fld	fs4,56(sp)
   2113e:	2020                	fld	fs0,64(s0)
   21140:	2020                	fld	fs0,64(s0)
   21142:	2020                	fld	fs0,64(s0)
   21144:	2020                	fld	fs0,64(s0)
   21146:	2020                	fld	fs0,64(s0)
   21148:	2520                	fld	fs0,72(a0)
   2114a:	0a64                	addi	s1,sp,284
   2114c:	0000                	unimp
   2114e:	0000                	unimp
   21150:	315f6843          	fmadd.s	fa6,ft10,fs5,ft6,unknown
   21154:	475f 6f6c 3a62      	0x3a626f6c475f
   2115a:	2020                	fld	fs0,64(s0)
   2115c:	2020                	fld	fs0,64(s0)
   2115e:	2020                	fld	fs0,64(s0)
   21160:	2020                	fld	fs0,64(s0)
   21162:	2020                	fld	fs0,64(s0)
   21164:	2520                	fld	fs0,72(a0)
   21166:	00000a63          	beqz	zero,2117a <main+0x9ee>
   2116a:	0000                	unimp
   2116c:	2020                	fld	fs0,64(s0)
   2116e:	2020                	fld	fs0,64(s0)
   21170:	2020                	fld	fs0,64(s0)
   21172:	2020                	fld	fs0,64(s0)
   21174:	756f6873          	csrrsi	a6,0x756,30
   21178:	646c                	flw	fa1,76(s0)
   2117a:	6220                	flw	fs0,64(a2)
   2117c:	3a65                	jal	20b34 <main+0x3a8>
   2117e:	2020                	fld	fs0,64(s0)
   21180:	2520                	fld	fs0,72(a0)
   21182:	00000a63          	beqz	zero,21196 <main+0xa0a>
   21186:	0000                	unimp
   21188:	325f6843          	fmadd.d	fa6,ft10,ft5,ft6,unknown
   2118c:	475f 6f6c 3a62      	0x3a626f6c475f
   21192:	2020                	fld	fs0,64(s0)
   21194:	2020                	fld	fs0,64(s0)
   21196:	2020                	fld	fs0,64(s0)
   21198:	2020                	fld	fs0,64(s0)
   2119a:	2020                	fld	fs0,64(s0)
   2119c:	2520                	fld	fs0,72(a0)
   2119e:	00000a63          	beqz	zero,211b2 <main+0xa26>
   211a2:	0000                	unimp
   211a4:	7241                	lui	tp,0xffff0
   211a6:	5f72                	lw	t5,60(sp)
   211a8:	5f31                	li	t5,-20
   211aa:	626f6c47          	fmsub.d	fs8,ft10,ft6,fa2,unknown
   211ae:	3a5d385b          	0x3a5d385b
   211b2:	2020                	fld	fs0,64(s0)
   211b4:	2020                	fld	fs0,64(s0)
   211b6:	2020                	fld	fs0,64(s0)
   211b8:	2520                	fld	fs0,72(a0)
   211ba:	0a64                	addi	s1,sp,284
   211bc:	0000                	unimp
   211be:	0000                	unimp
   211c0:	7241                	lui	tp,0xffff0
   211c2:	5f72                	lw	t5,60(sp)
   211c4:	5f32                	lw	t5,44(sp)
   211c6:	626f6c47          	fmsub.d	fs8,ft10,ft6,fa2,unknown
   211ca:	5b5d385b          	0x5b5d385b
   211ce:	203a5d37          	lui	s10,0x203a5
   211d2:	2020                	fld	fs0,64(s0)
   211d4:	2520                	fld	fs0,72(a0)
   211d6:	0a64                	addi	s1,sp,284
   211d8:	0000                	unimp
   211da:	0000                	unimp
   211dc:	2020                	fld	fs0,64(s0)
   211de:	2020                	fld	fs0,64(s0)
   211e0:	2020                	fld	fs0,64(s0)
   211e2:	2020                	fld	fs0,64(s0)
   211e4:	756f6873          	csrrsi	a6,0x756,30
   211e8:	646c                	flw	fa1,76(s0)
   211ea:	6220                	flw	fs0,64(a2)
   211ec:	3a65                	jal	20ba4 <main+0x418>
   211ee:	2020                	fld	fs0,64(s0)
   211f0:	4e20                	lw	s0,88(a2)
   211f2:	6d75                	lui	s10,0x1d
   211f4:	6562                	flw	fa0,24(sp)
   211f6:	5f72                	lw	t5,60(sp)
   211f8:	525f664f          	fnmadd.d	fa2,ft10,ft5,fa0,unknown
   211fc:	6e75                	lui	t3,0x1d
   211fe:	202b2073          	csrs	hedeleg,s6
   21202:	3031                	jal	20a0e <main+0x282>
   21204:	0000                	unimp
   21206:	0000                	unimp
   21208:	7450                	flw	fa2,44(s0)
   2120a:	5f72                	lw	t5,60(sp)
   2120c:	626f6c47          	fmsub.d	fs8,ft10,ft6,fa2,unknown
   21210:	3e2d                	jal	20d4a <main+0x5be>
   21212:	0000                	unimp
   21214:	2020                	fld	fs0,64(s0)
   21216:	7450                	flw	fa2,44(s0)
   21218:	5f72                	lw	t5,60(sp)
   2121a:	706d6f43          	fmadd.s	ft10,fs10,ft6,fa4,unknown
   2121e:	203a                	fld	ft0,392(sp)
   21220:	2020                	fld	fs0,64(s0)
   21222:	2020                	fld	fs0,64(s0)
   21224:	2020                	fld	fs0,64(s0)
   21226:	2020                	fld	fs0,64(s0)
   21228:	2520                	fld	fs0,72(a0)
   2122a:	0a64                	addi	s1,sp,284
   2122c:	0000                	unimp
   2122e:	0000                	unimp
   21230:	2020                	fld	fs0,64(s0)
   21232:	2020                	fld	fs0,64(s0)
   21234:	2020                	fld	fs0,64(s0)
   21236:	2020                	fld	fs0,64(s0)
   21238:	756f6873          	csrrsi	a6,0x756,30
   2123c:	646c                	flw	fa1,76(s0)
   2123e:	6220                	flw	fs0,64(a2)
   21240:	3a65                	jal	20bf8 <main+0x46c>
   21242:	2020                	fld	fs0,64(s0)
   21244:	2820                	fld	fs0,80(s0)
   21246:	6d69                	lui	s10,0x1a
   21248:	6c70                	flw	fa2,92(s0)
   2124a:	6d65                	lui	s10,0x19
   2124c:	6e65                	lui	t3,0x19
   2124e:	6174                	flw	fa3,68(a0)
   21250:	6974                	flw	fa3,84(a0)
   21252:	642d6e6f          	jal	t3,f7894 <_end+0xd13b4>
   21256:	7065                	c.lui	zero,0xffff9
   21258:	6e65                	lui	t3,0x19
   2125a:	6564                	flw	fs1,76(a0)
   2125c:	746e                	flw	fs0,248(sp)
   2125e:	0029                	c.nop	10
   21260:	2020                	fld	fs0,64(s0)
   21262:	6944                	flw	fs1,20(a0)
   21264:	3a726373          	csrrsi	t1,0x3a7,4
   21268:	2020                	fld	fs0,64(s0)
   2126a:	2020                	fld	fs0,64(s0)
   2126c:	2020                	fld	fs0,64(s0)
   2126e:	2020                	fld	fs0,64(s0)
   21270:	2020                	fld	fs0,64(s0)
   21272:	2020                	fld	fs0,64(s0)
   21274:	2520                	fld	fs0,72(a0)
   21276:	0a64                	addi	s1,sp,284
   21278:	0000                	unimp
   2127a:	0000                	unimp
   2127c:	2020                	fld	fs0,64(s0)
   2127e:	6e45                	lui	t3,0x11
   21280:	6d75                	lui	s10,0x1d
   21282:	435f 6d6f 3a70      	0x3a706d6f435f
   21288:	2020                	fld	fs0,64(s0)
   2128a:	2020                	fld	fs0,64(s0)
   2128c:	2020                	fld	fs0,64(s0)
   2128e:	2020                	fld	fs0,64(s0)
   21290:	2520                	fld	fs0,72(a0)
   21292:	0a64                	addi	s1,sp,284
   21294:	0000                	unimp
   21296:	0000                	unimp
   21298:	2020                	fld	fs0,64(s0)
   2129a:	6e49                	lui	t3,0x12
   2129c:	5f74                	lw	a3,124(a4)
   2129e:	706d6f43          	fmadd.s	ft10,fs10,ft6,fa4,unknown
   212a2:	203a                	fld	ft0,392(sp)
   212a4:	2020                	fld	fs0,64(s0)
   212a6:	2020                	fld	fs0,64(s0)
   212a8:	2020                	fld	fs0,64(s0)
   212aa:	2020                	fld	fs0,64(s0)
   212ac:	2520                	fld	fs0,72(a0)
   212ae:	0a64                	addi	s1,sp,284
   212b0:	0000                	unimp
   212b2:	0000                	unimp
   212b4:	2020                	fld	fs0,64(s0)
   212b6:	5f727453          	0x5f727453
   212ba:	706d6f43          	fmadd.s	ft10,fs10,ft6,fa4,unknown
   212be:	203a                	fld	ft0,392(sp)
   212c0:	2020                	fld	fs0,64(s0)
   212c2:	2020                	fld	fs0,64(s0)
   212c4:	2020                	fld	fs0,64(s0)
   212c6:	2020                	fld	fs0,64(s0)
   212c8:	2520                	fld	fs0,72(a0)
   212ca:	00000a73          	0xa73
   212ce:	0000                	unimp
   212d0:	2020                	fld	fs0,64(s0)
   212d2:	2020                	fld	fs0,64(s0)
   212d4:	2020                	fld	fs0,64(s0)
   212d6:	2020                	fld	fs0,64(s0)
   212d8:	756f6873          	csrrsi	a6,0x756,30
   212dc:	646c                	flw	fa1,76(s0)
   212de:	6220                	flw	fs0,64(a2)
   212e0:	3a65                	jal	20c98 <main+0x50c>
   212e2:	2020                	fld	fs0,64(s0)
   212e4:	4420                	lw	s0,72(s0)
   212e6:	5248                	lw	a0,36(a2)
   212e8:	5359                	li	t1,-10
   212ea:	4f54                	lw	a3,28(a4)
   212ec:	454e                	lw	a0,208(sp)
   212ee:	5020                	lw	s0,96(s0)
   212f0:	4f52                	lw	t5,20(sp)
   212f2:	4d415247          	0x4d415247
   212f6:	202c                	fld	fa1,64(s0)
   212f8:	454d4f53          	0x454d4f53
   212fc:	5320                	lw	s0,96(a4)
   212fe:	5254                	lw	a3,36(a2)
   21300:	4e49                	li	t3,18
   21302:	654e0047          	0x654e0047
   21306:	7478                	flw	fa4,108(s0)
   21308:	505f 7274 475f      	0x475f7274505f
   2130e:	6f6c                	flw	fa1,92(a4)
   21310:	2d62                	fld	fs10,24(sp)
   21312:	003e                	c.slli	zero,0xf
   21314:	2020                	fld	fs0,64(s0)
   21316:	2020                	fld	fs0,64(s0)
   21318:	2020                	fld	fs0,64(s0)
   2131a:	2020                	fld	fs0,64(s0)
   2131c:	756f6873          	csrrsi	a6,0x756,30
   21320:	646c                	flw	fa1,76(s0)
   21322:	6220                	flw	fs0,64(a2)
   21324:	3a65                	jal	20cdc <main+0x550>
   21326:	2020                	fld	fs0,64(s0)
   21328:	2820                	fld	fs0,80(s0)
   2132a:	6d69                	lui	s10,0x1a
   2132c:	6c70                	flw	fa2,92(s0)
   2132e:	6d65                	lui	s10,0x19
   21330:	6e65                	lui	t3,0x19
   21332:	6174                	flw	fa3,68(a0)
   21334:	6974                	flw	fa3,84(a0)
   21336:	642d6e6f          	jal	t3,f7978 <_end+0xd1498>
   2133a:	7065                	c.lui	zero,0xffff9
   2133c:	6e65                	lui	t3,0x19
   2133e:	6564                	flw	fs1,76(a0)
   21340:	746e                	flw	fs0,248(sp)
   21342:	2c29                	jal	2155c <main+0xdd0>
   21344:	7320                	flw	fs0,96(a4)
   21346:	6d61                	lui	s10,0x18
   21348:	2065                	jal	213f0 <main+0xc64>
   2134a:	7361                	lui	t1,0xffff8
   2134c:	6120                	flw	fs0,64(a0)
   2134e:	6f62                	flw	ft10,24(sp)
   21350:	6576                	flw	fa0,92(sp)
   21352:	0000                	unimp
   21354:	6e49                	lui	t3,0x12
   21356:	5f74                	lw	a3,124(a4)
   21358:	5f31                	li	t5,-20
   2135a:	6f4c                	flw	fa1,28(a4)
   2135c:	20203a63          	0x20203a63
   21360:	2020                	fld	fs0,64(s0)
   21362:	2020                	fld	fs0,64(s0)
   21364:	2020                	fld	fs0,64(s0)
   21366:	2020                	fld	fs0,64(s0)
   21368:	2520                	fld	fs0,72(a0)
   2136a:	0a64                	addi	s1,sp,284
   2136c:	0000                	unimp
   2136e:	0000                	unimp
   21370:	6e49                	lui	t3,0x12
   21372:	5f74                	lw	a3,124(a4)
   21374:	5f32                	lw	t5,44(sp)
   21376:	6f4c                	flw	fa1,28(a4)
   21378:	20203a63          	0x20203a63
   2137c:	2020                	fld	fs0,64(s0)
   2137e:	2020                	fld	fs0,64(s0)
   21380:	2020                	fld	fs0,64(s0)
   21382:	2020                	fld	fs0,64(s0)
   21384:	2520                	fld	fs0,72(a0)
   21386:	0a64                	addi	s1,sp,284
   21388:	0000                	unimp
   2138a:	0000                	unimp
   2138c:	6e49                	lui	t3,0x12
   2138e:	5f74                	lw	a3,124(a4)
   21390:	6f4c5f33          	0x6f4c5f33
   21394:	20203a63          	0x20203a63
   21398:	2020                	fld	fs0,64(s0)
   2139a:	2020                	fld	fs0,64(s0)
   2139c:	2020                	fld	fs0,64(s0)
   2139e:	2020                	fld	fs0,64(s0)
   213a0:	2520                	fld	fs0,72(a0)
   213a2:	0a64                	addi	s1,sp,284
   213a4:	0000                	unimp
   213a6:	0000                	unimp
   213a8:	6e45                	lui	t3,0x11
   213aa:	6d75                	lui	s10,0x1d
   213ac:	4c5f 636f 203a      	0x203a636f4c5f
   213b2:	2020                	fld	fs0,64(s0)
   213b4:	2020                	fld	fs0,64(s0)
   213b6:	2020                	fld	fs0,64(s0)
   213b8:	2020                	fld	fs0,64(s0)
   213ba:	2020                	fld	fs0,64(s0)
   213bc:	2520                	fld	fs0,72(a0)
   213be:	0a64                	addi	s1,sp,284
   213c0:	0000                	unimp
   213c2:	0000                	unimp
   213c4:	5f727453          	0x5f727453
   213c8:	5f31                	li	t5,-20
   213ca:	6f4c                	flw	fa1,28(a4)
   213cc:	20203a63          	0x20203a63
   213d0:	2020                	fld	fs0,64(s0)
   213d2:	2020                	fld	fs0,64(s0)
   213d4:	2020                	fld	fs0,64(s0)
   213d6:	2020                	fld	fs0,64(s0)
   213d8:	2520                	fld	fs0,72(a0)
   213da:	00000a73          	0xa73
   213de:	0000                	unimp
   213e0:	2020                	fld	fs0,64(s0)
   213e2:	2020                	fld	fs0,64(s0)
   213e4:	2020                	fld	fs0,64(s0)
   213e6:	2020                	fld	fs0,64(s0)
   213e8:	756f6873          	csrrsi	a6,0x756,30
   213ec:	646c                	flw	fa1,76(s0)
   213ee:	6220                	flw	fs0,64(a2)
   213f0:	3a65                	jal	20da8 <main+0x61c>
   213f2:	2020                	fld	fs0,64(s0)
   213f4:	4420                	lw	s0,72(s0)
   213f6:	5248                	lw	a0,36(a2)
   213f8:	5359                	li	t1,-10
   213fa:	4f54                	lw	a3,28(a4)
   213fc:	454e                	lw	a0,208(sp)
   213fe:	5020                	lw	s0,96(s0)
   21400:	4f52                	lw	t5,20(sp)
   21402:	4d415247          	0x4d415247
   21406:	202c                	fld	fa1,64(s0)
   21408:	2731                	jal	21b14 <__mprec_bigtens+0x3c>
   2140a:	53205453          	0x53205453
   2140e:	5254                	lw	a3,36(a2)
   21410:	4e49                	li	t3,18
   21412:	74530047          	0x74530047
   21416:	5f72                	lw	t5,60(sp)
   21418:	5f32                	lw	t5,44(sp)
   2141a:	6f4c                	flw	fa1,28(a4)
   2141c:	20203a63          	0x20203a63
   21420:	2020                	fld	fs0,64(s0)
   21422:	2020                	fld	fs0,64(s0)
   21424:	2020                	fld	fs0,64(s0)
   21426:	2020                	fld	fs0,64(s0)
   21428:	2520                	fld	fs0,72(a0)
   2142a:	00000a73          	0xa73
   2142e:	0000                	unimp
   21430:	2020                	fld	fs0,64(s0)
   21432:	2020                	fld	fs0,64(s0)
   21434:	2020                	fld	fs0,64(s0)
   21436:	2020                	fld	fs0,64(s0)
   21438:	756f6873          	csrrsi	a6,0x756,30
   2143c:	646c                	flw	fa1,76(s0)
   2143e:	6220                	flw	fs0,64(a2)
   21440:	3a65                	jal	20df8 <main+0x66c>
   21442:	2020                	fld	fs0,64(s0)
   21444:	4420                	lw	s0,72(s0)
   21446:	5248                	lw	a0,36(a2)
   21448:	5359                	li	t1,-10
   2144a:	4f54                	lw	a3,28(a4)
   2144c:	454e                	lw	a0,208(sp)
   2144e:	5020                	lw	s0,96(s0)
   21450:	4f52                	lw	t5,20(sp)
   21452:	4d415247          	0x4d415247
   21456:	202c                	fld	fa1,64(s0)
   21458:	2732                	fld	fa4,264(sp)
   2145a:	444e                	lw	s0,208(sp)
   2145c:	5320                	lw	s0,96(a4)
   2145e:	5254                	lw	a3,36(a2)
   21460:	4e49                	li	t3,18
   21462:	754e0047          	0x754e0047
   21466:	626d                	lui	tp,0x1b
   21468:	7265                	lui	tp,0xffff9
   2146a:	4f5f 5f66 7552      	0x75525f664f5f
   21470:	736e                	flw	ft6,248(sp)
   21472:	203a                	fld	ft0,392(sp)
   21474:	6425                	lui	s0,0x9
   21476:	000a                	c.slli	zero,0x2
   21478:	7355                	lui	t1,0xffff5
   2147a:	7265                	lui	tp,0xffff9
   2147c:	545f 6d69 3a65      	0x3a656d69545f
   21482:	2520                	fld	fs0,72(a0)
   21484:	2064                	fld	fs1,192(s0)
   21486:	6c637963          	bleu	t1,t1,21b58 <__mprec_bigtens+0x80>
   2148a:	7365                	lui	t1,0xffff9
   2148c:	202c                	fld	fa1,64(s0)
   2148e:	6425                	lui	s0,0x9
   21490:	6920                	flw	fs0,80(a0)
   21492:	736e                	flw	ft6,248(sp)
   21494:	0a6e                	slli	s4,s4,0x1b
   21496:	0000                	unimp
   21498:	6c637943          	0x6c637943
   2149c:	7365                	lui	t1,0xffff9
   2149e:	505f 7265 495f      	0x495f7265505f
   214a4:	736e                	flw	ft6,248(sp)
   214a6:	7274                	flw	fa3,100(a2)
   214a8:	6375                	lui	t1,0x1d
   214aa:	6974                	flw	fa3,84(a0)
   214ac:	203a6e6f          	jal	t3,c7eae <_end+0xa19ce>
   214b0:	6425                	lui	s0,0x9
   214b2:	252e                	fld	fa0,200(sp)
   214b4:	2564                	fld	fs1,200(a0)
   214b6:	2564                	fld	fs1,200(a0)
   214b8:	0a64                	addi	s1,sp,284
   214ba:	0000                	unimp
   214bc:	6844                	flw	fs1,20(s0)
   214be:	7972                	flw	fs2,60(sp)
   214c0:	6e6f7473          	csrrci	s0,0x6e6,30
   214c4:	7365                	lui	t1,0xffff9
   214c6:	505f 7265 535f      	0x535f7265505f
   214cc:	6365                	lui	t1,0x19
   214ce:	5f646e6f          	jal	t3,67ac4 <_end+0x415e4>
   214d2:	6550                	flw	fa2,12(a0)
   214d4:	5f72                	lw	t5,60(sp)
   214d6:	484d                	li	a6,19
   214d8:	3a7a                	fld	fs4,440(sp)
   214da:	2520                	fld	fs0,72(a0)
   214dc:	0a64                	addi	s1,sp,284
   214de:	0000                	unimp
   214e0:	4d44                	lw	s1,28(a0)
   214e2:	5049                	c.li	zero,-14
   214e4:	65505f53          	0x65505f53
   214e8:	5f72                	lw	t5,60(sp)
   214ea:	484d                	li	a6,19
   214ec:	3a7a                	fld	fs4,440(sp)
   214ee:	2520                	fld	fs0,72(a0)
   214f0:	2e64                	fld	fs1,216(a2)
   214f2:	6425                	lui	s0,0x9
   214f4:	6425                	lui	s0,0x9
   214f6:	6425                	lui	s0,0x9
   214f8:	000a                	c.slli	zero,0x2
   214fa:	0000                	unimp
   214fc:	4844                	lw	s1,20(s0)
   214fe:	5952                	lw	s2,52(sp)
   21500:	4e4f5453          	0x4e4f5453
   21504:	2045                	jal	215a4 <main+0xe18>
   21506:	5250                	lw	a2,36(a2)
   21508:	4152474f          	fnmadd.s	fa4,ft4,fs5,fs0,rmm
   2150c:	2c4d                	jal	217be <etens+0x62>
   2150e:	3120                	fld	fs0,96(a0)
   21510:	20545327          	0x20545327
   21514:	49525453          	0x49525453
   21518:	474e                	lw	a4,208(sp)
   2151a:	0000                	unimp
   2151c:	4844                	lw	s1,20(s0)
   2151e:	5952                	lw	s2,52(sp)
   21520:	4e4f5453          	0x4e4f5453
   21524:	2045                	jal	215c4 <main+0xe38>
   21526:	5250                	lw	a2,36(a2)
   21528:	4152474f          	fnmadd.s	fa4,ft4,fs5,fs0,rmm
   2152c:	2c4d                	jal	217de <etens+0x82>
   2152e:	3220                	fld	fs0,96(a2)
   21530:	20444e27          	fsq	ft4,540(s0) # 921c <_start-0x6de4>
   21534:	49525453          	0x49525453
   21538:	474e                	lw	a4,208(sp)
   2153a:	0000                	unimp
   2153c:	4844                	lw	s1,20(s0)
   2153e:	5952                	lw	s2,52(sp)
   21540:	4e4f5453          	0x4e4f5453
   21544:	2045                	jal	215e4 <main+0xe58>
   21546:	5250                	lw	a2,36(a2)
   21548:	4152474f          	fnmadd.s	fa4,ft4,fs5,fs0,rmm
   2154c:	2c4d                	jal	217fe <etens+0xa2>
   2154e:	3320                	fld	fs0,96(a4)
   21550:	20445227          	0x20445227
   21554:	49525453          	0x49525453
   21558:	474e                	lw	a4,208(sp)
   2155a:	0000                	unimp
   2155c:	6e55                	lui	t3,0x15
   2155e:	6d69                	lui	s10,0x1a
   21560:	6c70                	flw	fa2,92(s0)
   21562:	6d65                	lui	s10,0x19
   21564:	6e65                	lui	t3,0x19
   21566:	6574                	flw	fa3,76(a0)
   21568:	2064                	fld	fs1,192(s0)
   2156a:	74737973          	csrrci	s2,0x747,6
   2156e:	6d65                	lui	s10,0x19
   21570:	6320                	flw	fs0,64(a4)
   21572:	6c61                	lui	s8,0x18
   21574:	206c                	fld	fa1,192(s0)
   21576:	6c6c6163          	bltu	s8,t1,21c38 <__mprec_bigtens+0x160>
   2157a:	6465                	lui	s0,0x19
   2157c:	0a21                	addi	s4,s4,8
   2157e:	0000                	unimp
   21580:	14b0                	addi	a2,sp,616
   21582:	0001                	nop
   21584:	264c                	fld	fa1,136(a2)
   21586:	0001                	nop
   21588:	264c                	fld	fa1,136(a2)
   2158a:	0001                	nop
   2158c:	14c4                	addi	s1,sp,612
   2158e:	0001                	nop
   21590:	264c                	fld	fa1,136(a2)
   21592:	0001                	nop
   21594:	264c                	fld	fa1,136(a2)
   21596:	0001                	nop
   21598:	264c                	fld	fa1,136(a2)
   2159a:	0001                	nop
   2159c:	1460                	addi	s0,sp,556
   2159e:	0001                	nop
   215a0:	264c                	fld	fa1,136(a2)
   215a2:	0001                	nop
   215a4:	264c                	fld	fa1,136(a2)
   215a6:	0001                	nop
   215a8:	14cc                	addi	a1,sp,612
   215aa:	0001                	nop
   215ac:	14ec                	addi	a1,sp,620
   215ae:	0001                	nop
   215b0:	264c                	fld	fa1,136(a2)
   215b2:	0001                	nop
   215b4:	14e4                	addi	s1,sp,620
   215b6:	0001                	nop
   215b8:	14f4                	addi	a3,sp,620
   215ba:	0001                	nop
   215bc:	264c                	fld	fa1,136(a2)
   215be:	0001                	nop
   215c0:	154c                	addi	a1,sp,676
   215c2:	0001                	nop
   215c4:	1554                	addi	a3,sp,676
   215c6:	0001                	nop
   215c8:	1554                	addi	a3,sp,676
   215ca:	0001                	nop
   215cc:	1554                	addi	a3,sp,676
   215ce:	0001                	nop
   215d0:	1554                	addi	a3,sp,676
   215d2:	0001                	nop
   215d4:	1554                	addi	a3,sp,676
   215d6:	0001                	nop
   215d8:	1554                	addi	a3,sp,676
   215da:	0001                	nop
   215dc:	1554                	addi	a3,sp,676
   215de:	0001                	nop
   215e0:	1554                	addi	a3,sp,676
   215e2:	0001                	nop
   215e4:	1554                	addi	a3,sp,676
   215e6:	0001                	nop
   215e8:	264c                	fld	fa1,136(a2)
   215ea:	0001                	nop
   215ec:	264c                	fld	fa1,136(a2)
   215ee:	0001                	nop
   215f0:	264c                	fld	fa1,136(a2)
   215f2:	0001                	nop
   215f4:	264c                	fld	fa1,136(a2)
   215f6:	0001                	nop
   215f8:	264c                	fld	fa1,136(a2)
   215fa:	0001                	nop
   215fc:	264c                	fld	fa1,136(a2)
   215fe:	0001                	nop
   21600:	264c                	fld	fa1,136(a2)
   21602:	0001                	nop
   21604:	1968                	addi	a0,sp,188
   21606:	0001                	nop
   21608:	264c                	fld	fa1,136(a2)
   2160a:	0001                	nop
   2160c:	15e4                	addi	s1,sp,748
   2160e:	0001                	nop
   21610:	18b0                	addi	a2,sp,120
   21612:	0001                	nop
   21614:	1968                	addi	a0,sp,188
   21616:	0001                	nop
   21618:	1968                	addi	a0,sp,188
   2161a:	0001                	nop
   2161c:	1968                	addi	a0,sp,188
   2161e:	0001                	nop
   21620:	264c                	fld	fa1,136(a2)
   21622:	0001                	nop
   21624:	264c                	fld	fa1,136(a2)
   21626:	0001                	nop
   21628:	264c                	fld	fa1,136(a2)
   2162a:	0001                	nop
   2162c:	264c                	fld	fa1,136(a2)
   2162e:	0001                	nop
   21630:	1584                	addi	s1,sp,736
   21632:	0001                	nop
   21634:	264c                	fld	fa1,136(a2)
   21636:	0001                	nop
   21638:	264c                	fld	fa1,136(a2)
   2163a:	0001                	nop
   2163c:	22b0                	fld	fa2,64(a3)
   2163e:	0001                	nop
   21640:	264c                	fld	fa1,136(a2)
   21642:	0001                	nop
   21644:	264c                	fld	fa1,136(a2)
   21646:	0001                	nop
   21648:	264c                	fld	fa1,136(a2)
   2164a:	0001                	nop
   2164c:	2358                	fld	fa4,128(a4)
   2164e:	0001                	nop
   21650:	264c                	fld	fa1,136(a2)
   21652:	0001                	nop
   21654:	23a4                	fld	fs1,64(a5)
   21656:	0001                	nop
   21658:	264c                	fld	fa1,136(a2)
   2165a:	0001                	nop
   2165c:	264c                	fld	fa1,136(a2)
   2165e:	0001                	nop
   21660:	240c                	fld	fa1,8(s0)
   21662:	0001                	nop
   21664:	264c                	fld	fa1,136(a2)
   21666:	0001                	nop
   21668:	264c                	fld	fa1,136(a2)
   2166a:	0001                	nop
   2166c:	264c                	fld	fa1,136(a2)
   2166e:	0001                	nop
   21670:	264c                	fld	fa1,136(a2)
   21672:	0001                	nop
   21674:	264c                	fld	fa1,136(a2)
   21676:	0001                	nop
   21678:	264c                	fld	fa1,136(a2)
   2167a:	0001                	nop
   2167c:	264c                	fld	fa1,136(a2)
   2167e:	0001                	nop
   21680:	264c                	fld	fa1,136(a2)
   21682:	0001                	nop
   21684:	1968                	addi	a0,sp,188
   21686:	0001                	nop
   21688:	264c                	fld	fa1,136(a2)
   2168a:	0001                	nop
   2168c:	15e4                	addi	s1,sp,748
   2168e:	0001                	nop
   21690:	18b4                	addi	a3,sp,120
   21692:	0001                	nop
   21694:	1968                	addi	a0,sp,188
   21696:	0001                	nop
   21698:	1968                	addi	a0,sp,188
   2169a:	0001                	nop
   2169c:	1968                	addi	a0,sp,188
   2169e:	0001                	nop
   216a0:	158c                	addi	a1,sp,736
   216a2:	0001                	nop
   216a4:	18b4                	addi	a3,sp,120
   216a6:	0001                	nop
   216a8:	15d4                	addi	a3,sp,740
   216aa:	0001                	nop
   216ac:	264c                	fld	fa1,136(a2)
   216ae:	0001                	nop
   216b0:	15b8                	addi	a4,sp,744
   216b2:	0001                	nop
   216b4:	264c                	fld	fa1,136(a2)
   216b6:	0001                	nop
   216b8:	2244                	fld	fs1,128(a2)
   216ba:	0001                	nop
   216bc:	22b4                	fld	fa3,64(a3)
   216be:	0001                	nop
   216c0:	2320                	fld	fs0,64(a4)
   216c2:	0001                	nop
   216c4:	15d4                	addi	a3,sp,740
   216c6:	0001                	nop
   216c8:	264c                	fld	fa1,136(a2)
   216ca:	0001                	nop
   216cc:	2358                	fld	fa4,128(a4)
   216ce:	0001                	nop
   216d0:	14a8                	addi	a0,sp,616
   216d2:	0001                	nop
   216d4:	23a8                	fld	fa0,64(a5)
   216d6:	0001                	nop
   216d8:	264c                	fld	fa1,136(a2)
   216da:	0001                	nop
   216dc:	264c                	fld	fa1,136(a2)
   216de:	0001                	nop
   216e0:	2464                	fld	fs1,200(s0)
   216e2:	0001                	nop
   216e4:	264c                	fld	fa1,136(a2)
   216e6:	0001                	nop
   216e8:	14a8                	addi	a0,sp,616
   216ea:	0001                	nop

000216ec <blanks.4513>:
   216ec:	2020                	fld	fs0,64(s0)
   216ee:	2020                	fld	fs0,64(s0)
   216f0:	2020                	fld	fs0,64(s0)
   216f2:	2020                	fld	fs0,64(s0)
   216f4:	2020                	fld	fs0,64(s0)
   216f6:	2020                	fld	fs0,64(s0)
   216f8:	2020                	fld	fs0,64(s0)
   216fa:	2020                	fld	fs0,64(s0)

000216fc <zeroes.4514>:
   216fc:	3030                	fld	fa2,96(s0)
   216fe:	3030                	fld	fa2,96(s0)
   21700:	3030                	fld	fa2,96(s0)
   21702:	3030                	fld	fa2,96(s0)
   21704:	3030                	fld	fa2,96(s0)
   21706:	3030                	fld	fa2,96(s0)
   21708:	3030                	fld	fa2,96(s0)
   2170a:	3030                	fld	fa2,96(s0)
   2170c:	4e49                	li	t3,18
   2170e:	0046                	c.slli	zero,0x11
   21710:	6e69                	lui	t3,0x1a
   21712:	0066                	c.slli	zero,0x19
   21714:	414e                	lw	sp,208(sp)
   21716:	004e                	c.slli	zero,0x13
   21718:	616e                	flw	ft2,216(sp)
   2171a:	006e                	c.slli	zero,0x1b
   2171c:	3130                	fld	fa2,96(a0)
   2171e:	3332                	fld	ft6,296(sp)
   21720:	3534                	fld	fa3,104(a0)
   21722:	3736                	fld	fa4,360(sp)
   21724:	3938                	fld	fa4,112(a0)
   21726:	6261                	lui	tp,0x18
   21728:	66656463          	bltu	a0,t1,21d90 <zeroes.4499+0x114>
   2172c:	0000                	unimp
   2172e:	0000                	unimp
   21730:	3130                	fld	fa2,96(a0)
   21732:	3332                	fld	ft6,296(sp)
   21734:	3534                	fld	fa3,104(a0)
   21736:	3736                	fld	fa4,360(sp)
   21738:	3938                	fld	fa4,112(a0)
   2173a:	4241                	li	tp,16
   2173c:	46454443          	fmadd.q	fs0,fa0,ft4,fs0,rmm
   21740:	0000                	unimp
   21742:	0000                	unimp
   21744:	0030                	addi	a2,sp,8
	...

00021748 <ezero>:
	...

0002175c <etens>:
   2175c:	6576                	flw	fa0,92(sp)
   2175e:	4a92                	lw	s5,4(sp)
   21760:	804a                	c.mv	zero,s2
   21762:	c94c153f 8a20979a 	0x8a20979ac94c153f
   2176a:	5202                	lw	tp,32(sp)
   2176c:	c460                	sw	s0,76(s0)
   2176e:	7525                	lui	a0,0xfffe9
   21770:	6a32                	flw	fs4,12(sp)
   21772:	ce52                	sw	s4,28(sp)
   21774:	329a                	fld	ft5,416(sp)
   21776:	28ce                	fld	fa7,208(sp)
   21778:	a74d                	j	21f1a <_ctype_+0x102>
   2177a:	5de4                	lw	s1,124(a1)
   2177c:	c53d                	beqz	a0,217ea <etens+0x8e>
   2177e:	3b5d                	jal	21534 <main+0xda8>
   21780:	5a929e8b          	0x5a929e8b
   21784:	526c                	lw	a1,100(a2)
   21786:	50ce                	lw	ra,240(sp)
   21788:	3d28f18b          	0x3d28f18b
   2178c:	650d                	lui	a0,0x3
   2178e:	81750c17          	auipc	s8,0x81750
   21792:	7586                	flw	fa1,96(sp)
   21794:	c976                	sw	t4,144(sp)
   21796:	4d48                	lw	a0,28(a0)
   21798:	9c66                	add	s8,s8,s9
   2179a:	58f8                	lw	a4,116(s1)
   2179c:	bc50                	fsd	fa2,184(s0)
   2179e:	5c54                	lw	a3,60(s0)
   217a0:	cc65                	beqz	s0,21898 <emtens>
   217a2:	91c6                	add	gp,gp,a7
   217a4:	a60e                	fsd	ft3,264(sp)
   217a6:	a0ae                	fsd	fa1,64(sp)
   217a8:	e319                	bnez	a4,217ae <etens+0x52>
   217aa:	851e46a3          	0x851e46a3
   217ae:	98feeab7          	lui	s5,0x98fee
   217b2:	ddbb901b          	0xddbb901b
   217b6:	de8d                	beqz	a3,216f0 <blanks.4513+0x4>
   217b8:	9df9                	0x9df9
   217ba:	aa7eebfb          	0xaa7eebfb
   217be:	4351                	li	t1,20
   217c0:	0235                	addi	tp,tp,13
   217c2:	36b10137          	lui	sp,0x36b10
   217c6:	336c                	fld	fa1,224(a4)
   217c8:	8cdfc66f          	jal	a2,1e094 <__multf3+0x690>
   217cc:	80e9                	srli	s1,s1,0x1a
   217ce:	47c9                	li	a5,18
   217d0:	93ba                	add	t2,t2,a4
   217d2:	41a8                	lw	a0,64(a1)
   217d4:	50f8                	lw	a4,100(s1)
   217d6:	c76b25fb          	0xc76b25fb
   217da:	6b71                	lui	s6,0x1c
   217dc:	a6d53cbf 1f49ffcf 	0x1f49ffcfa6d53cbf
   217e4:	c278                	sw	a4,68(a2)
   217e6:	000040d3          	fadd.s	ft1,ft0,ft0,rmm
   217ea:	0000                	unimp
   217ec:	0000                	unimp
   217ee:	0000                	unimp
   217f0:	f020                	fsw	fs0,96(s0)
   217f2:	b59d                	j	21658 <main+0xecc>
   217f4:	2b70                	fld	fa2,208(a4)
   217f6:	ada8                	fsd	fa0,88(a1)
   217f8:	9dc5                	0x9dc5
   217fa:	4069                	c.li	zero,26
	...
   21808:	0400                	addi	s0,sp,512
   2180a:	8e1bc9bf 00004034 	0x40348e1bc9bf
	...
   2181e:	2000                	fld	fs0,0(s0)
   21820:	bebc                	fsd	fa5,120(a3)
   21822:	4019                	c.li	zero,6
	...
   21834:	9c40                	0x9c40
   21836:	400c                	lw	a1,0(s0)
	...
   21848:	c800                	sw	s0,16(s0)
   2184a:	4005                	c.li	zero,1
	...
   2185c:	a000                	fsd	fs0,0(s0)
   2185e:	4002                	0x4002

00021860 <eone>:
	...
   21870:	8000                	0x8000
   21872:	3fff                	0x3fff

00021874 <bmask>:
   21874:	ffff                	0xffff
   21876:	fffe                	fsw	ft11,252(sp)
   21878:	fffc                	fsw	fa5,124(a5)
   2187a:	fff8                	fsw	fa4,124(a5)
   2187c:	fff0                	fsw	fa2,124(a5)
   2187e:	ffe0                	fsw	fs0,124(a5)
   21880:	ffc0                	fsw	fs0,60(a5)
   21882:	ff80                	fsw	fs0,56(a5)
   21884:	ff00                	fsw	fs0,56(a4)
   21886:	fe00                	fsw	fs0,56(a2)
   21888:	fc00                	fsw	fs0,56(s0)
   2188a:	f800                	fsw	fs0,48(s0)
   2188c:	f000                	fsw	fs0,32(s0)
   2188e:	e000                	fsw	fs0,0(s0)
   21890:	c000                	sw	s0,0(s0)
   21892:	8000                	0x8000
   21894:	0000                	unimp
	...

00021898 <emtens>:
   21898:	2030                	fld	fa2,64(s0)
   2189a:	cffc                	sw	a5,92(a5)
   2189c:	8123a1c3          	fmadd.s	ft3,ft7,fs2,fa6,rdn
   218a0:	9fde2de3          	0x9fde2de3
   218a4:	d2ce                	sw	s3,100(sp)
   218a6:	04c8                	addi	a0,sp,580
   218a8:	a6dd                	j	21c8e <zeroes.4499+0x12>
   218aa:	0ad8                	addi	a4,sp,340
   218ac:	8264                	0x8264
   218ae:	f2ead2cb          	fnmsub.d	ft5,fs5,fa4,ft10,unknown
   218b2:	12d4                	addi	a3,sp,356
   218b4:	4925                	li	s2,9
   218b6:	2de4                	fld	fs1,216(a1)
   218b8:	3436                	fld	fs0,360(sp)
   218ba:	ceae534f          	fnmadd.q	ft6,ft8,fa0,fs9,unknown
   218be:	f53f256b          	0xf53f256b
   218c2:	f698                	fsw	fa4,40(a3)
   218c4:	01586bd3          	fadd.s	fs7,fa6,fs5,unknown
   218c8:	87a6                	mv	a5,s1
   218ca:	c0bd                	beqz	s1,21930 <emtens+0x98>
   218cc:	82a5da57          	0x82a5da57
   218d0:	a2a6                	fsd	fs1,320(sp)
   218d2:	32b5                	jal	2123e <main+0xab2>
   218d4:	e731                	bnez	a4,21920 <emtens+0x88>
   218d6:	04d4                	addi	a3,sp,580
   218d8:	e3f2                	fsw	ft8,196(sp)
   218da:	d332                	sw	a2,164(sp)
   218dc:	7132                	flw	ft2,44(sp)
   218de:	d21c                	sw	a5,32(a2)
   218e0:	ee32db23          	0xee32db23
   218e4:	9049                	srli	s0,s0,0x32
   218e6:	395a                	fld	fs2,432(sp)
   218e8:	a23e                	fsd	fa5,256(sp)
   218ea:	5308                	lw	a0,32(a4)
   218ec:	1155fefb          	0x1155fefb
   218f0:	fa91                	bnez	a3,21804 <etens+0xa8>
   218f2:	1939                	addi	s2,s2,-18
   218f4:	637a                	flw	ft6,156(sp)
   218f6:	4325                	li	t1,9
   218f8:	c031                	beqz	s0,2193c <emtens+0xa4>
   218fa:	3cac                	fld	fa1,120(s1)
   218fc:	e26d                	bnez	a2,219de <p05.3308+0x6>
   218fe:	dbde                	sw	s7,244(sp)
   21900:	d05d                	beqz	s0,218a6 <emtens+0xe>
   21902:	b3f6                	fsd	ft9,480(sp)
   21904:	ac7c                	fsd	fa5,216(s0)
   21906:	e4a0                	fsw	fs0,72(s1)
   21908:	64bc                	flw	fa5,72(s1)
   2190a:	467c                	lw	a5,76(a2)
   2190c:	ddd0                	sw	a2,60(a1)
   2190e:	3e55                	jal	214c2 <main+0xd36>
   21910:	2a20                	fld	fs0,80(a2)
   21912:	6224                	flw	fs1,64(a2)
   21914:	98d747b3          	0x98d747b3
   21918:	e9a53f23          	0xe9a53f23
   2191c:	a539                	j	21f2a <_ctype_+0x112>
   2191e:	a87fea27          	0xa87fea27
   21922:	3f2a                	fld	ft10,168(sp)
   21924:	4af20b5b          	0x4af20b5b
   21928:	a581                	j	21f68 <_ctype_+0x150>
   2192a:	18ed                	addi	a7,a7,-5
   2192c:	67de                	flw	fa5,212(sp)
   2192e:	94ba                	add	s1,s1,a4
   21930:	4539                	li	a0,14
   21932:	1ead                	addi	t4,t4,-21
   21934:	cfb1                	beqz	a5,21990 <emtens+0xf8>
   21936:	3f94                	fld	fa3,56(a5)
   21938:	bf71                	j	218d4 <emtens+0x3c>
   2193a:	7989a9b3          	0x7989a9b3
   2193e:	be68                	fsd	fa0,248(a2)
   21940:	4c2e                	lw	s8,200(sp)
   21942:	c44de15b          	0xc44de15b
   21946:	94be                	add	s1,s1,a5
   21948:	e695                	bnez	a3,21974 <emtens+0xdc>
   2194a:	3fc9                	jal	2191c <emtens+0x84>
   2194c:	3d4d                	jal	217fe <etens+0xa2>
   2194e:	7c3d                	lui	s8,0xfffef
   21950:	36ba                	fld	fa3,424(sp)
   21952:	fdc20d2b          	0xfdc20d2b
   21956:	cefc                	sw	a5,92(a3)
   21958:	8461                	srai	s0,s0,0x18
   2195a:	7711                	lui	a4,0xfffe4
   2195c:	abcc                	fsd	fa1,144(a5)
   2195e:	3fe4                	fld	fs1,248(a5)
   21960:	c155                	beqz	a0,21a04 <__mprec_tens+0x1c>
   21962:	a4a8                	fsd	fa0,72(s1)
   21964:	404e                	0x404e
   21966:	d3c36113          	ori	sp,t1,-708
   2196a:	e219652b          	0xe219652b
   2196e:	1758                	addi	a4,sp,932
   21970:	3ff1d1b7          	lui	gp,0x3ff1d
   21974:	d70a                	sw	sp,172(sp)
   21976:	0a3d70a3          	0xa3d70a3
   2197a:	3d70a3d7          	0x3d70a3d7
   2197e:	d70a                	sw	sp,172(sp)
   21980:	0a3d70a3          	0xa3d70a3
   21984:	3ff8a3d7          	0x3ff8a3d7
   21988:	cccd                	beqz	s1,21a42 <__mprec_tens+0x5a>
   2198a:	cccc                	sw	a1,28(s1)
   2198c:	cccc                	sw	a1,28(s1)
   2198e:	cccc                	sw	a1,28(s1)
   21990:	cccc                	sw	a1,28(s1)
   21992:	cccc                	sw	a1,28(s1)
   21994:	cccc                	sw	a1,28(s1)
   21996:	cccc                	sw	a1,28(s1)
   21998:	cccc                	sw	a1,28(s1)
   2199a:	4e203ffb          	0x4e203ffb
   2199e:	4e61                	li	t3,24
   219a0:	0020                	addi	s0,sp,8
   219a2:	0000                	unimp
   219a4:	2d20                	fld	fs0,88(a0)
   219a6:	6e49                	lui	t3,0x12
   219a8:	6966                	flw	fs2,88(sp)
   219aa:	696e                	flw	fs2,216(sp)
   219ac:	7974                	flw	fa3,116(a0)
   219ae:	0020                	addi	s0,sp,8
   219b0:	4920                	lw	s0,80(a0)
   219b2:	666e                	flw	fa2,216(sp)
   219b4:	6e69                	lui	t3,0x1a
   219b6:	7469                	lui	s0,0xffffa
   219b8:	2079                	jal	21a46 <__mprec_tens+0x5e>
   219ba:	0000                	unimp
   219bc:	614e                	flw	ft2,208(sp)
   219be:	004e                	c.slli	zero,0x13
   219c0:	2545                	jal	22060 <_ctype_+0x248>
   219c2:	0064                	addi	s1,sp,12
   219c4:	00000043          	fmadd.s	ft0,ft0,ft0,ft0,rne
   219c8:	4f50                	lw	a2,28(a4)
   219ca:	00584953          	fadd.s	fs2,fa6,ft5,rmm
   219ce:	0000                	unimp
   219d0:	002e                	c.slli	zero,0xb
   219d2:	0000                	unimp
   219d4:	0000                	unimp
	...

000219d8 <p05.3308>:
   219d8:	0005                	c.nop	1
   219da:	0000                	unimp
   219dc:	0019                	c.nop	6
   219de:	0000                	unimp
   219e0:	007d                	c.nop	31
   219e2:	0000                	unimp
   219e4:	0000                	unimp
	...

000219e8 <__mprec_tens>:
   219e8:	0000                	unimp
   219ea:	0000                	unimp
   219ec:	0000                	unimp
   219ee:	3ff0                	fld	fa2,248(a5)
   219f0:	0000                	unimp
   219f2:	0000                	unimp
   219f4:	0000                	unimp
   219f6:	4024                	lw	s1,64(s0)
   219f8:	0000                	unimp
   219fa:	0000                	unimp
   219fc:	0000                	unimp
   219fe:	4059                	c.li	zero,22
   21a00:	0000                	unimp
   21a02:	0000                	unimp
   21a04:	4000                	lw	s0,0(s0)
   21a06:	0000408f          	0x408f
   21a0a:	0000                	unimp
   21a0c:	8800                	0x8800
   21a0e:	000040c3          	fmadd.s	ft1,ft0,ft0,ft0,rmm
   21a12:	0000                	unimp
   21a14:	6a00                	flw	fs0,16(a2)
   21a16:	40f8                	lw	a4,68(s1)
   21a18:	0000                	unimp
   21a1a:	0000                	unimp
   21a1c:	8480                	0x8480
   21a1e:	412e                	lw	sp,200(sp)
   21a20:	0000                	unimp
   21a22:	0000                	unimp
   21a24:	12d0                	addi	a2,sp,356
   21a26:	00004163          	bltz	zero,21a28 <__mprec_tens+0x40>
   21a2a:	0000                	unimp
   21a2c:	d784                	sw	s1,40(a5)
   21a2e:	00004197          	auipc	gp,0x4
   21a32:	0000                	unimp
   21a34:	cd65                	beqz	a0,21b2c <__mprec_bigtens+0x54>
   21a36:	41cd                	li	gp,19
   21a38:	0000                	unimp
   21a3a:	2000                	fld	fs0,0(s0)
   21a3c:	a05f 4202 0000      	0x4202a05f
   21a42:	e800                	fsw	fs0,16(s0)
   21a44:	4876                	lw	a6,92(sp)
   21a46:	00004237          	lui	tp,0x4
   21a4a:	a200                	fsd	fs0,0(a2)
   21a4c:	1a94                	addi	a3,sp,368
   21a4e:	426d                	li	tp,27
   21a50:	0000                	unimp
   21a52:	e540                	fsw	fs0,12(a0)
   21a54:	309c                	fld	fa5,32(s1)
   21a56:	42a2                	lw	t0,8(sp)
   21a58:	0000                	unimp
   21a5a:	1e90                	addi	a2,sp,880
   21a5c:	bcc4                	fsd	fs1,184(s1)
   21a5e:	42d6                	lw	t0,84(sp)
   21a60:	0000                	unimp
   21a62:	2634                	fld	fa3,72(a2)
   21a64:	6bf5                	lui	s7,0x1d
   21a66:	430c                	lw	a1,0(a4)
   21a68:	8000                	0x8000
   21a6a:	37e0                	fld	fs0,232(a5)
   21a6c:	c379                	beqz	a4,21b32 <__mprec_bigtens+0x5a>
   21a6e:	4341                	li	t1,16
   21a70:	a000                	fsd	fs0,0(s0)
   21a72:	85d8                	0x85d8
   21a74:	43763457          	0x43763457
   21a78:	c800                	sw	s0,16(s0)
   21a7a:	674e                	flw	fa4,208(sp)
   21a7c:	c16d                	beqz	a0,21b5e <__mprec_bigtens+0x86>
   21a7e:	3d0043ab          	0x3d0043ab
   21a82:	6091                	lui	ra,0x4
   21a84:	58e4                	lw	s1,116(s1)
   21a86:	43e1                	li	t2,24
   21a88:	8c40                	0x8c40
   21a8a:	78b5                	lui	a7,0xfffed
   21a8c:	af1d                	j	221c2 <__clz_tab+0x66>
   21a8e:	4415                	li	s0,5
   21a90:	ef50                	fsw	fa2,28(a4)
   21a92:	d6e2                	sw	s8,108(sp)
   21a94:	1ae4                	addi	s1,sp,380
   21a96:	d592444b          	0xd592444b
   21a9a:	064d                	addi	a2,a2,19
   21a9c:	4480f0cf          	0x4480f0cf
   21aa0:	4af6                	lw	s5,92(sp)
   21aa2:	c7e1                	beqz	a5,21b6a <__mprec_bigtens+0x92>
   21aa4:	2d02                	fld	fs10,0(sp)
   21aa6:	44b5                	li	s1,13
   21aa8:	9db4                	0x9db4
   21aaa:	79d9                	lui	s3,0xffff6
   21aac:	44ea7843          	0x44ea7843

00021ab0 <__mprec_tinytens>:
   21ab0:	89bc                	0x89bc
   21ab2:	97d8                	0x97d8
   21ab4:	d2b2                	sw	a2,100(sp)
   21ab6:	3c9c                	fld	fa5,56(s1)
   21ab8:	d5a8a733          	0xd5a8a733
   21abc:	3949f623          	0x3949f623
   21ac0:	a73d                	j	221ee <__clz_tab+0x92>
   21ac2:	44f4                	lw	a3,76(s1)
   21ac4:	0ffd                	addi	t6,t6,31
   21ac6:	32a5                	jal	2142e <main+0xca2>
   21ac8:	979d                	srai	a5,a5,0x27
   21aca:	cf8c                	sw	a1,24(a5)
   21acc:	ba08                	fsd	fa0,48(a2)
   21ace:	6f43255b          	0x6f43255b
   21ad2:	64ac                	flw	fa1,72(s1)
   21ad4:	0628                	addi	a0,sp,776
   21ad6:	0ac8                	addi	a0,sp,340

00021ad8 <__mprec_bigtens>:
   21ad8:	8000                	0x8000
   21ada:	37e0                	fld	fs0,232(a5)
   21adc:	c379                	beqz	a4,21ba2 <__mprec_bigtens+0xca>
   21ade:	4341                	li	t1,16
   21ae0:	b5056e17          	auipc	t3,0xb5056
   21ae4:	b8b5                	j	21360 <main+0xbd4>
   21ae6:	f9f54693          	xori	a3,a0,-97
   21aea:	4f03e93f 1d324d38 	0x1d324d384f03e93f
   21af2:	f930                	fsw	fa2,112(a0)
   21af4:	7748                	flw	fa0,44(a4)
   21af6:	5a82                	lw	s5,32(sp)
   21af8:	bf3c                	fsd	fa5,120(a4)
   21afa:	4fdd7f73          	csrrci	t5,0x4fd,26
   21afe:	7515                	lui	a0,0xfffe5
   21b00:	82b4                	0x82b4
   21b02:	0001                	nop
   21b04:	948c                	0x948c
   21b06:	0001                	nop
   21b08:	948c                	0x948c
   21b0a:	0001                	nop
   21b0c:	82c8                	0x82c8
   21b0e:	0001                	nop
   21b10:	948c                	0x948c
   21b12:	0001                	nop
   21b14:	948c                	0x948c
   21b16:	0001                	nop
   21b18:	948c                	0x948c
   21b1a:	0001                	nop
   21b1c:	8264                	0x8264
   21b1e:	0001                	nop
   21b20:	948c                	0x948c
   21b22:	0001                	nop
   21b24:	948c                	0x948c
   21b26:	0001                	nop
   21b28:	82d0                	0x82d0
   21b2a:	0001                	nop
   21b2c:	82f0                	0x82f0
   21b2e:	0001                	nop
   21b30:	948c                	0x948c
   21b32:	0001                	nop
   21b34:	82e8                	0x82e8
   21b36:	0001                	nop
   21b38:	82f8                	0x82f8
   21b3a:	0001                	nop
   21b3c:	948c                	0x948c
   21b3e:	0001                	nop
   21b40:	8350                	0x8350
   21b42:	0001                	nop
   21b44:	8358                	0x8358
   21b46:	0001                	nop
   21b48:	8358                	0x8358
   21b4a:	0001                	nop
   21b4c:	8358                	0x8358
   21b4e:	0001                	nop
   21b50:	8358                	0x8358
   21b52:	0001                	nop
   21b54:	8358                	0x8358
   21b56:	0001                	nop
   21b58:	8358                	0x8358
   21b5a:	0001                	nop
   21b5c:	8358                	0x8358
   21b5e:	0001                	nop
   21b60:	8358                	0x8358
   21b62:	0001                	nop
   21b64:	8358                	0x8358
   21b66:	0001                	nop
   21b68:	948c                	0x948c
   21b6a:	0001                	nop
   21b6c:	948c                	0x948c
   21b6e:	0001                	nop
   21b70:	948c                	0x948c
   21b72:	0001                	nop
   21b74:	948c                	0x948c
   21b76:	0001                	nop
   21b78:	948c                	0x948c
   21b7a:	0001                	nop
   21b7c:	948c                	0x948c
   21b7e:	0001                	nop
   21b80:	948c                	0x948c
   21b82:	0001                	nop
   21b84:	876c                	0x876c
   21b86:	0001                	nop
   21b88:	948c                	0x948c
   21b8a:	0001                	nop
   21b8c:	83e8                	0x83e8
   21b8e:	0001                	nop
   21b90:	86b4                	0x86b4
   21b92:	0001                	nop
   21b94:	876c                	0x876c
   21b96:	0001                	nop
   21b98:	876c                	0x876c
   21b9a:	0001                	nop
   21b9c:	876c                	0x876c
   21b9e:	0001                	nop
   21ba0:	948c                	0x948c
   21ba2:	0001                	nop
   21ba4:	948c                	0x948c
   21ba6:	0001                	nop
   21ba8:	948c                	0x948c
   21baa:	0001                	nop
   21bac:	948c                	0x948c
   21bae:	0001                	nop
   21bb0:	8388                	0x8388
   21bb2:	0001                	nop
   21bb4:	948c                	0x948c
   21bb6:	0001                	nop
   21bb8:	948c                	0x948c
   21bba:	0001                	nop
   21bbc:	90f0                	0x90f0
   21bbe:	0001                	nop
   21bc0:	948c                	0x948c
   21bc2:	0001                	nop
   21bc4:	948c                	0x948c
   21bc6:	0001                	nop
   21bc8:	948c                	0x948c
   21bca:	0001                	nop
   21bcc:	9198                	0x9198
   21bce:	0001                	nop
   21bd0:	948c                	0x948c
   21bd2:	0001                	nop
   21bd4:	91e4                	0x91e4
   21bd6:	0001                	nop
   21bd8:	948c                	0x948c
   21bda:	0001                	nop
   21bdc:	948c                	0x948c
   21bde:	0001                	nop
   21be0:	924c                	0x924c
   21be2:	0001                	nop
   21be4:	948c                	0x948c
   21be6:	0001                	nop
   21be8:	948c                	0x948c
   21bea:	0001                	nop
   21bec:	948c                	0x948c
   21bee:	0001                	nop
   21bf0:	948c                	0x948c
   21bf2:	0001                	nop
   21bf4:	948c                	0x948c
   21bf6:	0001                	nop
   21bf8:	948c                	0x948c
   21bfa:	0001                	nop
   21bfc:	948c                	0x948c
   21bfe:	0001                	nop
   21c00:	948c                	0x948c
   21c02:	0001                	nop
   21c04:	876c                	0x876c
   21c06:	0001                	nop
   21c08:	948c                	0x948c
   21c0a:	0001                	nop
   21c0c:	83e8                	0x83e8
   21c0e:	0001                	nop
   21c10:	86b8                	0x86b8
   21c12:	0001                	nop
   21c14:	876c                	0x876c
   21c16:	0001                	nop
   21c18:	876c                	0x876c
   21c1a:	0001                	nop
   21c1c:	876c                	0x876c
   21c1e:	0001                	nop
   21c20:	8390                	0x8390
   21c22:	0001                	nop
   21c24:	86b8                	0x86b8
   21c26:	0001                	nop
   21c28:	83d8                	0x83d8
   21c2a:	0001                	nop
   21c2c:	948c                	0x948c
   21c2e:	0001                	nop
   21c30:	83bc                	0x83bc
   21c32:	0001                	nop
   21c34:	948c                	0x948c
   21c36:	0001                	nop
   21c38:	9084                	0x9084
   21c3a:	0001                	nop
   21c3c:	90f4                	0x90f4
   21c3e:	0001                	nop
   21c40:	9160                	0x9160
   21c42:	0001                	nop
   21c44:	83d8                	0x83d8
   21c46:	0001                	nop
   21c48:	948c                	0x948c
   21c4a:	0001                	nop
   21c4c:	9198                	0x9198
   21c4e:	0001                	nop
   21c50:	82ac                	0x82ac
   21c52:	0001                	nop
   21c54:	91e8                	0x91e8
   21c56:	0001                	nop
   21c58:	948c                	0x948c
   21c5a:	0001                	nop
   21c5c:	948c                	0x948c
   21c5e:	0001                	nop
   21c60:	92a4                	0x92a4
   21c62:	0001                	nop
   21c64:	948c                	0x948c
   21c66:	0001                	nop
   21c68:	82ac                	0x82ac
   21c6a:	0001                	nop

00021c6c <blanks.4498>:
   21c6c:	2020                	fld	fs0,64(s0)
   21c6e:	2020                	fld	fs0,64(s0)
   21c70:	2020                	fld	fs0,64(s0)
   21c72:	2020                	fld	fs0,64(s0)
   21c74:	2020                	fld	fs0,64(s0)
   21c76:	2020                	fld	fs0,64(s0)
   21c78:	2020                	fld	fs0,64(s0)
   21c7a:	2020                	fld	fs0,64(s0)

00021c7c <zeroes.4499>:
   21c7c:	3030                	fld	fa2,96(s0)
   21c7e:	3030                	fld	fa2,96(s0)
   21c80:	3030                	fld	fa2,96(s0)
   21c82:	3030                	fld	fa2,96(s0)
   21c84:	3030                	fld	fa2,96(s0)
   21c86:	3030                	fld	fa2,96(s0)
   21c88:	3030                	fld	fa2,96(s0)
   21c8a:	3030                	fld	fa2,96(s0)
   21c8c:	a374                	fsd	fa3,192(a4)
   21c8e:	0001                	nop
   21c90:	ab6c                	fsd	fa1,208(a4)
   21c92:	0001                	nop
   21c94:	ab6c                	fsd	fa1,208(a4)
   21c96:	0001                	nop
   21c98:	a388                	fsd	fa0,0(a5)
   21c9a:	0001                	nop
   21c9c:	ab6c                	fsd	fa1,208(a4)
   21c9e:	0001                	nop
   21ca0:	ab6c                	fsd	fa1,208(a4)
   21ca2:	0001                	nop
   21ca4:	ab6c                	fsd	fa1,208(a4)
   21ca6:	0001                	nop
   21ca8:	a324                	fsd	fs1,64(a4)
   21caa:	0001                	nop
   21cac:	ab6c                	fsd	fa1,208(a4)
   21cae:	0001                	nop
   21cb0:	ab6c                	fsd	fa1,208(a4)
   21cb2:	0001                	nop
   21cb4:	a390                	fsd	fa2,0(a5)
   21cb6:	0001                	nop
   21cb8:	a3a8                	fsd	fa0,64(a5)
   21cba:	0001                	nop
   21cbc:	ab6c                	fsd	fa1,208(a4)
   21cbe:	0001                	nop
   21cc0:	a3a0                	fsd	fs0,64(a5)
   21cc2:	0001                	nop
   21cc4:	a3b0                	fsd	fa2,64(a5)
   21cc6:	0001                	nop
   21cc8:	ab6c                	fsd	fa1,208(a4)
   21cca:	0001                	nop
   21ccc:	a400                	fsd	fs0,8(s0)
   21cce:	0001                	nop
   21cd0:	a408                	fsd	fa0,8(s0)
   21cd2:	0001                	nop
   21cd4:	a408                	fsd	fa0,8(s0)
   21cd6:	0001                	nop
   21cd8:	a408                	fsd	fa0,8(s0)
   21cda:	0001                	nop
   21cdc:	a408                	fsd	fa0,8(s0)
   21cde:	0001                	nop
   21ce0:	a408                	fsd	fa0,8(s0)
   21ce2:	0001                	nop
   21ce4:	a408                	fsd	fa0,8(s0)
   21ce6:	0001                	nop
   21ce8:	a408                	fsd	fa0,8(s0)
   21cea:	0001                	nop
   21cec:	a408                	fsd	fa0,8(s0)
   21cee:	0001                	nop
   21cf0:	a408                	fsd	fa0,8(s0)
   21cf2:	0001                	nop
   21cf4:	ab6c                	fsd	fa1,208(a4)
   21cf6:	0001                	nop
   21cf8:	ab6c                	fsd	fa1,208(a4)
   21cfa:	0001                	nop
   21cfc:	ab6c                	fsd	fa1,208(a4)
   21cfe:	0001                	nop
   21d00:	ab6c                	fsd	fa1,208(a4)
   21d02:	0001                	nop
   21d04:	ab6c                	fsd	fa1,208(a4)
   21d06:	0001                	nop
   21d08:	ab6c                	fsd	fa1,208(a4)
   21d0a:	0001                	nop
   21d0c:	ab6c                	fsd	fa1,208(a4)
   21d0e:	0001                	nop
   21d10:	ab6c                	fsd	fa1,208(a4)
   21d12:	0001                	nop
   21d14:	ab6c                	fsd	fa1,208(a4)
   21d16:	0001                	nop
   21d18:	a470                	fsd	fa2,200(s0)
   21d1a:	0001                	nop
   21d1c:	a490                	fsd	fa2,8(s1)
   21d1e:	0001                	nop
   21d20:	ab6c                	fsd	fa1,208(a4)
   21d22:	0001                	nop
   21d24:	ab6c                	fsd	fa1,208(a4)
   21d26:	0001                	nop
   21d28:	ab6c                	fsd	fa1,208(a4)
   21d2a:	0001                	nop
   21d2c:	ab6c                	fsd	fa1,208(a4)
   21d2e:	0001                	nop
   21d30:	ab6c                	fsd	fa1,208(a4)
   21d32:	0001                	nop
   21d34:	ab6c                	fsd	fa1,208(a4)
   21d36:	0001                	nop
   21d38:	ab6c                	fsd	fa1,208(a4)
   21d3a:	0001                	nop
   21d3c:	ab6c                	fsd	fa1,208(a4)
   21d3e:	0001                	nop
   21d40:	ab6c                	fsd	fa1,208(a4)
   21d42:	0001                	nop
   21d44:	ab6c                	fsd	fa1,208(a4)
   21d46:	0001                	nop
   21d48:	a58c                	fsd	fa1,8(a1)
   21d4a:	0001                	nop
   21d4c:	ab6c                	fsd	fa1,208(a4)
   21d4e:	0001                	nop
   21d50:	ab6c                	fsd	fa1,208(a4)
   21d52:	0001                	nop
   21d54:	ab6c                	fsd	fa1,208(a4)
   21d56:	0001                	nop
   21d58:	a624                	fsd	fs1,72(a2)
   21d5a:	0001                	nop
   21d5c:	ab6c                	fsd	fa1,208(a4)
   21d5e:	0001                	nop
   21d60:	a910                	fsd	fa2,16(a0)
   21d62:	0001                	nop
   21d64:	ab6c                	fsd	fa1,208(a4)
   21d66:	0001                	nop
   21d68:	ab6c                	fsd	fa1,208(a4)
   21d6a:	0001                	nop
   21d6c:	a970                	fsd	fa2,208(a0)
   21d6e:	0001                	nop
   21d70:	ab6c                	fsd	fa1,208(a4)
   21d72:	0001                	nop
   21d74:	ab6c                	fsd	fa1,208(a4)
   21d76:	0001                	nop
   21d78:	ab6c                	fsd	fa1,208(a4)
   21d7a:	0001                	nop
   21d7c:	ab6c                	fsd	fa1,208(a4)
   21d7e:	0001                	nop
   21d80:	ab6c                	fsd	fa1,208(a4)
   21d82:	0001                	nop
   21d84:	ab6c                	fsd	fa1,208(a4)
   21d86:	0001                	nop
   21d88:	ab6c                	fsd	fa1,208(a4)
   21d8a:	0001                	nop
   21d8c:	ab6c                	fsd	fa1,208(a4)
   21d8e:	0001                	nop
   21d90:	ab6c                	fsd	fa1,208(a4)
   21d92:	0001                	nop
   21d94:	ab6c                	fsd	fa1,208(a4)
   21d96:	0001                	nop
   21d98:	a470                	fsd	fa2,200(s0)
   21d9a:	0001                	nop
   21d9c:	a494                	fsd	fa3,8(s1)
   21d9e:	0001                	nop
   21da0:	ab6c                	fsd	fa1,208(a4)
   21da2:	0001                	nop
   21da4:	ab6c                	fsd	fa1,208(a4)
   21da6:	0001                	nop
   21da8:	ab6c                	fsd	fa1,208(a4)
   21daa:	0001                	nop
   21dac:	a430                	fsd	fa2,72(s0)
   21dae:	0001                	nop
   21db0:	a494                	fsd	fa3,8(s1)
   21db2:	0001                	nop
   21db4:	a460                	fsd	fs0,200(s0)
   21db6:	0001                	nop
   21db8:	ab6c                	fsd	fa1,208(a4)
   21dba:	0001                	nop
   21dbc:	a450                	fsd	fa2,136(s0)
   21dbe:	0001                	nop
   21dc0:	ab6c                	fsd	fa1,208(a4)
   21dc2:	0001                	nop
   21dc4:	a53c                	fsd	fa5,72(a0)
   21dc6:	0001                	nop
   21dc8:	a590                	fsd	fa2,8(a1)
   21dca:	0001                	nop
   21dcc:	a5f4                	fsd	fa3,200(a1)
   21dce:	0001                	nop
   21dd0:	a460                	fsd	fs0,200(s0)
   21dd2:	0001                	nop
   21dd4:	ab6c                	fsd	fa1,208(a4)
   21dd6:	0001                	nop
   21dd8:	a624                	fsd	fs1,72(a2)
   21dda:	0001                	nop
   21ddc:	a36c                	fsd	fa1,192(a4)
   21dde:	0001                	nop
   21de0:	a914                	fsd	fa3,16(a0)
   21de2:	0001                	nop
   21de4:	ab6c                	fsd	fa1,208(a4)
   21de6:	0001                	nop
   21de8:	ab6c                	fsd	fa1,208(a4)
   21dea:	0001                	nop
   21dec:	a2d4                	fsd	fa3,128(a3)
   21dee:	0001                	nop
   21df0:	ab6c                	fsd	fa1,208(a4)
   21df2:	0001                	nop
   21df4:	a36c                	fsd	fa1,192(a4)
   21df6:	0001                	nop

00021df8 <blanks.4489>:
   21df8:	2020                	fld	fs0,64(s0)
   21dfa:	2020                	fld	fs0,64(s0)
   21dfc:	2020                	fld	fs0,64(s0)
   21dfe:	2020                	fld	fs0,64(s0)
   21e00:	2020                	fld	fs0,64(s0)
   21e02:	2020                	fld	fs0,64(s0)
   21e04:	2020                	fld	fs0,64(s0)
   21e06:	2020                	fld	fs0,64(s0)

00021e08 <zeroes.4490>:
   21e08:	3030                	fld	fa2,96(s0)
   21e0a:	3030                	fld	fa2,96(s0)
   21e0c:	3030                	fld	fa2,96(s0)
   21e0e:	3030                	fld	fa2,96(s0)
   21e10:	3030                	fld	fa2,96(s0)
   21e12:	3030                	fld	fa2,96(s0)
   21e14:	3030                	fld	fa2,96(s0)
   21e16:	3030                	fld	fa2,96(s0)

00021e18 <_ctype_>:
   21e18:	2000                	fld	fs0,0(s0)
   21e1a:	2020                	fld	fs0,64(s0)
   21e1c:	2020                	fld	fs0,64(s0)
   21e1e:	2020                	fld	fs0,64(s0)
   21e20:	2020                	fld	fs0,64(s0)
   21e22:	2828                	fld	fa0,80(s0)
   21e24:	2828                	fld	fa0,80(s0)
   21e26:	2028                	fld	fa0,64(s0)
   21e28:	2020                	fld	fs0,64(s0)
   21e2a:	2020                	fld	fs0,64(s0)
   21e2c:	2020                	fld	fs0,64(s0)
   21e2e:	2020                	fld	fs0,64(s0)
   21e30:	2020                	fld	fs0,64(s0)
   21e32:	2020                	fld	fs0,64(s0)
   21e34:	2020                	fld	fs0,64(s0)
   21e36:	2020                	fld	fs0,64(s0)
   21e38:	8820                	0x8820
   21e3a:	1010                	addi	a2,sp,32
   21e3c:	1010                	addi	a2,sp,32
   21e3e:	1010                	addi	a2,sp,32
   21e40:	1010                	addi	a2,sp,32
   21e42:	1010                	addi	a2,sp,32
   21e44:	1010                	addi	a2,sp,32
   21e46:	1010                	addi	a2,sp,32
   21e48:	0410                	addi	a2,sp,512
   21e4a:	0404                	addi	s1,sp,512
   21e4c:	0404                	addi	s1,sp,512
   21e4e:	0404                	addi	s1,sp,512
   21e50:	0404                	addi	s1,sp,512
   21e52:	1004                	addi	s1,sp,32
   21e54:	1010                	addi	a2,sp,32
   21e56:	1010                	addi	a2,sp,32
   21e58:	1010                	addi	a2,sp,32
   21e5a:	4141                	li	sp,16
   21e5c:	4141                	li	sp,16
   21e5e:	4141                	li	sp,16
   21e60:	0101                	addi	sp,sp,0
   21e62:	0101                	addi	sp,sp,0
   21e64:	0101                	addi	sp,sp,0
   21e66:	0101                	addi	sp,sp,0
   21e68:	0101                	addi	sp,sp,0
   21e6a:	0101                	addi	sp,sp,0
   21e6c:	0101                	addi	sp,sp,0
   21e6e:	0101                	addi	sp,sp,0
   21e70:	0101                	addi	sp,sp,0
   21e72:	0101                	addi	sp,sp,0
   21e74:	1010                	addi	a2,sp,32
   21e76:	1010                	addi	a2,sp,32
   21e78:	1010                	addi	a2,sp,32
   21e7a:	4242                	lw	tp,16(sp)
   21e7c:	4242                	lw	tp,16(sp)
   21e7e:	4242                	lw	tp,16(sp)
   21e80:	0202                	slli	tp,tp,0x0
   21e82:	0202                	slli	tp,tp,0x0
   21e84:	0202                	slli	tp,tp,0x0
   21e86:	0202                	slli	tp,tp,0x0
   21e88:	0202                	slli	tp,tp,0x0
   21e8a:	0202                	slli	tp,tp,0x0
   21e8c:	0202                	slli	tp,tp,0x0
   21e8e:	0202                	slli	tp,tp,0x0
   21e90:	0202                	slli	tp,tp,0x0
   21e92:	0202                	slli	tp,tp,0x0
   21e94:	1010                	addi	a2,sp,32
   21e96:	1010                	addi	a2,sp,32
   21e98:	0020                	addi	s0,sp,8
	...
   21f1a:	0000                	unimp
   21f1c:	b740                	fsd	fs0,168(a4)
   21f1e:	0001                	nop
   21f20:	bf38                	fsd	fa4,120(a4)
   21f22:	0001                	nop
   21f24:	bf38                	fsd	fa4,120(a4)
   21f26:	0001                	nop
   21f28:	b754                	fsd	fa3,168(a4)
   21f2a:	0001                	nop
   21f2c:	bf38                	fsd	fa4,120(a4)
   21f2e:	0001                	nop
   21f30:	bf38                	fsd	fa4,120(a4)
   21f32:	0001                	nop
   21f34:	bf38                	fsd	fa4,120(a4)
   21f36:	0001                	nop
   21f38:	b6f0                	fsd	fa2,232(a3)
   21f3a:	0001                	nop
   21f3c:	bf38                	fsd	fa4,120(a4)
   21f3e:	0001                	nop
   21f40:	bf38                	fsd	fa4,120(a4)
   21f42:	0001                	nop
   21f44:	b75c                	fsd	fa5,168(a4)
   21f46:	0001                	nop
   21f48:	b774                	fsd	fa3,232(a4)
   21f4a:	0001                	nop
   21f4c:	bf38                	fsd	fa4,120(a4)
   21f4e:	0001                	nop
   21f50:	b76c                	fsd	fa1,232(a4)
   21f52:	0001                	nop
   21f54:	b77c                	fsd	fa5,232(a4)
   21f56:	0001                	nop
   21f58:	bf38                	fsd	fa4,120(a4)
   21f5a:	0001                	nop
   21f5c:	b7cc                	fsd	fa1,168(a5)
   21f5e:	0001                	nop
   21f60:	b7d4                	fsd	fa3,168(a5)
   21f62:	0001                	nop
   21f64:	b7d4                	fsd	fa3,168(a5)
   21f66:	0001                	nop
   21f68:	b7d4                	fsd	fa3,168(a5)
   21f6a:	0001                	nop
   21f6c:	b7d4                	fsd	fa3,168(a5)
   21f6e:	0001                	nop
   21f70:	b7d4                	fsd	fa3,168(a5)
   21f72:	0001                	nop
   21f74:	b7d4                	fsd	fa3,168(a5)
   21f76:	0001                	nop
   21f78:	b7d4                	fsd	fa3,168(a5)
   21f7a:	0001                	nop
   21f7c:	b7d4                	fsd	fa3,168(a5)
   21f7e:	0001                	nop
   21f80:	b7d4                	fsd	fa3,168(a5)
   21f82:	0001                	nop
   21f84:	bf38                	fsd	fa4,120(a4)
   21f86:	0001                	nop
   21f88:	bf38                	fsd	fa4,120(a4)
   21f8a:	0001                	nop
   21f8c:	bf38                	fsd	fa4,120(a4)
   21f8e:	0001                	nop
   21f90:	bf38                	fsd	fa4,120(a4)
   21f92:	0001                	nop
   21f94:	bf38                	fsd	fa4,120(a4)
   21f96:	0001                	nop
   21f98:	bf38                	fsd	fa4,120(a4)
   21f9a:	0001                	nop
   21f9c:	bf38                	fsd	fa4,120(a4)
   21f9e:	0001                	nop
   21fa0:	bf38                	fsd	fa4,120(a4)
   21fa2:	0001                	nop
   21fa4:	bf38                	fsd	fa4,120(a4)
   21fa6:	0001                	nop
   21fa8:	b83c                	fsd	fa5,112(s0)
   21faa:	0001                	nop
   21fac:	b85c                	fsd	fa5,176(s0)
   21fae:	0001                	nop
   21fb0:	bf38                	fsd	fa4,120(a4)
   21fb2:	0001                	nop
   21fb4:	bf38                	fsd	fa4,120(a4)
   21fb6:	0001                	nop
   21fb8:	bf38                	fsd	fa4,120(a4)
   21fba:	0001                	nop
   21fbc:	bf38                	fsd	fa4,120(a4)
   21fbe:	0001                	nop
   21fc0:	bf38                	fsd	fa4,120(a4)
   21fc2:	0001                	nop
   21fc4:	bf38                	fsd	fa4,120(a4)
   21fc6:	0001                	nop
   21fc8:	bf38                	fsd	fa4,120(a4)
   21fca:	0001                	nop
   21fcc:	bf38                	fsd	fa4,120(a4)
   21fce:	0001                	nop
   21fd0:	bf38                	fsd	fa4,120(a4)
   21fd2:	0001                	nop
   21fd4:	bf38                	fsd	fa4,120(a4)
   21fd6:	0001                	nop
   21fd8:	b958                	fsd	fa4,176(a0)
   21fda:	0001                	nop
   21fdc:	bf38                	fsd	fa4,120(a4)
   21fde:	0001                	nop
   21fe0:	bf38                	fsd	fa4,120(a4)
   21fe2:	0001                	nop
   21fe4:	bf38                	fsd	fa4,120(a4)
   21fe6:	0001                	nop
   21fe8:	b9f0                	fsd	fa2,240(a1)
   21fea:	0001                	nop
   21fec:	bf38                	fsd	fa4,120(a4)
   21fee:	0001                	nop
   21ff0:	bcdc                	fsd	fa5,184(s1)
   21ff2:	0001                	nop
   21ff4:	bf38                	fsd	fa4,120(a4)
   21ff6:	0001                	nop
   21ff8:	bf38                	fsd	fa4,120(a4)
   21ffa:	0001                	nop
   21ffc:	bd3c                	fsd	fa5,120(a0)
   21ffe:	0001                	nop
   22000:	bf38                	fsd	fa4,120(a4)
   22002:	0001                	nop
   22004:	bf38                	fsd	fa4,120(a4)
   22006:	0001                	nop
   22008:	bf38                	fsd	fa4,120(a4)
   2200a:	0001                	nop
   2200c:	bf38                	fsd	fa4,120(a4)
   2200e:	0001                	nop
   22010:	bf38                	fsd	fa4,120(a4)
   22012:	0001                	nop
   22014:	bf38                	fsd	fa4,120(a4)
   22016:	0001                	nop
   22018:	bf38                	fsd	fa4,120(a4)
   2201a:	0001                	nop
   2201c:	bf38                	fsd	fa4,120(a4)
   2201e:	0001                	nop
   22020:	bf38                	fsd	fa4,120(a4)
   22022:	0001                	nop
   22024:	bf38                	fsd	fa4,120(a4)
   22026:	0001                	nop
   22028:	b83c                	fsd	fa5,112(s0)
   2202a:	0001                	nop
   2202c:	b860                	fsd	fs0,240(s0)
   2202e:	0001                	nop
   22030:	bf38                	fsd	fa4,120(a4)
   22032:	0001                	nop
   22034:	bf38                	fsd	fa4,120(a4)
   22036:	0001                	nop
   22038:	bf38                	fsd	fa4,120(a4)
   2203a:	0001                	nop
   2203c:	b7fc                	fsd	fa5,232(a5)
   2203e:	0001                	nop
   22040:	b860                	fsd	fs0,240(s0)
   22042:	0001                	nop
   22044:	b82c                	fsd	fa1,112(s0)
   22046:	0001                	nop
   22048:	bf38                	fsd	fa4,120(a4)
   2204a:	0001                	nop
   2204c:	b81c                	fsd	fa5,48(s0)
   2204e:	0001                	nop
   22050:	bf38                	fsd	fa4,120(a4)
   22052:	0001                	nop
   22054:	b908                	fsd	fa0,48(a0)
   22056:	0001                	nop
   22058:	b95c                	fsd	fa5,176(a0)
   2205a:	0001                	nop
   2205c:	b9c0                	fsd	fs0,176(a1)
   2205e:	0001                	nop
   22060:	b82c                	fsd	fa1,112(s0)
   22062:	0001                	nop
   22064:	bf38                	fsd	fa4,120(a4)
   22066:	0001                	nop
   22068:	b9f0                	fsd	fa2,240(a1)
   2206a:	0001                	nop
   2206c:	b738                	fsd	fa4,104(a4)
   2206e:	0001                	nop
   22070:	bce0                	fsd	fs0,248(s1)
   22072:	0001                	nop
   22074:	bf38                	fsd	fa4,120(a4)
   22076:	0001                	nop
   22078:	bf38                	fsd	fa4,120(a4)
   2207a:	0001                	nop
   2207c:	b6a0                	fsd	fs0,104(a3)
   2207e:	0001                	nop
   22080:	bf38                	fsd	fa4,120(a4)
   22082:	0001                	nop
   22084:	b738                	fsd	fa4,104(a4)
   22086:	0001                	nop

00022088 <blanks.4475>:
   22088:	2020                	fld	fs0,64(s0)
   2208a:	2020                	fld	fs0,64(s0)
   2208c:	2020                	fld	fs0,64(s0)
   2208e:	2020                	fld	fs0,64(s0)
   22090:	2020                	fld	fs0,64(s0)
   22092:	2020                	fld	fs0,64(s0)
   22094:	2020                	fld	fs0,64(s0)
   22096:	2020                	fld	fs0,64(s0)

00022098 <zeroes.4476>:
   22098:	3030                	fld	fa2,96(s0)
   2209a:	3030                	fld	fa2,96(s0)
   2209c:	3030                	fld	fa2,96(s0)
   2209e:	3030                	fld	fa2,96(s0)
   220a0:	3030                	fld	fa2,96(s0)
   220a2:	3030                	fld	fa2,96(s0)
   220a4:	3030                	fld	fa2,96(s0)
   220a6:	3030                	fld	fa2,96(s0)
   220a8:	d0bc                	sw	a5,96(s1)
   220aa:	0001                	nop
   220ac:	cfd0                	sw	a2,28(a5)
   220ae:	0001                	nop
   220b0:	cfdc                	sw	a5,28(a5)
   220b2:	0001                	nop
   220b4:	cfd0                	sw	a2,28(a5)
   220b6:	0001                	nop
   220b8:	d0a8                	sw	a0,96(s1)
   220ba:	0001                	nop
   220bc:	cfd0                	sw	a2,28(a5)
   220be:	0001                	nop
   220c0:	cfdc                	sw	a5,28(a5)
   220c2:	0001                	nop
   220c4:	d0bc                	sw	a5,96(s1)
   220c6:	0001                	nop
   220c8:	d0bc                	sw	a5,96(s1)
   220ca:	0001                	nop
   220cc:	d0a8                	sw	a0,96(s1)
   220ce:	0001                	nop
   220d0:	cfdc                	sw	a5,28(a5)
   220d2:	0001                	nop
   220d4:	cfa8                	sw	a0,88(a5)
   220d6:	0001                	nop
   220d8:	cfa8                	sw	a0,88(a5)
   220da:	0001                	nop
   220dc:	cfa8                	sw	a0,88(a5)
   220de:	0001                	nop
   220e0:	cfe4                	sw	s1,92(a5)
   220e2:	0001                	nop
   220e4:	d590                	sw	a2,40(a1)
   220e6:	0001                	nop
   220e8:	d590                	sw	a2,40(a1)
   220ea:	0001                	nop
   220ec:	d5b4                	sw	a3,104(a1)
   220ee:	0001                	nop
   220f0:	d584                	sw	s1,40(a1)
   220f2:	0001                	nop
   220f4:	d584                	sw	s1,40(a1)
   220f6:	0001                	nop
   220f8:	d674                	sw	a3,108(a2)
   220fa:	0001                	nop
   220fc:	d5b4                	sw	a3,104(a1)
   220fe:	0001                	nop
   22100:	d584                	sw	s1,40(a1)
   22102:	0001                	nop
   22104:	d674                	sw	a3,108(a2)
   22106:	0001                	nop
   22108:	d584                	sw	s1,40(a1)
   2210a:	0001                	nop
   2210c:	d5b4                	sw	a3,104(a1)
   2210e:	0001                	nop
   22110:	d580                	sw	s0,40(a1)
   22112:	0001                	nop
   22114:	d580                	sw	s0,40(a1)
   22116:	0001                	nop
   22118:	d580                	sw	s0,40(a1)
   2211a:	0001                	nop
   2211c:	d674                	sw	a3,108(a2)
   2211e:	0001                	nop
   22120:	e784                	fsw	fs1,8(a5)
   22122:	0001                	nop
   22124:	e784                	fsw	fs1,8(a5)
   22126:	0001                	nop
   22128:	e780                	fsw	fs0,8(a5)
   2212a:	0001                	nop
   2212c:	e734                	fsw	fa3,72(a4)
   2212e:	0001                	nop
   22130:	e734                	fsw	fa3,72(a4)
   22132:	0001                	nop
   22134:	e9ec                	fsw	fa1,84(a1)
   22136:	0001                	nop
   22138:	e780                	fsw	fs0,8(a5)
   2213a:	0001                	nop
   2213c:	e734                	fsw	fa3,72(a4)
   2213e:	0001                	nop
   22140:	e9ec                	fsw	fa1,84(a1)
   22142:	0001                	nop
   22144:	e734                	fsw	fa3,72(a4)
   22146:	0001                	nop
   22148:	e780                	fsw	fs0,8(a5)
   2214a:	0001                	nop
   2214c:	e730                	fsw	fa2,72(a4)
   2214e:	0001                	nop
   22150:	e730                	fsw	fa2,72(a4)
   22152:	0001                	nop
   22154:	e730                	fsw	fa2,72(a4)
   22156:	0001                	nop
   22158:	e9ec                	fsw	fa1,84(a1)
   2215a:	0001                	nop

0002215c <__clz_tab>:
   2215c:	0100                	addi	s0,sp,128
   2215e:	0202                	slli	tp,tp,0x0
   22160:	03030303          	lb	t1,48(t1) # 19030 <_svfprintf_r+0xf9c>
   22164:	0404                	addi	s1,sp,512
   22166:	0404                	addi	s1,sp,512
   22168:	0404                	addi	s1,sp,512
   2216a:	0404                	addi	s1,sp,512
   2216c:	0505                	addi	a0,a0,1
   2216e:	0505                	addi	a0,a0,1
   22170:	0505                	addi	a0,a0,1
   22172:	0505                	addi	a0,a0,1
   22174:	0505                	addi	a0,a0,1
   22176:	0505                	addi	a0,a0,1
   22178:	0505                	addi	a0,a0,1
   2217a:	0505                	addi	a0,a0,1
   2217c:	0606                	slli	a2,a2,0x1
   2217e:	0606                	slli	a2,a2,0x1
   22180:	0606                	slli	a2,a2,0x1
   22182:	0606                	slli	a2,a2,0x1
   22184:	0606                	slli	a2,a2,0x1
   22186:	0606                	slli	a2,a2,0x1
   22188:	0606                	slli	a2,a2,0x1
   2218a:	0606                	slli	a2,a2,0x1
   2218c:	0606                	slli	a2,a2,0x1
   2218e:	0606                	slli	a2,a2,0x1
   22190:	0606                	slli	a2,a2,0x1
   22192:	0606                	slli	a2,a2,0x1
   22194:	0606                	slli	a2,a2,0x1
   22196:	0606                	slli	a2,a2,0x1
   22198:	0606                	slli	a2,a2,0x1
   2219a:	0606                	slli	a2,a2,0x1
   2219c:	07070707          	0x7070707
   221a0:	07070707          	0x7070707
   221a4:	07070707          	0x7070707
   221a8:	07070707          	0x7070707
   221ac:	07070707          	0x7070707
   221b0:	07070707          	0x7070707
   221b4:	07070707          	0x7070707
   221b8:	07070707          	0x7070707
   221bc:	07070707          	0x7070707
   221c0:	07070707          	0x7070707
   221c4:	07070707          	0x7070707
   221c8:	07070707          	0x7070707
   221cc:	07070707          	0x7070707
   221d0:	07070707          	0x7070707
   221d4:	07070707          	0x7070707
   221d8:	07070707          	0x7070707
   221dc:	0808                	addi	a0,sp,16
   221de:	0808                	addi	a0,sp,16
   221e0:	0808                	addi	a0,sp,16
   221e2:	0808                	addi	a0,sp,16
   221e4:	0808                	addi	a0,sp,16
   221e6:	0808                	addi	a0,sp,16
   221e8:	0808                	addi	a0,sp,16
   221ea:	0808                	addi	a0,sp,16
   221ec:	0808                	addi	a0,sp,16
   221ee:	0808                	addi	a0,sp,16
   221f0:	0808                	addi	a0,sp,16
   221f2:	0808                	addi	a0,sp,16
   221f4:	0808                	addi	a0,sp,16
   221f6:	0808                	addi	a0,sp,16
   221f8:	0808                	addi	a0,sp,16
   221fa:	0808                	addi	a0,sp,16
   221fc:	0808                	addi	a0,sp,16
   221fe:	0808                	addi	a0,sp,16
   22200:	0808                	addi	a0,sp,16
   22202:	0808                	addi	a0,sp,16
   22204:	0808                	addi	a0,sp,16
   22206:	0808                	addi	a0,sp,16
   22208:	0808                	addi	a0,sp,16
   2220a:	0808                	addi	a0,sp,16
   2220c:	0808                	addi	a0,sp,16
   2220e:	0808                	addi	a0,sp,16
   22210:	0808                	addi	a0,sp,16
   22212:	0808                	addi	a0,sp,16
   22214:	0808                	addi	a0,sp,16
   22216:	0808                	addi	a0,sp,16
   22218:	0808                	addi	a0,sp,16
   2221a:	0808                	addi	a0,sp,16
   2221c:	0808                	addi	a0,sp,16
   2221e:	0808                	addi	a0,sp,16
   22220:	0808                	addi	a0,sp,16
   22222:	0808                	addi	a0,sp,16
   22224:	0808                	addi	a0,sp,16
   22226:	0808                	addi	a0,sp,16
   22228:	0808                	addi	a0,sp,16
   2222a:	0808                	addi	a0,sp,16
   2222c:	0808                	addi	a0,sp,16
   2222e:	0808                	addi	a0,sp,16
   22230:	0808                	addi	a0,sp,16
   22232:	0808                	addi	a0,sp,16
   22234:	0808                	addi	a0,sp,16
   22236:	0808                	addi	a0,sp,16
   22238:	0808                	addi	a0,sp,16
   2223a:	0808                	addi	a0,sp,16
   2223c:	0808                	addi	a0,sp,16
   2223e:	0808                	addi	a0,sp,16
   22240:	0808                	addi	a0,sp,16
   22242:	0808                	addi	a0,sp,16
   22244:	0808                	addi	a0,sp,16
   22246:	0808                	addi	a0,sp,16
   22248:	0808                	addi	a0,sp,16
   2224a:	0808                	addi	a0,sp,16
   2224c:	0808                	addi	a0,sp,16
   2224e:	0808                	addi	a0,sp,16
   22250:	0808                	addi	a0,sp,16
   22252:	0808                	addi	a0,sp,16
   22254:	0808                	addi	a0,sp,16
   22256:	0808                	addi	a0,sp,16
   22258:	0808                	addi	a0,sp,16
   2225a:	0808                	addi	a0,sp,16

Disassembly of section .eh_frame:

0002325c <__EH_FRAME_BEGIN__>:
   2325c:	0010                	0x10
   2325e:	0000                	unimp
   23260:	0000                	unimp
   23262:	0000                	unimp
   23264:	7a01                	lui	s4,0xfffe0
   23266:	0052                	c.slli	zero,0x14
   23268:	7c01                	lui	s8,0xfffe0
   2326a:	0101                	addi	sp,sp,0
   2326c:	00020d1b          	0x20d1b
   23270:	0010                	0x10
   23272:	0000                	unimp
   23274:	0018                	0x18
   23276:	0000                	unimp
   23278:	8f5c                	0x8f5c
   2327a:	ffff                	0xffff
   2327c:	0434                	addi	a3,sp,520
   2327e:	0000                	unimp
   23280:	0000                	unimp
   23282:	0000                	unimp
   23284:	0010                	0x10
   23286:	0000                	unimp
   23288:	002c                	addi	a1,sp,8
   2328a:	0000                	unimp
   2328c:	937c                	0x937c
   2328e:	ffff                	0xffff
   23290:	0410                	addi	a2,sp,512
   23292:	0000                	unimp
   23294:	0000                	unimp
	...

00023298 <__FRAME_END__>:
   23298:	0000                	unimp
	...

Disassembly of section .init_array:

0002329c <__frame_dummy_init_array_entry>:
   2329c:	0104                	addi	s1,sp,128
   2329e:	0001                	nop

Disassembly of section .fini_array:

000232a0 <__do_global_dtors_aux_fini_array_entry>:
   232a0:	00b0                	addi	a2,sp,72
   232a2:	0001                	nop

Disassembly of section .data:

000232a8 <impure_data>:
   232a8:	0000                	unimp
   232aa:	0000                	unimp
   232ac:	3594                	fld	fa3,40(a1)
   232ae:	0002                	c.slli	zero,0x0
   232b0:	35fc                	fld	fa5,232(a1)
   232b2:	0002                	c.slli	zero,0x0
   232b4:	3664                	fld	fs1,232(a2)
   232b6:	0002                	c.slli	zero,0x0
	...
   23350:	0001                	nop
   23352:	0000                	unimp
   23354:	0000                	unimp
   23356:	0000                	unimp
   23358:	330e                	fld	ft6,224(sp)
   2335a:	abcd                	j	2394c <__malloc_av_+0x27c>
   2335c:	1234                	addi	a3,sp,296
   2335e:	e66d                	bnez	a2,23448 <impure_data+0x1a0>
   23360:	deec                	sw	a1,124(a3)
   23362:	0005                	c.nop	1
   23364:	0000000b          	0xb
	...

000236d0 <__malloc_av_>:
	...
   236d8:	36d0                	fld	fa2,168(a3)
   236da:	0002                	c.slli	zero,0x0
   236dc:	36d0                	fld	fa2,168(a3)
   236de:	0002                	c.slli	zero,0x0
   236e0:	36d8                	fld	fa4,168(a3)
   236e2:	0002                	c.slli	zero,0x0
   236e4:	36d8                	fld	fa4,168(a3)
   236e6:	0002                	c.slli	zero,0x0
   236e8:	36e0                	fld	fs0,232(a3)
   236ea:	0002                	c.slli	zero,0x0
   236ec:	36e0                	fld	fs0,232(a3)
   236ee:	0002                	c.slli	zero,0x0
   236f0:	36e8                	fld	fa0,232(a3)
   236f2:	0002                	c.slli	zero,0x0
   236f4:	36e8                	fld	fa0,232(a3)
   236f6:	0002                	c.slli	zero,0x0
   236f8:	36f0                	fld	fa2,232(a3)
   236fa:	0002                	c.slli	zero,0x0
   236fc:	36f0                	fld	fa2,232(a3)
   236fe:	0002                	c.slli	zero,0x0
   23700:	36f8                	fld	fa4,232(a3)
   23702:	0002                	c.slli	zero,0x0
   23704:	36f8                	fld	fa4,232(a3)
   23706:	0002                	c.slli	zero,0x0
   23708:	3700                	fld	fs0,40(a4)
   2370a:	0002                	c.slli	zero,0x0
   2370c:	3700                	fld	fs0,40(a4)
   2370e:	0002                	c.slli	zero,0x0
   23710:	3708                	fld	fa0,40(a4)
   23712:	0002                	c.slli	zero,0x0
   23714:	3708                	fld	fa0,40(a4)
   23716:	0002                	c.slli	zero,0x0
   23718:	3710                	fld	fa2,40(a4)
   2371a:	0002                	c.slli	zero,0x0
   2371c:	3710                	fld	fa2,40(a4)
   2371e:	0002                	c.slli	zero,0x0
   23720:	3718                	fld	fa4,40(a4)
   23722:	0002                	c.slli	zero,0x0
   23724:	3718                	fld	fa4,40(a4)
   23726:	0002                	c.slli	zero,0x0
   23728:	3720                	fld	fs0,104(a4)
   2372a:	0002                	c.slli	zero,0x0
   2372c:	3720                	fld	fs0,104(a4)
   2372e:	0002                	c.slli	zero,0x0
   23730:	3728                	fld	fa0,104(a4)
   23732:	0002                	c.slli	zero,0x0
   23734:	3728                	fld	fa0,104(a4)
   23736:	0002                	c.slli	zero,0x0
   23738:	3730                	fld	fa2,104(a4)
   2373a:	0002                	c.slli	zero,0x0
   2373c:	3730                	fld	fa2,104(a4)
   2373e:	0002                	c.slli	zero,0x0
   23740:	3738                	fld	fa4,104(a4)
   23742:	0002                	c.slli	zero,0x0
   23744:	3738                	fld	fa4,104(a4)
   23746:	0002                	c.slli	zero,0x0
   23748:	3740                	fld	fs0,168(a4)
   2374a:	0002                	c.slli	zero,0x0
   2374c:	3740                	fld	fs0,168(a4)
   2374e:	0002                	c.slli	zero,0x0
   23750:	3748                	fld	fa0,168(a4)
   23752:	0002                	c.slli	zero,0x0
   23754:	3748                	fld	fa0,168(a4)
   23756:	0002                	c.slli	zero,0x0
   23758:	3750                	fld	fa2,168(a4)
   2375a:	0002                	c.slli	zero,0x0
   2375c:	3750                	fld	fa2,168(a4)
   2375e:	0002                	c.slli	zero,0x0
   23760:	3758                	fld	fa4,168(a4)
   23762:	0002                	c.slli	zero,0x0
   23764:	3758                	fld	fa4,168(a4)
   23766:	0002                	c.slli	zero,0x0
   23768:	3760                	fld	fs0,232(a4)
   2376a:	0002                	c.slli	zero,0x0
   2376c:	3760                	fld	fs0,232(a4)
   2376e:	0002                	c.slli	zero,0x0
   23770:	3768                	fld	fa0,232(a4)
   23772:	0002                	c.slli	zero,0x0
   23774:	3768                	fld	fa0,232(a4)
   23776:	0002                	c.slli	zero,0x0
   23778:	3770                	fld	fa2,232(a4)
   2377a:	0002                	c.slli	zero,0x0
   2377c:	3770                	fld	fa2,232(a4)
   2377e:	0002                	c.slli	zero,0x0
   23780:	3778                	fld	fa4,232(a4)
   23782:	0002                	c.slli	zero,0x0
   23784:	3778                	fld	fa4,232(a4)
   23786:	0002                	c.slli	zero,0x0
   23788:	3780                	fld	fs0,40(a5)
   2378a:	0002                	c.slli	zero,0x0
   2378c:	3780                	fld	fs0,40(a5)
   2378e:	0002                	c.slli	zero,0x0
   23790:	3788                	fld	fa0,40(a5)
   23792:	0002                	c.slli	zero,0x0
   23794:	3788                	fld	fa0,40(a5)
   23796:	0002                	c.slli	zero,0x0
   23798:	3790                	fld	fa2,40(a5)
   2379a:	0002                	c.slli	zero,0x0
   2379c:	3790                	fld	fa2,40(a5)
   2379e:	0002                	c.slli	zero,0x0
   237a0:	3798                	fld	fa4,40(a5)
   237a2:	0002                	c.slli	zero,0x0
   237a4:	3798                	fld	fa4,40(a5)
   237a6:	0002                	c.slli	zero,0x0
   237a8:	37a0                	fld	fs0,104(a5)
   237aa:	0002                	c.slli	zero,0x0
   237ac:	37a0                	fld	fs0,104(a5)
   237ae:	0002                	c.slli	zero,0x0
   237b0:	37a8                	fld	fa0,104(a5)
   237b2:	0002                	c.slli	zero,0x0
   237b4:	37a8                	fld	fa0,104(a5)
   237b6:	0002                	c.slli	zero,0x0
   237b8:	37b0                	fld	fa2,104(a5)
   237ba:	0002                	c.slli	zero,0x0
   237bc:	37b0                	fld	fa2,104(a5)
   237be:	0002                	c.slli	zero,0x0
   237c0:	37b8                	fld	fa4,104(a5)
   237c2:	0002                	c.slli	zero,0x0
   237c4:	37b8                	fld	fa4,104(a5)
   237c6:	0002                	c.slli	zero,0x0
   237c8:	37c0                	fld	fs0,168(a5)
   237ca:	0002                	c.slli	zero,0x0
   237cc:	37c0                	fld	fs0,168(a5)
   237ce:	0002                	c.slli	zero,0x0
   237d0:	37c8                	fld	fa0,168(a5)
   237d2:	0002                	c.slli	zero,0x0
   237d4:	37c8                	fld	fa0,168(a5)
   237d6:	0002                	c.slli	zero,0x0
   237d8:	37d0                	fld	fa2,168(a5)
   237da:	0002                	c.slli	zero,0x0
   237dc:	37d0                	fld	fa2,168(a5)
   237de:	0002                	c.slli	zero,0x0
   237e0:	37d8                	fld	fa4,168(a5)
   237e2:	0002                	c.slli	zero,0x0
   237e4:	37d8                	fld	fa4,168(a5)
   237e6:	0002                	c.slli	zero,0x0
   237e8:	37e0                	fld	fs0,232(a5)
   237ea:	0002                	c.slli	zero,0x0
   237ec:	37e0                	fld	fs0,232(a5)
   237ee:	0002                	c.slli	zero,0x0
   237f0:	37e8                	fld	fa0,232(a5)
   237f2:	0002                	c.slli	zero,0x0
   237f4:	37e8                	fld	fa0,232(a5)
   237f6:	0002                	c.slli	zero,0x0
   237f8:	37f0                	fld	fa2,232(a5)
   237fa:	0002                	c.slli	zero,0x0
   237fc:	37f0                	fld	fa2,232(a5)
   237fe:	0002                	c.slli	zero,0x0
   23800:	37f8                	fld	fa4,232(a5)
   23802:	0002                	c.slli	zero,0x0
   23804:	37f8                	fld	fa4,232(a5)
   23806:	0002                	c.slli	zero,0x0
   23808:	3800                	fld	fs0,48(s0)
   2380a:	0002                	c.slli	zero,0x0
   2380c:	3800                	fld	fs0,48(s0)
   2380e:	0002                	c.slli	zero,0x0
   23810:	3808                	fld	fa0,48(s0)
   23812:	0002                	c.slli	zero,0x0
   23814:	3808                	fld	fa0,48(s0)
   23816:	0002                	c.slli	zero,0x0
   23818:	3810                	fld	fa2,48(s0)
   2381a:	0002                	c.slli	zero,0x0
   2381c:	3810                	fld	fa2,48(s0)
   2381e:	0002                	c.slli	zero,0x0
   23820:	3818                	fld	fa4,48(s0)
   23822:	0002                	c.slli	zero,0x0
   23824:	3818                	fld	fa4,48(s0)
   23826:	0002                	c.slli	zero,0x0
   23828:	3820                	fld	fs0,112(s0)
   2382a:	0002                	c.slli	zero,0x0
   2382c:	3820                	fld	fs0,112(s0)
   2382e:	0002                	c.slli	zero,0x0
   23830:	3828                	fld	fa0,112(s0)
   23832:	0002                	c.slli	zero,0x0
   23834:	3828                	fld	fa0,112(s0)
   23836:	0002                	c.slli	zero,0x0
   23838:	3830                	fld	fa2,112(s0)
   2383a:	0002                	c.slli	zero,0x0
   2383c:	3830                	fld	fa2,112(s0)
   2383e:	0002                	c.slli	zero,0x0
   23840:	3838                	fld	fa4,112(s0)
   23842:	0002                	c.slli	zero,0x0
   23844:	3838                	fld	fa4,112(s0)
   23846:	0002                	c.slli	zero,0x0
   23848:	3840                	fld	fs0,176(s0)
   2384a:	0002                	c.slli	zero,0x0
   2384c:	3840                	fld	fs0,176(s0)
   2384e:	0002                	c.slli	zero,0x0
   23850:	3848                	fld	fa0,176(s0)
   23852:	0002                	c.slli	zero,0x0
   23854:	3848                	fld	fa0,176(s0)
   23856:	0002                	c.slli	zero,0x0
   23858:	3850                	fld	fa2,176(s0)
   2385a:	0002                	c.slli	zero,0x0
   2385c:	3850                	fld	fa2,176(s0)
   2385e:	0002                	c.slli	zero,0x0
   23860:	3858                	fld	fa4,176(s0)
   23862:	0002                	c.slli	zero,0x0
   23864:	3858                	fld	fa4,176(s0)
   23866:	0002                	c.slli	zero,0x0
   23868:	3860                	fld	fs0,240(s0)
   2386a:	0002                	c.slli	zero,0x0
   2386c:	3860                	fld	fs0,240(s0)
   2386e:	0002                	c.slli	zero,0x0
   23870:	3868                	fld	fa0,240(s0)
   23872:	0002                	c.slli	zero,0x0
   23874:	3868                	fld	fa0,240(s0)
   23876:	0002                	c.slli	zero,0x0
   23878:	3870                	fld	fa2,240(s0)
   2387a:	0002                	c.slli	zero,0x0
   2387c:	3870                	fld	fa2,240(s0)
   2387e:	0002                	c.slli	zero,0x0
   23880:	3878                	fld	fa4,240(s0)
   23882:	0002                	c.slli	zero,0x0
   23884:	3878                	fld	fa4,240(s0)
   23886:	0002                	c.slli	zero,0x0
   23888:	3880                	fld	fs0,48(s1)
   2388a:	0002                	c.slli	zero,0x0
   2388c:	3880                	fld	fs0,48(s1)
   2388e:	0002                	c.slli	zero,0x0
   23890:	3888                	fld	fa0,48(s1)
   23892:	0002                	c.slli	zero,0x0
   23894:	3888                	fld	fa0,48(s1)
   23896:	0002                	c.slli	zero,0x0
   23898:	3890                	fld	fa2,48(s1)
   2389a:	0002                	c.slli	zero,0x0
   2389c:	3890                	fld	fa2,48(s1)
   2389e:	0002                	c.slli	zero,0x0
   238a0:	3898                	fld	fa4,48(s1)
   238a2:	0002                	c.slli	zero,0x0
   238a4:	3898                	fld	fa4,48(s1)
   238a6:	0002                	c.slli	zero,0x0
   238a8:	38a0                	fld	fs0,112(s1)
   238aa:	0002                	c.slli	zero,0x0
   238ac:	38a0                	fld	fs0,112(s1)
   238ae:	0002                	c.slli	zero,0x0
   238b0:	38a8                	fld	fa0,112(s1)
   238b2:	0002                	c.slli	zero,0x0
   238b4:	38a8                	fld	fa0,112(s1)
   238b6:	0002                	c.slli	zero,0x0
   238b8:	38b0                	fld	fa2,112(s1)
   238ba:	0002                	c.slli	zero,0x0
   238bc:	38b0                	fld	fa2,112(s1)
   238be:	0002                	c.slli	zero,0x0
   238c0:	38b8                	fld	fa4,112(s1)
   238c2:	0002                	c.slli	zero,0x0
   238c4:	38b8                	fld	fa4,112(s1)
   238c6:	0002                	c.slli	zero,0x0
   238c8:	38c0                	fld	fs0,176(s1)
   238ca:	0002                	c.slli	zero,0x0
   238cc:	38c0                	fld	fs0,176(s1)
   238ce:	0002                	c.slli	zero,0x0
   238d0:	38c8                	fld	fa0,176(s1)
   238d2:	0002                	c.slli	zero,0x0
   238d4:	38c8                	fld	fa0,176(s1)
   238d6:	0002                	c.slli	zero,0x0
   238d8:	38d0                	fld	fa2,176(s1)
   238da:	0002                	c.slli	zero,0x0
   238dc:	38d0                	fld	fa2,176(s1)
   238de:	0002                	c.slli	zero,0x0
   238e0:	38d8                	fld	fa4,176(s1)
   238e2:	0002                	c.slli	zero,0x0
   238e4:	38d8                	fld	fa4,176(s1)
   238e6:	0002                	c.slli	zero,0x0
   238e8:	38e0                	fld	fs0,240(s1)
   238ea:	0002                	c.slli	zero,0x0
   238ec:	38e0                	fld	fs0,240(s1)
   238ee:	0002                	c.slli	zero,0x0
   238f0:	38e8                	fld	fa0,240(s1)
   238f2:	0002                	c.slli	zero,0x0
   238f4:	38e8                	fld	fa0,240(s1)
   238f6:	0002                	c.slli	zero,0x0
   238f8:	38f0                	fld	fa2,240(s1)
   238fa:	0002                	c.slli	zero,0x0
   238fc:	38f0                	fld	fa2,240(s1)
   238fe:	0002                	c.slli	zero,0x0
   23900:	38f8                	fld	fa4,240(s1)
   23902:	0002                	c.slli	zero,0x0
   23904:	38f8                	fld	fa4,240(s1)
   23906:	0002                	c.slli	zero,0x0
   23908:	3900                	fld	fs0,48(a0)
   2390a:	0002                	c.slli	zero,0x0
   2390c:	3900                	fld	fs0,48(a0)
   2390e:	0002                	c.slli	zero,0x0
   23910:	3908                	fld	fa0,48(a0)
   23912:	0002                	c.slli	zero,0x0
   23914:	3908                	fld	fa0,48(a0)
   23916:	0002                	c.slli	zero,0x0
   23918:	3910                	fld	fa2,48(a0)
   2391a:	0002                	c.slli	zero,0x0
   2391c:	3910                	fld	fa2,48(a0)
   2391e:	0002                	c.slli	zero,0x0
   23920:	3918                	fld	fa4,48(a0)
   23922:	0002                	c.slli	zero,0x0
   23924:	3918                	fld	fa4,48(a0)
   23926:	0002                	c.slli	zero,0x0
   23928:	3920                	fld	fs0,112(a0)
   2392a:	0002                	c.slli	zero,0x0
   2392c:	3920                	fld	fs0,112(a0)
   2392e:	0002                	c.slli	zero,0x0
   23930:	3928                	fld	fa0,112(a0)
   23932:	0002                	c.slli	zero,0x0
   23934:	3928                	fld	fa0,112(a0)
   23936:	0002                	c.slli	zero,0x0
   23938:	3930                	fld	fa2,112(a0)
   2393a:	0002                	c.slli	zero,0x0
   2393c:	3930                	fld	fa2,112(a0)
   2393e:	0002                	c.slli	zero,0x0
   23940:	3938                	fld	fa4,112(a0)
   23942:	0002                	c.slli	zero,0x0
   23944:	3938                	fld	fa4,112(a0)
   23946:	0002                	c.slli	zero,0x0
   23948:	3940                	fld	fs0,176(a0)
   2394a:	0002                	c.slli	zero,0x0
   2394c:	3940                	fld	fs0,176(a0)
   2394e:	0002                	c.slli	zero,0x0
   23950:	3948                	fld	fa0,176(a0)
   23952:	0002                	c.slli	zero,0x0
   23954:	3948                	fld	fa0,176(a0)
   23956:	0002                	c.slli	zero,0x0
   23958:	3950                	fld	fa2,176(a0)
   2395a:	0002                	c.slli	zero,0x0
   2395c:	3950                	fld	fa2,176(a0)
   2395e:	0002                	c.slli	zero,0x0
   23960:	3958                	fld	fa4,176(a0)
   23962:	0002                	c.slli	zero,0x0
   23964:	3958                	fld	fa4,176(a0)
   23966:	0002                	c.slli	zero,0x0
   23968:	3960                	fld	fs0,240(a0)
   2396a:	0002                	c.slli	zero,0x0
   2396c:	3960                	fld	fs0,240(a0)
   2396e:	0002                	c.slli	zero,0x0
   23970:	3968                	fld	fa0,240(a0)
   23972:	0002                	c.slli	zero,0x0
   23974:	3968                	fld	fa0,240(a0)
   23976:	0002                	c.slli	zero,0x0
   23978:	3970                	fld	fa2,240(a0)
   2397a:	0002                	c.slli	zero,0x0
   2397c:	3970                	fld	fa2,240(a0)
   2397e:	0002                	c.slli	zero,0x0
   23980:	3978                	fld	fa4,240(a0)
   23982:	0002                	c.slli	zero,0x0
   23984:	3978                	fld	fa4,240(a0)
   23986:	0002                	c.slli	zero,0x0
   23988:	3980                	fld	fs0,48(a1)
   2398a:	0002                	c.slli	zero,0x0
   2398c:	3980                	fld	fs0,48(a1)
   2398e:	0002                	c.slli	zero,0x0
   23990:	3988                	fld	fa0,48(a1)
   23992:	0002                	c.slli	zero,0x0
   23994:	3988                	fld	fa0,48(a1)
   23996:	0002                	c.slli	zero,0x0
   23998:	3990                	fld	fa2,48(a1)
   2399a:	0002                	c.slli	zero,0x0
   2399c:	3990                	fld	fa2,48(a1)
   2399e:	0002                	c.slli	zero,0x0
   239a0:	3998                	fld	fa4,48(a1)
   239a2:	0002                	c.slli	zero,0x0
   239a4:	3998                	fld	fa4,48(a1)
   239a6:	0002                	c.slli	zero,0x0
   239a8:	39a0                	fld	fs0,112(a1)
   239aa:	0002                	c.slli	zero,0x0
   239ac:	39a0                	fld	fs0,112(a1)
   239ae:	0002                	c.slli	zero,0x0
   239b0:	39a8                	fld	fa0,112(a1)
   239b2:	0002                	c.slli	zero,0x0
   239b4:	39a8                	fld	fa0,112(a1)
   239b6:	0002                	c.slli	zero,0x0
   239b8:	39b0                	fld	fa2,112(a1)
   239ba:	0002                	c.slli	zero,0x0
   239bc:	39b0                	fld	fa2,112(a1)
   239be:	0002                	c.slli	zero,0x0
   239c0:	39b8                	fld	fa4,112(a1)
   239c2:	0002                	c.slli	zero,0x0
   239c4:	39b8                	fld	fa4,112(a1)
   239c6:	0002                	c.slli	zero,0x0
   239c8:	39c0                	fld	fs0,176(a1)
   239ca:	0002                	c.slli	zero,0x0
   239cc:	39c0                	fld	fs0,176(a1)
   239ce:	0002                	c.slli	zero,0x0
   239d0:	39c8                	fld	fa0,176(a1)
   239d2:	0002                	c.slli	zero,0x0
   239d4:	39c8                	fld	fa0,176(a1)
   239d6:	0002                	c.slli	zero,0x0
   239d8:	39d0                	fld	fa2,176(a1)
   239da:	0002                	c.slli	zero,0x0
   239dc:	39d0                	fld	fa2,176(a1)
   239de:	0002                	c.slli	zero,0x0
   239e0:	39d8                	fld	fa4,176(a1)
   239e2:	0002                	c.slli	zero,0x0
   239e4:	39d8                	fld	fa4,176(a1)
   239e6:	0002                	c.slli	zero,0x0
   239e8:	39e0                	fld	fs0,240(a1)
   239ea:	0002                	c.slli	zero,0x0
   239ec:	39e0                	fld	fs0,240(a1)
   239ee:	0002                	c.slli	zero,0x0
   239f0:	39e8                	fld	fa0,240(a1)
   239f2:	0002                	c.slli	zero,0x0
   239f4:	39e8                	fld	fa0,240(a1)
   239f6:	0002                	c.slli	zero,0x0
   239f8:	39f0                	fld	fa2,240(a1)
   239fa:	0002                	c.slli	zero,0x0
   239fc:	39f0                	fld	fa2,240(a1)
   239fe:	0002                	c.slli	zero,0x0
   23a00:	39f8                	fld	fa4,240(a1)
   23a02:	0002                	c.slli	zero,0x0
   23a04:	39f8                	fld	fa4,240(a1)
   23a06:	0002                	c.slli	zero,0x0
   23a08:	3a00                	fld	fs0,48(a2)
   23a0a:	0002                	c.slli	zero,0x0
   23a0c:	3a00                	fld	fs0,48(a2)
   23a0e:	0002                	c.slli	zero,0x0
   23a10:	3a08                	fld	fa0,48(a2)
   23a12:	0002                	c.slli	zero,0x0
   23a14:	3a08                	fld	fa0,48(a2)
   23a16:	0002                	c.slli	zero,0x0
   23a18:	3a10                	fld	fa2,48(a2)
   23a1a:	0002                	c.slli	zero,0x0
   23a1c:	3a10                	fld	fa2,48(a2)
   23a1e:	0002                	c.slli	zero,0x0
   23a20:	3a18                	fld	fa4,48(a2)
   23a22:	0002                	c.slli	zero,0x0
   23a24:	3a18                	fld	fa4,48(a2)
   23a26:	0002                	c.slli	zero,0x0
   23a28:	3a20                	fld	fs0,112(a2)
   23a2a:	0002                	c.slli	zero,0x0
   23a2c:	3a20                	fld	fs0,112(a2)
   23a2e:	0002                	c.slli	zero,0x0
   23a30:	3a28                	fld	fa0,112(a2)
   23a32:	0002                	c.slli	zero,0x0
   23a34:	3a28                	fld	fa0,112(a2)
   23a36:	0002                	c.slli	zero,0x0
   23a38:	3a30                	fld	fa2,112(a2)
   23a3a:	0002                	c.slli	zero,0x0
   23a3c:	3a30                	fld	fa2,112(a2)
   23a3e:	0002                	c.slli	zero,0x0
   23a40:	3a38                	fld	fa4,112(a2)
   23a42:	0002                	c.slli	zero,0x0
   23a44:	3a38                	fld	fa4,112(a2)
   23a46:	0002                	c.slli	zero,0x0
   23a48:	3a40                	fld	fs0,176(a2)
   23a4a:	0002                	c.slli	zero,0x0
   23a4c:	3a40                	fld	fs0,176(a2)
   23a4e:	0002                	c.slli	zero,0x0
   23a50:	3a48                	fld	fa0,176(a2)
   23a52:	0002                	c.slli	zero,0x0
   23a54:	3a48                	fld	fa0,176(a2)
   23a56:	0002                	c.slli	zero,0x0
   23a58:	3a50                	fld	fa2,176(a2)
   23a5a:	0002                	c.slli	zero,0x0
   23a5c:	3a50                	fld	fa2,176(a2)
   23a5e:	0002                	c.slli	zero,0x0
   23a60:	3a58                	fld	fa4,176(a2)
   23a62:	0002                	c.slli	zero,0x0
   23a64:	3a58                	fld	fa4,176(a2)
   23a66:	0002                	c.slli	zero,0x0
   23a68:	3a60                	fld	fs0,240(a2)
   23a6a:	0002                	c.slli	zero,0x0
   23a6c:	3a60                	fld	fs0,240(a2)
   23a6e:	0002                	c.slli	zero,0x0
   23a70:	3a68                	fld	fa0,240(a2)
   23a72:	0002                	c.slli	zero,0x0
   23a74:	3a68                	fld	fa0,240(a2)
   23a76:	0002                	c.slli	zero,0x0
   23a78:	3a70                	fld	fa2,240(a2)
   23a7a:	0002                	c.slli	zero,0x0
   23a7c:	3a70                	fld	fa2,240(a2)
   23a7e:	0002                	c.slli	zero,0x0
   23a80:	3a78                	fld	fa4,240(a2)
   23a82:	0002                	c.slli	zero,0x0
   23a84:	3a78                	fld	fa4,240(a2)
   23a86:	0002                	c.slli	zero,0x0
   23a88:	3a80                	fld	fs0,48(a3)
   23a8a:	0002                	c.slli	zero,0x0
   23a8c:	3a80                	fld	fs0,48(a3)
   23a8e:	0002                	c.slli	zero,0x0
   23a90:	3a88                	fld	fa0,48(a3)
   23a92:	0002                	c.slli	zero,0x0
   23a94:	3a88                	fld	fa0,48(a3)
   23a96:	0002                	c.slli	zero,0x0
   23a98:	3a90                	fld	fa2,48(a3)
   23a9a:	0002                	c.slli	zero,0x0
   23a9c:	3a90                	fld	fa2,48(a3)
   23a9e:	0002                	c.slli	zero,0x0
   23aa0:	3a98                	fld	fa4,48(a3)
   23aa2:	0002                	c.slli	zero,0x0
   23aa4:	3a98                	fld	fa4,48(a3)
   23aa6:	0002                	c.slli	zero,0x0
   23aa8:	3aa0                	fld	fs0,112(a3)
   23aaa:	0002                	c.slli	zero,0x0
   23aac:	3aa0                	fld	fs0,112(a3)
   23aae:	0002                	c.slli	zero,0x0
   23ab0:	3aa8                	fld	fa0,112(a3)
   23ab2:	0002                	c.slli	zero,0x0
   23ab4:	3aa8                	fld	fa0,112(a3)
   23ab6:	0002                	c.slli	zero,0x0
   23ab8:	3ab0                	fld	fa2,112(a3)
   23aba:	0002                	c.slli	zero,0x0
   23abc:	3ab0                	fld	fa2,112(a3)
   23abe:	0002                	c.slli	zero,0x0
   23ac0:	3ab8                	fld	fa4,112(a3)
   23ac2:	0002                	c.slli	zero,0x0
   23ac4:	3ab8                	fld	fa4,112(a3)
   23ac6:	0002                	c.slli	zero,0x0
   23ac8:	3ac0                	fld	fs0,176(a3)
   23aca:	0002                	c.slli	zero,0x0
   23acc:	3ac0                	fld	fs0,176(a3)
   23ace:	0002                	c.slli	zero,0x0
   23ad0:	3ac8                	fld	fa0,176(a3)
   23ad2:	0002                	c.slli	zero,0x0
   23ad4:	3ac8                	fld	fa0,176(a3)
   23ad6:	0002                	c.slli	zero,0x0

00023ad8 <__global_locale>:
   23ad8:	00000043          	fmadd.s	ft0,ft0,ft0,ft0,rne
	...
   23af8:	00000043          	fmadd.s	ft0,ft0,ft0,ft0,rne
	...
   23b18:	00000043          	fmadd.s	ft0,ft0,ft0,ft0,rne
	...
   23b38:	00000043          	fmadd.s	ft0,ft0,ft0,ft0,rne
	...
   23b58:	00000043          	fmadd.s	ft0,ft0,ft0,ft0,rne
	...
   23b78:	00000043          	fmadd.s	ft0,ft0,ft0,ft0,rne
	...
   23b98:	00000043          	fmadd.s	ft0,ft0,ft0,ft0,rne
	...
   23bb8:	ae1c                	fsd	fa5,24(a2)
   23bba:	0001                	nop
   23bbc:	66b0                	flw	fa2,72(a3)
   23bbe:	0001                	nop
   23bc0:	0000                	unimp
   23bc2:	0000                	unimp
   23bc4:	1e18                	addi	a4,sp,816
   23bc6:	0002                	c.slli	zero,0x0
   23bc8:	19d0                	addi	a2,sp,244
   23bca:	0002                	c.slli	zero,0x0
   23bcc:	1168                	addi	a0,sp,172
   23bce:	0002                	c.slli	zero,0x0
   23bd0:	1168                	addi	a0,sp,172
   23bd2:	0002                	c.slli	zero,0x0
   23bd4:	1168                	addi	a0,sp,172
   23bd6:	0002                	c.slli	zero,0x0
   23bd8:	1168                	addi	a0,sp,172
   23bda:	0002                	c.slli	zero,0x0
   23bdc:	1168                	addi	a0,sp,172
   23bde:	0002                	c.slli	zero,0x0
   23be0:	1168                	addi	a0,sp,172
   23be2:	0002                	c.slli	zero,0x0
   23be4:	1168                	addi	a0,sp,172
   23be6:	0002                	c.slli	zero,0x0
   23be8:	1168                	addi	a0,sp,172
   23bea:	0002                	c.slli	zero,0x0
   23bec:	1168                	addi	a0,sp,172
   23bee:	0002                	c.slli	zero,0x0
   23bf0:	ffff                	0xffff
   23bf2:	ffff                	0xffff
   23bf4:	ffff                	0xffff
   23bf6:	ffff                	0xffff
   23bf8:	ffff                	0xffff
   23bfa:	ffff                	0xffff
   23bfc:	ffff                	0xffff
   23bfe:	0000                	unimp
   23c00:	0001                	nop
   23c02:	5341                	li	t1,-16
   23c04:	00494943          	fmadd.s	fs2,fs2,ft4,ft0,rmm
	...
   23c20:	0000                	unimp
   23c22:	5341                	li	t1,-16
   23c24:	00494943          	fmadd.s	fs2,fs2,ft4,ft0,rmm
	...

Disassembly of section .sdata:

00023c48 <_global_impure_ptr-0x18>:
   23c48:	0000                	unimp
   23c4a:	0000                	unimp
   23c4c:	0000                	unimp
   23c4e:	3ff0                	fld	fa2,248(a5)
   23c50:	0000                	unimp
   23c52:	0000                	unimp
   23c54:	0000                	unimp
   23c56:	4024                	lw	s1,64(s0)
   23c58:	0000                	unimp
   23c5a:	0000                	unimp
   23c5c:	0000                	unimp
   23c5e:	4350                	lw	a2,4(a4)

00023c60 <_global_impure_ptr>:
   23c60:	32a8                	fld	fa0,96(a3)
   23c62:	0002                	c.slli	zero,0x0

00023c64 <__dso_handle>:
   23c64:	0000                	unimp
	...

00023c68 <_impure_ptr>:
   23c68:	32a8                	fld	fa0,96(a3)
   23c6a:	0002                	c.slli	zero,0x0

00023c6c <__malloc_sbrk_base>:
   23c6c:	ffff                	0xffff
   23c6e:	ffff                	0xffff

00023c70 <__malloc_trim_threshold>:
   23c70:	0000                	unimp
   23c72:	0002                	c.slli	zero,0x0

Disassembly of section .sbss:

00023c74 <Reg>:
   23c74:	0000                	unimp
	...

00023c78 <heap_end.2318>:
   23c78:	0000                	unimp
	...

00023c7c <__malloc_max_total_mem>:
   23c7c:	0000                	unimp
	...

00023c80 <__malloc_max_sbrked_mem>:
   23c80:	0000                	unimp
	...

00023c84 <__malloc_top_pad>:
   23c84:	0000                	unimp
	...

00023c88 <_PathLocale>:
   23c88:	0000                	unimp
	...

Disassembly of section .bss:

00023c8c <completed.5430>:
   23c8c:	0000                	unimp
	...

00023c90 <object.5435>:
	...

00023ca8 <__malloc_current_mallinfo>:
	...

00023cd0 <Microseconds>:
   23cd0:	0000                	unimp
	...

00023cd4 <Dhrystones_Per_Second>:
   23cd4:	0000                	unimp
	...

00023cd8 <User_Insn>:
   23cd8:	0000                	unimp
	...

00023cdc <User_Time>:
   23cdc:	0000                	unimp
	...

00023ce0 <Begin_Time>:
   23ce0:	0000                	unimp
	...

00023ce4 <Arr_2_Glob>:
	...

000263f4 <End_Time>:
   263f4:	0000                	unimp
	...

000263f8 <Next_Ptr_Glob>:
   263f8:	0000                	unimp
	...

000263fc <Int_Glob>:
   263fc:	0000                	unimp
	...

00026400 <Ch_1_Glob>:
	...

00026401 <Ch_2_Glob>:
   26401:	0000                	unimp
	...

00026404 <Ptr_Glob>:
   26404:	0000                	unimp
	...

00026408 <Begin_Insn>:
   26408:	0000                	unimp
	...

0002640c <Arr_1_Glob>:
	...

000264d4 <Bool_Glob>:
   264d4:	0000                	unimp
	...

000264d8 <End_Insn>:
   264d8:	0000                	unimp
	...

000264dc <errno>:
   264dc:	0000                	unimp
	...

Disassembly of section .comment:

00000000 <.comment>:
   0:	3a434347          	fmsub.d	ft6,ft6,ft4,ft7,rmm
   4:	2820                	fld	fs0,80(s0)
   6:	29554e47          	fmsub.s	ft8,fa0,fs5,ft5,rmm
   a:	3820                	fld	fs0,112(s0)
   c:	322e                	fld	ft4,232(sp)
   e:	302e                	fld	ft0,232(sp)
	...
