
dhry.elf:     file format elf32-littleriscv


Disassembly of section .text:

00010000 <_start>:
   10000:	00014197          	auipc	gp,0x14
   10004:	44818193          	addi	gp,gp,1096 # 24448 <__global_pointer$>
   10008:	82c18513          	addi	a0,gp,-2004 # 23c74 <_edata>
   1000c:	00016617          	auipc	a2,0x16
   10010:	4d460613          	addi	a2,a2,1236 # 264e0 <_end>
   10014:	40a60633          	sub	a2,a2,a0
   10018:	00000593          	li	a1,0
   1001c:	4fd000ef          	jal	ra,10d18 <memset>
   10020:	00000517          	auipc	a0,0x0
   10024:	57c50513          	addi	a0,a0,1404 # 1059c <__libc_fini_array>
   10028:	528000ef          	jal	ra,10550 <atexit>
   1002c:	5cc000ef          	jal	ra,105f8 <__libc_init_array>
   10030:	00012503          	lw	a0,0(sp)
   10034:	00410593          	addi	a1,sp,4
   10038:	00000613          	li	a2,0
   1003c:	750100ef          	jal	ra,2078c <main>
   10040:	52c0006f          	j	1056c <exit>

00010044 <_fini>:
   10044:	00008067          	ret

00010048 <deregister_tm_clones>:
   10048:	00024537          	lui	a0,0x24
   1004c:	000247b7          	lui	a5,0x24
   10050:	c4450713          	addi	a4,a0,-956 # 23c44 <__TMC_END__>
   10054:	c4478793          	addi	a5,a5,-956 # 23c44 <__TMC_END__>
   10058:	00e78c63          	beq	a5,a4,10070 <deregister_tm_clones+0x28>
   1005c:	00000337          	lui	t1,0x0
   10060:	00030313          	mv	t1,t1
   10064:	00030663          	beqz	t1,10070 <deregister_tm_clones+0x28>
   10068:	c4450513          	addi	a0,a0,-956
   1006c:	00030067          	jr	t1 # 0 <_start-0x10000>
   10070:	00008067          	ret

00010074 <register_tm_clones>:
   10074:	000247b7          	lui	a5,0x24
   10078:	00024537          	lui	a0,0x24
   1007c:	c4478593          	addi	a1,a5,-956 # 23c44 <__TMC_END__>
   10080:	c4450793          	addi	a5,a0,-956 # 23c44 <__TMC_END__>
   10084:	40f585b3          	sub	a1,a1,a5
   10088:	4025d593          	srai	a1,a1,0x2
   1008c:	00200793          	li	a5,2
   10090:	02f5c5b3          	div	a1,a1,a5
   10094:	00058c63          	beqz	a1,100ac <register_tm_clones+0x38>
   10098:	00000337          	lui	t1,0x0
   1009c:	00030313          	mv	t1,t1
   100a0:	00030663          	beqz	t1,100ac <register_tm_clones+0x38>
   100a4:	c4450513          	addi	a0,a0,-956
   100a8:	00030067          	jr	t1 # 0 <_start-0x10000>
   100ac:	00008067          	ret

000100b0 <__do_global_dtors_aux>:
   100b0:	8441c703          	lbu	a4,-1980(gp) # 23c8c <completed.5430>
   100b4:	04071663          	bnez	a4,10100 <__do_global_dtors_aux+0x50>
   100b8:	ff010113          	addi	sp,sp,-16
   100bc:	00812423          	sw	s0,8(sp)
   100c0:	00112623          	sw	ra,12(sp)
   100c4:	00078413          	mv	s0,a5
   100c8:	f81ff0ef          	jal	ra,10048 <deregister_tm_clones>
   100cc:	000007b7          	lui	a5,0x0
   100d0:	00078793          	mv	a5,a5
   100d4:	00078a63          	beqz	a5,100e8 <__do_global_dtors_aux+0x38>
   100d8:	00023537          	lui	a0,0x23
   100dc:	25c50513          	addi	a0,a0,604 # 2325c <__EH_FRAME_BEGIN__>
   100e0:	ffff0097          	auipc	ra,0xffff0
   100e4:	f20080e7          	jalr	-224(ra) # 0 <_start-0x10000>
   100e8:	00100793          	li	a5,1
   100ec:	84f18223          	sb	a5,-1980(gp) # 23c8c <completed.5430>
   100f0:	00c12083          	lw	ra,12(sp)
   100f4:	00812403          	lw	s0,8(sp)
   100f8:	01010113          	addi	sp,sp,16
   100fc:	00008067          	ret
   10100:	00008067          	ret

00010104 <frame_dummy>:
   10104:	000007b7          	lui	a5,0x0
   10108:	00078793          	mv	a5,a5
   1010c:	02078463          	beqz	a5,10134 <frame_dummy+0x30>
   10110:	00023537          	lui	a0,0x23
   10114:	ff010113          	addi	sp,sp,-16
   10118:	84818593          	addi	a1,gp,-1976 # 23c90 <object.5435>
   1011c:	25c50513          	addi	a0,a0,604 # 2325c <__EH_FRAME_BEGIN__>
   10120:	00112623          	sw	ra,12(sp)
   10124:	ffff0097          	auipc	ra,0xffff0
   10128:	edc080e7          	jalr	-292(ra) # 0 <_start-0x10000>
   1012c:	00c12083          	lw	ra,12(sp)
   10130:	01010113          	addi	sp,sp,16
   10134:	f41ff06f          	j	10074 <register_tm_clones>

00010138 <Proc_1>:
   10138:	ff010113          	addi	sp,sp,-16
   1013c:	01212023          	sw	s2,0(sp)
   10140:	00026937          	lui	s2,0x26
   10144:	40492783          	lw	a5,1028(s2) # 26404 <Ptr_Glob>
   10148:	00812423          	sw	s0,8(sp)
   1014c:	00052403          	lw	s0,0(a0)
   10150:	0007a683          	lw	a3,0(a5) # 0 <_start-0x10000>
   10154:	0047af03          	lw	t5,4(a5)
   10158:	0087ae83          	lw	t4,8(a5)
   1015c:	0107ae03          	lw	t3,16(a5)
   10160:	0147a303          	lw	t1,20(a5)
   10164:	0187a883          	lw	a7,24(a5)
   10168:	01c7a803          	lw	a6,28(a5)
   1016c:	0287a603          	lw	a2,40(a5)
   10170:	02c7a703          	lw	a4,44(a5)
   10174:	00112623          	sw	ra,12(sp)
   10178:	00912223          	sw	s1,4(sp)
   1017c:	0247a583          	lw	a1,36(a5)
   10180:	00050493          	mv	s1,a0
   10184:	0207a503          	lw	a0,32(a5)
   10188:	00d42023          	sw	a3,0(s0)
   1018c:	0004a683          	lw	a3,0(s1)
   10190:	01e42223          	sw	t5,4(s0)
   10194:	01d42423          	sw	t4,8(s0)
   10198:	01c42823          	sw	t3,16(s0)
   1019c:	00642a23          	sw	t1,20(s0)
   101a0:	01142c23          	sw	a7,24(s0)
   101a4:	01042e23          	sw	a6,28(s0)
   101a8:	02a42023          	sw	a0,32(s0)
   101ac:	02c42423          	sw	a2,40(s0)
   101b0:	02e42623          	sw	a4,44(s0)
   101b4:	02b42223          	sw	a1,36(s0)
   101b8:	00500713          	li	a4,5
   101bc:	00e4a623          	sw	a4,12(s1)
   101c0:	00d42023          	sw	a3,0(s0)
   101c4:	0007a783          	lw	a5,0(a5)
   101c8:	000266b7          	lui	a3,0x26
   101cc:	3fc6a583          	lw	a1,1020(a3) # 263fc <Int_Glob>
   101d0:	00f42023          	sw	a5,0(s0)
   101d4:	40492603          	lw	a2,1028(s2)
   101d8:	00e42623          	sw	a4,12(s0)
   101dc:	00a00513          	li	a0,10
   101e0:	00c60613          	addi	a2,a2,12
   101e4:	1c4000ef          	jal	ra,103a8 <Proc_7>
   101e8:	00442783          	lw	a5,4(s0)
   101ec:	08078063          	beqz	a5,1026c <Proc_1+0x134>
   101f0:	0004a783          	lw	a5,0(s1)
   101f4:	00c12083          	lw	ra,12(sp)
   101f8:	00812403          	lw	s0,8(sp)
   101fc:	0007af83          	lw	t6,0(a5)
   10200:	0047af03          	lw	t5,4(a5)
   10204:	0087ae83          	lw	t4,8(a5)
   10208:	00c7ae03          	lw	t3,12(a5)
   1020c:	0107a303          	lw	t1,16(a5)
   10210:	0147a883          	lw	a7,20(a5)
   10214:	0187a803          	lw	a6,24(a5)
   10218:	01c7a583          	lw	a1,28(a5)
   1021c:	0207a603          	lw	a2,32(a5)
   10220:	0247a683          	lw	a3,36(a5)
   10224:	0287a703          	lw	a4,40(a5)
   10228:	02c7a783          	lw	a5,44(a5)
   1022c:	01f4a023          	sw	t6,0(s1)
   10230:	01e4a223          	sw	t5,4(s1)
   10234:	01d4a423          	sw	t4,8(s1)
   10238:	01c4a623          	sw	t3,12(s1)
   1023c:	0064a823          	sw	t1,16(s1)
   10240:	0114aa23          	sw	a7,20(s1)
   10244:	0104ac23          	sw	a6,24(s1)
   10248:	00b4ae23          	sw	a1,28(s1)
   1024c:	02c4a023          	sw	a2,32(s1)
   10250:	02d4a223          	sw	a3,36(s1)
   10254:	02e4a423          	sw	a4,40(s1)
   10258:	02f4a623          	sw	a5,44(s1)
   1025c:	00012903          	lw	s2,0(sp)
   10260:	00412483          	lw	s1,4(sp)
   10264:	01010113          	addi	sp,sp,16
   10268:	00008067          	ret
   1026c:	0084a503          	lw	a0,8(s1)
   10270:	00600793          	li	a5,6
   10274:	00840593          	addi	a1,s0,8
   10278:	00f42623          	sw	a5,12(s0)
   1027c:	0d8000ef          	jal	ra,10354 <Proc_6>
   10280:	40492783          	lw	a5,1028(s2)
   10284:	00c42503          	lw	a0,12(s0)
   10288:	00c40613          	addi	a2,s0,12
   1028c:	0007a783          	lw	a5,0(a5)
   10290:	00c12083          	lw	ra,12(sp)
   10294:	00412483          	lw	s1,4(sp)
   10298:	00f42023          	sw	a5,0(s0)
   1029c:	00812403          	lw	s0,8(sp)
   102a0:	00012903          	lw	s2,0(sp)
   102a4:	00a00593          	li	a1,10
   102a8:	01010113          	addi	sp,sp,16
   102ac:	0fc0006f          	j	103a8 <Proc_7>

000102b0 <Proc_2>:
   102b0:	000267b7          	lui	a5,0x26
   102b4:	4007c703          	lbu	a4,1024(a5) # 26400 <Ch_1_Glob>
   102b8:	04100793          	li	a5,65
   102bc:	00f70463          	beq	a4,a5,102c4 <Proc_2+0x14>
   102c0:	00008067          	ret
   102c4:	00052783          	lw	a5,0(a0)
   102c8:	00026737          	lui	a4,0x26
   102cc:	3fc72703          	lw	a4,1020(a4) # 263fc <Int_Glob>
   102d0:	00978793          	addi	a5,a5,9
   102d4:	40e787b3          	sub	a5,a5,a4
   102d8:	00f52023          	sw	a5,0(a0)
   102dc:	00008067          	ret

000102e0 <Proc_3>:
   102e0:	000267b7          	lui	a5,0x26
   102e4:	4047a603          	lw	a2,1028(a5) # 26404 <Ptr_Glob>
   102e8:	00060863          	beqz	a2,102f8 <Proc_3+0x18>
   102ec:	00062703          	lw	a4,0(a2)
   102f0:	00e52023          	sw	a4,0(a0)
   102f4:	4047a603          	lw	a2,1028(a5)
   102f8:	000267b7          	lui	a5,0x26
   102fc:	3fc7a583          	lw	a1,1020(a5) # 263fc <Int_Glob>
   10300:	00c60613          	addi	a2,a2,12
   10304:	00a00513          	li	a0,10
   10308:	0a00006f          	j	103a8 <Proc_7>

0001030c <Proc_4>:
   1030c:	000267b7          	lui	a5,0x26
   10310:	4007c783          	lbu	a5,1024(a5) # 26400 <Ch_1_Glob>
   10314:	00026737          	lui	a4,0x26
   10318:	4d472683          	lw	a3,1236(a4) # 264d4 <Bool_Glob>
   1031c:	fbf78793          	addi	a5,a5,-65
   10320:	0017b793          	seqz	a5,a5
   10324:	00d7e7b3          	or	a5,a5,a3
   10328:	4cf72a23          	sw	a5,1236(a4)
   1032c:	000267b7          	lui	a5,0x26
   10330:	04200713          	li	a4,66
   10334:	40e780a3          	sb	a4,1025(a5) # 26401 <Ch_2_Glob>
   10338:	00008067          	ret

0001033c <Proc_5>:
   1033c:	000267b7          	lui	a5,0x26
   10340:	04100713          	li	a4,65
   10344:	40e78023          	sb	a4,1024(a5) # 26400 <Ch_1_Glob>
   10348:	000267b7          	lui	a5,0x26
   1034c:	4c07aa23          	sw	zero,1236(a5) # 264d4 <Bool_Glob>
   10350:	00008067          	ret

00010354 <Proc_6>:
   10354:	00200793          	li	a5,2
   10358:	02f50663          	beq	a0,a5,10384 <Proc_6+0x30>
   1035c:	00300713          	li	a4,3
   10360:	00e5a023          	sw	a4,0(a1)
   10364:	00100713          	li	a4,1
   10368:	02e50463          	beq	a0,a4,10390 <Proc_6+0x3c>
   1036c:	02050a63          	beqz	a0,103a0 <Proc_6+0x4c>
   10370:	00400713          	li	a4,4
   10374:	00e50463          	beq	a0,a4,1037c <Proc_6+0x28>
   10378:	00008067          	ret
   1037c:	00f5a023          	sw	a5,0(a1)
   10380:	00008067          	ret
   10384:	00100793          	li	a5,1
   10388:	00f5a023          	sw	a5,0(a1)
   1038c:	00008067          	ret
   10390:	000267b7          	lui	a5,0x26
   10394:	3fc7a703          	lw	a4,1020(a5) # 263fc <Int_Glob>
   10398:	06400793          	li	a5,100
   1039c:	fee7d2e3          	ble	a4,a5,10380 <Proc_6+0x2c>
   103a0:	0005a023          	sw	zero,0(a1)
   103a4:	00008067          	ret

000103a8 <Proc_7>:
   103a8:	00250513          	addi	a0,a0,2
   103ac:	00b505b3          	add	a1,a0,a1
   103b0:	00b62023          	sw	a1,0(a2)
   103b4:	00008067          	ret

000103b8 <Proc_8>:
   103b8:	00560713          	addi	a4,a2,5
   103bc:	0c800813          	li	a6,200
   103c0:	03070833          	mul	a6,a4,a6
   103c4:	00261613          	slli	a2,a2,0x2
   103c8:	00271793          	slli	a5,a4,0x2
   103cc:	00f50533          	add	a0,a0,a5
   103d0:	00d52023          	sw	a3,0(a0)
   103d4:	06e52c23          	sw	a4,120(a0)
   103d8:	00d52223          	sw	a3,4(a0)
   103dc:	00c807b3          	add	a5,a6,a2
   103e0:	00f587b3          	add	a5,a1,a5
   103e4:	0107a683          	lw	a3,16(a5)
   103e8:	00e7aa23          	sw	a4,20(a5)
   103ec:	00e7ac23          	sw	a4,24(a5)
   103f0:	00168713          	addi	a4,a3,1
   103f4:	00e7a823          	sw	a4,16(a5)
   103f8:	00052783          	lw	a5,0(a0)
   103fc:	010585b3          	add	a1,a1,a6
   10400:	00c585b3          	add	a1,a1,a2
   10404:	00001637          	lui	a2,0x1
   10408:	00b605b3          	add	a1,a2,a1
   1040c:	faf5aa23          	sw	a5,-76(a1)
   10410:	00500713          	li	a4,5
   10414:	000267b7          	lui	a5,0x26
   10418:	3ee7ae23          	sw	a4,1020(a5) # 263fc <Int_Glob>
   1041c:	00008067          	ret

00010420 <Func_1>:
   10420:	0ff57513          	andi	a0,a0,255
   10424:	0ff5f593          	andi	a1,a1,255
   10428:	00b50663          	beq	a0,a1,10434 <Func_1+0x14>
   1042c:	00000513          	li	a0,0
   10430:	00008067          	ret
   10434:	000267b7          	lui	a5,0x26
   10438:	40a78023          	sb	a0,1024(a5) # 26400 <Ch_1_Glob>
   1043c:	00100513          	li	a0,1
   10440:	00008067          	ret

00010444 <Func_2>:
   10444:	00254703          	lbu	a4,2(a0)
   10448:	0035c783          	lbu	a5,3(a1)
   1044c:	02f70c63          	beq	a4,a5,10484 <Func_2+0x40>
   10450:	ff010113          	addi	sp,sp,-16
   10454:	00112623          	sw	ra,12(sp)
   10458:	409000ef          	jal	ra,11060 <strcmp>
   1045c:	00000793          	li	a5,0
   10460:	00a05a63          	blez	a0,10474 <Func_2+0x30>
   10464:	000267b7          	lui	a5,0x26
   10468:	00a00713          	li	a4,10
   1046c:	3ee7ae23          	sw	a4,1020(a5) # 263fc <Int_Glob>
   10470:	00100793          	li	a5,1
   10474:	00c12083          	lw	ra,12(sp)
   10478:	00078513          	mv	a0,a5
   1047c:	01010113          	addi	sp,sp,16
   10480:	00008067          	ret
   10484:	0000006f          	j	10484 <Func_2+0x40>

00010488 <Func_3>:
   10488:	ffe50513          	addi	a0,a0,-2
   1048c:	00153513          	seqz	a0,a0
   10490:	00008067          	ret

00010494 <time>:
   10494:	c0002573          	rdcycle	a0
   10498:	00008067          	ret

0001049c <insn>:
   1049c:	c0202573          	rdinstret	a0
   104a0:	00008067          	ret

000104a4 <_access>:
   104a4:	0040006f          	j	104a8 <unimplemented_syscall>

000104a8 <unimplemented_syscall>:
   104a8:	000217b7          	lui	a5,0x21
   104ac:	55c78793          	addi	a5,a5,1372 # 2155c <main+0xdd0>
   104b0:	05500713          	li	a4,85
   104b4:	100006b7          	lui	a3,0x10000
   104b8:	00178793          	addi	a5,a5,1
   104bc:	00e6a023          	sw	a4,0(a3) # 10000000 <_end+0xffd9b20>
   104c0:	0007c703          	lbu	a4,0(a5)
   104c4:	fe071ae3          	bnez	a4,104b8 <unimplemented_syscall+0x10>
   104c8:	00100073          	ebreak

000104cc <_read>:
   104cc:	00000513          	li	a0,0
   104d0:	00008067          	ret

000104d4 <_write>:
   104d4:	00c58733          	add	a4,a1,a2
   104d8:	00e58c63          	beq	a1,a4,104f0 <_write+0x1c>
   104dc:	100006b7          	lui	a3,0x10000
   104e0:	00158593          	addi	a1,a1,1
   104e4:	fff5c783          	lbu	a5,-1(a1)
   104e8:	00f6a023          	sw	a5,0(a3) # 10000000 <_end+0xffd9b20>
   104ec:	feb71ae3          	bne	a4,a1,104e0 <_write+0xc>
   104f0:	00060513          	mv	a0,a2
   104f4:	00008067          	ret

000104f8 <_close>:
   104f8:	00000513          	li	a0,0
   104fc:	00008067          	ret

00010500 <_fstat>:
   10500:	ff010113          	addi	sp,sp,-16
   10504:	00112623          	sw	ra,12(sp)
   10508:	05c000ef          	jal	ra,10564 <__errno>
   1050c:	00c12083          	lw	ra,12(sp)
   10510:	00200793          	li	a5,2
   10514:	00f52023          	sw	a5,0(a0)
   10518:	fff00513          	li	a0,-1
   1051c:	01010113          	addi	sp,sp,16
   10520:	00008067          	ret

00010524 <_sbrk>:
   10524:	8301a703          	lw	a4,-2000(gp) # 23c78 <heap_end.2318>
   10528:	00050793          	mv	a5,a0
   1052c:	00070513          	mv	a0,a4
   10530:	00071863          	bnez	a4,10540 <_sbrk+0x1c>
   10534:	00026537          	lui	a0,0x26
   10538:	4e050713          	addi	a4,a0,1248 # 264e0 <_end>
   1053c:	4e050513          	addi	a0,a0,1248
   10540:	00e787b3          	add	a5,a5,a4
   10544:	82f1a823          	sw	a5,-2000(gp) # 23c78 <heap_end.2318>
   10548:	00008067          	ret

0001054c <_exit>:
   1054c:	00100073          	ebreak

00010550 <atexit>:
   10550:	00050593          	mv	a1,a0
   10554:	00000693          	li	a3,0
   10558:	00000613          	li	a2,0
   1055c:	00000513          	li	a0,0
   10560:	7550206f          	j	134b4 <__register_exitproc>

00010564 <__errno>:
   10564:	8201a503          	lw	a0,-2016(gp) # 23c68 <_impure_ptr>
   10568:	00008067          	ret

0001056c <exit>:
   1056c:	ff010113          	addi	sp,sp,-16
   10570:	00000593          	li	a1,0
   10574:	00812423          	sw	s0,8(sp)
   10578:	00112623          	sw	ra,12(sp)
   1057c:	00050413          	mv	s0,a0
   10580:	7b1020ef          	jal	ra,13530 <__call_exitprocs>
   10584:	8181a503          	lw	a0,-2024(gp) # 23c60 <_global_impure_ptr>
   10588:	03c52783          	lw	a5,60(a0)
   1058c:	00078463          	beqz	a5,10594 <exit+0x28>
   10590:	000780e7          	jalr	a5
   10594:	00040513          	mv	a0,s0
   10598:	fb5ff0ef          	jal	ra,1054c <_exit>

0001059c <__libc_fini_array>:
   1059c:	ff010113          	addi	sp,sp,-16
   105a0:	000237b7          	lui	a5,0x23
   105a4:	00812423          	sw	s0,8(sp)
   105a8:	00023437          	lui	s0,0x23
   105ac:	2a078713          	addi	a4,a5,672 # 232a0 <__init_array_end>
   105b0:	2a440413          	addi	s0,s0,676 # 232a4 <__fini_array_end>
   105b4:	40e40433          	sub	s0,s0,a4
   105b8:	00912223          	sw	s1,4(sp)
   105bc:	00112623          	sw	ra,12(sp)
   105c0:	40245413          	srai	s0,s0,0x2
   105c4:	2a078493          	addi	s1,a5,672
   105c8:	00041c63          	bnez	s0,105e0 <__libc_fini_array+0x44>
   105cc:	00812403          	lw	s0,8(sp)
   105d0:	00c12083          	lw	ra,12(sp)
   105d4:	00412483          	lw	s1,4(sp)
   105d8:	01010113          	addi	sp,sp,16
   105dc:	a69ff06f          	j	10044 <_fini>
   105e0:	fff40413          	addi	s0,s0,-1
   105e4:	00241793          	slli	a5,s0,0x2
   105e8:	00f487b3          	add	a5,s1,a5
   105ec:	0007a783          	lw	a5,0(a5)
   105f0:	000780e7          	jalr	a5
   105f4:	fd5ff06f          	j	105c8 <__libc_fini_array+0x2c>

000105f8 <__libc_init_array>:
   105f8:	ff010113          	addi	sp,sp,-16
   105fc:	000237b7          	lui	a5,0x23
   10600:	00812423          	sw	s0,8(sp)
   10604:	00023437          	lui	s0,0x23
   10608:	29c78713          	addi	a4,a5,668 # 2329c <__frame_dummy_init_array_entry>
   1060c:	29c40413          	addi	s0,s0,668 # 2329c <__frame_dummy_init_array_entry>
   10610:	40e40433          	sub	s0,s0,a4
   10614:	00912223          	sw	s1,4(sp)
   10618:	01212023          	sw	s2,0(sp)
   1061c:	00112623          	sw	ra,12(sp)
   10620:	40245413          	srai	s0,s0,0x2
   10624:	00000493          	li	s1,0
   10628:	29c78913          	addi	s2,a5,668
   1062c:	04849263          	bne	s1,s0,10670 <__libc_init_array+0x78>
   10630:	a15ff0ef          	jal	ra,10044 <_fini>
   10634:	000237b7          	lui	a5,0x23
   10638:	00023437          	lui	s0,0x23
   1063c:	29c78713          	addi	a4,a5,668 # 2329c <__frame_dummy_init_array_entry>
   10640:	2a040413          	addi	s0,s0,672 # 232a0 <__init_array_end>
   10644:	40e40433          	sub	s0,s0,a4
   10648:	40245413          	srai	s0,s0,0x2
   1064c:	00000493          	li	s1,0
   10650:	29c78913          	addi	s2,a5,668
   10654:	02849a63          	bne	s1,s0,10688 <__libc_init_array+0x90>
   10658:	00c12083          	lw	ra,12(sp)
   1065c:	00812403          	lw	s0,8(sp)
   10660:	00412483          	lw	s1,4(sp)
   10664:	00012903          	lw	s2,0(sp)
   10668:	01010113          	addi	sp,sp,16
   1066c:	00008067          	ret
   10670:	00249793          	slli	a5,s1,0x2
   10674:	00f907b3          	add	a5,s2,a5
   10678:	0007a783          	lw	a5,0(a5)
   1067c:	00148493          	addi	s1,s1,1
   10680:	000780e7          	jalr	a5
   10684:	fa9ff06f          	j	1062c <__libc_init_array+0x34>
   10688:	00249793          	slli	a5,s1,0x2
   1068c:	00f907b3          	add	a5,s2,a5
   10690:	0007a783          	lw	a5,0(a5)
   10694:	00148493          	addi	s1,s1,1
   10698:	000780e7          	jalr	a5
   1069c:	fb9ff06f          	j	10654 <__libc_init_array+0x5c>

000106a0 <malloc>:
   106a0:	00050593          	mv	a1,a0
   106a4:	8201a503          	lw	a0,-2016(gp) # 23c68 <_impure_ptr>
   106a8:	0100006f          	j	106b8 <_malloc_r>

000106ac <free>:
   106ac:	00050593          	mv	a1,a0
   106b0:	8201a503          	lw	a0,-2016(gp) # 23c68 <_impure_ptr>
   106b4:	5c80306f          	j	13c7c <_free_r>

000106b8 <_malloc_r>:
   106b8:	fd010113          	addi	sp,sp,-48
   106bc:	02112623          	sw	ra,44(sp)
   106c0:	02812423          	sw	s0,40(sp)
   106c4:	02912223          	sw	s1,36(sp)
   106c8:	03212023          	sw	s2,32(sp)
   106cc:	01312e23          	sw	s3,28(sp)
   106d0:	01412c23          	sw	s4,24(sp)
   106d4:	01512a23          	sw	s5,20(sp)
   106d8:	01612823          	sw	s6,16(sp)
   106dc:	01712623          	sw	s7,12(sp)
   106e0:	01812423          	sw	s8,8(sp)
   106e4:	01912223          	sw	s9,4(sp)
   106e8:	00b58793          	addi	a5,a1,11
   106ec:	01600713          	li	a4,22
   106f0:	04f77663          	bleu	a5,a4,1073c <_malloc_r+0x84>
   106f4:	ff87f493          	andi	s1,a5,-8
   106f8:	0404d463          	bgez	s1,10740 <_malloc_r+0x88>
   106fc:	00c00793          	li	a5,12
   10700:	00f52023          	sw	a5,0(a0)
   10704:	00000513          	li	a0,0
   10708:	02c12083          	lw	ra,44(sp)
   1070c:	02812403          	lw	s0,40(sp)
   10710:	02412483          	lw	s1,36(sp)
   10714:	02012903          	lw	s2,32(sp)
   10718:	01c12983          	lw	s3,28(sp)
   1071c:	01812a03          	lw	s4,24(sp)
   10720:	01412a83          	lw	s5,20(sp)
   10724:	01012b03          	lw	s6,16(sp)
   10728:	00c12b83          	lw	s7,12(sp)
   1072c:	00812c03          	lw	s8,8(sp)
   10730:	00412c83          	lw	s9,4(sp)
   10734:	03010113          	addi	sp,sp,48
   10738:	00008067          	ret
   1073c:	01000493          	li	s1,16
   10740:	fab4eee3          	bltu	s1,a1,106fc <_malloc_r+0x44>
   10744:	00050993          	mv	s3,a0
   10748:	6ac000ef          	jal	ra,10df4 <__malloc_lock>
   1074c:	00023937          	lui	s2,0x23
   10750:	1f700793          	li	a5,503
   10754:	6d090913          	addi	s2,s2,1744 # 236d0 <__malloc_av_>
   10758:	0497ea63          	bltu	a5,s1,107ac <_malloc_r+0xf4>
   1075c:	00848713          	addi	a4,s1,8
   10760:	00e90733          	add	a4,s2,a4
   10764:	00472403          	lw	s0,4(a4)
   10768:	ff870693          	addi	a3,a4,-8
   1076c:	0034d793          	srli	a5,s1,0x3
   10770:	00d41863          	bne	s0,a3,10780 <_malloc_r+0xc8>
   10774:	00c72403          	lw	s0,12(a4)
   10778:	00278793          	addi	a5,a5,2
   1077c:	08870063          	beq	a4,s0,107fc <_malloc_r+0x144>
   10780:	00442783          	lw	a5,4(s0)
   10784:	00c42703          	lw	a4,12(s0)
   10788:	00842683          	lw	a3,8(s0)
   1078c:	ffc7f793          	andi	a5,a5,-4
   10790:	00f407b3          	add	a5,s0,a5
   10794:	00e6a623          	sw	a4,12(a3)
   10798:	00d72423          	sw	a3,8(a4)
   1079c:	0047a703          	lw	a4,4(a5)
   107a0:	00176713          	ori	a4,a4,1
   107a4:	00e7a223          	sw	a4,4(a5)
   107a8:	0a80006f          	j	10850 <_malloc_r+0x198>
   107ac:	0094d713          	srli	a4,s1,0x9
   107b0:	03f00793          	li	a5,63
   107b4:	00070a63          	beqz	a4,107c8 <_malloc_r+0x110>
   107b8:	00400793          	li	a5,4
   107bc:	0ae7e263          	bltu	a5,a4,10860 <_malloc_r+0x1a8>
   107c0:	0064d793          	srli	a5,s1,0x6
   107c4:	03878793          	addi	a5,a5,56
   107c8:	00178713          	addi	a4,a5,1
   107cc:	00371713          	slli	a4,a4,0x3
   107d0:	00e90733          	add	a4,s2,a4
   107d4:	00472403          	lw	s0,4(a4)
   107d8:	ff870593          	addi	a1,a4,-8
   107dc:	00f00513          	li	a0,15
   107e0:	00b40c63          	beq	s0,a1,107f8 <_malloc_r+0x140>
   107e4:	00442703          	lw	a4,4(s0)
   107e8:	ffc77713          	andi	a4,a4,-4
   107ec:	40970633          	sub	a2,a4,s1
   107f0:	0cc55063          	ble	a2,a0,108b0 <_malloc_r+0x1f8>
   107f4:	fff78793          	addi	a5,a5,-1
   107f8:	00178793          	addi	a5,a5,1
   107fc:	01092403          	lw	s0,16(s2)
   10800:	000235b7          	lui	a1,0x23
   10804:	00890693          	addi	a3,s2,8
   10808:	6d858593          	addi	a1,a1,1752 # 236d8 <__malloc_av_+0x8>
   1080c:	12d40863          	beq	s0,a3,1093c <_malloc_r+0x284>
   10810:	00442703          	lw	a4,4(s0)
   10814:	00f00613          	li	a2,15
   10818:	ffc77713          	andi	a4,a4,-4
   1081c:	40970533          	sub	a0,a4,s1
   10820:	0aa65a63          	ble	a0,a2,108d4 <_malloc_r+0x21c>
   10824:	0014e793          	ori	a5,s1,1
   10828:	00f42223          	sw	a5,4(s0)
   1082c:	00940633          	add	a2,s0,s1
   10830:	00c92a23          	sw	a2,20(s2)
   10834:	00c92823          	sw	a2,16(s2)
   10838:	00156793          	ori	a5,a0,1
   1083c:	00d62623          	sw	a3,12(a2) # 100c <_start-0xeff4>
   10840:	00d62423          	sw	a3,8(a2)
   10844:	00f62223          	sw	a5,4(a2)
   10848:	00e40733          	add	a4,s0,a4
   1084c:	00a72023          	sw	a0,0(a4)
   10850:	00098513          	mv	a0,s3
   10854:	5a4000ef          	jal	ra,10df8 <__malloc_unlock>
   10858:	00840513          	addi	a0,s0,8
   1085c:	eadff06f          	j	10708 <_malloc_r+0x50>
   10860:	01400793          	li	a5,20
   10864:	00e7e663          	bltu	a5,a4,10870 <_malloc_r+0x1b8>
   10868:	05b70793          	addi	a5,a4,91
   1086c:	f5dff06f          	j	107c8 <_malloc_r+0x110>
   10870:	05400793          	li	a5,84
   10874:	00e7e863          	bltu	a5,a4,10884 <_malloc_r+0x1cc>
   10878:	00c4d793          	srli	a5,s1,0xc
   1087c:	06e78793          	addi	a5,a5,110
   10880:	f49ff06f          	j	107c8 <_malloc_r+0x110>
   10884:	15400793          	li	a5,340
   10888:	00e7e863          	bltu	a5,a4,10898 <_malloc_r+0x1e0>
   1088c:	00f4d793          	srli	a5,s1,0xf
   10890:	07778793          	addi	a5,a5,119
   10894:	f35ff06f          	j	107c8 <_malloc_r+0x110>
   10898:	55400693          	li	a3,1364
   1089c:	07e00793          	li	a5,126
   108a0:	f2e6e4e3          	bltu	a3,a4,107c8 <_malloc_r+0x110>
   108a4:	0124d793          	srli	a5,s1,0x12
   108a8:	07c78793          	addi	a5,a5,124
   108ac:	f1dff06f          	j	107c8 <_malloc_r+0x110>
   108b0:	00c42683          	lw	a3,12(s0)
   108b4:	00064c63          	bltz	a2,108cc <_malloc_r+0x214>
   108b8:	00842783          	lw	a5,8(s0)
   108bc:	00d7a623          	sw	a3,12(a5)
   108c0:	00f6a423          	sw	a5,8(a3)
   108c4:	00e407b3          	add	a5,s0,a4
   108c8:	ed5ff06f          	j	1079c <_malloc_r+0xe4>
   108cc:	00068413          	mv	s0,a3
   108d0:	f11ff06f          	j	107e0 <_malloc_r+0x128>
   108d4:	00d92a23          	sw	a3,20(s2)
   108d8:	00d92823          	sw	a3,16(s2)
   108dc:	00054c63          	bltz	a0,108f4 <_malloc_r+0x23c>
   108e0:	00e40733          	add	a4,s0,a4
   108e4:	00472783          	lw	a5,4(a4)
   108e8:	0017e793          	ori	a5,a5,1
   108ec:	00f72223          	sw	a5,4(a4)
   108f0:	f61ff06f          	j	10850 <_malloc_r+0x198>
   108f4:	1ff00693          	li	a3,511
   108f8:	00492803          	lw	a6,4(s2)
   108fc:	16e6e663          	bltu	a3,a4,10a68 <_malloc_r+0x3b0>
   10900:	00375713          	srli	a4,a4,0x3
   10904:	40275613          	srai	a2,a4,0x2
   10908:	00100693          	li	a3,1
   1090c:	00170713          	addi	a4,a4,1
   10910:	00c696b3          	sll	a3,a3,a2
   10914:	00371713          	slli	a4,a4,0x3
   10918:	00e90733          	add	a4,s2,a4
   1091c:	0106e6b3          	or	a3,a3,a6
   10920:	00d92223          	sw	a3,4(s2)
   10924:	00072683          	lw	a3,0(a4)
   10928:	ff870613          	addi	a2,a4,-8
   1092c:	00c42623          	sw	a2,12(s0)
   10930:	00d42423          	sw	a3,8(s0)
   10934:	00872023          	sw	s0,0(a4)
   10938:	0086a623          	sw	s0,12(a3)
   1093c:	4027d713          	srai	a4,a5,0x2
   10940:	00100313          	li	t1,1
   10944:	00e31333          	sll	t1,t1,a4
   10948:	00492703          	lw	a4,4(s2)
   1094c:	06676a63          	bltu	a4,t1,109c0 <_malloc_r+0x308>
   10950:	006776b3          	and	a3,a4,t1
   10954:	00069c63          	bnez	a3,1096c <_malloc_r+0x2b4>
   10958:	ffc7f793          	andi	a5,a5,-4
   1095c:	00131313          	slli	t1,t1,0x1
   10960:	006776b3          	and	a3,a4,t1
   10964:	00478793          	addi	a5,a5,4
   10968:	fe068ae3          	beqz	a3,1095c <_malloc_r+0x2a4>
   1096c:	00f00e13          	li	t3,15
   10970:	00379693          	slli	a3,a5,0x3
   10974:	00d906b3          	add	a3,s2,a3
   10978:	00068813          	mv	a6,a3
   1097c:	00078513          	mv	a0,a5
   10980:	00c82403          	lw	s0,12(a6)
   10984:	1b041263          	bne	s0,a6,10b28 <_malloc_r+0x470>
   10988:	00150513          	addi	a0,a0,1
   1098c:	00357713          	andi	a4,a0,3
   10990:	00880813          	addi	a6,a6,8
   10994:	fe0716e3          	bnez	a4,10980 <_malloc_r+0x2c8>
   10998:	0037f713          	andi	a4,a5,3
   1099c:	20071463          	bnez	a4,10ba4 <_malloc_r+0x4ec>
   109a0:	00492703          	lw	a4,4(s2)
   109a4:	fff34793          	not	a5,t1
   109a8:	00f777b3          	and	a5,a4,a5
   109ac:	00f92223          	sw	a5,4(s2)
   109b0:	00492703          	lw	a4,4(s2)
   109b4:	00131313          	slli	t1,t1,0x1
   109b8:	00676463          	bltu	a4,t1,109c0 <_malloc_r+0x308>
   109bc:	20031863          	bnez	t1,10bcc <_malloc_r+0x514>
   109c0:	00892b83          	lw	s7,8(s2)
   109c4:	004ba403          	lw	s0,4(s7)
   109c8:	ffc47a93          	andi	s5,s0,-4
   109cc:	009ae863          	bltu	s5,s1,109dc <_malloc_r+0x324>
   109d0:	409a8733          	sub	a4,s5,s1
   109d4:	00f00793          	li	a5,15
   109d8:	32e7c463          	blt	a5,a4,10d00 <_malloc_r+0x648>
   109dc:	83c1a403          	lw	s0,-1988(gp) # 23c84 <__malloc_top_pad>
   109e0:	8241a703          	lw	a4,-2012(gp) # 23c6c <__malloc_sbrk_base>
   109e4:	fff00793          	li	a5,-1
   109e8:	015b8cb3          	add	s9,s7,s5
   109ec:	00848433          	add	s0,s1,s0
   109f0:	1ef71263          	bne	a4,a5,10bd4 <_malloc_r+0x51c>
   109f4:	01040413          	addi	s0,s0,16
   109f8:	00040593          	mv	a1,s0
   109fc:	00098513          	mv	a0,s3
   10a00:	614000ef          	jal	ra,11014 <_sbrk_r>
   10a04:	fff00793          	li	a5,-1
   10a08:	00050b13          	mv	s6,a0
   10a0c:	28f50063          	beq	a0,a5,10c8c <_malloc_r+0x5d4>
   10a10:	01957463          	bleu	s9,a0,10a18 <_malloc_r+0x360>
   10a14:	272b9c63          	bne	s7,s2,10c8c <_malloc_r+0x5d4>
   10a18:	86018693          	addi	a3,gp,-1952 # 23ca8 <__malloc_current_mallinfo>
   10a1c:	0006a703          	lw	a4,0(a3)
   10a20:	86018c13          	addi	s8,gp,-1952 # 23ca8 <__malloc_current_mallinfo>
   10a24:	00e40733          	add	a4,s0,a4
   10a28:	00e6a023          	sw	a4,0(a3)
   10a2c:	1d6c9063          	bne	s9,s6,10bec <_malloc_r+0x534>
   10a30:	014c9793          	slli	a5,s9,0x14
   10a34:	1a079c63          	bnez	a5,10bec <_malloc_r+0x534>
   10a38:	00892783          	lw	a5,8(s2)
   10a3c:	008a8433          	add	s0,s5,s0
   10a40:	00146413          	ori	s0,s0,1
   10a44:	0087a223          	sw	s0,4(a5)
   10a48:	000c2783          	lw	a5,0(s8)
   10a4c:	8381a683          	lw	a3,-1992(gp) # 23c80 <__malloc_max_sbrked_mem>
   10a50:	00f6f463          	bleu	a5,a3,10a58 <_malloc_r+0x3a0>
   10a54:	82f1ac23          	sw	a5,-1992(gp) # 23c80 <__malloc_max_sbrked_mem>
   10a58:	8341a683          	lw	a3,-1996(gp) # 23c7c <__malloc_max_total_mem>
   10a5c:	22f6f863          	bleu	a5,a3,10c8c <_malloc_r+0x5d4>
   10a60:	82f1aa23          	sw	a5,-1996(gp) # 23c7c <__malloc_max_total_mem>
   10a64:	2280006f          	j	10c8c <_malloc_r+0x5d4>
   10a68:	00975613          	srli	a2,a4,0x9
   10a6c:	00400693          	li	a3,4
   10a70:	04c6e663          	bltu	a3,a2,10abc <_malloc_r+0x404>
   10a74:	00675693          	srli	a3,a4,0x6
   10a78:	03868693          	addi	a3,a3,56
   10a7c:	00168613          	addi	a2,a3,1
   10a80:	00361613          	slli	a2,a2,0x3
   10a84:	00c90633          	add	a2,s2,a2
   10a88:	ff860513          	addi	a0,a2,-8
   10a8c:	00062603          	lw	a2,0(a2)
   10a90:	08c51263          	bne	a0,a2,10b14 <_malloc_r+0x45c>
   10a94:	4026d693          	srai	a3,a3,0x2
   10a98:	00100713          	li	a4,1
   10a9c:	00d716b3          	sll	a3,a4,a3
   10aa0:	0106e6b3          	or	a3,a3,a6
   10aa4:	00d92223          	sw	a3,4(s2)
   10aa8:	00a42623          	sw	a0,12(s0)
   10aac:	00c42423          	sw	a2,8(s0)
   10ab0:	00852423          	sw	s0,8(a0)
   10ab4:	00862623          	sw	s0,12(a2)
   10ab8:	e85ff06f          	j	1093c <_malloc_r+0x284>
   10abc:	01400693          	li	a3,20
   10ac0:	00c6e663          	bltu	a3,a2,10acc <_malloc_r+0x414>
   10ac4:	05b60693          	addi	a3,a2,91
   10ac8:	fb5ff06f          	j	10a7c <_malloc_r+0x3c4>
   10acc:	05400693          	li	a3,84
   10ad0:	00c6e863          	bltu	a3,a2,10ae0 <_malloc_r+0x428>
   10ad4:	00c75693          	srli	a3,a4,0xc
   10ad8:	06e68693          	addi	a3,a3,110
   10adc:	fa1ff06f          	j	10a7c <_malloc_r+0x3c4>
   10ae0:	15400693          	li	a3,340
   10ae4:	00c6e863          	bltu	a3,a2,10af4 <_malloc_r+0x43c>
   10ae8:	00f75693          	srli	a3,a4,0xf
   10aec:	07768693          	addi	a3,a3,119
   10af0:	f8dff06f          	j	10a7c <_malloc_r+0x3c4>
   10af4:	55400513          	li	a0,1364
   10af8:	07e00693          	li	a3,126
   10afc:	f8c560e3          	bltu	a0,a2,10a7c <_malloc_r+0x3c4>
   10b00:	01275693          	srli	a3,a4,0x12
   10b04:	07c68693          	addi	a3,a3,124
   10b08:	f75ff06f          	j	10a7c <_malloc_r+0x3c4>
   10b0c:	00862603          	lw	a2,8(a2)
   10b10:	00c50863          	beq	a0,a2,10b20 <_malloc_r+0x468>
   10b14:	00462683          	lw	a3,4(a2)
   10b18:	ffc6f693          	andi	a3,a3,-4
   10b1c:	fed768e3          	bltu	a4,a3,10b0c <_malloc_r+0x454>
   10b20:	00c62503          	lw	a0,12(a2)
   10b24:	f85ff06f          	j	10aa8 <_malloc_r+0x3f0>
   10b28:	00442703          	lw	a4,4(s0)
   10b2c:	00c42603          	lw	a2,12(s0)
   10b30:	ffc77713          	andi	a4,a4,-4
   10b34:	409708b3          	sub	a7,a4,s1
   10b38:	051e5063          	ble	a7,t3,10b78 <_malloc_r+0x4c0>
   10b3c:	0014e793          	ori	a5,s1,1
   10b40:	00f42223          	sw	a5,4(s0)
   10b44:	00842783          	lw	a5,8(s0)
   10b48:	009406b3          	add	a3,s0,s1
   10b4c:	00e40733          	add	a4,s0,a4
   10b50:	00c7a623          	sw	a2,12(a5)
   10b54:	00f62423          	sw	a5,8(a2)
   10b58:	00d92a23          	sw	a3,20(s2)
   10b5c:	00d92823          	sw	a3,16(s2)
   10b60:	0018e793          	ori	a5,a7,1
   10b64:	00b6a623          	sw	a1,12(a3)
   10b68:	00b6a423          	sw	a1,8(a3)
   10b6c:	00f6a223          	sw	a5,4(a3)
   10b70:	01172023          	sw	a7,0(a4)
   10b74:	cddff06f          	j	10850 <_malloc_r+0x198>
   10b78:	0208c263          	bltz	a7,10b9c <_malloc_r+0x4e4>
   10b7c:	00e40733          	add	a4,s0,a4
   10b80:	00472783          	lw	a5,4(a4)
   10b84:	0017e793          	ori	a5,a5,1
   10b88:	00f72223          	sw	a5,4(a4)
   10b8c:	00842783          	lw	a5,8(s0)
   10b90:	00c7a623          	sw	a2,12(a5)
   10b94:	00f62423          	sw	a5,8(a2)
   10b98:	cb9ff06f          	j	10850 <_malloc_r+0x198>
   10b9c:	00060413          	mv	s0,a2
   10ba0:	de5ff06f          	j	10984 <_malloc_r+0x2cc>
   10ba4:	ff868693          	addi	a3,a3,-8
   10ba8:	0086a703          	lw	a4,8(a3)
   10bac:	fff78793          	addi	a5,a5,-1
   10bb0:	ded704e3          	beq	a4,a3,10998 <_malloc_r+0x2e0>
   10bb4:	dfdff06f          	j	109b0 <_malloc_r+0x2f8>
   10bb8:	00478793          	addi	a5,a5,4
   10bbc:	00131313          	slli	t1,t1,0x1
   10bc0:	006776b3          	and	a3,a4,t1
   10bc4:	fe068ae3          	beqz	a3,10bb8 <_malloc_r+0x500>
   10bc8:	da9ff06f          	j	10970 <_malloc_r+0x2b8>
   10bcc:	00050793          	mv	a5,a0
   10bd0:	ff1ff06f          	j	10bc0 <_malloc_r+0x508>
   10bd4:	00001737          	lui	a4,0x1
   10bd8:	00f70713          	addi	a4,a4,15 # 100f <_start-0xeff1>
   10bdc:	00e40433          	add	s0,s0,a4
   10be0:	fffff7b7          	lui	a5,0xfffff
   10be4:	00f47433          	and	s0,s0,a5
   10be8:	e11ff06f          	j	109f8 <_malloc_r+0x340>
   10bec:	8241a683          	lw	a3,-2012(gp) # 23c6c <__malloc_sbrk_base>
   10bf0:	fff00793          	li	a5,-1
   10bf4:	0cf69063          	bne	a3,a5,10cb4 <_malloc_r+0x5fc>
   10bf8:	8361a223          	sw	s6,-2012(gp) # 23c6c <__malloc_sbrk_base>
   10bfc:	007b7c93          	andi	s9,s6,7
   10c00:	00000793          	li	a5,0
   10c04:	000c8863          	beqz	s9,10c14 <_malloc_r+0x55c>
   10c08:	00800793          	li	a5,8
   10c0c:	419787b3          	sub	a5,a5,s9
   10c10:	00fb0b33          	add	s6,s6,a5
   10c14:	00001537          	lui	a0,0x1
   10c18:	00a78a33          	add	s4,a5,a0
   10c1c:	008b0433          	add	s0,s6,s0
   10c20:	fff50513          	addi	a0,a0,-1 # fff <_start-0xf001>
   10c24:	00a477b3          	and	a5,s0,a0
   10c28:	40fa0a33          	sub	s4,s4,a5
   10c2c:	00aa7a33          	and	s4,s4,a0
   10c30:	000a0593          	mv	a1,s4
   10c34:	00098513          	mv	a0,s3
   10c38:	3dc000ef          	jal	ra,11014 <_sbrk_r>
   10c3c:	fff00793          	li	a5,-1
   10c40:	00f51c63          	bne	a0,a5,10c58 <_malloc_r+0x5a0>
   10c44:	00040513          	mv	a0,s0
   10c48:	000c8663          	beqz	s9,10c54 <_malloc_r+0x59c>
   10c4c:	ff8c8513          	addi	a0,s9,-8
   10c50:	00a40533          	add	a0,s0,a0
   10c54:	00000a13          	li	s4,0
   10c58:	000c2783          	lw	a5,0(s8)
   10c5c:	41650533          	sub	a0,a0,s6
   10c60:	01692423          	sw	s6,8(s2)
   10c64:	014787b3          	add	a5,a5,s4
   10c68:	01450a33          	add	s4,a0,s4
   10c6c:	001a6a13          	ori	s4,s4,1
   10c70:	00fc2023          	sw	a5,0(s8)
   10c74:	014b2223          	sw	s4,4(s6)
   10c78:	dd2b88e3          	beq	s7,s2,10a48 <_malloc_r+0x390>
   10c7c:	00f00713          	li	a4,15
   10c80:	05576263          	bltu	a4,s5,10cc4 <_malloc_r+0x60c>
   10c84:	00100793          	li	a5,1
   10c88:	00fb2223          	sw	a5,4(s6)
   10c8c:	00892783          	lw	a5,8(s2)
   10c90:	0047a783          	lw	a5,4(a5) # fffff004 <_end+0xfffd8b24>
   10c94:	ffc7f793          	andi	a5,a5,-4
   10c98:	40978733          	sub	a4,a5,s1
   10c9c:	0097e663          	bltu	a5,s1,10ca8 <_malloc_r+0x5f0>
   10ca0:	00f00793          	li	a5,15
   10ca4:	04e7ce63          	blt	a5,a4,10d00 <_malloc_r+0x648>
   10ca8:	00098513          	mv	a0,s3
   10cac:	14c000ef          	jal	ra,10df8 <__malloc_unlock>
   10cb0:	a55ff06f          	j	10704 <_malloc_r+0x4c>
   10cb4:	419b07b3          	sub	a5,s6,s9
   10cb8:	00e787b3          	add	a5,a5,a4
   10cbc:	00fc2023          	sw	a5,0(s8)
   10cc0:	f3dff06f          	j	10bfc <_malloc_r+0x544>
   10cc4:	004ba783          	lw	a5,4(s7)
   10cc8:	ff4a8413          	addi	s0,s5,-12
   10ccc:	ff847413          	andi	s0,s0,-8
   10cd0:	0017f793          	andi	a5,a5,1
   10cd4:	0087e7b3          	or	a5,a5,s0
   10cd8:	00fba223          	sw	a5,4(s7)
   10cdc:	00500693          	li	a3,5
   10ce0:	008b87b3          	add	a5,s7,s0
   10ce4:	00d7a223          	sw	a3,4(a5)
   10ce8:	00d7a423          	sw	a3,8(a5)
   10cec:	d4877ee3          	bleu	s0,a4,10a48 <_malloc_r+0x390>
   10cf0:	008b8593          	addi	a1,s7,8
   10cf4:	00098513          	mv	a0,s3
   10cf8:	785020ef          	jal	ra,13c7c <_free_r>
   10cfc:	d4dff06f          	j	10a48 <_malloc_r+0x390>
   10d00:	00892403          	lw	s0,8(s2)
   10d04:	0014e793          	ori	a5,s1,1
   10d08:	00f42223          	sw	a5,4(s0)
   10d0c:	009407b3          	add	a5,s0,s1
   10d10:	00f92423          	sw	a5,8(s2)
   10d14:	a8dff06f          	j	107a0 <_malloc_r+0xe8>

00010d18 <memset>:
   10d18:	00f00313          	li	t1,15
   10d1c:	00050713          	mv	a4,a0
   10d20:	02c37e63          	bleu	a2,t1,10d5c <memset+0x44>
   10d24:	00f77793          	andi	a5,a4,15
   10d28:	0a079063          	bnez	a5,10dc8 <memset+0xb0>
   10d2c:	08059263          	bnez	a1,10db0 <memset+0x98>
   10d30:	ff067693          	andi	a3,a2,-16
   10d34:	00f67613          	andi	a2,a2,15
   10d38:	00e686b3          	add	a3,a3,a4
   10d3c:	00b72023          	sw	a1,0(a4)
   10d40:	00b72223          	sw	a1,4(a4)
   10d44:	00b72423          	sw	a1,8(a4)
   10d48:	00b72623          	sw	a1,12(a4)
   10d4c:	01070713          	addi	a4,a4,16
   10d50:	fed766e3          	bltu	a4,a3,10d3c <memset+0x24>
   10d54:	00061463          	bnez	a2,10d5c <memset+0x44>
   10d58:	00008067          	ret
   10d5c:	40c306b3          	sub	a3,t1,a2
   10d60:	00269693          	slli	a3,a3,0x2
   10d64:	00000297          	auipc	t0,0x0
   10d68:	005686b3          	add	a3,a3,t0
   10d6c:	00c68067          	jr	12(a3)
   10d70:	00b70723          	sb	a1,14(a4)
   10d74:	00b706a3          	sb	a1,13(a4)
   10d78:	00b70623          	sb	a1,12(a4)
   10d7c:	00b705a3          	sb	a1,11(a4)
   10d80:	00b70523          	sb	a1,10(a4)
   10d84:	00b704a3          	sb	a1,9(a4)
   10d88:	00b70423          	sb	a1,8(a4)
   10d8c:	00b703a3          	sb	a1,7(a4)
   10d90:	00b70323          	sb	a1,6(a4)
   10d94:	00b702a3          	sb	a1,5(a4)
   10d98:	00b70223          	sb	a1,4(a4)
   10d9c:	00b701a3          	sb	a1,3(a4)
   10da0:	00b70123          	sb	a1,2(a4)
   10da4:	00b700a3          	sb	a1,1(a4)
   10da8:	00b70023          	sb	a1,0(a4)
   10dac:	00008067          	ret
   10db0:	0ff5f593          	andi	a1,a1,255
   10db4:	00859693          	slli	a3,a1,0x8
   10db8:	00d5e5b3          	or	a1,a1,a3
   10dbc:	01059693          	slli	a3,a1,0x10
   10dc0:	00d5e5b3          	or	a1,a1,a3
   10dc4:	f6dff06f          	j	10d30 <memset+0x18>
   10dc8:	00279693          	slli	a3,a5,0x2
   10dcc:	00000297          	auipc	t0,0x0
   10dd0:	005686b3          	add	a3,a3,t0
   10dd4:	00008293          	mv	t0,ra
   10dd8:	fa0680e7          	jalr	-96(a3)
   10ddc:	00028093          	mv	ra,t0
   10de0:	ff078793          	addi	a5,a5,-16
   10de4:	40f70733          	sub	a4,a4,a5
   10de8:	00f60633          	add	a2,a2,a5
   10dec:	f6c378e3          	bleu	a2,t1,10d5c <memset+0x44>
   10df0:	f3dff06f          	j	10d2c <memset+0x14>

00010df4 <__malloc_lock>:
   10df4:	00008067          	ret

00010df8 <__malloc_unlock>:
   10df8:	00008067          	ret

00010dfc <_printf_r>:
   10dfc:	fc010113          	addi	sp,sp,-64
   10e00:	02c12423          	sw	a2,40(sp)
   10e04:	02d12623          	sw	a3,44(sp)
   10e08:	02e12823          	sw	a4,48(sp)
   10e0c:	02f12a23          	sw	a5,52(sp)
   10e10:	03012c23          	sw	a6,56(sp)
   10e14:	03112e23          	sw	a7,60(sp)
   10e18:	00058613          	mv	a2,a1
   10e1c:	00852583          	lw	a1,8(a0)
   10e20:	02810693          	addi	a3,sp,40
   10e24:	00112e23          	sw	ra,28(sp)
   10e28:	00d12623          	sw	a3,12(sp)
   10e2c:	3cc000ef          	jal	ra,111f8 <_vfprintf_r>
   10e30:	01c12083          	lw	ra,28(sp)
   10e34:	04010113          	addi	sp,sp,64
   10e38:	00008067          	ret

00010e3c <printf>:
   10e3c:	fc010113          	addi	sp,sp,-64
   10e40:	02f12a23          	sw	a5,52(sp)
   10e44:	8201a783          	lw	a5,-2016(gp) # 23c68 <_impure_ptr>
   10e48:	02c12423          	sw	a2,40(sp)
   10e4c:	02d12623          	sw	a3,44(sp)
   10e50:	02b12223          	sw	a1,36(sp)
   10e54:	02e12823          	sw	a4,48(sp)
   10e58:	03012c23          	sw	a6,56(sp)
   10e5c:	03112e23          	sw	a7,60(sp)
   10e60:	0087a583          	lw	a1,8(a5)
   10e64:	02410693          	addi	a3,sp,36
   10e68:	00050613          	mv	a2,a0
   10e6c:	00078513          	mv	a0,a5
   10e70:	00112e23          	sw	ra,28(sp)
   10e74:	00d12623          	sw	a3,12(sp)
   10e78:	380000ef          	jal	ra,111f8 <_vfprintf_r>
   10e7c:	01c12083          	lw	ra,28(sp)
   10e80:	04010113          	addi	sp,sp,64
   10e84:	00008067          	ret

00010e88 <_putchar_r>:
   10e88:	00852603          	lw	a2,8(a0)
   10e8c:	0180006f          	j	10ea4 <_putc_r>

00010e90 <putchar>:
   10e90:	8201a783          	lw	a5,-2016(gp) # 23c68 <_impure_ptr>
   10e94:	00050593          	mv	a1,a0
   10e98:	0087a603          	lw	a2,8(a5)
   10e9c:	00078513          	mv	a0,a5
   10ea0:	0040006f          	j	10ea4 <_putc_r>

00010ea4 <_putc_r>:
   10ea4:	fe010113          	addi	sp,sp,-32
   10ea8:	00812c23          	sw	s0,24(sp)
   10eac:	00112e23          	sw	ra,28(sp)
   10eb0:	00050413          	mv	s0,a0
   10eb4:	02050063          	beqz	a0,10ed4 <_putc_r+0x30>
   10eb8:	03852783          	lw	a5,56(a0)
   10ebc:	00079c63          	bnez	a5,10ed4 <_putc_r+0x30>
   10ec0:	00c12623          	sw	a2,12(sp)
   10ec4:	00b12423          	sw	a1,8(sp)
   10ec8:	30d020ef          	jal	ra,139d4 <__sinit>
   10ecc:	00c12603          	lw	a2,12(sp)
   10ed0:	00812583          	lw	a1,8(sp)
   10ed4:	00862783          	lw	a5,8(a2)
   10ed8:	fff78793          	addi	a5,a5,-1
   10edc:	00f62423          	sw	a5,8(a2)
   10ee0:	0207d663          	bgez	a5,10f0c <_putc_r+0x68>
   10ee4:	01862703          	lw	a4,24(a2)
   10ee8:	00e7c863          	blt	a5,a4,10ef8 <_putc_r+0x54>
   10eec:	0ff5f793          	andi	a5,a1,255
   10ef0:	00a00713          	li	a4,10
   10ef4:	00e79c63          	bne	a5,a4,10f0c <_putc_r+0x68>
   10ef8:	00040513          	mv	a0,s0
   10efc:	01812403          	lw	s0,24(sp)
   10f00:	01c12083          	lw	ra,28(sp)
   10f04:	02010113          	addi	sp,sp,32
   10f08:	3380206f          	j	13240 <__swbuf_r>
   10f0c:	00062783          	lw	a5,0(a2)
   10f10:	0ff5f513          	andi	a0,a1,255
   10f14:	00178713          	addi	a4,a5,1
   10f18:	00e62023          	sw	a4,0(a2)
   10f1c:	00b78023          	sb	a1,0(a5)
   10f20:	01c12083          	lw	ra,28(sp)
   10f24:	01812403          	lw	s0,24(sp)
   10f28:	02010113          	addi	sp,sp,32
   10f2c:	00008067          	ret

00010f30 <putc>:
   10f30:	00058613          	mv	a2,a1
   10f34:	00050593          	mv	a1,a0
   10f38:	8201a503          	lw	a0,-2016(gp) # 23c68 <_impure_ptr>
   10f3c:	f69ff06f          	j	10ea4 <_putc_r>

00010f40 <_puts_r>:
   10f40:	fc010113          	addi	sp,sp,-64
   10f44:	02812c23          	sw	s0,56(sp)
   10f48:	00050413          	mv	s0,a0
   10f4c:	00058513          	mv	a0,a1
   10f50:	00b12623          	sw	a1,12(sp)
   10f54:	02112e23          	sw	ra,60(sp)
   10f58:	284000ef          	jal	ra,111dc <strlen>
   10f5c:	000217b7          	lui	a5,0x21
   10f60:	4f878793          	addi	a5,a5,1272 # 214f8 <main+0xd6c>
   10f64:	02f12423          	sw	a5,40(sp)
   10f68:	00100793          	li	a5,1
   10f6c:	02f12623          	sw	a5,44(sp)
   10f70:	02010793          	addi	a5,sp,32
   10f74:	00c12583          	lw	a1,12(sp)
   10f78:	00f12a23          	sw	a5,20(sp)
   10f7c:	00200793          	li	a5,2
   10f80:	00f12c23          	sw	a5,24(sp)
   10f84:	03842783          	lw	a5,56(s0)
   10f88:	02a12223          	sw	a0,36(sp)
   10f8c:	00150513          	addi	a0,a0,1
   10f90:	02b12023          	sw	a1,32(sp)
   10f94:	00a12e23          	sw	a0,28(sp)
   10f98:	00842583          	lw	a1,8(s0)
   10f9c:	00079a63          	bnez	a5,10fb0 <_puts_r+0x70>
   10fa0:	00040513          	mv	a0,s0
   10fa4:	00b12623          	sw	a1,12(sp)
   10fa8:	22d020ef          	jal	ra,139d4 <__sinit>
   10fac:	00c12583          	lw	a1,12(sp)
   10fb0:	00c59783          	lh	a5,12(a1)
   10fb4:	01279713          	slli	a4,a5,0x12
   10fb8:	02074263          	bltz	a4,10fdc <_puts_r+0x9c>
   10fbc:	000026b7          	lui	a3,0x2
   10fc0:	0645a703          	lw	a4,100(a1)
   10fc4:	00d7e7b3          	or	a5,a5,a3
   10fc8:	00f59623          	sh	a5,12(a1)
   10fcc:	ffffe7b7          	lui	a5,0xffffe
   10fd0:	fff78793          	addi	a5,a5,-1 # ffffdfff <_end+0xfffd7b1f>
   10fd4:	00f777b3          	and	a5,a4,a5
   10fd8:	06f5a223          	sw	a5,100(a1)
   10fdc:	01410613          	addi	a2,sp,20
   10fe0:	00040513          	mv	a0,s0
   10fe4:	6f5020ef          	jal	ra,13ed8 <__sfvwrite_r>
   10fe8:	fff00793          	li	a5,-1
   10fec:	00051463          	bnez	a0,10ff4 <_puts_r+0xb4>
   10ff0:	00a00793          	li	a5,10
   10ff4:	03c12083          	lw	ra,60(sp)
   10ff8:	03812403          	lw	s0,56(sp)
   10ffc:	00078513          	mv	a0,a5
   11000:	04010113          	addi	sp,sp,64
   11004:	00008067          	ret

00011008 <puts>:
   11008:	00050593          	mv	a1,a0
   1100c:	8201a503          	lw	a0,-2016(gp) # 23c68 <_impure_ptr>
   11010:	f31ff06f          	j	10f40 <_puts_r>

00011014 <_sbrk_r>:
   11014:	ff010113          	addi	sp,sp,-16
   11018:	00812423          	sw	s0,8(sp)
   1101c:	00912223          	sw	s1,4(sp)
   11020:	00026437          	lui	s0,0x26
   11024:	00050493          	mv	s1,a0
   11028:	00058513          	mv	a0,a1
   1102c:	00112623          	sw	ra,12(sp)
   11030:	4c042e23          	sw	zero,1244(s0) # 264dc <errno>
   11034:	cf0ff0ef          	jal	ra,10524 <_sbrk>
   11038:	fff00793          	li	a5,-1
   1103c:	00f51863          	bne	a0,a5,1104c <_sbrk_r+0x38>
   11040:	4dc42783          	lw	a5,1244(s0)
   11044:	00078463          	beqz	a5,1104c <_sbrk_r+0x38>
   11048:	00f4a023          	sw	a5,0(s1)
   1104c:	00c12083          	lw	ra,12(sp)
   11050:	00812403          	lw	s0,8(sp)
   11054:	00412483          	lw	s1,4(sp)
   11058:	01010113          	addi	sp,sp,16
   1105c:	00008067          	ret

00011060 <strcmp>:
   11060:	00b56733          	or	a4,a0,a1
   11064:	fff00393          	li	t2,-1
   11068:	00377713          	andi	a4,a4,3
   1106c:	10071063          	bnez	a4,1116c <strcmp+0x10c>
   11070:	7f7f87b7          	lui	a5,0x7f7f8
   11074:	f7f78793          	addi	a5,a5,-129 # 7f7f7f7f <_end+0x7f7d1a9f>
   11078:	00052603          	lw	a2,0(a0)
   1107c:	0005a683          	lw	a3,0(a1)
   11080:	00f672b3          	and	t0,a2,a5
   11084:	00f66333          	or	t1,a2,a5
   11088:	00f282b3          	add	t0,t0,a5
   1108c:	0062e2b3          	or	t0,t0,t1
   11090:	10729263          	bne	t0,t2,11194 <strcmp+0x134>
   11094:	08d61663          	bne	a2,a3,11120 <strcmp+0xc0>
   11098:	00452603          	lw	a2,4(a0)
   1109c:	0045a683          	lw	a3,4(a1)
   110a0:	00f672b3          	and	t0,a2,a5
   110a4:	00f66333          	or	t1,a2,a5
   110a8:	00f282b3          	add	t0,t0,a5
   110ac:	0062e2b3          	or	t0,t0,t1
   110b0:	0c729e63          	bne	t0,t2,1118c <strcmp+0x12c>
   110b4:	06d61663          	bne	a2,a3,11120 <strcmp+0xc0>
   110b8:	00852603          	lw	a2,8(a0)
   110bc:	0085a683          	lw	a3,8(a1)
   110c0:	00f672b3          	and	t0,a2,a5
   110c4:	00f66333          	or	t1,a2,a5
   110c8:	00f282b3          	add	t0,t0,a5
   110cc:	0062e2b3          	or	t0,t0,t1
   110d0:	0c729863          	bne	t0,t2,111a0 <strcmp+0x140>
   110d4:	04d61663          	bne	a2,a3,11120 <strcmp+0xc0>
   110d8:	00c52603          	lw	a2,12(a0)
   110dc:	00c5a683          	lw	a3,12(a1)
   110e0:	00f672b3          	and	t0,a2,a5
   110e4:	00f66333          	or	t1,a2,a5
   110e8:	00f282b3          	add	t0,t0,a5
   110ec:	0062e2b3          	or	t0,t0,t1
   110f0:	0c729263          	bne	t0,t2,111b4 <strcmp+0x154>
   110f4:	02d61663          	bne	a2,a3,11120 <strcmp+0xc0>
   110f8:	01052603          	lw	a2,16(a0)
   110fc:	0105a683          	lw	a3,16(a1)
   11100:	00f672b3          	and	t0,a2,a5
   11104:	00f66333          	or	t1,a2,a5
   11108:	00f282b3          	add	t0,t0,a5
   1110c:	0062e2b3          	or	t0,t0,t1
   11110:	0a729c63          	bne	t0,t2,111c8 <strcmp+0x168>
   11114:	01450513          	addi	a0,a0,20
   11118:	01458593          	addi	a1,a1,20
   1111c:	f4d60ee3          	beq	a2,a3,11078 <strcmp+0x18>
   11120:	01061713          	slli	a4,a2,0x10
   11124:	01069793          	slli	a5,a3,0x10
   11128:	00f71e63          	bne	a4,a5,11144 <strcmp+0xe4>
   1112c:	01065713          	srli	a4,a2,0x10
   11130:	0106d793          	srli	a5,a3,0x10
   11134:	40f70533          	sub	a0,a4,a5
   11138:	0ff57593          	andi	a1,a0,255
   1113c:	02059063          	bnez	a1,1115c <strcmp+0xfc>
   11140:	00008067          	ret
   11144:	01075713          	srli	a4,a4,0x10
   11148:	0107d793          	srli	a5,a5,0x10
   1114c:	40f70533          	sub	a0,a4,a5
   11150:	0ff57593          	andi	a1,a0,255
   11154:	00059463          	bnez	a1,1115c <strcmp+0xfc>
   11158:	00008067          	ret
   1115c:	0ff77713          	andi	a4,a4,255
   11160:	0ff7f793          	andi	a5,a5,255
   11164:	40f70533          	sub	a0,a4,a5
   11168:	00008067          	ret
   1116c:	00054603          	lbu	a2,0(a0)
   11170:	0005c683          	lbu	a3,0(a1)
   11174:	00150513          	addi	a0,a0,1
   11178:	00158593          	addi	a1,a1,1
   1117c:	00d61463          	bne	a2,a3,11184 <strcmp+0x124>
   11180:	fe0616e3          	bnez	a2,1116c <strcmp+0x10c>
   11184:	40d60533          	sub	a0,a2,a3
   11188:	00008067          	ret
   1118c:	00450513          	addi	a0,a0,4
   11190:	00458593          	addi	a1,a1,4
   11194:	fcd61ce3          	bne	a2,a3,1116c <strcmp+0x10c>
   11198:	00000513          	li	a0,0
   1119c:	00008067          	ret
   111a0:	00850513          	addi	a0,a0,8
   111a4:	00858593          	addi	a1,a1,8
   111a8:	fcd612e3          	bne	a2,a3,1116c <strcmp+0x10c>
   111ac:	00000513          	li	a0,0
   111b0:	00008067          	ret
   111b4:	00c50513          	addi	a0,a0,12
   111b8:	00c58593          	addi	a1,a1,12
   111bc:	fad618e3          	bne	a2,a3,1116c <strcmp+0x10c>
   111c0:	00000513          	li	a0,0
   111c4:	00008067          	ret
   111c8:	01050513          	addi	a0,a0,16
   111cc:	01058593          	addi	a1,a1,16
   111d0:	f8d61ee3          	bne	a2,a3,1116c <strcmp+0x10c>
   111d4:	00000513          	li	a0,0
   111d8:	00008067          	ret

000111dc <strlen>:
   111dc:	00050793          	mv	a5,a0
   111e0:	00178793          	addi	a5,a5,1
   111e4:	fff7c703          	lbu	a4,-1(a5)
   111e8:	fe071ce3          	bnez	a4,111e0 <strlen+0x4>
   111ec:	40a78533          	sub	a0,a5,a0
   111f0:	fff50513          	addi	a0,a0,-1
   111f4:	00008067          	ret

000111f8 <_vfprintf_r>:
   111f8:	e2010113          	addi	sp,sp,-480
   111fc:	1c112e23          	sw	ra,476(sp)
   11200:	1c912a23          	sw	s1,468(sp)
   11204:	1d212823          	sw	s2,464(sp)
   11208:	1d312623          	sw	s3,460(sp)
   1120c:	1d512223          	sw	s5,452(sp)
   11210:	00058913          	mv	s2,a1
   11214:	00060493          	mv	s1,a2
   11218:	00068a93          	mv	s5,a3
   1121c:	1c812c23          	sw	s0,472(sp)
   11220:	1d412423          	sw	s4,456(sp)
   11224:	1d612023          	sw	s6,448(sp)
   11228:	1b712e23          	sw	s7,444(sp)
   1122c:	1b812c23          	sw	s8,440(sp)
   11230:	1b912a23          	sw	s9,436(sp)
   11234:	1ba12823          	sw	s10,432(sp)
   11238:	1bb12623          	sw	s11,428(sp)
   1123c:	00050993          	mv	s3,a0
   11240:	1cc050ef          	jal	ra,1640c <_localeconv_r>
   11244:	00052783          	lw	a5,0(a0)
   11248:	00078513          	mv	a0,a5
   1124c:	02f12a23          	sw	a5,52(sp)
   11250:	f8dff0ef          	jal	ra,111dc <strlen>
   11254:	02a12023          	sw	a0,32(sp)
   11258:	0e012023          	sw	zero,224(sp)
   1125c:	0e012223          	sw	zero,228(sp)
   11260:	0e012423          	sw	zero,232(sp)
   11264:	0e012623          	sw	zero,236(sp)
   11268:	00098a63          	beqz	s3,1127c <_vfprintf_r+0x84>
   1126c:	0389a783          	lw	a5,56(s3)
   11270:	00079663          	bnez	a5,1127c <_vfprintf_r+0x84>
   11274:	00098513          	mv	a0,s3
   11278:	75c020ef          	jal	ra,139d4 <__sinit>
   1127c:	00c91783          	lh	a5,12(s2)
   11280:	01279713          	slli	a4,a5,0x12
   11284:	02074263          	bltz	a4,112a8 <_vfprintf_r+0xb0>
   11288:	000026b7          	lui	a3,0x2
   1128c:	06492703          	lw	a4,100(s2)
   11290:	00d7e7b3          	or	a5,a5,a3
   11294:	00f91623          	sh	a5,12(s2)
   11298:	ffffe7b7          	lui	a5,0xffffe
   1129c:	fff78793          	addi	a5,a5,-1 # ffffdfff <_end+0xfffd7b1f>
   112a0:	00f777b3          	and	a5,a4,a5
   112a4:	06f92223          	sw	a5,100(s2)
   112a8:	00c95783          	lhu	a5,12(s2)
   112ac:	0087f793          	andi	a5,a5,8
   112b0:	04078063          	beqz	a5,112f0 <_vfprintf_r+0xf8>
   112b4:	01092783          	lw	a5,16(s2)
   112b8:	02078c63          	beqz	a5,112f0 <_vfprintf_r+0xf8>
   112bc:	00c95783          	lhu	a5,12(s2)
   112c0:	00a00713          	li	a4,10
   112c4:	01a7f793          	andi	a5,a5,26
   112c8:	08e79063          	bne	a5,a4,11348 <_vfprintf_r+0x150>
   112cc:	00e91783          	lh	a5,14(s2)
   112d0:	0607cc63          	bltz	a5,11348 <_vfprintf_r+0x150>
   112d4:	000a8693          	mv	a3,s5
   112d8:	00048613          	mv	a2,s1
   112dc:	00090593          	mv	a1,s2
   112e0:	00098513          	mv	a0,s3
   112e4:	6a1010ef          	jal	ra,13184 <__sbprintf>
   112e8:	02a12223          	sw	a0,36(sp)
   112ec:	01c0006f          	j	11308 <_vfprintf_r+0x110>
   112f0:	00090593          	mv	a1,s2
   112f4:	00098513          	mv	a0,s3
   112f8:	088020ef          	jal	ra,13380 <__swsetup_r>
   112fc:	fc0500e3          	beqz	a0,112bc <_vfprintf_r+0xc4>
   11300:	fff00793          	li	a5,-1
   11304:	02f12223          	sw	a5,36(sp)
   11308:	1dc12083          	lw	ra,476(sp)
   1130c:	1d812403          	lw	s0,472(sp)
   11310:	02412503          	lw	a0,36(sp)
   11314:	1d412483          	lw	s1,468(sp)
   11318:	1d012903          	lw	s2,464(sp)
   1131c:	1cc12983          	lw	s3,460(sp)
   11320:	1c812a03          	lw	s4,456(sp)
   11324:	1c412a83          	lw	s5,452(sp)
   11328:	1c012b03          	lw	s6,448(sp)
   1132c:	1bc12b83          	lw	s7,444(sp)
   11330:	1b812c03          	lw	s8,440(sp)
   11334:	1b412c83          	lw	s9,436(sp)
   11338:	1b012d03          	lw	s10,432(sp)
   1133c:	1ac12d83          	lw	s11,428(sp)
   11340:	1e010113          	addi	sp,sp,480
   11344:	00008067          	ret
   11348:	000217b7          	lui	a5,0x21
   1134c:	58078793          	addi	a5,a5,1408 # 21580 <main+0xdf4>
   11350:	04f12623          	sw	a5,76(sp)
   11354:	000217b7          	lui	a5,0x21
   11358:	0fc10893          	addi	a7,sp,252
   1135c:	6fc78793          	addi	a5,a5,1788 # 216fc <zeroes.4514>
   11360:	0d112a23          	sw	a7,212(sp)
   11364:	0c012e23          	sw	zero,220(sp)
   11368:	0c012c23          	sw	zero,216(sp)
   1136c:	00000a13          	li	s4,0
   11370:	00088b93          	mv	s7,a7
   11374:	04012023          	sw	zero,64(sp)
   11378:	02012e23          	sw	zero,60(sp)
   1137c:	00012823          	sw	zero,16(sp)
   11380:	02012823          	sw	zero,48(sp)
   11384:	02012c23          	sw	zero,56(sp)
   11388:	02012223          	sw	zero,36(sp)
   1138c:	00f12a23          	sw	a5,20(sp)
   11390:	00048413          	mv	s0,s1
   11394:	02500713          	li	a4,37
   11398:	00044783          	lbu	a5,0(s0)
   1139c:	00078463          	beqz	a5,113a4 <_vfprintf_r+0x1ac>
   113a0:	0ae79c63          	bne	a5,a4,11458 <_vfprintf_r+0x260>
   113a4:	40940b33          	sub	s6,s0,s1
   113a8:	040b0a63          	beqz	s6,113fc <_vfprintf_r+0x204>
   113ac:	0dc12783          	lw	a5,220(sp)
   113b0:	009ba023          	sw	s1,0(s7)
   113b4:	016ba223          	sw	s6,4(s7)
   113b8:	016787b3          	add	a5,a5,s6
   113bc:	0cf12e23          	sw	a5,220(sp)
   113c0:	0d812783          	lw	a5,216(sp)
   113c4:	00700713          	li	a4,7
   113c8:	008b8b93          	addi	s7,s7,8
   113cc:	00178793          	addi	a5,a5,1
   113d0:	0cf12c23          	sw	a5,216(sp)
   113d4:	00f75e63          	ble	a5,a4,113f0 <_vfprintf_r+0x1f8>
   113d8:	0d410613          	addi	a2,sp,212
   113dc:	00090593          	mv	a1,s2
   113e0:	00098513          	mv	a0,s3
   113e4:	3cd080ef          	jal	ra,19fb0 <__sprint_r>
   113e8:	70051663          	bnez	a0,11af4 <_vfprintf_r+0x8fc>
   113ec:	0fc10b93          	addi	s7,sp,252
   113f0:	02412783          	lw	a5,36(sp)
   113f4:	016787b3          	add	a5,a5,s6
   113f8:	02f12223          	sw	a5,36(sp)
   113fc:	00044783          	lbu	a5,0(s0)
   11400:	00079463          	bnez	a5,11408 <_vfprintf_r+0x210>
   11404:	5290106f          	j	1312c <_vfprintf_r+0x1f34>
   11408:	00140793          	addi	a5,s0,1
   1140c:	0a010ba3          	sb	zero,183(sp)
   11410:	fff00d13          	li	s10,-1
   11414:	02012423          	sw	zero,40(sp)
   11418:	00000413          	li	s0,0
   1141c:	05a00c93          	li	s9,90
   11420:	00a00d93          	li	s11,10
   11424:	00900c13          	li	s8,9
   11428:	0007cb03          	lbu	s6,0(a5)
   1142c:	00178713          	addi	a4,a5,1
   11430:	00e12e23          	sw	a4,28(sp)
   11434:	02a00693          	li	a3,42
   11438:	fe0b0793          	addi	a5,s6,-32
   1143c:	00fcf463          	bleu	a5,s9,11444 <_vfprintf_r+0x24c>
   11440:	20c0106f          	j	1264c <_vfprintf_r+0x1454>
   11444:	04c12703          	lw	a4,76(sp)
   11448:	00279793          	slli	a5,a5,0x2
   1144c:	00e787b3          	add	a5,a5,a4
   11450:	0007a783          	lw	a5,0(a5)
   11454:	00078067          	jr	a5
   11458:	00140413          	addi	s0,s0,1
   1145c:	f3dff06f          	j	11398 <_vfprintf_r+0x1a0>
   11460:	00098513          	mv	a0,s3
   11464:	7a9040ef          	jal	ra,1640c <_localeconv_r>
   11468:	00452783          	lw	a5,4(a0)
   1146c:	00078513          	mv	a0,a5
   11470:	02f12c23          	sw	a5,56(sp)
   11474:	d69ff0ef          	jal	ra,111dc <strlen>
   11478:	02a12823          	sw	a0,48(sp)
   1147c:	00098513          	mv	a0,s3
   11480:	78d040ef          	jal	ra,1640c <_localeconv_r>
   11484:	00852783          	lw	a5,8(a0)
   11488:	00f12823          	sw	a5,16(sp)
   1148c:	03012783          	lw	a5,48(sp)
   11490:	00078c63          	beqz	a5,114a8 <_vfprintf_r+0x2b0>
   11494:	01012783          	lw	a5,16(sp)
   11498:	00078863          	beqz	a5,114a8 <_vfprintf_r+0x2b0>
   1149c:	0007c783          	lbu	a5,0(a5)
   114a0:	00078463          	beqz	a5,114a8 <_vfprintf_r+0x2b0>
   114a4:	40046413          	ori	s0,s0,1024
   114a8:	01c12783          	lw	a5,28(sp)
   114ac:	f7dff06f          	j	11428 <_vfprintf_r+0x230>
   114b0:	0b714783          	lbu	a5,183(sp)
   114b4:	fe079ae3          	bnez	a5,114a8 <_vfprintf_r+0x2b0>
   114b8:	02000793          	li	a5,32
   114bc:	0af10ba3          	sb	a5,183(sp)
   114c0:	fe9ff06f          	j	114a8 <_vfprintf_r+0x2b0>
   114c4:	00146413          	ori	s0,s0,1
   114c8:	fe1ff06f          	j	114a8 <_vfprintf_r+0x2b0>
   114cc:	000aa783          	lw	a5,0(s5)
   114d0:	004a8a93          	addi	s5,s5,4
   114d4:	02f12423          	sw	a5,40(sp)
   114d8:	fc07d8e3          	bgez	a5,114a8 <_vfprintf_r+0x2b0>
   114dc:	40f007b3          	neg	a5,a5
   114e0:	02f12423          	sw	a5,40(sp)
   114e4:	00446413          	ori	s0,s0,4
   114e8:	fc1ff06f          	j	114a8 <_vfprintf_r+0x2b0>
   114ec:	02b00793          	li	a5,43
   114f0:	fcdff06f          	j	114bc <_vfprintf_r+0x2c4>
   114f4:	01c12703          	lw	a4,28(sp)
   114f8:	01c12783          	lw	a5,28(sp)
   114fc:	00074b03          	lbu	s6,0(a4)
   11500:	00178793          	addi	a5,a5,1
   11504:	04db1063          	bne	s6,a3,11544 <_vfprintf_r+0x34c>
   11508:	000aad03          	lw	s10,0(s5)
   1150c:	004a8713          	addi	a4,s5,4
   11510:	000d5463          	bgez	s10,11518 <_vfprintf_r+0x320>
   11514:	fff00d13          	li	s10,-1
   11518:	00070a93          	mv	s5,a4
   1151c:	00f12e23          	sw	a5,28(sp)
   11520:	f89ff06f          	j	114a8 <_vfprintf_r+0x2b0>
   11524:	03bd0333          	mul	t1,s10,s11
   11528:	00178793          	addi	a5,a5,1
   1152c:	fff7cb03          	lbu	s6,-1(a5)
   11530:	00e30d33          	add	s10,t1,a4
   11534:	fd0b0713          	addi	a4,s6,-48
   11538:	feec76e3          	bleu	a4,s8,11524 <_vfprintf_r+0x32c>
   1153c:	00f12e23          	sw	a5,28(sp)
   11540:	ef9ff06f          	j	11438 <_vfprintf_r+0x240>
   11544:	00000d13          	li	s10,0
   11548:	fedff06f          	j	11534 <_vfprintf_r+0x33c>
   1154c:	08046413          	ori	s0,s0,128
   11550:	f59ff06f          	j	114a8 <_vfprintf_r+0x2b0>
   11554:	01c12783          	lw	a5,28(sp)
   11558:	02012423          	sw	zero,40(sp)
   1155c:	02812703          	lw	a4,40(sp)
   11560:	fd0b0b13          	addi	s6,s6,-48
   11564:	00178793          	addi	a5,a5,1
   11568:	03b70733          	mul	a4,a4,s11
   1156c:	00eb0733          	add	a4,s6,a4
   11570:	fff7cb03          	lbu	s6,-1(a5)
   11574:	02e12423          	sw	a4,40(sp)
   11578:	fd0b0713          	addi	a4,s6,-48
   1157c:	feec70e3          	bleu	a4,s8,1155c <_vfprintf_r+0x364>
   11580:	fbdff06f          	j	1153c <_vfprintf_r+0x344>
   11584:	00846413          	ori	s0,s0,8
   11588:	f21ff06f          	j	114a8 <_vfprintf_r+0x2b0>
   1158c:	01c12783          	lw	a5,28(sp)
   11590:	0007c703          	lbu	a4,0(a5)
   11594:	06800793          	li	a5,104
   11598:	00f71c63          	bne	a4,a5,115b0 <_vfprintf_r+0x3b8>
   1159c:	01c12783          	lw	a5,28(sp)
   115a0:	20046413          	ori	s0,s0,512
   115a4:	00178793          	addi	a5,a5,1
   115a8:	00f12e23          	sw	a5,28(sp)
   115ac:	efdff06f          	j	114a8 <_vfprintf_r+0x2b0>
   115b0:	04046413          	ori	s0,s0,64
   115b4:	ef5ff06f          	j	114a8 <_vfprintf_r+0x2b0>
   115b8:	01c12783          	lw	a5,28(sp)
   115bc:	0007c703          	lbu	a4,0(a5)
   115c0:	06c00793          	li	a5,108
   115c4:	00f71c63          	bne	a4,a5,115dc <_vfprintf_r+0x3e4>
   115c8:	01c12783          	lw	a5,28(sp)
   115cc:	00178793          	addi	a5,a5,1
   115d0:	00f12e23          	sw	a5,28(sp)
   115d4:	02046413          	ori	s0,s0,32
   115d8:	ed1ff06f          	j	114a8 <_vfprintf_r+0x2b0>
   115dc:	01046413          	ori	s0,s0,16
   115e0:	ec9ff06f          	j	114a8 <_vfprintf_r+0x2b0>
   115e4:	004a8793          	addi	a5,s5,4
   115e8:	00f12c23          	sw	a5,24(sp)
   115ec:	000aa783          	lw	a5,0(s5)
   115f0:	0a010ba3          	sb	zero,183(sp)
   115f4:	12f10e23          	sb	a5,316(sp)
   115f8:	00012623          	sw	zero,12(sp)
   115fc:	00100d13          	li	s10,1
   11600:	00000a93          	li	s5,0
   11604:	00000c93          	li	s9,0
   11608:	00000c13          	li	s8,0
   1160c:	00000d93          	li	s11,0
   11610:	13c10493          	addi	s1,sp,316
   11614:	03512623          	sw	s5,44(sp)
   11618:	01aad463          	ble	s10,s5,11620 <_vfprintf_r+0x428>
   1161c:	03a12623          	sw	s10,44(sp)
   11620:	0b714703          	lbu	a4,183(sp)
   11624:	00070863          	beqz	a4,11634 <_vfprintf_r+0x43c>
   11628:	02c12783          	lw	a5,44(sp)
   1162c:	00178793          	addi	a5,a5,1
   11630:	02f12623          	sw	a5,44(sp)
   11634:	00247793          	andi	a5,s0,2
   11638:	04f12223          	sw	a5,68(sp)
   1163c:	00078863          	beqz	a5,1164c <_vfprintf_r+0x454>
   11640:	02c12783          	lw	a5,44(sp)
   11644:	00278793          	addi	a5,a5,2
   11648:	02f12623          	sw	a5,44(sp)
   1164c:	08447793          	andi	a5,s0,132
   11650:	04f12423          	sw	a5,72(sp)
   11654:	06079c63          	bnez	a5,116cc <_vfprintf_r+0x4d4>
   11658:	02812783          	lw	a5,40(sp)
   1165c:	02c12703          	lw	a4,44(sp)
   11660:	40e78733          	sub	a4,a5,a4
   11664:	06e05463          	blez	a4,116cc <_vfprintf_r+0x4d4>
   11668:	000217b7          	lui	a5,0x21
   1166c:	01000e93          	li	t4,16
   11670:	6ec78e13          	addi	t3,a5,1772 # 216ec <blanks.4513>
   11674:	00700f13          	li	t5,7
   11678:	0d812683          	lw	a3,216(sp)
   1167c:	01cba023          	sw	t3,0(s7)
   11680:	0dc12603          	lw	a2,220(sp)
   11684:	00168693          	addi	a3,a3,1 # 2001 <_start-0xdfff>
   11688:	008b8593          	addi	a1,s7,8
   1168c:	00eed463          	ble	a4,t4,11694 <_vfprintf_r+0x49c>
   11690:	7d10006f          	j	12660 <_vfprintf_r+0x1468>
   11694:	00eba223          	sw	a4,4(s7)
   11698:	00c70733          	add	a4,a4,a2
   1169c:	0ce12e23          	sw	a4,220(sp)
   116a0:	0cd12c23          	sw	a3,216(sp)
   116a4:	00700713          	li	a4,7
   116a8:	00058b93          	mv	s7,a1
   116ac:	02d75063          	ble	a3,a4,116cc <_vfprintf_r+0x4d4>
   116b0:	0d410613          	addi	a2,sp,212
   116b4:	00090593          	mv	a1,s2
   116b8:	00098513          	mv	a0,s3
   116bc:	0f5080ef          	jal	ra,19fb0 <__sprint_r>
   116c0:	00050463          	beqz	a0,116c8 <_vfprintf_r+0x4d0>
   116c4:	2050106f          	j	130c8 <_vfprintf_r+0x1ed0>
   116c8:	0fc10b93          	addi	s7,sp,252
   116cc:	0b714703          	lbu	a4,183(sp)
   116d0:	04070a63          	beqz	a4,11724 <_vfprintf_r+0x52c>
   116d4:	0b710713          	addi	a4,sp,183
   116d8:	00eba023          	sw	a4,0(s7)
   116dc:	00100713          	li	a4,1
   116e0:	00eba223          	sw	a4,4(s7)
   116e4:	0dc12703          	lw	a4,220(sp)
   116e8:	00700693          	li	a3,7
   116ec:	008b8b93          	addi	s7,s7,8
   116f0:	00170713          	addi	a4,a4,1
   116f4:	0ce12e23          	sw	a4,220(sp)
   116f8:	0d812703          	lw	a4,216(sp)
   116fc:	00170713          	addi	a4,a4,1
   11700:	0ce12c23          	sw	a4,216(sp)
   11704:	02e6d063          	ble	a4,a3,11724 <_vfprintf_r+0x52c>
   11708:	0d410613          	addi	a2,sp,212
   1170c:	00090593          	mv	a1,s2
   11710:	00098513          	mv	a0,s3
   11714:	09d080ef          	jal	ra,19fb0 <__sprint_r>
   11718:	00050463          	beqz	a0,11720 <_vfprintf_r+0x528>
   1171c:	1ad0106f          	j	130c8 <_vfprintf_r+0x1ed0>
   11720:	0fc10b93          	addi	s7,sp,252
   11724:	04412783          	lw	a5,68(sp)
   11728:	04078a63          	beqz	a5,1177c <_vfprintf_r+0x584>
   1172c:	0b810713          	addi	a4,sp,184
   11730:	00eba023          	sw	a4,0(s7)
   11734:	00200713          	li	a4,2
   11738:	00eba223          	sw	a4,4(s7)
   1173c:	0dc12703          	lw	a4,220(sp)
   11740:	00700693          	li	a3,7
   11744:	008b8b93          	addi	s7,s7,8
   11748:	00270713          	addi	a4,a4,2
   1174c:	0ce12e23          	sw	a4,220(sp)
   11750:	0d812703          	lw	a4,216(sp)
   11754:	00170713          	addi	a4,a4,1
   11758:	0ce12c23          	sw	a4,216(sp)
   1175c:	02e6d063          	ble	a4,a3,1177c <_vfprintf_r+0x584>
   11760:	0d410613          	addi	a2,sp,212
   11764:	00090593          	mv	a1,s2
   11768:	00098513          	mv	a0,s3
   1176c:	045080ef          	jal	ra,19fb0 <__sprint_r>
   11770:	00050463          	beqz	a0,11778 <_vfprintf_r+0x580>
   11774:	1550106f          	j	130c8 <_vfprintf_r+0x1ed0>
   11778:	0fc10b93          	addi	s7,sp,252
   1177c:	04812783          	lw	a5,72(sp)
   11780:	08000713          	li	a4,128
   11784:	06e79863          	bne	a5,a4,117f4 <_vfprintf_r+0x5fc>
   11788:	02812783          	lw	a5,40(sp)
   1178c:	02c12703          	lw	a4,44(sp)
   11790:	40e787b3          	sub	a5,a5,a4
   11794:	06f05063          	blez	a5,117f4 <_vfprintf_r+0x5fc>
   11798:	01000e13          	li	t3,16
   1179c:	00700e93          	li	t4,7
   117a0:	01412583          	lw	a1,20(sp)
   117a4:	0d812683          	lw	a3,216(sp)
   117a8:	0dc12703          	lw	a4,220(sp)
   117ac:	00bba023          	sw	a1,0(s7)
   117b0:	00168693          	addi	a3,a3,1
   117b4:	008b8613          	addi	a2,s7,8
   117b8:	6efe4ce3          	blt	t3,a5,126b0 <_vfprintf_r+0x14b8>
   117bc:	00e78733          	add	a4,a5,a4
   117c0:	00fba223          	sw	a5,4(s7)
   117c4:	0ce12e23          	sw	a4,220(sp)
   117c8:	0cd12c23          	sw	a3,216(sp)
   117cc:	00700713          	li	a4,7
   117d0:	00060b93          	mv	s7,a2
   117d4:	02d75063          	ble	a3,a4,117f4 <_vfprintf_r+0x5fc>
   117d8:	0d410613          	addi	a2,sp,212
   117dc:	00090593          	mv	a1,s2
   117e0:	00098513          	mv	a0,s3
   117e4:	7cc080ef          	jal	ra,19fb0 <__sprint_r>
   117e8:	00050463          	beqz	a0,117f0 <_vfprintf_r+0x5f8>
   117ec:	0dd0106f          	j	130c8 <_vfprintf_r+0x1ed0>
   117f0:	0fc10b93          	addi	s7,sp,252
   117f4:	41aa8ab3          	sub	s5,s5,s10
   117f8:	07505063          	blez	s5,11858 <_vfprintf_r+0x660>
   117fc:	01000813          	li	a6,16
   11800:	00700e13          	li	t3,7
   11804:	01412783          	lw	a5,20(sp)
   11808:	0d812703          	lw	a4,216(sp)
   1180c:	0dc12683          	lw	a3,220(sp)
   11810:	00fba023          	sw	a5,0(s7)
   11814:	00170713          	addi	a4,a4,1
   11818:	008b8613          	addi	a2,s7,8
   1181c:	6d584ee3          	blt	a6,s5,126f8 <_vfprintf_r+0x1500>
   11820:	015ba223          	sw	s5,4(s7)
   11824:	00da8ab3          	add	s5,s5,a3
   11828:	0d512e23          	sw	s5,220(sp)
   1182c:	0ce12c23          	sw	a4,216(sp)
   11830:	00700693          	li	a3,7
   11834:	00060b93          	mv	s7,a2
   11838:	02e6d063          	ble	a4,a3,11858 <_vfprintf_r+0x660>
   1183c:	0d410613          	addi	a2,sp,212
   11840:	00090593          	mv	a1,s2
   11844:	00098513          	mv	a0,s3
   11848:	768080ef          	jal	ra,19fb0 <__sprint_r>
   1184c:	00050463          	beqz	a0,11854 <_vfprintf_r+0x65c>
   11850:	0790106f          	j	130c8 <_vfprintf_r+0x1ed0>
   11854:	0fc10b93          	addi	s7,sp,252
   11858:	10047693          	andi	a3,s0,256
   1185c:	0dc12703          	lw	a4,220(sp)
   11860:	6c069ce3          	bnez	a3,12738 <_vfprintf_r+0x1540>
   11864:	0d812783          	lw	a5,216(sp)
   11868:	00ed0333          	add	t1,s10,a4
   1186c:	009ba023          	sw	s1,0(s7)
   11870:	00178793          	addi	a5,a5,1
   11874:	01aba223          	sw	s10,4(s7)
   11878:	0c612e23          	sw	t1,220(sp)
   1187c:	0cf12c23          	sw	a5,216(sp)
   11880:	00700713          	li	a4,7
   11884:	008b8b93          	addi	s7,s7,8
   11888:	00f74463          	blt	a4,a5,11890 <_vfprintf_r+0x698>
   1188c:	1740106f          	j	12a00 <_vfprintf_r+0x1808>
   11890:	0d410613          	addi	a2,sp,212
   11894:	00090593          	mv	a1,s2
   11898:	00098513          	mv	a0,s3
   1189c:	714080ef          	jal	ra,19fb0 <__sprint_r>
   118a0:	00050463          	beqz	a0,118a8 <_vfprintf_r+0x6b0>
   118a4:	0250106f          	j	130c8 <_vfprintf_r+0x1ed0>
   118a8:	0fc10b93          	addi	s7,sp,252
   118ac:	1540106f          	j	12a00 <_vfprintf_r+0x1808>
   118b0:	01046413          	ori	s0,s0,16
   118b4:	02047793          	andi	a5,s0,32
   118b8:	06078463          	beqz	a5,11920 <_vfprintf_r+0x728>
   118bc:	007a8a93          	addi	s5,s5,7
   118c0:	ff8afa93          	andi	s5,s5,-8
   118c4:	000aad83          	lw	s11,0(s5)
   118c8:	004aac83          	lw	s9,4(s5)
   118cc:	008a8793          	addi	a5,s5,8
   118d0:	00f12c23          	sw	a5,24(sp)
   118d4:	000cc463          	bltz	s9,118dc <_vfprintf_r+0x6e4>
   118d8:	0750106f          	j	1314c <_vfprintf_r+0x1f54>
   118dc:	41b00db3          	neg	s11,s11
   118e0:	01b037b3          	snez	a5,s11
   118e4:	41900cb3          	neg	s9,s9
   118e8:	40fc8cb3          	sub	s9,s9,a5
   118ec:	02d00793          	li	a5,45
   118f0:	0af10ba3          	sb	a5,183(sp)
   118f4:	00100793          	li	a5,1
   118f8:	fff00713          	li	a4,-1
   118fc:	3aed0ee3          	beq	s10,a4,124b8 <_vfprintf_r+0x12c0>
   11900:	00040713          	mv	a4,s0
   11904:	019de6b3          	or	a3,s11,s9
   11908:	f7f47413          	andi	s0,s0,-129
   1190c:	3a0696e3          	bnez	a3,124b8 <_vfprintf_r+0x12c0>
   11910:	520d00e3          	beqz	s10,12630 <_vfprintf_r+0x1438>
   11914:	00100713          	li	a4,1
   11918:	3ae794e3          	bne	a5,a4,124c0 <_vfprintf_r+0x12c8>
   1191c:	0450106f          	j	13160 <_vfprintf_r+0x1f68>
   11920:	004a8793          	addi	a5,s5,4
   11924:	00f12c23          	sw	a5,24(sp)
   11928:	01047793          	andi	a5,s0,16
   1192c:	00078863          	beqz	a5,1193c <_vfprintf_r+0x744>
   11930:	000aad83          	lw	s11,0(s5)
   11934:	41fddc93          	srai	s9,s11,0x1f
   11938:	f9dff06f          	j	118d4 <_vfprintf_r+0x6dc>
   1193c:	04047793          	andi	a5,s0,64
   11940:	000aad83          	lw	s11,0(s5)
   11944:	00078863          	beqz	a5,11954 <_vfprintf_r+0x75c>
   11948:	010d9d93          	slli	s11,s11,0x10
   1194c:	410ddd93          	srai	s11,s11,0x10
   11950:	fe5ff06f          	j	11934 <_vfprintf_r+0x73c>
   11954:	20047793          	andi	a5,s0,512
   11958:	fc078ee3          	beqz	a5,11934 <_vfprintf_r+0x73c>
   1195c:	018d9d93          	slli	s11,s11,0x18
   11960:	418ddd93          	srai	s11,s11,0x18
   11964:	fd1ff06f          	j	11934 <_vfprintf_r+0x73c>
   11968:	00847793          	andi	a5,s0,8
   1196c:	0a078863          	beqz	a5,11a1c <_vfprintf_r+0x824>
   11970:	004a8793          	addi	a5,s5,4
   11974:	00f12c23          	sw	a5,24(sp)
   11978:	000aa783          	lw	a5,0(s5)
   1197c:	0007a603          	lw	a2,0(a5)
   11980:	0047a683          	lw	a3,4(a5)
   11984:	0087a703          	lw	a4,8(a5)
   11988:	00c7a783          	lw	a5,12(a5)
   1198c:	0ec12023          	sw	a2,224(sp)
   11990:	0ed12223          	sw	a3,228(sp)
   11994:	0ee12423          	sw	a4,232(sp)
   11998:	0e010513          	addi	a0,sp,224
   1199c:	0ef12623          	sw	a5,236(sp)
   119a0:	201040ef          	jal	ra,163a0 <_ldcheck>
   119a4:	0aa12e23          	sw	a0,188(sp)
   119a8:	00200793          	li	a5,2
   119ac:	0af51e63          	bne	a0,a5,11a68 <_vfprintf_r+0x870>
   119b0:	0e012783          	lw	a5,224(sp)
   119b4:	09010593          	addi	a1,sp,144
   119b8:	0a010513          	addi	a0,sp,160
   119bc:	0af12023          	sw	a5,160(sp)
   119c0:	0e412783          	lw	a5,228(sp)
   119c4:	08012823          	sw	zero,144(sp)
   119c8:	08012a23          	sw	zero,148(sp)
   119cc:	0af12223          	sw	a5,164(sp)
   119d0:	0e812783          	lw	a5,232(sp)
   119d4:	08012c23          	sw	zero,152(sp)
   119d8:	08012e23          	sw	zero,156(sp)
   119dc:	0af12423          	sw	a5,168(sp)
   119e0:	0ec12783          	lw	a5,236(sp)
   119e4:	0af12623          	sw	a5,172(sp)
   119e8:	6d50b0ef          	jal	ra,1d8bc <__letf2>
   119ec:	00055663          	bgez	a0,119f8 <_vfprintf_r+0x800>
   119f0:	02d00793          	li	a5,45
   119f4:	0af10ba3          	sb	a5,183(sp)
   119f8:	04700793          	li	a5,71
   119fc:	0767d063          	ble	s6,a5,11a5c <_vfprintf_r+0x864>
   11a00:	000214b7          	lui	s1,0x21
   11a04:	71048493          	addi	s1,s1,1808 # 21710 <zeroes.4514+0x14>
   11a08:	f7f47413          	andi	s0,s0,-129
   11a0c:	00012623          	sw	zero,12(sp)
   11a10:	00300d13          	li	s10,3
   11a14:	00000a93          	li	s5,0
   11a18:	3050006f          	j	1251c <_vfprintf_r+0x1324>
   11a1c:	007a8a93          	addi	s5,s5,7
   11a20:	ff8afa93          	andi	s5,s5,-8
   11a24:	000aa583          	lw	a1,0(s5)
   11a28:	004aa603          	lw	a2,4(s5)
   11a2c:	008a8793          	addi	a5,s5,8
   11a30:	0a010513          	addi	a0,sp,160
   11a34:	00f12c23          	sw	a5,24(sp)
   11a38:	7c80e0ef          	jal	ra,20200 <__extenddftf2>
   11a3c:	0a012783          	lw	a5,160(sp)
   11a40:	0ef12023          	sw	a5,224(sp)
   11a44:	0a412783          	lw	a5,164(sp)
   11a48:	0ef12223          	sw	a5,228(sp)
   11a4c:	0a812783          	lw	a5,168(sp)
   11a50:	0ef12423          	sw	a5,232(sp)
   11a54:	0ac12783          	lw	a5,172(sp)
   11a58:	f41ff06f          	j	11998 <_vfprintf_r+0x7a0>
   11a5c:	000214b7          	lui	s1,0x21
   11a60:	70c48493          	addi	s1,s1,1804 # 2170c <zeroes.4514+0x10>
   11a64:	fa5ff06f          	j	11a08 <_vfprintf_r+0x810>
   11a68:	00100793          	li	a5,1
   11a6c:	02f51a63          	bne	a0,a5,11aa0 <_vfprintf_r+0x8a8>
   11a70:	0ec12783          	lw	a5,236(sp)
   11a74:	0007d663          	bgez	a5,11a80 <_vfprintf_r+0x888>
   11a78:	02d00793          	li	a5,45
   11a7c:	0af10ba3          	sb	a5,183(sp)
   11a80:	04700793          	li	a5,71
   11a84:	0167d863          	ble	s6,a5,11a94 <_vfprintf_r+0x89c>
   11a88:	000214b7          	lui	s1,0x21
   11a8c:	71848493          	addi	s1,s1,1816 # 21718 <zeroes.4514+0x1c>
   11a90:	f79ff06f          	j	11a08 <_vfprintf_r+0x810>
   11a94:	000214b7          	lui	s1,0x21
   11a98:	71448493          	addi	s1,s1,1812 # 21714 <zeroes.4514+0x18>
   11a9c:	f6dff06f          	j	11a08 <_vfprintf_r+0x810>
   11aa0:	fdfb7c13          	andi	s8,s6,-33
   11aa4:	04100793          	li	a5,65
   11aa8:	04fc1e63          	bne	s8,a5,11b04 <_vfprintf_r+0x90c>
   11aac:	03000793          	li	a5,48
   11ab0:	0af10c23          	sb	a5,184(sp)
   11ab4:	06100713          	li	a4,97
   11ab8:	07800793          	li	a5,120
   11abc:	00eb0463          	beq	s6,a4,11ac4 <_vfprintf_r+0x8cc>
   11ac0:	05800793          	li	a5,88
   11ac4:	0af10ca3          	sb	a5,185(sp)
   11ac8:	06300793          	li	a5,99
   11acc:	00246413          	ori	s0,s0,2
   11ad0:	49a7de63          	ble	s10,a5,11f6c <_vfprintf_r+0xd74>
   11ad4:	001d0593          	addi	a1,s10,1
   11ad8:	00098513          	mv	a0,s3
   11adc:	bddfe0ef          	jal	ra,106b8 <_malloc_r>
   11ae0:	00050493          	mv	s1,a0
   11ae4:	48051a63          	bnez	a0,11f78 <_vfprintf_r+0xd80>
   11ae8:	00c95783          	lhu	a5,12(s2)
   11aec:	0407e793          	ori	a5,a5,64
   11af0:	00f91623          	sh	a5,12(s2)
   11af4:	00c95783          	lhu	a5,12(s2)
   11af8:	0407f793          	andi	a5,a5,64
   11afc:	800786e3          	beqz	a5,11308 <_vfprintf_r+0x110>
   11b00:	801ff06f          	j	11300 <_vfprintf_r+0x108>
   11b04:	fff00793          	li	a5,-1
   11b08:	46fd0c63          	beq	s10,a5,11f80 <_vfprintf_r+0xd88>
   11b0c:	04700793          	li	a5,71
   11b10:	00012623          	sw	zero,12(sp)
   11b14:	00fc1863          	bne	s8,a5,11b24 <_vfprintf_r+0x92c>
   11b18:	000d1663          	bnez	s10,11b24 <_vfprintf_r+0x92c>
   11b1c:	01a12623          	sw	s10,12(sp)
   11b20:	00100d13          	li	s10,1
   11b24:	0ec12a03          	lw	s4,236(sp)
   11b28:	10046793          	ori	a5,s0,256
   11b2c:	02f12623          	sw	a5,44(sp)
   11b30:	04012223          	sw	zero,68(sp)
   11b34:	0e012e83          	lw	t4,224(sp)
   11b38:	0e412e03          	lw	t3,228(sp)
   11b3c:	0e812d83          	lw	s11,232(sp)
   11b40:	000a5a63          	bgez	s4,11b54 <_vfprintf_r+0x95c>
   11b44:	800007b7          	lui	a5,0x80000
   11b48:	0147ca33          	xor	s4,a5,s4
   11b4c:	02d00793          	li	a5,45
   11b50:	04f12223          	sw	a5,68(sp)
   11b54:	04100793          	li	a5,65
   11b58:	46fc1e63          	bne	s8,a5,11fd4 <_vfprintf_r+0xddc>
   11b5c:	0a010513          	addi	a0,sp,160
   11b60:	0bd12023          	sw	t4,160(sp)
   11b64:	0bc12223          	sw	t3,164(sp)
   11b68:	0bb12423          	sw	s11,168(sp)
   11b6c:	0b412623          	sw	s4,172(sp)
   11b70:	09d0e0ef          	jal	ra,2040c <__trunctfdf2>
   11b74:	0bc10613          	addi	a2,sp,188
   11b78:	208060ef          	jal	ra,17d80 <frexp>
   11b7c:	00058613          	mv	a2,a1
   11b80:	00050593          	mv	a1,a0
   11b84:	0a010513          	addi	a0,sp,160
   11b88:	6780e0ef          	jal	ra,20200 <__extenddftf2>
   11b8c:	0a012783          	lw	a5,160(sp)
   11b90:	07010613          	addi	a2,sp,112
   11b94:	08010593          	addi	a1,sp,128
   11b98:	08f12023          	sw	a5,128(sp)
   11b9c:	0a412783          	lw	a5,164(sp)
   11ba0:	09010513          	addi	a0,sp,144
   11ba4:	06012823          	sw	zero,112(sp)
   11ba8:	08f12223          	sw	a5,132(sp)
   11bac:	0a812783          	lw	a5,168(sp)
   11bb0:	06012a23          	sw	zero,116(sp)
   11bb4:	06012c23          	sw	zero,120(sp)
   11bb8:	08f12423          	sw	a5,136(sp)
   11bbc:	0ac12783          	lw	a5,172(sp)
   11bc0:	08f12623          	sw	a5,140(sp)
   11bc4:	3ffc07b7          	lui	a5,0x3ffc0
   11bc8:	06f12e23          	sw	a5,124(sp)
   11bcc:	6390b0ef          	jal	ra,1da04 <__multf3>
   11bd0:	09012803          	lw	a6,144(sp)
   11bd4:	09412603          	lw	a2,148(sp)
   11bd8:	09812683          	lw	a3,152(sp)
   11bdc:	09c12d83          	lw	s11,156(sp)
   11be0:	09010593          	addi	a1,sp,144
   11be4:	0a010513          	addi	a0,sp,160
   11be8:	0b012023          	sw	a6,160(sp)
   11bec:	05012a23          	sw	a6,84(sp)
   11bf0:	0ac12223          	sw	a2,164(sp)
   11bf4:	04c12823          	sw	a2,80(sp)
   11bf8:	0ad12423          	sw	a3,168(sp)
   11bfc:	04d12423          	sw	a3,72(sp)
   11c00:	0bb12623          	sw	s11,172(sp)
   11c04:	08012823          	sw	zero,144(sp)
   11c08:	08012a23          	sw	zero,148(sp)
   11c0c:	08012c23          	sw	zero,152(sp)
   11c10:	08012e23          	sw	zero,156(sp)
   11c14:	2950b0ef          	jal	ra,1d6a8 <__eqtf2>
   11c18:	04812683          	lw	a3,72(sp)
   11c1c:	05012603          	lw	a2,80(sp)
   11c20:	05412803          	lw	a6,84(sp)
   11c24:	00051663          	bnez	a0,11c30 <_vfprintf_r+0xa38>
   11c28:	00100713          	li	a4,1
   11c2c:	0ae12e23          	sw	a4,188(sp)
   11c30:	06100713          	li	a4,97
   11c34:	34eb0c63          	beq	s6,a4,11f8c <_vfprintf_r+0xd94>
   11c38:	00021a37          	lui	s4,0x21
   11c3c:	730a0a13          	addi	s4,s4,1840 # 21730 <zeroes.4514+0x34>
   11c40:	fffd0e13          	addi	t3,s10,-1
   11c44:	00048c93          	mv	s9,s1
   11c48:	400307b7          	lui	a5,0x40030
   11c4c:	09010593          	addi	a1,sp,144
   11c50:	08c12a23          	sw	a2,148(sp)
   11c54:	0a010513          	addi	a0,sp,160
   11c58:	08010613          	addi	a2,sp,128
   11c5c:	05c12c23          	sw	t3,88(sp)
   11c60:	09012823          	sw	a6,144(sp)
   11c64:	08d12c23          	sw	a3,152(sp)
   11c68:	09b12e23          	sw	s11,156(sp)
   11c6c:	08f12623          	sw	a5,140(sp)
   11c70:	08012023          	sw	zero,128(sp)
   11c74:	08012223          	sw	zero,132(sp)
   11c78:	08012423          	sw	zero,136(sp)
   11c7c:	5890b0ef          	jal	ra,1da04 <__multf3>
   11c80:	0a012603          	lw	a2,160(sp)
   11c84:	0a412683          	lw	a3,164(sp)
   11c88:	0a812783          	lw	a5,168(sp)
   11c8c:	0a010513          	addi	a0,sp,160
   11c90:	04c12a23          	sw	a2,84(sp)
   11c94:	04d12823          	sw	a3,80(sp)
   11c98:	04f12423          	sw	a5,72(sp)
   11c9c:	2880e0ef          	jal	ra,1ff24 <__fixtfsi>
   11ca0:	00050593          	mv	a1,a0
   11ca4:	00050a93          	mv	s5,a0
   11ca8:	0a010513          	addi	a0,sp,160
   11cac:	0ac12d83          	lw	s11,172(sp)
   11cb0:	3c40e0ef          	jal	ra,20074 <__floatsitf>
   11cb4:	04812783          	lw	a5,72(sp)
   11cb8:	05412603          	lw	a2,84(sp)
   11cbc:	05012683          	lw	a3,80(sp)
   11cc0:	08f12423          	sw	a5,136(sp)
   11cc4:	0a012783          	lw	a5,160(sp)
   11cc8:	08c12023          	sw	a2,128(sp)
   11ccc:	08010593          	addi	a1,sp,128
   11cd0:	06f12823          	sw	a5,112(sp)
   11cd4:	0a412783          	lw	a5,164(sp)
   11cd8:	07010613          	addi	a2,sp,112
   11cdc:	09010513          	addi	a0,sp,144
   11ce0:	06f12a23          	sw	a5,116(sp)
   11ce4:	0a812783          	lw	a5,168(sp)
   11ce8:	09b12623          	sw	s11,140(sp)
   11cec:	08d12223          	sw	a3,132(sp)
   11cf0:	06f12c23          	sw	a5,120(sp)
   11cf4:	0ac12783          	lw	a5,172(sp)
   11cf8:	001c8c93          	addi	s9,s9,1
   11cfc:	06f12e23          	sw	a5,124(sp)
   11d00:	50d0c0ef          	jal	ra,1ea0c <__subtf3>
   11d04:	015a05b3          	add	a1,s4,s5
   11d08:	0005c583          	lbu	a1,0(a1)
   11d0c:	05812e03          	lw	t3,88(sp)
   11d10:	09c12e83          	lw	t4,156(sp)
   11d14:	09012283          	lw	t0,144(sp)
   11d18:	09412f83          	lw	t6,148(sp)
   11d1c:	09812f03          	lw	t5,152(sp)
   11d20:	05c12423          	sw	t3,72(sp)
   11d24:	febc8fa3          	sb	a1,-1(s9)
   11d28:	fff00793          	li	a5,-1
   11d2c:	000e8d93          	mv	s11,t4
   11d30:	06fe0c63          	beq	t3,a5,11da8 <_vfprintf_r+0xbb0>
   11d34:	fffe0e13          	addi	t3,t3,-1
   11d38:	09010593          	addi	a1,sp,144
   11d3c:	0a010513          	addi	a0,sp,160
   11d40:	07d12623          	sw	t4,108(sp)
   11d44:	07e12423          	sw	t5,104(sp)
   11d48:	07f12223          	sw	t6,100(sp)
   11d4c:	06512023          	sw	t0,96(sp)
   11d50:	05c12e23          	sw	t3,92(sp)
   11d54:	0a512023          	sw	t0,160(sp)
   11d58:	04512c23          	sw	t0,88(sp)
   11d5c:	0bf12223          	sw	t6,164(sp)
   11d60:	05f12a23          	sw	t6,84(sp)
   11d64:	0be12423          	sw	t5,168(sp)
   11d68:	05e12823          	sw	t5,80(sp)
   11d6c:	0bd12623          	sw	t4,172(sp)
   11d70:	08012823          	sw	zero,144(sp)
   11d74:	08012a23          	sw	zero,148(sp)
   11d78:	08012c23          	sw	zero,152(sp)
   11d7c:	08012e23          	sw	zero,156(sp)
   11d80:	1290b0ef          	jal	ra,1d6a8 <__eqtf2>
   11d84:	05012683          	lw	a3,80(sp)
   11d88:	05412603          	lw	a2,84(sp)
   11d8c:	05812803          	lw	a6,88(sp)
   11d90:	05c12e03          	lw	t3,92(sp)
   11d94:	06012283          	lw	t0,96(sp)
   11d98:	06412f83          	lw	t6,100(sp)
   11d9c:	06812f03          	lw	t5,104(sp)
   11da0:	06c12e83          	lw	t4,108(sp)
   11da4:	ea0512e3          	bnez	a0,11c48 <_vfprintf_r+0xa50>
   11da8:	3ffe0db7          	lui	s11,0x3ffe0
   11dac:	09010593          	addi	a1,sp,144
   11db0:	0a010513          	addi	a0,sp,160
   11db4:	0a512023          	sw	t0,160(sp)
   11db8:	04512e23          	sw	t0,92(sp)
   11dbc:	0bf12223          	sw	t6,164(sp)
   11dc0:	05f12c23          	sw	t6,88(sp)
   11dc4:	0be12423          	sw	t5,168(sp)
   11dc8:	05e12a23          	sw	t5,84(sp)
   11dcc:	0bd12623          	sw	t4,172(sp)
   11dd0:	05d12823          	sw	t4,80(sp)
   11dd4:	08012823          	sw	zero,144(sp)
   11dd8:	08012a23          	sw	zero,148(sp)
   11ddc:	08012c23          	sw	zero,152(sp)
   11de0:	09b12e23          	sw	s11,156(sp)
   11de4:	1910b0ef          	jal	ra,1d774 <__getf2>
   11de8:	04a04663          	bgtz	a0,11e34 <_vfprintf_r+0xc3c>
   11dec:	05c12283          	lw	t0,92(sp)
   11df0:	05812f83          	lw	t6,88(sp)
   11df4:	05412f03          	lw	t5,84(sp)
   11df8:	05012e83          	lw	t4,80(sp)
   11dfc:	09010593          	addi	a1,sp,144
   11e00:	0a010513          	addi	a0,sp,160
   11e04:	0a512023          	sw	t0,160(sp)
   11e08:	0bf12223          	sw	t6,164(sp)
   11e0c:	0be12423          	sw	t5,168(sp)
   11e10:	0bd12623          	sw	t4,172(sp)
   11e14:	08012823          	sw	zero,144(sp)
   11e18:	08012a23          	sw	zero,148(sp)
   11e1c:	08012c23          	sw	zero,152(sp)
   11e20:	09b12e23          	sw	s11,156(sp)
   11e24:	0850b0ef          	jal	ra,1d6a8 <__eqtf2>
   11e28:	18051c63          	bnez	a0,11fc0 <_vfprintf_r+0xdc8>
   11e2c:	001afa93          	andi	s5,s5,1
   11e30:	180a8863          	beqz	s5,11fc0 <_vfprintf_r+0xdc8>
   11e34:	00fa4603          	lbu	a2,15(s4)
   11e38:	0d912623          	sw	s9,204(sp)
   11e3c:	03000593          	li	a1,48
   11e40:	0cc12683          	lw	a3,204(sp)
   11e44:	fff68793          	addi	a5,a3,-1
   11e48:	0cf12623          	sw	a5,204(sp)
   11e4c:	fff6c783          	lbu	a5,-1(a3)
   11e50:	14c78463          	beq	a5,a2,11f98 <_vfprintf_r+0xda0>
   11e54:	03900613          	li	a2,57
   11e58:	14c79463          	bne	a5,a2,11fa0 <_vfprintf_r+0xda8>
   11e5c:	00aa4783          	lbu	a5,10(s4)
   11e60:	fef68fa3          	sb	a5,-1(a3)
   11e64:	000c8a13          	mv	s4,s9
   11e68:	04700713          	li	a4,71
   11e6c:	409a0a33          	sub	s4,s4,s1
   11e70:	0bc12d83          	lw	s11,188(sp)
   11e74:	2aec1063          	bne	s8,a4,12114 <_vfprintf_r+0xf1c>
   11e78:	ffd00713          	li	a4,-3
   11e7c:	00edc463          	blt	s11,a4,11e84 <_vfprintf_r+0xc8c>
   11e80:	31bd5a63          	ble	s11,s10,12194 <_vfprintf_r+0xf9c>
   11e84:	ffeb0b13          	addi	s6,s6,-2
   11e88:	fffd8693          	addi	a3,s11,-1 # 3ffdffff <_end+0x3ffb9b1f>
   11e8c:	0ad12e23          	sw	a3,188(sp)
   11e90:	fdfb7613          	andi	a2,s6,-33
   11e94:	04100513          	li	a0,65
   11e98:	0ffb7713          	andi	a4,s6,255
   11e9c:	00000593          	li	a1,0
   11ea0:	00a61863          	bne	a2,a0,11eb0 <_vfprintf_r+0xcb8>
   11ea4:	00f70713          	addi	a4,a4,15
   11ea8:	0ff77713          	andi	a4,a4,255
   11eac:	00100593          	li	a1,1
   11eb0:	0ce10223          	sb	a4,196(sp)
   11eb4:	02b00793          	li	a5,43
   11eb8:	0006d863          	bgez	a3,11ec8 <_vfprintf_r+0xcd0>
   11ebc:	00100693          	li	a3,1
   11ec0:	41b686b3          	sub	a3,a3,s11
   11ec4:	02d00793          	li	a5,45
   11ec8:	0cf102a3          	sb	a5,197(sp)
   11ecc:	00900793          	li	a5,9
   11ed0:	28d7d863          	ble	a3,a5,12160 <_vfprintf_r+0xf68>
   11ed4:	0d310713          	addi	a4,sp,211
   11ed8:	00070513          	mv	a0,a4
   11edc:	00a00593          	li	a1,10
   11ee0:	06300813          	li	a6,99
   11ee4:	02b6e7b3          	rem	a5,a3,a1
   11ee8:	fff70613          	addi	a2,a4,-1
   11eec:	03078793          	addi	a5,a5,48 # 40030030 <_end+0x40009b50>
   11ef0:	fef70fa3          	sb	a5,-1(a4)
   11ef4:	02b6c7b3          	div	a5,a3,a1
   11ef8:	24d84463          	blt	a6,a3,12140 <_vfprintf_r+0xf48>
   11efc:	03078793          	addi	a5,a5,48
   11f00:	fef60fa3          	sb	a5,-1(a2)
   11f04:	ffe70713          	addi	a4,a4,-2
   11f08:	0c610613          	addi	a2,sp,198
   11f0c:	24a76063          	bltu	a4,a0,1214c <_vfprintf_r+0xf54>
   11f10:	0c410793          	addi	a5,sp,196
   11f14:	40f607b3          	sub	a5,a2,a5
   11f18:	02f12e23          	sw	a5,60(sp)
   11f1c:	01478d33          	add	s10,a5,s4
   11f20:	00100793          	li	a5,1
   11f24:	0147c663          	blt	a5,s4,11f30 <_vfprintf_r+0xd38>
   11f28:	00147793          	andi	a5,s0,1
   11f2c:	00078663          	beqz	a5,11f38 <_vfprintf_r+0xd40>
   11f30:	02012783          	lw	a5,32(sp)
   11f34:	00fd0d33          	add	s10,s10,a5
   11f38:	bff47413          	andi	s0,s0,-1025
   11f3c:	10046793          	ori	a5,s0,256
   11f40:	02f12623          	sw	a5,44(sp)
   11f44:	00000c93          	li	s9,0
   11f48:	00000c13          	li	s8,0
   11f4c:	00000d93          	li	s11,0
   11f50:	04412783          	lw	a5,68(sp)
   11f54:	00078663          	beqz	a5,11f60 <_vfprintf_r+0xd68>
   11f58:	02d00713          	li	a4,45
   11f5c:	0ae10ba3          	sb	a4,183(sp)
   11f60:	02c12403          	lw	s0,44(sp)
   11f64:	00000a93          	li	s5,0
   11f68:	eacff06f          	j	11614 <_vfprintf_r+0x41c>
   11f6c:	00012623          	sw	zero,12(sp)
   11f70:	13c10493          	addi	s1,sp,316
   11f74:	bb1ff06f          	j	11b24 <_vfprintf_r+0x92c>
   11f78:	00a12623          	sw	a0,12(sp)
   11f7c:	ba9ff06f          	j	11b24 <_vfprintf_r+0x92c>
   11f80:	00012623          	sw	zero,12(sp)
   11f84:	00600d13          	li	s10,6
   11f88:	b9dff06f          	j	11b24 <_vfprintf_r+0x92c>
   11f8c:	00021a37          	lui	s4,0x21
   11f90:	71ca0a13          	addi	s4,s4,1820 # 2171c <zeroes.4514+0x20>
   11f94:	cadff06f          	j	11c40 <_vfprintf_r+0xa48>
   11f98:	feb68fa3          	sb	a1,-1(a3)
   11f9c:	ea5ff06f          	j	11e40 <_vfprintf_r+0xc48>
   11fa0:	00178793          	addi	a5,a5,1
   11fa4:	0ff7f793          	andi	a5,a5,255
   11fa8:	eb9ff06f          	j	11e60 <_vfprintf_r+0xc68>
   11fac:	001a0a13          	addi	s4,s4,1
   11fb0:	feea0fa3          	sb	a4,-1(s4)
   11fb4:	414c87b3          	sub	a5,s9,s4
   11fb8:	fe07dae3          	bgez	a5,11fac <_vfprintf_r+0xdb4>
   11fbc:	eadff06f          	j	11e68 <_vfprintf_r+0xc70>
   11fc0:	04812783          	lw	a5,72(sp)
   11fc4:	000c8a13          	mv	s4,s9
   11fc8:	03000713          	li	a4,48
   11fcc:	00fc8cb3          	add	s9,s9,a5
   11fd0:	fe5ff06f          	j	11fb4 <_vfprintf_r+0xdbc>
   11fd4:	04600793          	li	a5,70
   11fd8:	00fc0e63          	beq	s8,a5,11ff4 <_vfprintf_r+0xdfc>
   11fdc:	04500793          	li	a5,69
   11fe0:	001d0a93          	addi	s5,s10,1
   11fe4:	00fc0463          	beq	s8,a5,11fec <_vfprintf_r+0xdf4>
   11fe8:	000d0a93          	mv	s5,s10
   11fec:	00200613          	li	a2,2
   11ff0:	00c0006f          	j	11ffc <_vfprintf_r+0xe04>
   11ff4:	000d0a93          	mv	s5,s10
   11ff8:	00300613          	li	a2,3
   11ffc:	0c010793          	addi	a5,sp,192
   12000:	0cc10813          	addi	a6,sp,204
   12004:	0bc10713          	addi	a4,sp,188
   12008:	000a8693          	mv	a3,s5
   1200c:	0a010593          	addi	a1,sp,160
   12010:	00098513          	mv	a0,s3
   12014:	0bd12023          	sw	t4,160(sp)
   12018:	05d12823          	sw	t4,80(sp)
   1201c:	0bc12223          	sw	t3,164(sp)
   12020:	05c12423          	sw	t3,72(sp)
   12024:	0bb12423          	sw	s11,168(sp)
   12028:	0b412623          	sw	s4,172(sp)
   1202c:	780030ef          	jal	ra,157ac <_ldtoa_r>
   12030:	04700793          	li	a5,71
   12034:	00050493          	mv	s1,a0
   12038:	04812e03          	lw	t3,72(sp)
   1203c:	05012e83          	lw	t4,80(sp)
   12040:	00fc1a63          	bne	s8,a5,12054 <_vfprintf_r+0xe5c>
   12044:	00147793          	andi	a5,s0,1
   12048:	00079663          	bnez	a5,12054 <_vfprintf_r+0xe5c>
   1204c:	0cc12a03          	lw	s4,204(sp)
   12050:	e19ff06f          	j	11e68 <_vfprintf_r+0xc70>
   12054:	04600793          	li	a5,70
   12058:	01548cb3          	add	s9,s1,s5
   1205c:	06fc1263          	bne	s8,a5,120c0 <_vfprintf_r+0xec8>
   12060:	0004c703          	lbu	a4,0(s1)
   12064:	03000793          	li	a5,48
   12068:	04f71863          	bne	a4,a5,120b8 <_vfprintf_r+0xec0>
   1206c:	09010593          	addi	a1,sp,144
   12070:	0a010513          	addi	a0,sp,160
   12074:	0bd12023          	sw	t4,160(sp)
   12078:	05d12823          	sw	t4,80(sp)
   1207c:	0bc12223          	sw	t3,164(sp)
   12080:	05c12423          	sw	t3,72(sp)
   12084:	0bb12423          	sw	s11,168(sp)
   12088:	0b412623          	sw	s4,172(sp)
   1208c:	08012823          	sw	zero,144(sp)
   12090:	08012a23          	sw	zero,148(sp)
   12094:	08012c23          	sw	zero,152(sp)
   12098:	08012e23          	sw	zero,156(sp)
   1209c:	60c0b0ef          	jal	ra,1d6a8 <__eqtf2>
   120a0:	04812e03          	lw	t3,72(sp)
   120a4:	05012e83          	lw	t4,80(sp)
   120a8:	00050863          	beqz	a0,120b8 <_vfprintf_r+0xec0>
   120ac:	00100793          	li	a5,1
   120b0:	41578ab3          	sub	s5,a5,s5
   120b4:	0b512e23          	sw	s5,188(sp)
   120b8:	0bc12783          	lw	a5,188(sp)
   120bc:	00fc8cb3          	add	s9,s9,a5
   120c0:	09010593          	addi	a1,sp,144
   120c4:	0a010513          	addi	a0,sp,160
   120c8:	0bd12023          	sw	t4,160(sp)
   120cc:	0bc12223          	sw	t3,164(sp)
   120d0:	0bb12423          	sw	s11,168(sp)
   120d4:	0b412623          	sw	s4,172(sp)
   120d8:	08012823          	sw	zero,144(sp)
   120dc:	08012a23          	sw	zero,148(sp)
   120e0:	08012c23          	sw	zero,152(sp)
   120e4:	08012e23          	sw	zero,156(sp)
   120e8:	5c00b0ef          	jal	ra,1d6a8 <__eqtf2>
   120ec:	00051463          	bnez	a0,120f4 <_vfprintf_r+0xefc>
   120f0:	0d912623          	sw	s9,204(sp)
   120f4:	03000713          	li	a4,48
   120f8:	0100006f          	j	12108 <_vfprintf_r+0xf10>
   120fc:	00178693          	addi	a3,a5,1
   12100:	0cd12623          	sw	a3,204(sp)
   12104:	00e78023          	sb	a4,0(a5)
   12108:	0cc12783          	lw	a5,204(sp)
   1210c:	ff97e8e3          	bltu	a5,s9,120fc <_vfprintf_r+0xf04>
   12110:	f3dff06f          	j	1204c <_vfprintf_r+0xe54>
   12114:	04600713          	li	a4,70
   12118:	d6ec18e3          	bne	s8,a4,11e88 <_vfprintf_r+0xc90>
   1211c:	00147713          	andi	a4,s0,1
   12120:	01a76733          	or	a4,a4,s10
   12124:	07b05063          	blez	s11,12184 <_vfprintf_r+0xf8c>
   12128:	0c070063          	beqz	a4,121e8 <_vfprintf_r+0xff0>
   1212c:	02012783          	lw	a5,32(sp)
   12130:	00fd8733          	add	a4,s11,a5
   12134:	00ed0d33          	add	s10,s10,a4
   12138:	06600b13          	li	s6,102
   1213c:	0900006f          	j	121cc <_vfprintf_r+0xfd4>
   12140:	00060713          	mv	a4,a2
   12144:	00078693          	mv	a3,a5
   12148:	d9dff06f          	j	11ee4 <_vfprintf_r+0xcec>
   1214c:	00170713          	addi	a4,a4,1
   12150:	fff74783          	lbu	a5,-1(a4)
   12154:	00160613          	addi	a2,a2,1
   12158:	fef60fa3          	sb	a5,-1(a2)
   1215c:	db1ff06f          	j	11f0c <_vfprintf_r+0xd14>
   12160:	0c610713          	addi	a4,sp,198
   12164:	00059863          	bnez	a1,12174 <_vfprintf_r+0xf7c>
   12168:	03000793          	li	a5,48
   1216c:	0cf10323          	sb	a5,198(sp)
   12170:	0c710713          	addi	a4,sp,199
   12174:	03068793          	addi	a5,a3,48
   12178:	00170613          	addi	a2,a4,1
   1217c:	00f70023          	sb	a5,0(a4)
   12180:	d91ff06f          	j	11f10 <_vfprintf_r+0xd18>
   12184:	06070663          	beqz	a4,121f0 <_vfprintf_r+0xff8>
   12188:	02012783          	lw	a5,32(sp)
   1218c:	00178713          	addi	a4,a5,1
   12190:	fa5ff06f          	j	12134 <_vfprintf_r+0xf3c>
   12194:	034dc063          	blt	s11,s4,121b4 <_vfprintf_r+0xfbc>
   12198:	00147713          	andi	a4,s0,1
   1219c:	000d8d13          	mv	s10,s11
   121a0:	00070663          	beqz	a4,121ac <_vfprintf_r+0xfb4>
   121a4:	02012783          	lw	a5,32(sp)
   121a8:	00fd8d33          	add	s10,s11,a5
   121ac:	06700b13          	li	s6,103
   121b0:	01c0006f          	j	121cc <_vfprintf_r+0xfd4>
   121b4:	02012783          	lw	a5,32(sp)
   121b8:	06700b13          	li	s6,103
   121bc:	00fa0d33          	add	s10,s4,a5
   121c0:	01b04663          	bgtz	s11,121cc <_vfprintf_r+0xfd4>
   121c4:	41bd0333          	sub	t1,s10,s11
   121c8:	00130d13          	addi	s10,t1,1
   121cc:	40047c13          	andi	s8,s0,1024
   121d0:	00000c93          	li	s9,0
   121d4:	d60c0ee3          	beqz	s8,11f50 <_vfprintf_r+0xd58>
   121d8:	00000c13          	li	s8,0
   121dc:	d7b05ae3          	blez	s11,11f50 <_vfprintf_r+0xd58>
   121e0:	0ff00693          	li	a3,255
   121e4:	0380006f          	j	1221c <_vfprintf_r+0x1024>
   121e8:	000d8d13          	mv	s10,s11
   121ec:	f4dff06f          	j	12138 <_vfprintf_r+0xf40>
   121f0:	06600b13          	li	s6,102
   121f4:	00100d13          	li	s10,1
   121f8:	fd5ff06f          	j	121cc <_vfprintf_r+0xfd4>
   121fc:	03b75663          	ble	s11,a4,12228 <_vfprintf_r+0x1030>
   12200:	01012783          	lw	a5,16(sp)
   12204:	40ed8db3          	sub	s11,s11,a4
   12208:	0017c703          	lbu	a4,1(a5)
   1220c:	02070863          	beqz	a4,1223c <_vfprintf_r+0x1044>
   12210:	00178793          	addi	a5,a5,1
   12214:	001c0c13          	addi	s8,s8,1
   12218:	00f12823          	sw	a5,16(sp)
   1221c:	01012783          	lw	a5,16(sp)
   12220:	0007c703          	lbu	a4,0(a5)
   12224:	fcd71ce3          	bne	a4,a3,121fc <_vfprintf_r+0x1004>
   12228:	03012783          	lw	a5,48(sp)
   1222c:	019c0733          	add	a4,s8,s9
   12230:	02f70733          	mul	a4,a4,a5
   12234:	01a70d33          	add	s10,a4,s10
   12238:	d19ff06f          	j	11f50 <_vfprintf_r+0xd58>
   1223c:	001c8c93          	addi	s9,s9,1
   12240:	fddff06f          	j	1221c <_vfprintf_r+0x1024>
   12244:	004a8713          	addi	a4,s5,4
   12248:	00e12c23          	sw	a4,24(sp)
   1224c:	02047713          	andi	a4,s0,32
   12250:	000aa783          	lw	a5,0(s5)
   12254:	02070063          	beqz	a4,12274 <_vfprintf_r+0x107c>
   12258:	02412703          	lw	a4,36(sp)
   1225c:	00e7a023          	sw	a4,0(a5)
   12260:	41f75713          	srai	a4,a4,0x1f
   12264:	00e7a223          	sw	a4,4(a5)
   12268:	01812a83          	lw	s5,24(sp)
   1226c:	01c12483          	lw	s1,28(sp)
   12270:	920ff06f          	j	11390 <_vfprintf_r+0x198>
   12274:	01047713          	andi	a4,s0,16
   12278:	00070863          	beqz	a4,12288 <_vfprintf_r+0x1090>
   1227c:	02412703          	lw	a4,36(sp)
   12280:	00e7a023          	sw	a4,0(a5)
   12284:	fe5ff06f          	j	12268 <_vfprintf_r+0x1070>
   12288:	04047713          	andi	a4,s0,64
   1228c:	00070863          	beqz	a4,1229c <_vfprintf_r+0x10a4>
   12290:	02412703          	lw	a4,36(sp)
   12294:	00e79023          	sh	a4,0(a5)
   12298:	fd1ff06f          	j	12268 <_vfprintf_r+0x1070>
   1229c:	20047413          	andi	s0,s0,512
   122a0:	fc040ee3          	beqz	s0,1227c <_vfprintf_r+0x1084>
   122a4:	02412703          	lw	a4,36(sp)
   122a8:	00e78023          	sb	a4,0(a5)
   122ac:	fbdff06f          	j	12268 <_vfprintf_r+0x1070>
   122b0:	01046413          	ori	s0,s0,16
   122b4:	02047793          	andi	a5,s0,32
   122b8:	02078663          	beqz	a5,122e4 <_vfprintf_r+0x10ec>
   122bc:	007a8a93          	addi	s5,s5,7
   122c0:	ff8afa93          	andi	s5,s5,-8
   122c4:	000aad83          	lw	s11,0(s5)
   122c8:	004aac83          	lw	s9,4(s5)
   122cc:	008a8793          	addi	a5,s5,8
   122d0:	00f12c23          	sw	a5,24(sp)
   122d4:	bff47413          	andi	s0,s0,-1025
   122d8:	00000793          	li	a5,0
   122dc:	0a010ba3          	sb	zero,183(sp)
   122e0:	e18ff06f          	j	118f8 <_vfprintf_r+0x700>
   122e4:	004a8793          	addi	a5,s5,4
   122e8:	00f12c23          	sw	a5,24(sp)
   122ec:	01047793          	andi	a5,s0,16
   122f0:	00078663          	beqz	a5,122fc <_vfprintf_r+0x1104>
   122f4:	000aad83          	lw	s11,0(s5)
   122f8:	0100006f          	j	12308 <_vfprintf_r+0x1110>
   122fc:	04047793          	andi	a5,s0,64
   12300:	00078863          	beqz	a5,12310 <_vfprintf_r+0x1118>
   12304:	000add83          	lhu	s11,0(s5)
   12308:	00000c93          	li	s9,0
   1230c:	fc9ff06f          	j	122d4 <_vfprintf_r+0x10dc>
   12310:	20047793          	andi	a5,s0,512
   12314:	fe0780e3          	beqz	a5,122f4 <_vfprintf_r+0x10fc>
   12318:	000acd83          	lbu	s11,0(s5)
   1231c:	fedff06f          	j	12308 <_vfprintf_r+0x1110>
   12320:	004a8793          	addi	a5,s5,4
   12324:	00f12c23          	sw	a5,24(sp)
   12328:	ffff87b7          	lui	a5,0xffff8
   1232c:	8307c793          	xori	a5,a5,-2000
   12330:	0af11c23          	sh	a5,184(sp)
   12334:	000217b7          	lui	a5,0x21
   12338:	71c78793          	addi	a5,a5,1820 # 2171c <zeroes.4514+0x20>
   1233c:	04f12023          	sw	a5,64(sp)
   12340:	000aad83          	lw	s11,0(s5)
   12344:	00000c93          	li	s9,0
   12348:	00246413          	ori	s0,s0,2
   1234c:	00200793          	li	a5,2
   12350:	07800b13          	li	s6,120
   12354:	f89ff06f          	j	122dc <_vfprintf_r+0x10e4>
   12358:	004a8793          	addi	a5,s5,4
   1235c:	00f12c23          	sw	a5,24(sp)
   12360:	0a010ba3          	sb	zero,183(sp)
   12364:	fff00793          	li	a5,-1
   12368:	000aa483          	lw	s1,0(s5)
   1236c:	02fd0463          	beq	s10,a5,12394 <_vfprintf_r+0x119c>
   12370:	000d0613          	mv	a2,s10
   12374:	00000593          	li	a1,0
   12378:	00048513          	mv	a0,s1
   1237c:	390040ef          	jal	ra,1670c <memchr>
   12380:	00a12623          	sw	a0,12(sp)
   12384:	e8050863          	beqz	a0,11a14 <_vfprintf_r+0x81c>
   12388:	40950d33          	sub	s10,a0,s1
   1238c:	00012623          	sw	zero,12(sp)
   12390:	e84ff06f          	j	11a14 <_vfprintf_r+0x81c>
   12394:	00048513          	mv	a0,s1
   12398:	e45fe0ef          	jal	ra,111dc <strlen>
   1239c:	00050d13          	mv	s10,a0
   123a0:	fedff06f          	j	1238c <_vfprintf_r+0x1194>
   123a4:	01046413          	ori	s0,s0,16
   123a8:	02047793          	andi	a5,s0,32
   123ac:	02078263          	beqz	a5,123d0 <_vfprintf_r+0x11d8>
   123b0:	007a8a93          	addi	s5,s5,7
   123b4:	ff8afa93          	andi	s5,s5,-8
   123b8:	000aad83          	lw	s11,0(s5)
   123bc:	004aac83          	lw	s9,4(s5)
   123c0:	008a8793          	addi	a5,s5,8
   123c4:	00f12c23          	sw	a5,24(sp)
   123c8:	00100793          	li	a5,1
   123cc:	f11ff06f          	j	122dc <_vfprintf_r+0x10e4>
   123d0:	004a8793          	addi	a5,s5,4
   123d4:	00f12c23          	sw	a5,24(sp)
   123d8:	01047793          	andi	a5,s0,16
   123dc:	00078663          	beqz	a5,123e8 <_vfprintf_r+0x11f0>
   123e0:	000aad83          	lw	s11,0(s5)
   123e4:	0100006f          	j	123f4 <_vfprintf_r+0x11fc>
   123e8:	04047793          	andi	a5,s0,64
   123ec:	00078863          	beqz	a5,123fc <_vfprintf_r+0x1204>
   123f0:	000add83          	lhu	s11,0(s5)
   123f4:	00000c93          	li	s9,0
   123f8:	fd1ff06f          	j	123c8 <_vfprintf_r+0x11d0>
   123fc:	20047793          	andi	a5,s0,512
   12400:	fe0780e3          	beqz	a5,123e0 <_vfprintf_r+0x11e8>
   12404:	000acd83          	lbu	s11,0(s5)
   12408:	fedff06f          	j	123f4 <_vfprintf_r+0x11fc>
   1240c:	000217b7          	lui	a5,0x21
   12410:	73078793          	addi	a5,a5,1840 # 21730 <zeroes.4514+0x34>
   12414:	04f12023          	sw	a5,64(sp)
   12418:	02047793          	andi	a5,s0,32
   1241c:	04078a63          	beqz	a5,12470 <_vfprintf_r+0x1278>
   12420:	007a8a93          	addi	s5,s5,7
   12424:	ff8afa93          	andi	s5,s5,-8
   12428:	000aad83          	lw	s11,0(s5)
   1242c:	004aac83          	lw	s9,4(s5)
   12430:	008a8793          	addi	a5,s5,8
   12434:	00f12c23          	sw	a5,24(sp)
   12438:	00147793          	andi	a5,s0,1
   1243c:	00078e63          	beqz	a5,12458 <_vfprintf_r+0x1260>
   12440:	019de7b3          	or	a5,s11,s9
   12444:	00078a63          	beqz	a5,12458 <_vfprintf_r+0x1260>
   12448:	03000793          	li	a5,48
   1244c:	0af10c23          	sb	a5,184(sp)
   12450:	0b610ca3          	sb	s6,185(sp)
   12454:	00246413          	ori	s0,s0,2
   12458:	bff47413          	andi	s0,s0,-1025
   1245c:	00200793          	li	a5,2
   12460:	e7dff06f          	j	122dc <_vfprintf_r+0x10e4>
   12464:	000217b7          	lui	a5,0x21
   12468:	71c78793          	addi	a5,a5,1820 # 2171c <zeroes.4514+0x20>
   1246c:	fa9ff06f          	j	12414 <_vfprintf_r+0x121c>
   12470:	004a8793          	addi	a5,s5,4
   12474:	00f12c23          	sw	a5,24(sp)
   12478:	01047793          	andi	a5,s0,16
   1247c:	00078663          	beqz	a5,12488 <_vfprintf_r+0x1290>
   12480:	000aad83          	lw	s11,0(s5)
   12484:	0100006f          	j	12494 <_vfprintf_r+0x129c>
   12488:	04047793          	andi	a5,s0,64
   1248c:	00078863          	beqz	a5,1249c <_vfprintf_r+0x12a4>
   12490:	000add83          	lhu	s11,0(s5)
   12494:	00000c93          	li	s9,0
   12498:	fa1ff06f          	j	12438 <_vfprintf_r+0x1240>
   1249c:	20047793          	andi	a5,s0,512
   124a0:	fe0780e3          	beqz	a5,12480 <_vfprintf_r+0x1288>
   124a4:	000acd83          	lbu	s11,0(s5)
   124a8:	fedff06f          	j	12494 <_vfprintf_r+0x129c>
   124ac:	00040713          	mv	a4,s0
   124b0:	00100793          	li	a5,1
   124b4:	c50ff06f          	j	11904 <_vfprintf_r+0x70c>
   124b8:	00100713          	li	a4,1
   124bc:	48e78ce3          	beq	a5,a4,13154 <_vfprintf_r+0x1f5c>
   124c0:	00200713          	li	a4,2
   124c4:	12e78a63          	beq	a5,a4,125f8 <_vfprintf_r+0x1400>
   124c8:	1a010793          	addi	a5,sp,416
   124cc:	01dc9693          	slli	a3,s9,0x1d
   124d0:	007df713          	andi	a4,s11,7
   124d4:	003ddd93          	srli	s11,s11,0x3
   124d8:	03070713          	addi	a4,a4,48
   124dc:	01b6edb3          	or	s11,a3,s11
   124e0:	003cdc93          	srli	s9,s9,0x3
   124e4:	fee78fa3          	sb	a4,-1(a5)
   124e8:	019de6b3          	or	a3,s11,s9
   124ec:	fff78493          	addi	s1,a5,-1
   124f0:	02069e63          	bnez	a3,1252c <_vfprintf_r+0x1334>
   124f4:	00147693          	andi	a3,s0,1
   124f8:	00068a63          	beqz	a3,1250c <_vfprintf_r+0x1314>
   124fc:	03000693          	li	a3,48
   12500:	00d70663          	beq	a4,a3,1250c <_vfprintf_r+0x1314>
   12504:	fed48fa3          	sb	a3,-1(s1)
   12508:	ffe78493          	addi	s1,a5,-2
   1250c:	1a010793          	addi	a5,sp,416
   12510:	000d0a93          	mv	s5,s10
   12514:	00012623          	sw	zero,12(sp)
   12518:	40978d33          	sub	s10,a5,s1
   1251c:	00000c93          	li	s9,0
   12520:	00000c13          	li	s8,0
   12524:	00000d93          	li	s11,0
   12528:	8ecff06f          	j	11614 <_vfprintf_r+0x41c>
   1252c:	00048793          	mv	a5,s1
   12530:	f9dff06f          	j	124cc <_vfprintf_r+0x12d4>
   12534:	40047713          	andi	a4,s0,1024
   12538:	00000a13          	li	s4,0
   1253c:	1a010793          	addi	a5,sp,416
   12540:	00e12623          	sw	a4,12(sp)
   12544:	0ff00c13          	li	s8,255
   12548:	00900a93          	li	s5,9
   1254c:	00a00613          	li	a2,10
   12550:	00000693          	li	a3,0
   12554:	000d8513          	mv	a0,s11
   12558:	000c8593          	mv	a1,s9
   1255c:	fff78493          	addi	s1,a5,-1
   12560:	02f12623          	sw	a5,44(sp)
   12564:	0a40a0ef          	jal	ra,1c608 <__umoddi3>
   12568:	02c12783          	lw	a5,44(sp)
   1256c:	03050513          	addi	a0,a0,48
   12570:	001a0a13          	addi	s4,s4,1
   12574:	fea78fa3          	sb	a0,-1(a5)
   12578:	00c12783          	lw	a5,12(sp)
   1257c:	04078863          	beqz	a5,125cc <_vfprintf_r+0x13d4>
   12580:	01012783          	lw	a5,16(sp)
   12584:	0007c783          	lbu	a5,0(a5)
   12588:	04fa1263          	bne	s4,a5,125cc <_vfprintf_r+0x13d4>
   1258c:	058a0063          	beq	s4,s8,125cc <_vfprintf_r+0x13d4>
   12590:	000c9463          	bnez	s9,12598 <_vfprintf_r+0x13a0>
   12594:	03bafc63          	bleu	s11,s5,125cc <_vfprintf_r+0x13d4>
   12598:	03012783          	lw	a5,48(sp)
   1259c:	03812583          	lw	a1,56(sp)
   125a0:	00000a13          	li	s4,0
   125a4:	40f484b3          	sub	s1,s1,a5
   125a8:	00078613          	mv	a2,a5
   125ac:	00048513          	mv	a0,s1
   125b0:	2ad050ef          	jal	ra,1805c <strncpy>
   125b4:	01012783          	lw	a5,16(sp)
   125b8:	0017c783          	lbu	a5,1(a5)
   125bc:	00078863          	beqz	a5,125cc <_vfprintf_r+0x13d4>
   125c0:	01012783          	lw	a5,16(sp)
   125c4:	00178793          	addi	a5,a5,1
   125c8:	00f12823          	sw	a5,16(sp)
   125cc:	00a00613          	li	a2,10
   125d0:	00000693          	li	a3,0
   125d4:	000d8513          	mv	a0,s11
   125d8:	000c8593          	mv	a1,s9
   125dc:	3f9090ef          	jal	ra,1c1d4 <__udivdi3>
   125e0:	000c9463          	bnez	s9,125e8 <_vfprintf_r+0x13f0>
   125e4:	f3baf4e3          	bleu	s11,s5,1250c <_vfprintf_r+0x1314>
   125e8:	00050d93          	mv	s11,a0
   125ec:	00058c93          	mv	s9,a1
   125f0:	00048793          	mv	a5,s1
   125f4:	f59ff06f          	j	1254c <_vfprintf_r+0x1354>
   125f8:	1a010493          	addi	s1,sp,416
   125fc:	04012703          	lw	a4,64(sp)
   12600:	00fdf793          	andi	a5,s11,15
   12604:	fff48493          	addi	s1,s1,-1
   12608:	00f707b3          	add	a5,a4,a5
   1260c:	0007c783          	lbu	a5,0(a5)
   12610:	004ddd93          	srli	s11,s11,0x4
   12614:	00f48023          	sb	a5,0(s1)
   12618:	01cc9793          	slli	a5,s9,0x1c
   1261c:	01b7edb3          	or	s11,a5,s11
   12620:	004cdc93          	srli	s9,s9,0x4
   12624:	019de7b3          	or	a5,s11,s9
   12628:	fc079ae3          	bnez	a5,125fc <_vfprintf_r+0x1404>
   1262c:	ee1ff06f          	j	1250c <_vfprintf_r+0x1314>
   12630:	1a010493          	addi	s1,sp,416
   12634:	ec079ce3          	bnez	a5,1250c <_vfprintf_r+0x1314>
   12638:	00177713          	andi	a4,a4,1
   1263c:	ec0708e3          	beqz	a4,1250c <_vfprintf_r+0x1314>
   12640:	03000793          	li	a5,48
   12644:	18f10fa3          	sb	a5,415(sp)
   12648:	3210006f          	j	13168 <_vfprintf_r+0x1f70>
   1264c:	2e0b00e3          	beqz	s6,1312c <_vfprintf_r+0x1f34>
   12650:	13610e23          	sb	s6,316(sp)
   12654:	0a010ba3          	sb	zero,183(sp)
   12658:	01512c23          	sw	s5,24(sp)
   1265c:	f9dfe06f          	j	115f8 <_vfprintf_r+0x400>
   12660:	01060613          	addi	a2,a2,16
   12664:	01dba223          	sw	t4,4(s7)
   12668:	0cc12e23          	sw	a2,220(sp)
   1266c:	0cd12c23          	sw	a3,216(sp)
   12670:	02df5a63          	ble	a3,t5,126a4 <_vfprintf_r+0x14ac>
   12674:	0d410613          	addi	a2,sp,212
   12678:	00090593          	mv	a1,s2
   1267c:	00098513          	mv	a0,s3
   12680:	04e12823          	sw	a4,80(sp)
   12684:	12d070ef          	jal	ra,19fb0 <__sprint_r>
   12688:	240510e3          	bnez	a0,130c8 <_vfprintf_r+0x1ed0>
   1268c:	05012703          	lw	a4,80(sp)
   12690:	000217b7          	lui	a5,0x21
   12694:	0fc10593          	addi	a1,sp,252
   12698:	00700f13          	li	t5,7
   1269c:	6ec78e13          	addi	t3,a5,1772 # 216ec <blanks.4513>
   126a0:	01000e93          	li	t4,16
   126a4:	ff070713          	addi	a4,a4,-16
   126a8:	00058b93          	mv	s7,a1
   126ac:	fcdfe06f          	j	11678 <_vfprintf_r+0x480>
   126b0:	01070713          	addi	a4,a4,16
   126b4:	01cba223          	sw	t3,4(s7)
   126b8:	0ce12e23          	sw	a4,220(sp)
   126bc:	0cd12c23          	sw	a3,216(sp)
   126c0:	02ded663          	ble	a3,t4,126ec <_vfprintf_r+0x14f4>
   126c4:	0d410613          	addi	a2,sp,212
   126c8:	00090593          	mv	a1,s2
   126cc:	00098513          	mv	a0,s3
   126d0:	04f12223          	sw	a5,68(sp)
   126d4:	0dd070ef          	jal	ra,19fb0 <__sprint_r>
   126d8:	1e0518e3          	bnez	a0,130c8 <_vfprintf_r+0x1ed0>
   126dc:	04412783          	lw	a5,68(sp)
   126e0:	0fc10613          	addi	a2,sp,252
   126e4:	00700e93          	li	t4,7
   126e8:	01000e13          	li	t3,16
   126ec:	ff078793          	addi	a5,a5,-16
   126f0:	00060b93          	mv	s7,a2
   126f4:	8acff06f          	j	117a0 <_vfprintf_r+0x5a8>
   126f8:	01068693          	addi	a3,a3,16
   126fc:	010ba223          	sw	a6,4(s7)
   12700:	0cd12e23          	sw	a3,220(sp)
   12704:	0ce12c23          	sw	a4,216(sp)
   12708:	02ee5263          	ble	a4,t3,1272c <_vfprintf_r+0x1534>
   1270c:	0d410613          	addi	a2,sp,212
   12710:	00090593          	mv	a1,s2
   12714:	00098513          	mv	a0,s3
   12718:	099070ef          	jal	ra,19fb0 <__sprint_r>
   1271c:	1a0516e3          	bnez	a0,130c8 <_vfprintf_r+0x1ed0>
   12720:	0fc10613          	addi	a2,sp,252
   12724:	00700e13          	li	t3,7
   12728:	01000813          	li	a6,16
   1272c:	ff0a8a93          	addi	s5,s5,-16
   12730:	00060b93          	mv	s7,a2
   12734:	8d0ff06f          	j	11804 <_vfprintf_r+0x60c>
   12738:	06500693          	li	a3,101
   1273c:	7366d463          	ble	s6,a3,12e64 <_vfprintf_r+0x1c6c>
   12740:	0e012683          	lw	a3,224(sp)
   12744:	09010593          	addi	a1,sp,144
   12748:	0a010513          	addi	a0,sp,160
   1274c:	0ad12023          	sw	a3,160(sp)
   12750:	0e412683          	lw	a3,228(sp)
   12754:	04e12223          	sw	a4,68(sp)
   12758:	08012823          	sw	zero,144(sp)
   1275c:	0ad12223          	sw	a3,164(sp)
   12760:	0e812683          	lw	a3,232(sp)
   12764:	08012a23          	sw	zero,148(sp)
   12768:	08012c23          	sw	zero,152(sp)
   1276c:	0ad12423          	sw	a3,168(sp)
   12770:	0ec12683          	lw	a3,236(sp)
   12774:	08012e23          	sw	zero,156(sp)
   12778:	0ad12623          	sw	a3,172(sp)
   1277c:	72d0a0ef          	jal	ra,1d6a8 <__eqtf2>
   12780:	04412703          	lw	a4,68(sp)
   12784:	12051a63          	bnez	a0,128b8 <_vfprintf_r+0x16c0>
   12788:	000217b7          	lui	a5,0x21
   1278c:	74478793          	addi	a5,a5,1860 # 21744 <zeroes.4514+0x48>
   12790:	00fba023          	sw	a5,0(s7)
   12794:	00100793          	li	a5,1
   12798:	00fba223          	sw	a5,4(s7)
   1279c:	0d812783          	lw	a5,216(sp)
   127a0:	00170713          	addi	a4,a4,1
   127a4:	0ce12e23          	sw	a4,220(sp)
   127a8:	00178793          	addi	a5,a5,1
   127ac:	0cf12c23          	sw	a5,216(sp)
   127b0:	00700713          	li	a4,7
   127b4:	008b8b93          	addi	s7,s7,8
   127b8:	00f75e63          	ble	a5,a4,127d4 <_vfprintf_r+0x15dc>
   127bc:	0d410613          	addi	a2,sp,212
   127c0:	00090593          	mv	a1,s2
   127c4:	00098513          	mv	a0,s3
   127c8:	7e8070ef          	jal	ra,19fb0 <__sprint_r>
   127cc:	0e051ee3          	bnez	a0,130c8 <_vfprintf_r+0x1ed0>
   127d0:	0fc10b93          	addi	s7,sp,252
   127d4:	0bc12783          	lw	a5,188(sp)
   127d8:	0147c663          	blt	a5,s4,127e4 <_vfprintf_r+0x15ec>
   127dc:	00147793          	andi	a5,s0,1
   127e0:	22078063          	beqz	a5,12a00 <_vfprintf_r+0x1808>
   127e4:	03412783          	lw	a5,52(sp)
   127e8:	02012703          	lw	a4,32(sp)
   127ec:	008b8b93          	addi	s7,s7,8
   127f0:	fefbac23          	sw	a5,-8(s7)
   127f4:	02012783          	lw	a5,32(sp)
   127f8:	fefbae23          	sw	a5,-4(s7)
   127fc:	0dc12783          	lw	a5,220(sp)
   12800:	00e787b3          	add	a5,a5,a4
   12804:	0cf12e23          	sw	a5,220(sp)
   12808:	0d812783          	lw	a5,216(sp)
   1280c:	00700713          	li	a4,7
   12810:	00178793          	addi	a5,a5,1
   12814:	0cf12c23          	sw	a5,216(sp)
   12818:	00f75e63          	ble	a5,a4,12834 <_vfprintf_r+0x163c>
   1281c:	0d410613          	addi	a2,sp,212
   12820:	00090593          	mv	a1,s2
   12824:	00098513          	mv	a0,s3
   12828:	788070ef          	jal	ra,19fb0 <__sprint_r>
   1282c:	08051ee3          	bnez	a0,130c8 <_vfprintf_r+0x1ed0>
   12830:	0fc10b93          	addi	s7,sp,252
   12834:	fffa0493          	addi	s1,s4,-1
   12838:	1c905463          	blez	s1,12a00 <_vfprintf_r+0x1808>
   1283c:	01000a93          	li	s5,16
   12840:	00700b13          	li	s6,7
   12844:	01412603          	lw	a2,20(sp)
   12848:	0d812783          	lw	a5,216(sp)
   1284c:	0dc12703          	lw	a4,220(sp)
   12850:	00cba023          	sw	a2,0(s7)
   12854:	00178793          	addi	a5,a5,1
   12858:	008b8693          	addi	a3,s7,8
   1285c:	029ac263          	blt	s5,s1,12880 <_vfprintf_r+0x1688>
   12860:	009ba223          	sw	s1,4(s7)
   12864:	00e484b3          	add	s1,s1,a4
   12868:	0c912e23          	sw	s1,220(sp)
   1286c:	0cf12c23          	sw	a5,216(sp)
   12870:	00700713          	li	a4,7
   12874:	00068b93          	mv	s7,a3
   12878:	18f75463          	ble	a5,a4,12a00 <_vfprintf_r+0x1808>
   1287c:	814ff06f          	j	11890 <_vfprintf_r+0x698>
   12880:	01070713          	addi	a4,a4,16
   12884:	015ba223          	sw	s5,4(s7)
   12888:	0ce12e23          	sw	a4,220(sp)
   1288c:	0cf12c23          	sw	a5,216(sp)
   12890:	00fb5e63          	ble	a5,s6,128ac <_vfprintf_r+0x16b4>
   12894:	0d410613          	addi	a2,sp,212
   12898:	00090593          	mv	a1,s2
   1289c:	00098513          	mv	a0,s3
   128a0:	710070ef          	jal	ra,19fb0 <__sprint_r>
   128a4:	020512e3          	bnez	a0,130c8 <_vfprintf_r+0x1ed0>
   128a8:	0fc10693          	addi	a3,sp,252
   128ac:	ff048493          	addi	s1,s1,-16
   128b0:	00068b93          	mv	s7,a3
   128b4:	f91ff06f          	j	12844 <_vfprintf_r+0x164c>
   128b8:	0bc12683          	lw	a3,188(sp)
   128bc:	1cd04863          	bgtz	a3,12a8c <_vfprintf_r+0x1894>
   128c0:	000217b7          	lui	a5,0x21
   128c4:	74478793          	addi	a5,a5,1860 # 21744 <zeroes.4514+0x48>
   128c8:	00fba023          	sw	a5,0(s7)
   128cc:	00100793          	li	a5,1
   128d0:	00fba223          	sw	a5,4(s7)
   128d4:	0d812783          	lw	a5,216(sp)
   128d8:	00170713          	addi	a4,a4,1
   128dc:	0ce12e23          	sw	a4,220(sp)
   128e0:	00178793          	addi	a5,a5,1
   128e4:	0cf12c23          	sw	a5,216(sp)
   128e8:	00700713          	li	a4,7
   128ec:	008b8b93          	addi	s7,s7,8
   128f0:	00f75e63          	ble	a5,a4,1290c <_vfprintf_r+0x1714>
   128f4:	0d410613          	addi	a2,sp,212
   128f8:	00090593          	mv	a1,s2
   128fc:	00098513          	mv	a0,s3
   12900:	6b0070ef          	jal	ra,19fb0 <__sprint_r>
   12904:	7c051263          	bnez	a0,130c8 <_vfprintf_r+0x1ed0>
   12908:	0fc10b93          	addi	s7,sp,252
   1290c:	0bc12783          	lw	a5,188(sp)
   12910:	00147693          	andi	a3,s0,1
   12914:	0dc12703          	lw	a4,220(sp)
   12918:	00fa67b3          	or	a5,s4,a5
   1291c:	00d7e7b3          	or	a5,a5,a3
   12920:	0e078063          	beqz	a5,12a00 <_vfprintf_r+0x1808>
   12924:	03412783          	lw	a5,52(sp)
   12928:	008b8893          	addi	a7,s7,8
   1292c:	00fba023          	sw	a5,0(s7)
   12930:	02012783          	lw	a5,32(sp)
   12934:	00fba223          	sw	a5,4(s7)
   12938:	00e787b3          	add	a5,a5,a4
   1293c:	0cf12e23          	sw	a5,220(sp)
   12940:	0d812783          	lw	a5,216(sp)
   12944:	00700713          	li	a4,7
   12948:	00178793          	addi	a5,a5,1
   1294c:	0cf12c23          	sw	a5,216(sp)
   12950:	00f75e63          	ble	a5,a4,1296c <_vfprintf_r+0x1774>
   12954:	0d410613          	addi	a2,sp,212
   12958:	00090593          	mv	a1,s2
   1295c:	00098513          	mv	a0,s3
   12960:	650070ef          	jal	ra,19fb0 <__sprint_r>
   12964:	76051263          	bnez	a0,130c8 <_vfprintf_r+0x1ed0>
   12968:	0fc10893          	addi	a7,sp,252
   1296c:	0bc12a83          	lw	s5,188(sp)
   12970:	060ad063          	bgez	s5,129d0 <_vfprintf_r+0x17d8>
   12974:	41500ab3          	neg	s5,s5
   12978:	00088713          	mv	a4,a7
   1297c:	01000b13          	li	s6,16
   12980:	00700c13          	li	s8,7
   12984:	01412603          	lw	a2,20(sp)
   12988:	0d812783          	lw	a5,216(sp)
   1298c:	0dc12683          	lw	a3,220(sp)
   12990:	00c72023          	sw	a2,0(a4)
   12994:	00178793          	addi	a5,a5,1
   12998:	00888893          	addi	a7,a7,8
   1299c:	0b5b4c63          	blt	s6,s5,12a54 <_vfprintf_r+0x185c>
   129a0:	01572223          	sw	s5,4(a4)
   129a4:	00da8ab3          	add	s5,s5,a3
   129a8:	0d512e23          	sw	s5,220(sp)
   129ac:	0cf12c23          	sw	a5,216(sp)
   129b0:	00700713          	li	a4,7
   129b4:	00f75e63          	ble	a5,a4,129d0 <_vfprintf_r+0x17d8>
   129b8:	0d410613          	addi	a2,sp,212
   129bc:	00090593          	mv	a1,s2
   129c0:	00098513          	mv	a0,s3
   129c4:	5ec070ef          	jal	ra,19fb0 <__sprint_r>
   129c8:	70051063          	bnez	a0,130c8 <_vfprintf_r+0x1ed0>
   129cc:	0fc10893          	addi	a7,sp,252
   129d0:	0dc12783          	lw	a5,220(sp)
   129d4:	0098a023          	sw	s1,0(a7)
   129d8:	0148a223          	sw	s4,4(a7)
   129dc:	014787b3          	add	a5,a5,s4
   129e0:	0cf12e23          	sw	a5,220(sp)
   129e4:	0d812783          	lw	a5,216(sp)
   129e8:	00700713          	li	a4,7
   129ec:	00888b93          	addi	s7,a7,8
   129f0:	00178793          	addi	a5,a5,1
   129f4:	0cf12c23          	sw	a5,216(sp)
   129f8:	00f75463          	ble	a5,a4,12a00 <_vfprintf_r+0x1808>
   129fc:	e95fe06f          	j	11890 <_vfprintf_r+0x698>
   12a00:	00447413          	andi	s0,s0,4
   12a04:	66041263          	bnez	s0,13068 <_vfprintf_r+0x1e70>
   12a08:	02812b03          	lw	s6,40(sp)
   12a0c:	02c12783          	lw	a5,44(sp)
   12a10:	00fb5463          	ble	a5,s6,12a18 <_vfprintf_r+0x1820>
   12a14:	00078b13          	mv	s6,a5
   12a18:	02412783          	lw	a5,36(sp)
   12a1c:	016787b3          	add	a5,a5,s6
   12a20:	02f12223          	sw	a5,36(sp)
   12a24:	0dc12783          	lw	a5,220(sp)
   12a28:	00078c63          	beqz	a5,12a40 <_vfprintf_r+0x1848>
   12a2c:	0d410613          	addi	a2,sp,212
   12a30:	00090593          	mv	a1,s2
   12a34:	00098513          	mv	a0,s3
   12a38:	578070ef          	jal	ra,19fb0 <__sprint_r>
   12a3c:	68051663          	bnez	a0,130c8 <_vfprintf_r+0x1ed0>
   12a40:	00c12783          	lw	a5,12(sp)
   12a44:	0c012c23          	sw	zero,216(sp)
   12a48:	6c079a63          	bnez	a5,1311c <_vfprintf_r+0x1f24>
   12a4c:	0fc10b93          	addi	s7,sp,252
   12a50:	819ff06f          	j	12268 <_vfprintf_r+0x1070>
   12a54:	01068693          	addi	a3,a3,16
   12a58:	01672223          	sw	s6,4(a4)
   12a5c:	0cd12e23          	sw	a3,220(sp)
   12a60:	0cf12c23          	sw	a5,216(sp)
   12a64:	00fc5e63          	ble	a5,s8,12a80 <_vfprintf_r+0x1888>
   12a68:	0d410613          	addi	a2,sp,212
   12a6c:	00090593          	mv	a1,s2
   12a70:	00098513          	mv	a0,s3
   12a74:	53c070ef          	jal	ra,19fb0 <__sprint_r>
   12a78:	64051863          	bnez	a0,130c8 <_vfprintf_r+0x1ed0>
   12a7c:	0fc10893          	addi	a7,sp,252
   12a80:	ff0a8a93          	addi	s5,s5,-16
   12a84:	00088713          	mv	a4,a7
   12a88:	efdff06f          	j	12984 <_vfprintf_r+0x178c>
   12a8c:	000d8a93          	mv	s5,s11
   12a90:	01ba5463          	ble	s11,s4,12a98 <_vfprintf_r+0x18a0>
   12a94:	000a0a93          	mv	s5,s4
   12a98:	05505263          	blez	s5,12adc <_vfprintf_r+0x18e4>
   12a9c:	00ea8733          	add	a4,s5,a4
   12aa0:	0ce12e23          	sw	a4,220(sp)
   12aa4:	0d812703          	lw	a4,216(sp)
   12aa8:	009ba023          	sw	s1,0(s7)
   12aac:	015ba223          	sw	s5,4(s7)
   12ab0:	00170713          	addi	a4,a4,1
   12ab4:	0ce12c23          	sw	a4,216(sp)
   12ab8:	00700693          	li	a3,7
   12abc:	008b8b93          	addi	s7,s7,8
   12ac0:	00e6de63          	ble	a4,a3,12adc <_vfprintf_r+0x18e4>
   12ac4:	0d410613          	addi	a2,sp,212
   12ac8:	00090593          	mv	a1,s2
   12acc:	00098513          	mv	a0,s3
   12ad0:	4e0070ef          	jal	ra,19fb0 <__sprint_r>
   12ad4:	5e051a63          	bnez	a0,130c8 <_vfprintf_r+0x1ed0>
   12ad8:	0fc10b93          	addi	s7,sp,252
   12adc:	000ad463          	bgez	s5,12ae4 <_vfprintf_r+0x18ec>
   12ae0:	00000a93          	li	s5,0
   12ae4:	415d8ab3          	sub	s5,s11,s5
   12ae8:	05505e63          	blez	s5,12b44 <_vfprintf_r+0x194c>
   12aec:	01000b13          	li	s6,16
   12af0:	00700d13          	li	s10,7
   12af4:	01412783          	lw	a5,20(sp)
   12af8:	0d812703          	lw	a4,216(sp)
   12afc:	0dc12683          	lw	a3,220(sp)
   12b00:	00fba023          	sw	a5,0(s7)
   12b04:	00170713          	addi	a4,a4,1
   12b08:	008b8613          	addi	a2,s7,8
   12b0c:	195b4c63          	blt	s6,s5,12ca4 <_vfprintf_r+0x1aac>
   12b10:	015ba223          	sw	s5,4(s7)
   12b14:	00da8ab3          	add	s5,s5,a3
   12b18:	0d512e23          	sw	s5,220(sp)
   12b1c:	0ce12c23          	sw	a4,216(sp)
   12b20:	00700693          	li	a3,7
   12b24:	00060b93          	mv	s7,a2
   12b28:	00e6de63          	ble	a4,a3,12b44 <_vfprintf_r+0x194c>
   12b2c:	0d410613          	addi	a2,sp,212
   12b30:	00090593          	mv	a1,s2
   12b34:	00098513          	mv	a0,s3
   12b38:	478070ef          	jal	ra,19fb0 <__sprint_r>
   12b3c:	58051663          	bnez	a0,130c8 <_vfprintf_r+0x1ed0>
   12b40:	0fc10b93          	addi	s7,sp,252
   12b44:	40047793          	andi	a5,s0,1024
   12b48:	01b48ab3          	add	s5,s1,s11
   12b4c:	02078063          	beqz	a5,12b6c <_vfprintf_r+0x1974>
   12b50:	00700b13          	li	s6,7
   12b54:	01448d33          	add	s10,s1,s4
   12b58:	180c1263          	bnez	s8,12cdc <_vfprintf_r+0x1ae4>
   12b5c:	180c9263          	bnez	s9,12ce0 <_vfprintf_r+0x1ae8>
   12b60:	014487b3          	add	a5,s1,s4
   12b64:	0157f463          	bleu	s5,a5,12b6c <_vfprintf_r+0x1974>
   12b68:	00078a93          	mv	s5,a5
   12b6c:	0bc12783          	lw	a5,188(sp)
   12b70:	0147c663          	blt	a5,s4,12b7c <_vfprintf_r+0x1984>
   12b74:	00147793          	andi	a5,s0,1
   12b78:	04078a63          	beqz	a5,12bcc <_vfprintf_r+0x19d4>
   12b7c:	03412783          	lw	a5,52(sp)
   12b80:	02012703          	lw	a4,32(sp)
   12b84:	008b8b93          	addi	s7,s7,8
   12b88:	fefbac23          	sw	a5,-8(s7)
   12b8c:	02012783          	lw	a5,32(sp)
   12b90:	fefbae23          	sw	a5,-4(s7)
   12b94:	0dc12783          	lw	a5,220(sp)
   12b98:	00e787b3          	add	a5,a5,a4
   12b9c:	0cf12e23          	sw	a5,220(sp)
   12ba0:	0d812783          	lw	a5,216(sp)
   12ba4:	00700713          	li	a4,7
   12ba8:	00178793          	addi	a5,a5,1
   12bac:	0cf12c23          	sw	a5,216(sp)
   12bb0:	00f75e63          	ble	a5,a4,12bcc <_vfprintf_r+0x19d4>
   12bb4:	0d410613          	addi	a2,sp,212
   12bb8:	00090593          	mv	a1,s2
   12bbc:	00098513          	mv	a0,s3
   12bc0:	3f0070ef          	jal	ra,19fb0 <__sprint_r>
   12bc4:	50051263          	bnez	a0,130c8 <_vfprintf_r+0x1ed0>
   12bc8:	0fc10b93          	addi	s7,sp,252
   12bcc:	014484b3          	add	s1,s1,s4
   12bd0:	415487b3          	sub	a5,s1,s5
   12bd4:	0bc12483          	lw	s1,188(sp)
   12bd8:	409a04b3          	sub	s1,s4,s1
   12bdc:	0097d463          	ble	s1,a5,12be4 <_vfprintf_r+0x19ec>
   12be0:	00078493          	mv	s1,a5
   12be4:	04905463          	blez	s1,12c2c <_vfprintf_r+0x1a34>
   12be8:	0dc12783          	lw	a5,220(sp)
   12bec:	015ba023          	sw	s5,0(s7)
   12bf0:	009ba223          	sw	s1,4(s7)
   12bf4:	00f487b3          	add	a5,s1,a5
   12bf8:	0cf12e23          	sw	a5,220(sp)
   12bfc:	0d812783          	lw	a5,216(sp)
   12c00:	00700713          	li	a4,7
   12c04:	008b8b93          	addi	s7,s7,8
   12c08:	00178793          	addi	a5,a5,1
   12c0c:	0cf12c23          	sw	a5,216(sp)
   12c10:	00f75e63          	ble	a5,a4,12c2c <_vfprintf_r+0x1a34>
   12c14:	0d410613          	addi	a2,sp,212
   12c18:	00090593          	mv	a1,s2
   12c1c:	00098513          	mv	a0,s3
   12c20:	390070ef          	jal	ra,19fb0 <__sprint_r>
   12c24:	4a051263          	bnez	a0,130c8 <_vfprintf_r+0x1ed0>
   12c28:	0fc10b93          	addi	s7,sp,252
   12c2c:	00048793          	mv	a5,s1
   12c30:	0004d463          	bgez	s1,12c38 <_vfprintf_r+0x1a40>
   12c34:	00000793          	li	a5,0
   12c38:	0bc12483          	lw	s1,188(sp)
   12c3c:	409a04b3          	sub	s1,s4,s1
   12c40:	40f484b3          	sub	s1,s1,a5
   12c44:	da905ee3          	blez	s1,12a00 <_vfprintf_r+0x1808>
   12c48:	01000a93          	li	s5,16
   12c4c:	00700b13          	li	s6,7
   12c50:	01412603          	lw	a2,20(sp)
   12c54:	0d812783          	lw	a5,216(sp)
   12c58:	0dc12703          	lw	a4,220(sp)
   12c5c:	00cba023          	sw	a2,0(s7)
   12c60:	00178793          	addi	a5,a5,1
   12c64:	008b8693          	addi	a3,s7,8
   12c68:	be9adce3          	ble	s1,s5,12860 <_vfprintf_r+0x1668>
   12c6c:	01070713          	addi	a4,a4,16
   12c70:	015ba223          	sw	s5,4(s7)
   12c74:	0ce12e23          	sw	a4,220(sp)
   12c78:	0cf12c23          	sw	a5,216(sp)
   12c7c:	00fb5e63          	ble	a5,s6,12c98 <_vfprintf_r+0x1aa0>
   12c80:	0d410613          	addi	a2,sp,212
   12c84:	00090593          	mv	a1,s2
   12c88:	00098513          	mv	a0,s3
   12c8c:	324070ef          	jal	ra,19fb0 <__sprint_r>
   12c90:	42051c63          	bnez	a0,130c8 <_vfprintf_r+0x1ed0>
   12c94:	0fc10693          	addi	a3,sp,252
   12c98:	ff048493          	addi	s1,s1,-16
   12c9c:	00068b93          	mv	s7,a3
   12ca0:	fb1ff06f          	j	12c50 <_vfprintf_r+0x1a58>
   12ca4:	01068693          	addi	a3,a3,16
   12ca8:	016ba223          	sw	s6,4(s7)
   12cac:	0cd12e23          	sw	a3,220(sp)
   12cb0:	0ce12c23          	sw	a4,216(sp)
   12cb4:	00ed5e63          	ble	a4,s10,12cd0 <_vfprintf_r+0x1ad8>
   12cb8:	0d410613          	addi	a2,sp,212
   12cbc:	00090593          	mv	a1,s2
   12cc0:	00098513          	mv	a0,s3
   12cc4:	2ec070ef          	jal	ra,19fb0 <__sprint_r>
   12cc8:	40051063          	bnez	a0,130c8 <_vfprintf_r+0x1ed0>
   12ccc:	0fc10613          	addi	a2,sp,252
   12cd0:	ff0a8a93          	addi	s5,s5,-16
   12cd4:	00060b93          	mv	s7,a2
   12cd8:	e1dff06f          	j	12af4 <_vfprintf_r+0x18fc>
   12cdc:	0e0c8263          	beqz	s9,12dc0 <_vfprintf_r+0x1bc8>
   12ce0:	fffc8c93          	addi	s9,s9,-1
   12ce4:	03812783          	lw	a5,56(sp)
   12ce8:	03012703          	lw	a4,48(sp)
   12cec:	008b8b93          	addi	s7,s7,8
   12cf0:	fefbac23          	sw	a5,-8(s7)
   12cf4:	03012783          	lw	a5,48(sp)
   12cf8:	fefbae23          	sw	a5,-4(s7)
   12cfc:	0dc12783          	lw	a5,220(sp)
   12d00:	00e787b3          	add	a5,a5,a4
   12d04:	0cf12e23          	sw	a5,220(sp)
   12d08:	0d812783          	lw	a5,216(sp)
   12d0c:	00178793          	addi	a5,a5,1
   12d10:	0cf12c23          	sw	a5,216(sp)
   12d14:	00fb5e63          	ble	a5,s6,12d30 <_vfprintf_r+0x1b38>
   12d18:	0d410613          	addi	a2,sp,212
   12d1c:	00090593          	mv	a1,s2
   12d20:	00098513          	mv	a0,s3
   12d24:	28c070ef          	jal	ra,19fb0 <__sprint_r>
   12d28:	3a051063          	bnez	a0,130c8 <_vfprintf_r+0x1ed0>
   12d2c:	0fc10b93          	addi	s7,sp,252
   12d30:	01012783          	lw	a5,16(sp)
   12d34:	415d0733          	sub	a4,s10,s5
   12d38:	0007c783          	lbu	a5,0(a5)
   12d3c:	00f75463          	ble	a5,a4,12d44 <_vfprintf_r+0x1b4c>
   12d40:	00070793          	mv	a5,a4
   12d44:	04f05663          	blez	a5,12d90 <_vfprintf_r+0x1b98>
   12d48:	0dc12703          	lw	a4,220(sp)
   12d4c:	015ba023          	sw	s5,0(s7)
   12d50:	00fba223          	sw	a5,4(s7)
   12d54:	00e78733          	add	a4,a5,a4
   12d58:	0ce12e23          	sw	a4,220(sp)
   12d5c:	0d812703          	lw	a4,216(sp)
   12d60:	008b8b93          	addi	s7,s7,8
   12d64:	00170713          	addi	a4,a4,1
   12d68:	0ce12c23          	sw	a4,216(sp)
   12d6c:	02eb5263          	ble	a4,s6,12d90 <_vfprintf_r+0x1b98>
   12d70:	0d410613          	addi	a2,sp,212
   12d74:	00090593          	mv	a1,s2
   12d78:	00098513          	mv	a0,s3
   12d7c:	04f12223          	sw	a5,68(sp)
   12d80:	230070ef          	jal	ra,19fb0 <__sprint_r>
   12d84:	34051263          	bnez	a0,130c8 <_vfprintf_r+0x1ed0>
   12d88:	04412783          	lw	a5,68(sp)
   12d8c:	0fc10b93          	addi	s7,sp,252
   12d90:	00078713          	mv	a4,a5
   12d94:	0007d463          	bgez	a5,12d9c <_vfprintf_r+0x1ba4>
   12d98:	00000713          	li	a4,0
   12d9c:	01012783          	lw	a5,16(sp)
   12da0:	01000813          	li	a6,16
   12da4:	0007c783          	lbu	a5,0(a5)
   12da8:	40e787b3          	sub	a5,a5,a4
   12dac:	06f04463          	bgtz	a5,12e14 <_vfprintf_r+0x1c1c>
   12db0:	01012783          	lw	a5,16(sp)
   12db4:	0007c783          	lbu	a5,0(a5)
   12db8:	00fa8ab3          	add	s5,s5,a5
   12dbc:	d9dff06f          	j	12b58 <_vfprintf_r+0x1960>
   12dc0:	01012783          	lw	a5,16(sp)
   12dc4:	fffc0c13          	addi	s8,s8,-1
   12dc8:	fff78793          	addi	a5,a5,-1
   12dcc:	00f12823          	sw	a5,16(sp)
   12dd0:	f15ff06f          	j	12ce4 <_vfprintf_r+0x1aec>
   12dd4:	01068693          	addi	a3,a3,16
   12dd8:	010ba223          	sw	a6,4(s7)
   12ddc:	0cd12e23          	sw	a3,220(sp)
   12de0:	0ce12c23          	sw	a4,216(sp)
   12de4:	02eb5463          	ble	a4,s6,12e0c <_vfprintf_r+0x1c14>
   12de8:	0d410613          	addi	a2,sp,212
   12dec:	00090593          	mv	a1,s2
   12df0:	00098513          	mv	a0,s3
   12df4:	04f12223          	sw	a5,68(sp)
   12df8:	1b8070ef          	jal	ra,19fb0 <__sprint_r>
   12dfc:	2c051663          	bnez	a0,130c8 <_vfprintf_r+0x1ed0>
   12e00:	04412783          	lw	a5,68(sp)
   12e04:	0fc10613          	addi	a2,sp,252
   12e08:	01000813          	li	a6,16
   12e0c:	ff078793          	addi	a5,a5,-16
   12e10:	00060b93          	mv	s7,a2
   12e14:	01412583          	lw	a1,20(sp)
   12e18:	0d812703          	lw	a4,216(sp)
   12e1c:	0dc12683          	lw	a3,220(sp)
   12e20:	00bba023          	sw	a1,0(s7)
   12e24:	00170713          	addi	a4,a4,1
   12e28:	008b8613          	addi	a2,s7,8
   12e2c:	faf844e3          	blt	a6,a5,12dd4 <_vfprintf_r+0x1bdc>
   12e30:	00fba223          	sw	a5,4(s7)
   12e34:	00d787b3          	add	a5,a5,a3
   12e38:	0cf12e23          	sw	a5,220(sp)
   12e3c:	0ce12c23          	sw	a4,216(sp)
   12e40:	00060b93          	mv	s7,a2
   12e44:	f6eb56e3          	ble	a4,s6,12db0 <_vfprintf_r+0x1bb8>
   12e48:	0d410613          	addi	a2,sp,212
   12e4c:	00090593          	mv	a1,s2
   12e50:	00098513          	mv	a0,s3
   12e54:	15c070ef          	jal	ra,19fb0 <__sprint_r>
   12e58:	26051863          	bnez	a0,130c8 <_vfprintf_r+0x1ed0>
   12e5c:	0fc10b93          	addi	s7,sp,252
   12e60:	f51ff06f          	j	12db0 <_vfprintf_r+0x1bb8>
   12e64:	0d812783          	lw	a5,216(sp)
   12e68:	00100693          	li	a3,1
   12e6c:	009ba023          	sw	s1,0(s7)
   12e70:	00170713          	addi	a4,a4,1
   12e74:	00178793          	addi	a5,a5,1
   12e78:	008b8b13          	addi	s6,s7,8
   12e7c:	0146c663          	blt	a3,s4,12e88 <_vfprintf_r+0x1c90>
   12e80:	00147613          	andi	a2,s0,1
   12e84:	1c060663          	beqz	a2,13050 <_vfprintf_r+0x1e58>
   12e88:	00100693          	li	a3,1
   12e8c:	0ce12e23          	sw	a4,220(sp)
   12e90:	00dba223          	sw	a3,4(s7)
   12e94:	0cf12c23          	sw	a5,216(sp)
   12e98:	00700713          	li	a4,7
   12e9c:	00f75e63          	ble	a5,a4,12eb8 <_vfprintf_r+0x1cc0>
   12ea0:	0d410613          	addi	a2,sp,212
   12ea4:	00090593          	mv	a1,s2
   12ea8:	00098513          	mv	a0,s3
   12eac:	104070ef          	jal	ra,19fb0 <__sprint_r>
   12eb0:	20051c63          	bnez	a0,130c8 <_vfprintf_r+0x1ed0>
   12eb4:	0fc10b13          	addi	s6,sp,252
   12eb8:	03412783          	lw	a5,52(sp)
   12ebc:	02012703          	lw	a4,32(sp)
   12ec0:	008b0b13          	addi	s6,s6,8
   12ec4:	fefb2c23          	sw	a5,-8(s6)
   12ec8:	02012783          	lw	a5,32(sp)
   12ecc:	fefb2e23          	sw	a5,-4(s6)
   12ed0:	0dc12783          	lw	a5,220(sp)
   12ed4:	00e787b3          	add	a5,a5,a4
   12ed8:	0cf12e23          	sw	a5,220(sp)
   12edc:	0d812783          	lw	a5,216(sp)
   12ee0:	00700713          	li	a4,7
   12ee4:	00178793          	addi	a5,a5,1
   12ee8:	0cf12c23          	sw	a5,216(sp)
   12eec:	00f75e63          	ble	a5,a4,12f08 <_vfprintf_r+0x1d10>
   12ef0:	0d410613          	addi	a2,sp,212
   12ef4:	00090593          	mv	a1,s2
   12ef8:	00098513          	mv	a0,s3
   12efc:	0b4070ef          	jal	ra,19fb0 <__sprint_r>
   12f00:	1c051463          	bnez	a0,130c8 <_vfprintf_r+0x1ed0>
   12f04:	0fc10b13          	addi	s6,sp,252
   12f08:	0e012783          	lw	a5,224(sp)
   12f0c:	09010593          	addi	a1,sp,144
   12f10:	0a010513          	addi	a0,sp,160
   12f14:	0af12023          	sw	a5,160(sp)
   12f18:	0e412783          	lw	a5,228(sp)
   12f1c:	fffa0a93          	addi	s5,s4,-1
   12f20:	08012823          	sw	zero,144(sp)
   12f24:	0af12223          	sw	a5,164(sp)
   12f28:	0e812783          	lw	a5,232(sp)
   12f2c:	08012a23          	sw	zero,148(sp)
   12f30:	08012c23          	sw	zero,152(sp)
   12f34:	0af12423          	sw	a5,168(sp)
   12f38:	0ec12783          	lw	a5,236(sp)
   12f3c:	08012e23          	sw	zero,156(sp)
   12f40:	0af12623          	sw	a5,172(sp)
   12f44:	7640a0ef          	jal	ra,1d6a8 <__eqtf2>
   12f48:	08050663          	beqz	a0,12fd4 <_vfprintf_r+0x1ddc>
   12f4c:	0dc12783          	lw	a5,220(sp)
   12f50:	0d812703          	lw	a4,216(sp)
   12f54:	00148493          	addi	s1,s1,1
   12f58:	fff78793          	addi	a5,a5,-1
   12f5c:	014787b3          	add	a5,a5,s4
   12f60:	00170713          	addi	a4,a4,1
   12f64:	009b2023          	sw	s1,0(s6)
   12f68:	015b2223          	sw	s5,4(s6)
   12f6c:	0cf12e23          	sw	a5,220(sp)
   12f70:	0ce12c23          	sw	a4,216(sp)
   12f74:	00700793          	li	a5,7
   12f78:	008b0b13          	addi	s6,s6,8
   12f7c:	00e7de63          	ble	a4,a5,12f98 <_vfprintf_r+0x1da0>
   12f80:	0d410613          	addi	a2,sp,212
   12f84:	00090593          	mv	a1,s2
   12f88:	00098513          	mv	a0,s3
   12f8c:	024070ef          	jal	ra,19fb0 <__sprint_r>
   12f90:	12051c63          	bnez	a0,130c8 <_vfprintf_r+0x1ed0>
   12f94:	0fc10b13          	addi	s6,sp,252
   12f98:	0c410793          	addi	a5,sp,196
   12f9c:	00fb2023          	sw	a5,0(s6)
   12fa0:	03c12783          	lw	a5,60(sp)
   12fa4:	03c12703          	lw	a4,60(sp)
   12fa8:	008b0b93          	addi	s7,s6,8
   12fac:	00fb2223          	sw	a5,4(s6)
   12fb0:	0dc12783          	lw	a5,220(sp)
   12fb4:	00e787b3          	add	a5,a5,a4
   12fb8:	0cf12e23          	sw	a5,220(sp)
   12fbc:	0d812783          	lw	a5,216(sp)
   12fc0:	00700713          	li	a4,7
   12fc4:	00178793          	addi	a5,a5,1
   12fc8:	0cf12c23          	sw	a5,216(sp)
   12fcc:	a2f75ae3          	ble	a5,a4,12a00 <_vfprintf_r+0x1808>
   12fd0:	8c1fe06f          	j	11890 <_vfprintf_r+0x698>
   12fd4:	fd5052e3          	blez	s5,12f98 <_vfprintf_r+0x1da0>
   12fd8:	01000493          	li	s1,16
   12fdc:	00700c13          	li	s8,7
   12fe0:	01412603          	lw	a2,20(sp)
   12fe4:	0d812703          	lw	a4,216(sp)
   12fe8:	0dc12783          	lw	a5,220(sp)
   12fec:	00cb2023          	sw	a2,0(s6)
   12ff0:	00170713          	addi	a4,a4,1
   12ff4:	008b0693          	addi	a3,s6,8
   12ff8:	0354c063          	blt	s1,s5,13018 <_vfprintf_r+0x1e20>
   12ffc:	00fa87b3          	add	a5,s5,a5
   13000:	015b2223          	sw	s5,4(s6)
   13004:	0cf12e23          	sw	a5,220(sp)
   13008:	0ce12c23          	sw	a4,216(sp)
   1300c:	00700793          	li	a5,7
   13010:	00068b13          	mv	s6,a3
   13014:	f69ff06f          	j	12f7c <_vfprintf_r+0x1d84>
   13018:	01078793          	addi	a5,a5,16
   1301c:	009b2223          	sw	s1,4(s6)
   13020:	0cf12e23          	sw	a5,220(sp)
   13024:	0ce12c23          	sw	a4,216(sp)
   13028:	00ec5e63          	ble	a4,s8,13044 <_vfprintf_r+0x1e4c>
   1302c:	0d410613          	addi	a2,sp,212
   13030:	00090593          	mv	a1,s2
   13034:	00098513          	mv	a0,s3
   13038:	779060ef          	jal	ra,19fb0 <__sprint_r>
   1303c:	08051663          	bnez	a0,130c8 <_vfprintf_r+0x1ed0>
   13040:	0fc10693          	addi	a3,sp,252
   13044:	ff0a8a93          	addi	s5,s5,-16
   13048:	00068b13          	mv	s6,a3
   1304c:	f95ff06f          	j	12fe0 <_vfprintf_r+0x1de8>
   13050:	0ce12e23          	sw	a4,220(sp)
   13054:	00dba223          	sw	a3,4(s7)
   13058:	0cf12c23          	sw	a5,216(sp)
   1305c:	00700713          	li	a4,7
   13060:	f2f75ce3          	ble	a5,a4,12f98 <_vfprintf_r+0x1da0>
   13064:	f1dff06f          	j	12f80 <_vfprintf_r+0x1d88>
   13068:	02812783          	lw	a5,40(sp)
   1306c:	02c12703          	lw	a4,44(sp)
   13070:	40e78433          	sub	s0,a5,a4
   13074:	98805ae3          	blez	s0,12a08 <_vfprintf_r+0x1810>
   13078:	000217b7          	lui	a5,0x21
   1307c:	01000a93          	li	s5,16
   13080:	6ec78493          	addi	s1,a5,1772 # 216ec <blanks.4513>
   13084:	00700b13          	li	s6,7
   13088:	0d812783          	lw	a5,216(sp)
   1308c:	009ba023          	sw	s1,0(s7)
   13090:	0dc12703          	lw	a4,220(sp)
   13094:	00178793          	addi	a5,a5,1
   13098:	048ac663          	blt	s5,s0,130e4 <_vfprintf_r+0x1eec>
   1309c:	008ba223          	sw	s0,4(s7)
   130a0:	00e40433          	add	s0,s0,a4
   130a4:	0c812e23          	sw	s0,220(sp)
   130a8:	0cf12c23          	sw	a5,216(sp)
   130ac:	00700713          	li	a4,7
   130b0:	94f75ce3          	ble	a5,a4,12a08 <_vfprintf_r+0x1810>
   130b4:	0d410613          	addi	a2,sp,212
   130b8:	00090593          	mv	a1,s2
   130bc:	00098513          	mv	a0,s3
   130c0:	6f1060ef          	jal	ra,19fb0 <__sprint_r>
   130c4:	940502e3          	beqz	a0,12a08 <_vfprintf_r+0x1810>
   130c8:	00c12783          	lw	a5,12(sp)
   130cc:	00079463          	bnez	a5,130d4 <_vfprintf_r+0x1edc>
   130d0:	a25fe06f          	j	11af4 <_vfprintf_r+0x8fc>
   130d4:	00078593          	mv	a1,a5
   130d8:	00098513          	mv	a0,s3
   130dc:	3a1000ef          	jal	ra,13c7c <_free_r>
   130e0:	a15fe06f          	j	11af4 <_vfprintf_r+0x8fc>
   130e4:	01070713          	addi	a4,a4,16
   130e8:	015ba223          	sw	s5,4(s7)
   130ec:	0ce12e23          	sw	a4,220(sp)
   130f0:	0cf12c23          	sw	a5,216(sp)
   130f4:	008b8b93          	addi	s7,s7,8
   130f8:	00fb5e63          	ble	a5,s6,13114 <_vfprintf_r+0x1f1c>
   130fc:	0d410613          	addi	a2,sp,212
   13100:	00090593          	mv	a1,s2
   13104:	00098513          	mv	a0,s3
   13108:	6a9060ef          	jal	ra,19fb0 <__sprint_r>
   1310c:	fa051ee3          	bnez	a0,130c8 <_vfprintf_r+0x1ed0>
   13110:	0fc10b93          	addi	s7,sp,252
   13114:	ff040413          	addi	s0,s0,-16
   13118:	f71ff06f          	j	13088 <_vfprintf_r+0x1e90>
   1311c:	00c12583          	lw	a1,12(sp)
   13120:	00098513          	mv	a0,s3
   13124:	359000ef          	jal	ra,13c7c <_free_r>
   13128:	925ff06f          	j	12a4c <_vfprintf_r+0x1854>
   1312c:	0dc12783          	lw	a5,220(sp)
   13130:	00079463          	bnez	a5,13138 <_vfprintf_r+0x1f40>
   13134:	9c1fe06f          	j	11af4 <_vfprintf_r+0x8fc>
   13138:	0d410613          	addi	a2,sp,212
   1313c:	00090593          	mv	a1,s2
   13140:	00098513          	mv	a0,s3
   13144:	66d060ef          	jal	ra,19fb0 <__sprint_r>
   13148:	9adfe06f          	j	11af4 <_vfprintf_r+0x8fc>
   1314c:	fff00793          	li	a5,-1
   13150:	b4fd1e63          	bne	s10,a5,124ac <_vfprintf_r+0x12b4>
   13154:	be0c9063          	bnez	s9,12534 <_vfprintf_r+0x133c>
   13158:	00900793          	li	a5,9
   1315c:	bdb7ec63          	bltu	a5,s11,12534 <_vfprintf_r+0x133c>
   13160:	030d8d93          	addi	s11,s11,48
   13164:	19b10fa3          	sb	s11,415(sp)
   13168:	19f10493          	addi	s1,sp,415
   1316c:	ba0ff06f          	j	1250c <_vfprintf_r+0x1314>

00013170 <vfprintf>:
   13170:	00060693          	mv	a3,a2
   13174:	00058613          	mv	a2,a1
   13178:	00050593          	mv	a1,a0
   1317c:	8201a503          	lw	a0,-2016(gp) # 23c68 <_impure_ptr>
   13180:	878fe06f          	j	111f8 <_vfprintf_r>

00013184 <__sbprintf>:
   13184:	00c5d783          	lhu	a5,12(a1)
   13188:	b8010113          	addi	sp,sp,-1152
   1318c:	46812c23          	sw	s0,1144(sp)
   13190:	ffd7f793          	andi	a5,a5,-3
   13194:	00f11a23          	sh	a5,20(sp)
   13198:	0645a783          	lw	a5,100(a1)
   1319c:	00058413          	mv	s0,a1
   131a0:	46912a23          	sw	s1,1140(sp)
   131a4:	06f12623          	sw	a5,108(sp)
   131a8:	00e5d783          	lhu	a5,14(a1)
   131ac:	47212823          	sw	s2,1136(sp)
   131b0:	46112e23          	sw	ra,1148(sp)
   131b4:	00f11b23          	sh	a5,22(sp)
   131b8:	01c5a783          	lw	a5,28(a1)
   131bc:	00050913          	mv	s2,a0
   131c0:	02012023          	sw	zero,32(sp)
   131c4:	02f12223          	sw	a5,36(sp)
   131c8:	0245a783          	lw	a5,36(a1)
   131cc:	00810593          	addi	a1,sp,8
   131d0:	02f12623          	sw	a5,44(sp)
   131d4:	07010793          	addi	a5,sp,112
   131d8:	00f12423          	sw	a5,8(sp)
   131dc:	00f12c23          	sw	a5,24(sp)
   131e0:	40000793          	li	a5,1024
   131e4:	00f12823          	sw	a5,16(sp)
   131e8:	00f12e23          	sw	a5,28(sp)
   131ec:	80cfe0ef          	jal	ra,111f8 <_vfprintf_r>
   131f0:	00050493          	mv	s1,a0
   131f4:	00054c63          	bltz	a0,1320c <__sbprintf+0x88>
   131f8:	00810593          	addi	a1,sp,8
   131fc:	00090513          	mv	a0,s2
   13200:	644000ef          	jal	ra,13844 <_fflush_r>
   13204:	00050463          	beqz	a0,1320c <__sbprintf+0x88>
   13208:	fff00493          	li	s1,-1
   1320c:	01415783          	lhu	a5,20(sp)
   13210:	0407f793          	andi	a5,a5,64
   13214:	00078863          	beqz	a5,13224 <__sbprintf+0xa0>
   13218:	00c45783          	lhu	a5,12(s0)
   1321c:	0407e793          	ori	a5,a5,64
   13220:	00f41623          	sh	a5,12(s0)
   13224:	47c12083          	lw	ra,1148(sp)
   13228:	47812403          	lw	s0,1144(sp)
   1322c:	00048513          	mv	a0,s1
   13230:	47012903          	lw	s2,1136(sp)
   13234:	47412483          	lw	s1,1140(sp)
   13238:	48010113          	addi	sp,sp,1152
   1323c:	00008067          	ret

00013240 <__swbuf_r>:
   13240:	fe010113          	addi	sp,sp,-32
   13244:	00812c23          	sw	s0,24(sp)
   13248:	00912a23          	sw	s1,20(sp)
   1324c:	01212823          	sw	s2,16(sp)
   13250:	00112e23          	sw	ra,28(sp)
   13254:	01312623          	sw	s3,12(sp)
   13258:	00050913          	mv	s2,a0
   1325c:	00058493          	mv	s1,a1
   13260:	00060413          	mv	s0,a2
   13264:	00050863          	beqz	a0,13274 <__swbuf_r+0x34>
   13268:	03852783          	lw	a5,56(a0)
   1326c:	00079463          	bnez	a5,13274 <__swbuf_r+0x34>
   13270:	764000ef          	jal	ra,139d4 <__sinit>
   13274:	01842783          	lw	a5,24(s0)
   13278:	00f42423          	sw	a5,8(s0)
   1327c:	00c45783          	lhu	a5,12(s0)
   13280:	0087f793          	andi	a5,a5,8
   13284:	0a078863          	beqz	a5,13334 <__swbuf_r+0xf4>
   13288:	01042783          	lw	a5,16(s0)
   1328c:	0a078463          	beqz	a5,13334 <__swbuf_r+0xf4>
   13290:	00c41783          	lh	a5,12(s0)
   13294:	0ff4f993          	andi	s3,s1,255
   13298:	0ff4f493          	andi	s1,s1,255
   1329c:	01279713          	slli	a4,a5,0x12
   132a0:	0a075663          	bgez	a4,1334c <__swbuf_r+0x10c>
   132a4:	01042783          	lw	a5,16(s0)
   132a8:	00042503          	lw	a0,0(s0)
   132ac:	40f50533          	sub	a0,a0,a5
   132b0:	01442783          	lw	a5,20(s0)
   132b4:	00f54a63          	blt	a0,a5,132c8 <__swbuf_r+0x88>
   132b8:	00040593          	mv	a1,s0
   132bc:	00090513          	mv	a0,s2
   132c0:	584000ef          	jal	ra,13844 <_fflush_r>
   132c4:	08051063          	bnez	a0,13344 <__swbuf_r+0x104>
   132c8:	00842783          	lw	a5,8(s0)
   132cc:	00150513          	addi	a0,a0,1
   132d0:	fff78793          	addi	a5,a5,-1
   132d4:	00f42423          	sw	a5,8(s0)
   132d8:	00042783          	lw	a5,0(s0)
   132dc:	00178713          	addi	a4,a5,1
   132e0:	00e42023          	sw	a4,0(s0)
   132e4:	01378023          	sb	s3,0(a5)
   132e8:	01442783          	lw	a5,20(s0)
   132ec:	00a78c63          	beq	a5,a0,13304 <__swbuf_r+0xc4>
   132f0:	00c45783          	lhu	a5,12(s0)
   132f4:	0017f793          	andi	a5,a5,1
   132f8:	00078e63          	beqz	a5,13314 <__swbuf_r+0xd4>
   132fc:	00a00793          	li	a5,10
   13300:	00f49a63          	bne	s1,a5,13314 <__swbuf_r+0xd4>
   13304:	00040593          	mv	a1,s0
   13308:	00090513          	mv	a0,s2
   1330c:	538000ef          	jal	ra,13844 <_fflush_r>
   13310:	02051a63          	bnez	a0,13344 <__swbuf_r+0x104>
   13314:	01c12083          	lw	ra,28(sp)
   13318:	01812403          	lw	s0,24(sp)
   1331c:	00048513          	mv	a0,s1
   13320:	01012903          	lw	s2,16(sp)
   13324:	01412483          	lw	s1,20(sp)
   13328:	00c12983          	lw	s3,12(sp)
   1332c:	02010113          	addi	sp,sp,32
   13330:	00008067          	ret
   13334:	00040593          	mv	a1,s0
   13338:	00090513          	mv	a0,s2
   1333c:	044000ef          	jal	ra,13380 <__swsetup_r>
   13340:	f40508e3          	beqz	a0,13290 <__swbuf_r+0x50>
   13344:	fff00493          	li	s1,-1
   13348:	fcdff06f          	j	13314 <__swbuf_r+0xd4>
   1334c:	00002737          	lui	a4,0x2
   13350:	00e7e7b3          	or	a5,a5,a4
   13354:	00f41623          	sh	a5,12(s0)
   13358:	06442783          	lw	a5,100(s0)
   1335c:	ffffe737          	lui	a4,0xffffe
   13360:	fff70713          	addi	a4,a4,-1 # ffffdfff <_end+0xfffd7b1f>
   13364:	00e7f7b3          	and	a5,a5,a4
   13368:	06f42223          	sw	a5,100(s0)
   1336c:	f39ff06f          	j	132a4 <__swbuf_r+0x64>

00013370 <__swbuf>:
   13370:	00058613          	mv	a2,a1
   13374:	00050593          	mv	a1,a0
   13378:	8201a503          	lw	a0,-2016(gp) # 23c68 <_impure_ptr>
   1337c:	ec5ff06f          	j	13240 <__swbuf_r>

00013380 <__swsetup_r>:
   13380:	ff010113          	addi	sp,sp,-16
   13384:	00912223          	sw	s1,4(sp)
   13388:	00050493          	mv	s1,a0
   1338c:	8201a503          	lw	a0,-2016(gp) # 23c68 <_impure_ptr>
   13390:	00812423          	sw	s0,8(sp)
   13394:	00112623          	sw	ra,12(sp)
   13398:	00058413          	mv	s0,a1
   1339c:	00050863          	beqz	a0,133ac <__swsetup_r+0x2c>
   133a0:	03852783          	lw	a5,56(a0)
   133a4:	00079463          	bnez	a5,133ac <__swsetup_r+0x2c>
   133a8:	62c000ef          	jal	ra,139d4 <__sinit>
   133ac:	00c41703          	lh	a4,12(s0)
   133b0:	01071793          	slli	a5,a4,0x10
   133b4:	0107d793          	srli	a5,a5,0x10
   133b8:	0087f693          	andi	a3,a5,8
   133bc:	06069e63          	bnez	a3,13438 <__swsetup_r+0xb8>
   133c0:	0107f693          	andi	a3,a5,16
   133c4:	02069663          	bnez	a3,133f0 <__swsetup_r+0x70>
   133c8:	00900793          	li	a5,9
   133cc:	00f4a023          	sw	a5,0(s1)
   133d0:	04076713          	ori	a4,a4,64
   133d4:	00e41623          	sh	a4,12(s0)
   133d8:	fff00513          	li	a0,-1
   133dc:	00c12083          	lw	ra,12(sp)
   133e0:	00812403          	lw	s0,8(sp)
   133e4:	00412483          	lw	s1,4(sp)
   133e8:	01010113          	addi	sp,sp,16
   133ec:	00008067          	ret
   133f0:	0047f793          	andi	a5,a5,4
   133f4:	02078c63          	beqz	a5,1342c <__swsetup_r+0xac>
   133f8:	03042583          	lw	a1,48(s0)
   133fc:	00058c63          	beqz	a1,13414 <__swsetup_r+0x94>
   13400:	04040793          	addi	a5,s0,64
   13404:	00f58663          	beq	a1,a5,13410 <__swsetup_r+0x90>
   13408:	00048513          	mv	a0,s1
   1340c:	071000ef          	jal	ra,13c7c <_free_r>
   13410:	02042823          	sw	zero,48(s0)
   13414:	00c45783          	lhu	a5,12(s0)
   13418:	00042223          	sw	zero,4(s0)
   1341c:	fdb7f793          	andi	a5,a5,-37
   13420:	00f41623          	sh	a5,12(s0)
   13424:	01042783          	lw	a5,16(s0)
   13428:	00f42023          	sw	a5,0(s0)
   1342c:	00c45783          	lhu	a5,12(s0)
   13430:	0087e793          	ori	a5,a5,8
   13434:	00f41623          	sh	a5,12(s0)
   13438:	01042783          	lw	a5,16(s0)
   1343c:	02079063          	bnez	a5,1345c <__swsetup_r+0xdc>
   13440:	00c45783          	lhu	a5,12(s0)
   13444:	20000713          	li	a4,512
   13448:	2807f793          	andi	a5,a5,640
   1344c:	00e78863          	beq	a5,a4,1345c <__swsetup_r+0xdc>
   13450:	00040593          	mv	a1,s0
   13454:	00048513          	mv	a0,s1
   13458:	14c030ef          	jal	ra,165a4 <__smakebuf_r>
   1345c:	00c45783          	lhu	a5,12(s0)
   13460:	0017f713          	andi	a4,a5,1
   13464:	02070c63          	beqz	a4,1349c <__swsetup_r+0x11c>
   13468:	01442783          	lw	a5,20(s0)
   1346c:	00042423          	sw	zero,8(s0)
   13470:	40f007b3          	neg	a5,a5
   13474:	00f42c23          	sw	a5,24(s0)
   13478:	01042783          	lw	a5,16(s0)
   1347c:	00000513          	li	a0,0
   13480:	f4079ee3          	bnez	a5,133dc <__swsetup_r+0x5c>
   13484:	00c41783          	lh	a5,12(s0)
   13488:	0807f713          	andi	a4,a5,128
   1348c:	f40708e3          	beqz	a4,133dc <__swsetup_r+0x5c>
   13490:	0407e793          	ori	a5,a5,64
   13494:	00f41623          	sh	a5,12(s0)
   13498:	f41ff06f          	j	133d8 <__swsetup_r+0x58>
   1349c:	0027f793          	andi	a5,a5,2
   134a0:	00000713          	li	a4,0
   134a4:	00079463          	bnez	a5,134ac <__swsetup_r+0x12c>
   134a8:	01442703          	lw	a4,20(s0)
   134ac:	00e42423          	sw	a4,8(s0)
   134b0:	fc9ff06f          	j	13478 <__swsetup_r+0xf8>

000134b4 <__register_exitproc>:
   134b4:	8181a703          	lw	a4,-2024(gp) # 23c60 <_global_impure_ptr>
   134b8:	00050313          	mv	t1,a0
   134bc:	14872783          	lw	a5,328(a4)
   134c0:	00079663          	bnez	a5,134cc <__register_exitproc+0x18>
   134c4:	14c70793          	addi	a5,a4,332
   134c8:	14f72423          	sw	a5,328(a4)
   134cc:	0047a703          	lw	a4,4(a5)
   134d0:	01f00813          	li	a6,31
   134d4:	fff00513          	li	a0,-1
   134d8:	04e84a63          	blt	a6,a4,1352c <__register_exitproc+0x78>
   134dc:	00271893          	slli	a7,a4,0x2
   134e0:	02030c63          	beqz	t1,13518 <__register_exitproc+0x64>
   134e4:	01178533          	add	a0,a5,a7
   134e8:	08c52423          	sw	a2,136(a0)
   134ec:	1887a803          	lw	a6,392(a5)
   134f0:	00100613          	li	a2,1
   134f4:	00e61633          	sll	a2,a2,a4
   134f8:	00c86833          	or	a6,a6,a2
   134fc:	1907a423          	sw	a6,392(a5)
   13500:	10d52423          	sw	a3,264(a0)
   13504:	00200693          	li	a3,2
   13508:	00d31863          	bne	t1,a3,13518 <__register_exitproc+0x64>
   1350c:	18c7a683          	lw	a3,396(a5)
   13510:	00c6e633          	or	a2,a3,a2
   13514:	18c7a623          	sw	a2,396(a5)
   13518:	00170713          	addi	a4,a4,1
   1351c:	00e7a223          	sw	a4,4(a5)
   13520:	011787b3          	add	a5,a5,a7
   13524:	00b7a423          	sw	a1,8(a5)
   13528:	00000513          	li	a0,0
   1352c:	00008067          	ret

00013530 <__call_exitprocs>:
   13530:	fd010113          	addi	sp,sp,-48
   13534:	01312e23          	sw	s3,28(sp)
   13538:	8181a983          	lw	s3,-2024(gp) # 23c60 <_global_impure_ptr>
   1353c:	01412c23          	sw	s4,24(sp)
   13540:	01512a23          	sw	s5,20(sp)
   13544:	01612823          	sw	s6,16(sp)
   13548:	02112623          	sw	ra,44(sp)
   1354c:	02812423          	sw	s0,40(sp)
   13550:	02912223          	sw	s1,36(sp)
   13554:	03212023          	sw	s2,32(sp)
   13558:	01712623          	sw	s7,12(sp)
   1355c:	00050a93          	mv	s5,a0
   13560:	00058a13          	mv	s4,a1
   13564:	00100b13          	li	s6,1
   13568:	1489a483          	lw	s1,328(s3)
   1356c:	00048c63          	beqz	s1,13584 <__call_exitprocs+0x54>
   13570:	0044a403          	lw	s0,4(s1)
   13574:	fff40913          	addi	s2,s0,-1
   13578:	00241413          	slli	s0,s0,0x2
   1357c:	00848433          	add	s0,s1,s0
   13580:	02095863          	bgez	s2,135b0 <__call_exitprocs+0x80>
   13584:	02c12083          	lw	ra,44(sp)
   13588:	02812403          	lw	s0,40(sp)
   1358c:	02412483          	lw	s1,36(sp)
   13590:	02012903          	lw	s2,32(sp)
   13594:	01c12983          	lw	s3,28(sp)
   13598:	01812a03          	lw	s4,24(sp)
   1359c:	01412a83          	lw	s5,20(sp)
   135a0:	01012b03          	lw	s6,16(sp)
   135a4:	00c12b83          	lw	s7,12(sp)
   135a8:	03010113          	addi	sp,sp,48
   135ac:	00008067          	ret
   135b0:	000a0c63          	beqz	s4,135c8 <__call_exitprocs+0x98>
   135b4:	10442783          	lw	a5,260(s0)
   135b8:	01478863          	beq	a5,s4,135c8 <__call_exitprocs+0x98>
   135bc:	fff90913          	addi	s2,s2,-1
   135c0:	ffc40413          	addi	s0,s0,-4
   135c4:	fbdff06f          	j	13580 <__call_exitprocs+0x50>
   135c8:	0044a703          	lw	a4,4(s1)
   135cc:	00442783          	lw	a5,4(s0)
   135d0:	fff70713          	addi	a4,a4,-1
   135d4:	03271c63          	bne	a4,s2,1360c <__call_exitprocs+0xdc>
   135d8:	0124a223          	sw	s2,4(s1)
   135dc:	fe0780e3          	beqz	a5,135bc <__call_exitprocs+0x8c>
   135e0:	1884a683          	lw	a3,392(s1)
   135e4:	012b1733          	sll	a4,s6,s2
   135e8:	0044ab83          	lw	s7,4(s1)
   135ec:	00d776b3          	and	a3,a4,a3
   135f0:	02069263          	bnez	a3,13614 <__call_exitprocs+0xe4>
   135f4:	000780e7          	jalr	a5
   135f8:	0044a783          	lw	a5,4(s1)
   135fc:	f77796e3          	bne	a5,s7,13568 <__call_exitprocs+0x38>
   13600:	1489a783          	lw	a5,328(s3)
   13604:	fa978ce3          	beq	a5,s1,135bc <__call_exitprocs+0x8c>
   13608:	f61ff06f          	j	13568 <__call_exitprocs+0x38>
   1360c:	00042223          	sw	zero,4(s0)
   13610:	fcdff06f          	j	135dc <__call_exitprocs+0xac>
   13614:	18c4a683          	lw	a3,396(s1)
   13618:	08442583          	lw	a1,132(s0)
   1361c:	00d77733          	and	a4,a4,a3
   13620:	00071863          	bnez	a4,13630 <__call_exitprocs+0x100>
   13624:	000a8513          	mv	a0,s5
   13628:	000780e7          	jalr	a5
   1362c:	fcdff06f          	j	135f8 <__call_exitprocs+0xc8>
   13630:	00058513          	mv	a0,a1
   13634:	000780e7          	jalr	a5
   13638:	fc1ff06f          	j	135f8 <__call_exitprocs+0xc8>

0001363c <__sflush_r>:
   1363c:	00c59783          	lh	a5,12(a1)
   13640:	fe010113          	addi	sp,sp,-32
   13644:	00812c23          	sw	s0,24(sp)
   13648:	01079713          	slli	a4,a5,0x10
   1364c:	01075713          	srli	a4,a4,0x10
   13650:	00912a23          	sw	s1,20(sp)
   13654:	00112e23          	sw	ra,28(sp)
   13658:	01212823          	sw	s2,16(sp)
   1365c:	01312623          	sw	s3,12(sp)
   13660:	00877693          	andi	a3,a4,8
   13664:	00050493          	mv	s1,a0
   13668:	00058413          	mv	s0,a1
   1366c:	16069c63          	bnez	a3,137e4 <__sflush_r+0x1a8>
   13670:	00001737          	lui	a4,0x1
   13674:	80070713          	addi	a4,a4,-2048 # 800 <_start-0xf800>
   13678:	00e7e7b3          	or	a5,a5,a4
   1367c:	0045a703          	lw	a4,4(a1)
   13680:	00f59623          	sh	a5,12(a1)
   13684:	02e04663          	bgtz	a4,136b0 <__sflush_r+0x74>
   13688:	03c5a703          	lw	a4,60(a1)
   1368c:	02e04263          	bgtz	a4,136b0 <__sflush_r+0x74>
   13690:	00000513          	li	a0,0
   13694:	01c12083          	lw	ra,28(sp)
   13698:	01812403          	lw	s0,24(sp)
   1369c:	01412483          	lw	s1,20(sp)
   136a0:	01012903          	lw	s2,16(sp)
   136a4:	00c12983          	lw	s3,12(sp)
   136a8:	02010113          	addi	sp,sp,32
   136ac:	00008067          	ret
   136b0:	02842703          	lw	a4,40(s0)
   136b4:	fc070ee3          	beqz	a4,13690 <__sflush_r+0x54>
   136b8:	0004a903          	lw	s2,0(s1)
   136bc:	01379693          	slli	a3,a5,0x13
   136c0:	0004a023          	sw	zero,0(s1)
   136c4:	0c06d863          	bgez	a3,13794 <__sflush_r+0x158>
   136c8:	05042603          	lw	a2,80(s0)
   136cc:	00c45783          	lhu	a5,12(s0)
   136d0:	0047f793          	andi	a5,a5,4
   136d4:	00078e63          	beqz	a5,136f0 <__sflush_r+0xb4>
   136d8:	00442783          	lw	a5,4(s0)
   136dc:	40f60633          	sub	a2,a2,a5
   136e0:	03042783          	lw	a5,48(s0)
   136e4:	00078663          	beqz	a5,136f0 <__sflush_r+0xb4>
   136e8:	03c42783          	lw	a5,60(s0)
   136ec:	40f60633          	sub	a2,a2,a5
   136f0:	02842783          	lw	a5,40(s0)
   136f4:	01c42583          	lw	a1,28(s0)
   136f8:	00000693          	li	a3,0
   136fc:	00048513          	mv	a0,s1
   13700:	000780e7          	jalr	a5
   13704:	fff00793          	li	a5,-1
   13708:	00c45683          	lhu	a3,12(s0)
   1370c:	02f51263          	bne	a0,a5,13730 <__sflush_r+0xf4>
   13710:	0004a783          	lw	a5,0(s1)
   13714:	01d00713          	li	a4,29
   13718:	0af76e63          	bltu	a4,a5,137d4 <__sflush_r+0x198>
   1371c:	20400737          	lui	a4,0x20400
   13720:	00170713          	addi	a4,a4,1 # 20400001 <_end+0x203d9b21>
   13724:	00f75733          	srl	a4,a4,a5
   13728:	00177713          	andi	a4,a4,1
   1372c:	0a070463          	beqz	a4,137d4 <__sflush_r+0x198>
   13730:	fffff7b7          	lui	a5,0xfffff
   13734:	7ff78793          	addi	a5,a5,2047 # fffff7ff <_end+0xfffd931f>
   13738:	01042703          	lw	a4,16(s0)
   1373c:	00d7f7b3          	and	a5,a5,a3
   13740:	01079793          	slli	a5,a5,0x10
   13744:	4107d793          	srai	a5,a5,0x10
   13748:	00e42023          	sw	a4,0(s0)
   1374c:	00f41623          	sh	a5,12(s0)
   13750:	00042223          	sw	zero,4(s0)
   13754:	01379713          	slli	a4,a5,0x13
   13758:	00075c63          	bgez	a4,13770 <__sflush_r+0x134>
   1375c:	fff00793          	li	a5,-1
   13760:	00f51663          	bne	a0,a5,1376c <__sflush_r+0x130>
   13764:	0004a783          	lw	a5,0(s1)
   13768:	00079463          	bnez	a5,13770 <__sflush_r+0x134>
   1376c:	04a42823          	sw	a0,80(s0)
   13770:	03042583          	lw	a1,48(s0)
   13774:	0124a023          	sw	s2,0(s1)
   13778:	f0058ce3          	beqz	a1,13690 <__sflush_r+0x54>
   1377c:	04040793          	addi	a5,s0,64
   13780:	00f58663          	beq	a1,a5,1378c <__sflush_r+0x150>
   13784:	00048513          	mv	a0,s1
   13788:	4f4000ef          	jal	ra,13c7c <_free_r>
   1378c:	02042823          	sw	zero,48(s0)
   13790:	f01ff06f          	j	13690 <__sflush_r+0x54>
   13794:	01c42583          	lw	a1,28(s0)
   13798:	00000613          	li	a2,0
   1379c:	00100693          	li	a3,1
   137a0:	00048513          	mv	a0,s1
   137a4:	000700e7          	jalr	a4
   137a8:	fff00793          	li	a5,-1
   137ac:	00050613          	mv	a2,a0
   137b0:	f0f51ee3          	bne	a0,a5,136cc <__sflush_r+0x90>
   137b4:	0004a783          	lw	a5,0(s1)
   137b8:	f0078ae3          	beqz	a5,136cc <__sflush_r+0x90>
   137bc:	01d00713          	li	a4,29
   137c0:	00e78663          	beq	a5,a4,137cc <__sflush_r+0x190>
   137c4:	01600713          	li	a4,22
   137c8:	06e79263          	bne	a5,a4,1382c <__sflush_r+0x1f0>
   137cc:	0124a023          	sw	s2,0(s1)
   137d0:	ec1ff06f          	j	13690 <__sflush_r+0x54>
   137d4:	0406e793          	ori	a5,a3,64
   137d8:	00f41623          	sh	a5,12(s0)
   137dc:	fff00513          	li	a0,-1
   137e0:	eb5ff06f          	j	13694 <__sflush_r+0x58>
   137e4:	0105a983          	lw	s3,16(a1)
   137e8:	ea0984e3          	beqz	s3,13690 <__sflush_r+0x54>
   137ec:	0005a903          	lw	s2,0(a1)
   137f0:	00377713          	andi	a4,a4,3
   137f4:	0135a023          	sw	s3,0(a1)
   137f8:	41390933          	sub	s2,s2,s3
   137fc:	00000793          	li	a5,0
   13800:	00071463          	bnez	a4,13808 <__sflush_r+0x1cc>
   13804:	0145a783          	lw	a5,20(a1)
   13808:	00f42423          	sw	a5,8(s0)
   1380c:	e92052e3          	blez	s2,13690 <__sflush_r+0x54>
   13810:	02442783          	lw	a5,36(s0)
   13814:	01c42583          	lw	a1,28(s0)
   13818:	00090693          	mv	a3,s2
   1381c:	00098613          	mv	a2,s3
   13820:	00048513          	mv	a0,s1
   13824:	000780e7          	jalr	a5
   13828:	00a04863          	bgtz	a0,13838 <__sflush_r+0x1fc>
   1382c:	00c45783          	lhu	a5,12(s0)
   13830:	0407e793          	ori	a5,a5,64
   13834:	fa5ff06f          	j	137d8 <__sflush_r+0x19c>
   13838:	00a989b3          	add	s3,s3,a0
   1383c:	40a90933          	sub	s2,s2,a0
   13840:	fcdff06f          	j	1380c <__sflush_r+0x1d0>

00013844 <_fflush_r>:
   13844:	fe010113          	addi	sp,sp,-32
   13848:	00812c23          	sw	s0,24(sp)
   1384c:	00112e23          	sw	ra,28(sp)
   13850:	00050413          	mv	s0,a0
   13854:	00050c63          	beqz	a0,1386c <_fflush_r+0x28>
   13858:	03852783          	lw	a5,56(a0)
   1385c:	00079863          	bnez	a5,1386c <_fflush_r+0x28>
   13860:	00b12623          	sw	a1,12(sp)
   13864:	170000ef          	jal	ra,139d4 <__sinit>
   13868:	00c12583          	lw	a1,12(sp)
   1386c:	00c59783          	lh	a5,12(a1)
   13870:	00078c63          	beqz	a5,13888 <_fflush_r+0x44>
   13874:	00040513          	mv	a0,s0
   13878:	01812403          	lw	s0,24(sp)
   1387c:	01c12083          	lw	ra,28(sp)
   13880:	02010113          	addi	sp,sp,32
   13884:	db9ff06f          	j	1363c <__sflush_r>
   13888:	01c12083          	lw	ra,28(sp)
   1388c:	01812403          	lw	s0,24(sp)
   13890:	00000513          	li	a0,0
   13894:	02010113          	addi	sp,sp,32
   13898:	00008067          	ret

0001389c <fflush>:
   1389c:	00050593          	mv	a1,a0
   138a0:	00051a63          	bnez	a0,138b4 <fflush+0x18>
   138a4:	8181a503          	lw	a0,-2024(gp) # 23c60 <_global_impure_ptr>
   138a8:	000145b7          	lui	a1,0x14
   138ac:	84458593          	addi	a1,a1,-1980 # 13844 <_fflush_r>
   138b0:	3290006f          	j	143d8 <_fwalk_reent>
   138b4:	8201a503          	lw	a0,-2016(gp) # 23c68 <_impure_ptr>
   138b8:	f8dff06f          	j	13844 <_fflush_r>

000138bc <__fp_lock>:
   138bc:	00000513          	li	a0,0
   138c0:	00008067          	ret

000138c4 <std>:
   138c4:	ff010113          	addi	sp,sp,-16
   138c8:	00812423          	sw	s0,8(sp)
   138cc:	00112623          	sw	ra,12(sp)
   138d0:	00050413          	mv	s0,a0
   138d4:	00b51623          	sh	a1,12(a0)
   138d8:	00c51723          	sh	a2,14(a0)
   138dc:	00052023          	sw	zero,0(a0)
   138e0:	00052223          	sw	zero,4(a0)
   138e4:	00052423          	sw	zero,8(a0)
   138e8:	06052223          	sw	zero,100(a0)
   138ec:	00052823          	sw	zero,16(a0)
   138f0:	00052a23          	sw	zero,20(a0)
   138f4:	00052c23          	sw	zero,24(a0)
   138f8:	00800613          	li	a2,8
   138fc:	00000593          	li	a1,0
   13900:	05c50513          	addi	a0,a0,92
   13904:	c14fd0ef          	jal	ra,10d18 <memset>
   13908:	000187b7          	lui	a5,0x18
   1390c:	f0478793          	addi	a5,a5,-252 # 17f04 <__sread>
   13910:	02f42023          	sw	a5,32(s0)
   13914:	000187b7          	lui	a5,0x18
   13918:	f5c78793          	addi	a5,a5,-164 # 17f5c <__swrite>
   1391c:	02f42223          	sw	a5,36(s0)
   13920:	000187b7          	lui	a5,0x18
   13924:	fe078793          	addi	a5,a5,-32 # 17fe0 <__sseek>
   13928:	02f42423          	sw	a5,40(s0)
   1392c:	000187b7          	lui	a5,0x18
   13930:	03878793          	addi	a5,a5,56 # 18038 <__sclose>
   13934:	00842e23          	sw	s0,28(s0)
   13938:	02f42623          	sw	a5,44(s0)
   1393c:	00c12083          	lw	ra,12(sp)
   13940:	00812403          	lw	s0,8(sp)
   13944:	01010113          	addi	sp,sp,16
   13948:	00008067          	ret

0001394c <_cleanup_r>:
   1394c:	0001b5b7          	lui	a1,0x1b
   13950:	f8858593          	addi	a1,a1,-120 # 1af88 <_fclose_r>
   13954:	2850006f          	j	143d8 <_fwalk_reent>

00013958 <__fp_unlock>:
   13958:	00000513          	li	a0,0
   1395c:	00008067          	ret

00013960 <__sfmoreglue>:
   13960:	ff010113          	addi	sp,sp,-16
   13964:	00912223          	sw	s1,4(sp)
   13968:	06800613          	li	a2,104
   1396c:	fff58493          	addi	s1,a1,-1
   13970:	02c484b3          	mul	s1,s1,a2
   13974:	01212023          	sw	s2,0(sp)
   13978:	00058913          	mv	s2,a1
   1397c:	00812423          	sw	s0,8(sp)
   13980:	00112623          	sw	ra,12(sp)
   13984:	07448593          	addi	a1,s1,116
   13988:	d31fc0ef          	jal	ra,106b8 <_malloc_r>
   1398c:	00050413          	mv	s0,a0
   13990:	02050063          	beqz	a0,139b0 <__sfmoreglue+0x50>
   13994:	00052023          	sw	zero,0(a0)
   13998:	01252223          	sw	s2,4(a0)
   1399c:	00c50513          	addi	a0,a0,12
   139a0:	00a42423          	sw	a0,8(s0)
   139a4:	06848613          	addi	a2,s1,104
   139a8:	00000593          	li	a1,0
   139ac:	b6cfd0ef          	jal	ra,10d18 <memset>
   139b0:	00040513          	mv	a0,s0
   139b4:	00c12083          	lw	ra,12(sp)
   139b8:	00812403          	lw	s0,8(sp)
   139bc:	00412483          	lw	s1,4(sp)
   139c0:	00012903          	lw	s2,0(sp)
   139c4:	01010113          	addi	sp,sp,16
   139c8:	00008067          	ret

000139cc <_cleanup>:
   139cc:	8181a503          	lw	a0,-2024(gp) # 23c60 <_global_impure_ptr>
   139d0:	f7dff06f          	j	1394c <_cleanup_r>

000139d4 <__sinit>:
   139d4:	03852783          	lw	a5,56(a0)
   139d8:	06079e63          	bnez	a5,13a54 <__sinit+0x80>
   139dc:	ff010113          	addi	sp,sp,-16
   139e0:	000147b7          	lui	a5,0x14
   139e4:	00112623          	sw	ra,12(sp)
   139e8:	00812423          	sw	s0,8(sp)
   139ec:	94c78793          	addi	a5,a5,-1716 # 1394c <_cleanup_r>
   139f0:	02f52e23          	sw	a5,60(a0)
   139f4:	00300793          	li	a5,3
   139f8:	2ef52223          	sw	a5,740(a0)
   139fc:	2ec50793          	addi	a5,a0,748
   13a00:	00050413          	mv	s0,a0
   13a04:	2ef52423          	sw	a5,744(a0)
   13a08:	2e052023          	sw	zero,736(a0)
   13a0c:	00452503          	lw	a0,4(a0)
   13a10:	00000613          	li	a2,0
   13a14:	00400593          	li	a1,4
   13a18:	eadff0ef          	jal	ra,138c4 <std>
   13a1c:	00842503          	lw	a0,8(s0)
   13a20:	00100613          	li	a2,1
   13a24:	00900593          	li	a1,9
   13a28:	e9dff0ef          	jal	ra,138c4 <std>
   13a2c:	00c42503          	lw	a0,12(s0)
   13a30:	00200613          	li	a2,2
   13a34:	01200593          	li	a1,18
   13a38:	e8dff0ef          	jal	ra,138c4 <std>
   13a3c:	00100793          	li	a5,1
   13a40:	02f42c23          	sw	a5,56(s0)
   13a44:	00c12083          	lw	ra,12(sp)
   13a48:	00812403          	lw	s0,8(sp)
   13a4c:	01010113          	addi	sp,sp,16
   13a50:	00008067          	ret
   13a54:	00008067          	ret

00013a58 <__sfp>:
   13a58:	ff010113          	addi	sp,sp,-16
   13a5c:	00912223          	sw	s1,4(sp)
   13a60:	8181a483          	lw	s1,-2024(gp) # 23c60 <_global_impure_ptr>
   13a64:	01212023          	sw	s2,0(sp)
   13a68:	00112623          	sw	ra,12(sp)
   13a6c:	0384a783          	lw	a5,56(s1)
   13a70:	00812423          	sw	s0,8(sp)
   13a74:	00050913          	mv	s2,a0
   13a78:	00079663          	bnez	a5,13a84 <__sfp+0x2c>
   13a7c:	00048513          	mv	a0,s1
   13a80:	f55ff0ef          	jal	ra,139d4 <__sinit>
   13a84:	2e048493          	addi	s1,s1,736
   13a88:	0084a403          	lw	s0,8(s1)
   13a8c:	0044a783          	lw	a5,4(s1)
   13a90:	fff78793          	addi	a5,a5,-1
   13a94:	0007da63          	bgez	a5,13aa8 <__sfp+0x50>
   13a98:	0004a783          	lw	a5,0(s1)
   13a9c:	08078063          	beqz	a5,13b1c <__sfp+0xc4>
   13aa0:	0004a483          	lw	s1,0(s1)
   13aa4:	fe5ff06f          	j	13a88 <__sfp+0x30>
   13aa8:	00c41703          	lh	a4,12(s0)
   13aac:	06071463          	bnez	a4,13b14 <__sfp+0xbc>
   13ab0:	ffff07b7          	lui	a5,0xffff0
   13ab4:	00178793          	addi	a5,a5,1 # ffff0001 <_end+0xfffc9b21>
   13ab8:	06042223          	sw	zero,100(s0)
   13abc:	00042023          	sw	zero,0(s0)
   13ac0:	00042223          	sw	zero,4(s0)
   13ac4:	00042423          	sw	zero,8(s0)
   13ac8:	00f42623          	sw	a5,12(s0)
   13acc:	00042823          	sw	zero,16(s0)
   13ad0:	00042a23          	sw	zero,20(s0)
   13ad4:	00042c23          	sw	zero,24(s0)
   13ad8:	00800613          	li	a2,8
   13adc:	00000593          	li	a1,0
   13ae0:	05c40513          	addi	a0,s0,92
   13ae4:	a34fd0ef          	jal	ra,10d18 <memset>
   13ae8:	02042823          	sw	zero,48(s0)
   13aec:	02042a23          	sw	zero,52(s0)
   13af0:	04042223          	sw	zero,68(s0)
   13af4:	04042423          	sw	zero,72(s0)
   13af8:	00040513          	mv	a0,s0
   13afc:	00c12083          	lw	ra,12(sp)
   13b00:	00812403          	lw	s0,8(sp)
   13b04:	00412483          	lw	s1,4(sp)
   13b08:	00012903          	lw	s2,0(sp)
   13b0c:	01010113          	addi	sp,sp,16
   13b10:	00008067          	ret
   13b14:	06840413          	addi	s0,s0,104
   13b18:	f79ff06f          	j	13a90 <__sfp+0x38>
   13b1c:	00400593          	li	a1,4
   13b20:	00090513          	mv	a0,s2
   13b24:	e3dff0ef          	jal	ra,13960 <__sfmoreglue>
   13b28:	00a4a023          	sw	a0,0(s1)
   13b2c:	f6051ae3          	bnez	a0,13aa0 <__sfp+0x48>
   13b30:	00c00793          	li	a5,12
   13b34:	00f92023          	sw	a5,0(s2)
   13b38:	00000413          	li	s0,0
   13b3c:	fbdff06f          	j	13af8 <__sfp+0xa0>

00013b40 <__sfp_lock_acquire>:
   13b40:	00008067          	ret

00013b44 <__sfp_lock_release>:
   13b44:	00008067          	ret

00013b48 <__sinit_lock_acquire>:
   13b48:	00008067          	ret

00013b4c <__sinit_lock_release>:
   13b4c:	00008067          	ret

00013b50 <__fp_lock_all>:
   13b50:	8201a503          	lw	a0,-2016(gp) # 23c68 <_impure_ptr>
   13b54:	000145b7          	lui	a1,0x14
   13b58:	8bc58593          	addi	a1,a1,-1860 # 138bc <__fp_lock>
   13b5c:	7dc0006f          	j	14338 <_fwalk>

00013b60 <__fp_unlock_all>:
   13b60:	8201a503          	lw	a0,-2016(gp) # 23c68 <_impure_ptr>
   13b64:	000145b7          	lui	a1,0x14
   13b68:	95858593          	addi	a1,a1,-1704 # 13958 <__fp_unlock>
   13b6c:	7cc0006f          	j	14338 <_fwalk>

00013b70 <_malloc_trim_r>:
   13b70:	fe010113          	addi	sp,sp,-32
   13b74:	01212823          	sw	s2,16(sp)
   13b78:	00023937          	lui	s2,0x23
   13b7c:	00812c23          	sw	s0,24(sp)
   13b80:	00912a23          	sw	s1,20(sp)
   13b84:	01312623          	sw	s3,12(sp)
   13b88:	00058413          	mv	s0,a1
   13b8c:	00112e23          	sw	ra,28(sp)
   13b90:	00050993          	mv	s3,a0
   13b94:	6d090913          	addi	s2,s2,1744 # 236d0 <__malloc_av_>
   13b98:	a5cfd0ef          	jal	ra,10df4 <__malloc_lock>
   13b9c:	00892783          	lw	a5,8(s2)
   13ba0:	00001737          	lui	a4,0x1
   13ba4:	0047a483          	lw	s1,4(a5)
   13ba8:	fef70793          	addi	a5,a4,-17 # fef <_start-0xf011>
   13bac:	40878433          	sub	s0,a5,s0
   13bb0:	ffc4f493          	andi	s1,s1,-4
   13bb4:	00940433          	add	s0,s0,s1
   13bb8:	00c45413          	srli	s0,s0,0xc
   13bbc:	fff40413          	addi	s0,s0,-1
   13bc0:	00c41413          	slli	s0,s0,0xc
   13bc4:	02e45663          	ble	a4,s0,13bf0 <_malloc_trim_r+0x80>
   13bc8:	00098513          	mv	a0,s3
   13bcc:	a2cfd0ef          	jal	ra,10df8 <__malloc_unlock>
   13bd0:	00000513          	li	a0,0
   13bd4:	01c12083          	lw	ra,28(sp)
   13bd8:	01812403          	lw	s0,24(sp)
   13bdc:	01412483          	lw	s1,20(sp)
   13be0:	01012903          	lw	s2,16(sp)
   13be4:	00c12983          	lw	s3,12(sp)
   13be8:	02010113          	addi	sp,sp,32
   13bec:	00008067          	ret
   13bf0:	00000593          	li	a1,0
   13bf4:	00098513          	mv	a0,s3
   13bf8:	c1cfd0ef          	jal	ra,11014 <_sbrk_r>
   13bfc:	00892783          	lw	a5,8(s2)
   13c00:	009787b3          	add	a5,a5,s1
   13c04:	fcf512e3          	bne	a0,a5,13bc8 <_malloc_trim_r+0x58>
   13c08:	408005b3          	neg	a1,s0
   13c0c:	00098513          	mv	a0,s3
   13c10:	c04fd0ef          	jal	ra,11014 <_sbrk_r>
   13c14:	fff00793          	li	a5,-1
   13c18:	02f51c63          	bne	a0,a5,13c50 <_malloc_trim_r+0xe0>
   13c1c:	00000593          	li	a1,0
   13c20:	00098513          	mv	a0,s3
   13c24:	bf0fd0ef          	jal	ra,11014 <_sbrk_r>
   13c28:	00892703          	lw	a4,8(s2)
   13c2c:	00f00693          	li	a3,15
   13c30:	40e507b3          	sub	a5,a0,a4
   13c34:	f8f6dae3          	ble	a5,a3,13bc8 <_malloc_trim_r+0x58>
   13c38:	8241a683          	lw	a3,-2012(gp) # 23c6c <__malloc_sbrk_base>
   13c3c:	0017e793          	ori	a5,a5,1
   13c40:	00f72223          	sw	a5,4(a4)
   13c44:	40d50533          	sub	a0,a0,a3
   13c48:	86a1a023          	sw	a0,-1952(gp) # 23ca8 <__malloc_current_mallinfo>
   13c4c:	f7dff06f          	j	13bc8 <_malloc_trim_r+0x58>
   13c50:	00892783          	lw	a5,8(s2)
   13c54:	408484b3          	sub	s1,s1,s0
   13c58:	0014e493          	ori	s1,s1,1
   13c5c:	0097a223          	sw	s1,4(a5)
   13c60:	8601a783          	lw	a5,-1952(gp) # 23ca8 <__malloc_current_mallinfo>
   13c64:	00098513          	mv	a0,s3
   13c68:	40878433          	sub	s0,a5,s0
   13c6c:	8681a023          	sw	s0,-1952(gp) # 23ca8 <__malloc_current_mallinfo>
   13c70:	988fd0ef          	jal	ra,10df8 <__malloc_unlock>
   13c74:	00100513          	li	a0,1
   13c78:	f5dff06f          	j	13bd4 <_malloc_trim_r+0x64>

00013c7c <_free_r>:
   13c7c:	24058c63          	beqz	a1,13ed4 <_free_r+0x258>
   13c80:	ff010113          	addi	sp,sp,-16
   13c84:	00812423          	sw	s0,8(sp)
   13c88:	00912223          	sw	s1,4(sp)
   13c8c:	00050413          	mv	s0,a0
   13c90:	00058493          	mv	s1,a1
   13c94:	00112623          	sw	ra,12(sp)
   13c98:	95cfd0ef          	jal	ra,10df4 <__malloc_lock>
   13c9c:	ffc4a503          	lw	a0,-4(s1)
   13ca0:	00023637          	lui	a2,0x23
   13ca4:	ff848693          	addi	a3,s1,-8
   13ca8:	ffe57793          	andi	a5,a0,-2
   13cac:	6d060813          	addi	a6,a2,1744 # 236d0 <__malloc_av_>
   13cb0:	00f685b3          	add	a1,a3,a5
   13cb4:	0045a703          	lw	a4,4(a1)
   13cb8:	00882803          	lw	a6,8(a6)
   13cbc:	6d060613          	addi	a2,a2,1744
   13cc0:	ffc77713          	andi	a4,a4,-4
   13cc4:	00157513          	andi	a0,a0,1
   13cc8:	06b81063          	bne	a6,a1,13d28 <_free_r+0xac>
   13ccc:	00e787b3          	add	a5,a5,a4
   13cd0:	02051063          	bnez	a0,13cf0 <_free_r+0x74>
   13cd4:	ff84a703          	lw	a4,-8(s1)
   13cd8:	40e686b3          	sub	a3,a3,a4
   13cdc:	0086a583          	lw	a1,8(a3)
   13ce0:	00e787b3          	add	a5,a5,a4
   13ce4:	00c6a703          	lw	a4,12(a3)
   13ce8:	00e5a623          	sw	a4,12(a1)
   13cec:	00b72423          	sw	a1,8(a4)
   13cf0:	0017e713          	ori	a4,a5,1
   13cf4:	00e6a223          	sw	a4,4(a3)
   13cf8:	8281a703          	lw	a4,-2008(gp) # 23c70 <__malloc_trim_threshold>
   13cfc:	00d62423          	sw	a3,8(a2)
   13d00:	00e7e863          	bltu	a5,a4,13d10 <_free_r+0x94>
   13d04:	83c1a583          	lw	a1,-1988(gp) # 23c84 <__malloc_top_pad>
   13d08:	00040513          	mv	a0,s0
   13d0c:	e65ff0ef          	jal	ra,13b70 <_malloc_trim_r>
   13d10:	00040513          	mv	a0,s0
   13d14:	00812403          	lw	s0,8(sp)
   13d18:	00c12083          	lw	ra,12(sp)
   13d1c:	00412483          	lw	s1,4(sp)
   13d20:	01010113          	addi	sp,sp,16
   13d24:	8d4fd06f          	j	10df8 <__malloc_unlock>
   13d28:	00e5a223          	sw	a4,4(a1)
   13d2c:	00000813          	li	a6,0
   13d30:	02051663          	bnez	a0,13d5c <_free_r+0xe0>
   13d34:	ff84a503          	lw	a0,-8(s1)
   13d38:	000238b7          	lui	a7,0x23
   13d3c:	6d888893          	addi	a7,a7,1752 # 236d8 <__malloc_av_+0x8>
   13d40:	40a686b3          	sub	a3,a3,a0
   13d44:	00a787b3          	add	a5,a5,a0
   13d48:	0086a503          	lw	a0,8(a3)
   13d4c:	0b150663          	beq	a0,a7,13df8 <_free_r+0x17c>
   13d50:	00c6a883          	lw	a7,12(a3)
   13d54:	01152623          	sw	a7,12(a0)
   13d58:	00a8a423          	sw	a0,8(a7)
   13d5c:	00e58533          	add	a0,a1,a4
   13d60:	00452503          	lw	a0,4(a0)
   13d64:	00157513          	andi	a0,a0,1
   13d68:	02051863          	bnez	a0,13d98 <_free_r+0x11c>
   13d6c:	00e787b3          	add	a5,a5,a4
   13d70:	0085a703          	lw	a4,8(a1)
   13d74:	08081663          	bnez	a6,13e00 <_free_r+0x184>
   13d78:	00023537          	lui	a0,0x23
   13d7c:	6d850513          	addi	a0,a0,1752 # 236d8 <__malloc_av_+0x8>
   13d80:	08a71063          	bne	a4,a0,13e00 <_free_r+0x184>
   13d84:	00d62a23          	sw	a3,20(a2)
   13d88:	00d62823          	sw	a3,16(a2)
   13d8c:	00e6a623          	sw	a4,12(a3)
   13d90:	00e6a423          	sw	a4,8(a3)
   13d94:	00100813          	li	a6,1
   13d98:	0017e713          	ori	a4,a5,1
   13d9c:	00e6a223          	sw	a4,4(a3)
   13da0:	00f68733          	add	a4,a3,a5
   13da4:	00f72023          	sw	a5,0(a4)
   13da8:	f60814e3          	bnez	a6,13d10 <_free_r+0x94>
   13dac:	1ff00713          	li	a4,511
   13db0:	06f76063          	bltu	a4,a5,13e10 <_free_r+0x194>
   13db4:	0037d793          	srli	a5,a5,0x3
   13db8:	4027d593          	srai	a1,a5,0x2
   13dbc:	00100713          	li	a4,1
   13dc0:	00b71733          	sll	a4,a4,a1
   13dc4:	00462583          	lw	a1,4(a2)
   13dc8:	00178793          	addi	a5,a5,1
   13dcc:	00379793          	slli	a5,a5,0x3
   13dd0:	00f607b3          	add	a5,a2,a5
   13dd4:	00b76733          	or	a4,a4,a1
   13dd8:	00e62223          	sw	a4,4(a2)
   13ddc:	0007a703          	lw	a4,0(a5)
   13de0:	ff878613          	addi	a2,a5,-8
   13de4:	00c6a623          	sw	a2,12(a3)
   13de8:	00e6a423          	sw	a4,8(a3)
   13dec:	00d7a023          	sw	a3,0(a5)
   13df0:	00d72623          	sw	a3,12(a4)
   13df4:	f1dff06f          	j	13d10 <_free_r+0x94>
   13df8:	00100813          	li	a6,1
   13dfc:	f61ff06f          	j	13d5c <_free_r+0xe0>
   13e00:	00c5a583          	lw	a1,12(a1)
   13e04:	00b72623          	sw	a1,12(a4)
   13e08:	00e5a423          	sw	a4,8(a1)
   13e0c:	f8dff06f          	j	13d98 <_free_r+0x11c>
   13e10:	0097d593          	srli	a1,a5,0x9
   13e14:	00400713          	li	a4,4
   13e18:	04b76863          	bltu	a4,a1,13e68 <_free_r+0x1ec>
   13e1c:	0067d713          	srli	a4,a5,0x6
   13e20:	03870713          	addi	a4,a4,56
   13e24:	00170593          	addi	a1,a4,1
   13e28:	00359593          	slli	a1,a1,0x3
   13e2c:	00b605b3          	add	a1,a2,a1
   13e30:	ff858513          	addi	a0,a1,-8
   13e34:	0005a583          	lw	a1,0(a1)
   13e38:	08b51463          	bne	a0,a1,13ec0 <_free_r+0x244>
   13e3c:	00100793          	li	a5,1
   13e40:	40275713          	srai	a4,a4,0x2
   13e44:	00e79733          	sll	a4,a5,a4
   13e48:	00462783          	lw	a5,4(a2)
   13e4c:	00f76733          	or	a4,a4,a5
   13e50:	00e62223          	sw	a4,4(a2)
   13e54:	00a6a623          	sw	a0,12(a3)
   13e58:	00b6a423          	sw	a1,8(a3)
   13e5c:	00d52423          	sw	a3,8(a0)
   13e60:	00d5a623          	sw	a3,12(a1)
   13e64:	eadff06f          	j	13d10 <_free_r+0x94>
   13e68:	01400713          	li	a4,20
   13e6c:	00b76663          	bltu	a4,a1,13e78 <_free_r+0x1fc>
   13e70:	05b58713          	addi	a4,a1,91
   13e74:	fb1ff06f          	j	13e24 <_free_r+0x1a8>
   13e78:	05400713          	li	a4,84
   13e7c:	00b76863          	bltu	a4,a1,13e8c <_free_r+0x210>
   13e80:	00c7d713          	srli	a4,a5,0xc
   13e84:	06e70713          	addi	a4,a4,110
   13e88:	f9dff06f          	j	13e24 <_free_r+0x1a8>
   13e8c:	15400713          	li	a4,340
   13e90:	00b76863          	bltu	a4,a1,13ea0 <_free_r+0x224>
   13e94:	00f7d713          	srli	a4,a5,0xf
   13e98:	07770713          	addi	a4,a4,119
   13e9c:	f89ff06f          	j	13e24 <_free_r+0x1a8>
   13ea0:	55400513          	li	a0,1364
   13ea4:	07e00713          	li	a4,126
   13ea8:	f6b56ee3          	bltu	a0,a1,13e24 <_free_r+0x1a8>
   13eac:	0127d713          	srli	a4,a5,0x12
   13eb0:	07c70713          	addi	a4,a4,124
   13eb4:	f71ff06f          	j	13e24 <_free_r+0x1a8>
   13eb8:	0085a583          	lw	a1,8(a1)
   13ebc:	00b50863          	beq	a0,a1,13ecc <_free_r+0x250>
   13ec0:	0045a703          	lw	a4,4(a1)
   13ec4:	ffc77713          	andi	a4,a4,-4
   13ec8:	fee7e8e3          	bltu	a5,a4,13eb8 <_free_r+0x23c>
   13ecc:	00c5a503          	lw	a0,12(a1)
   13ed0:	f85ff06f          	j	13e54 <_free_r+0x1d8>
   13ed4:	00008067          	ret

00013ed8 <__sfvwrite_r>:
   13ed8:	00862783          	lw	a5,8(a2)
   13edc:	00079863          	bnez	a5,13eec <__sfvwrite_r+0x14>
   13ee0:	00000793          	li	a5,0
   13ee4:	00078513          	mv	a0,a5
   13ee8:	00008067          	ret
   13eec:	00c5d783          	lhu	a5,12(a1)
   13ef0:	fb010113          	addi	sp,sp,-80
   13ef4:	04812423          	sw	s0,72(sp)
   13ef8:	05212023          	sw	s2,64(sp)
   13efc:	03512a23          	sw	s5,52(sp)
   13f00:	04112623          	sw	ra,76(sp)
   13f04:	04912223          	sw	s1,68(sp)
   13f08:	03312e23          	sw	s3,60(sp)
   13f0c:	03412c23          	sw	s4,56(sp)
   13f10:	03612823          	sw	s6,48(sp)
   13f14:	03712623          	sw	s7,44(sp)
   13f18:	03812423          	sw	s8,40(sp)
   13f1c:	03912223          	sw	s9,36(sp)
   13f20:	03a12023          	sw	s10,32(sp)
   13f24:	01b12e23          	sw	s11,28(sp)
   13f28:	0087f793          	andi	a5,a5,8
   13f2c:	00060a93          	mv	s5,a2
   13f30:	00058413          	mv	s0,a1
   13f34:	00050913          	mv	s2,a0
   13f38:	0e078263          	beqz	a5,1401c <__sfvwrite_r+0x144>
   13f3c:	0105a783          	lw	a5,16(a1)
   13f40:	0c078e63          	beqz	a5,1401c <__sfvwrite_r+0x144>
   13f44:	00c45783          	lhu	a5,12(s0)
   13f48:	000aaa03          	lw	s4,0(s5)
   13f4c:	0027f713          	andi	a4,a5,2
   13f50:	16071a63          	bnez	a4,140c4 <__sfvwrite_r+0x1ec>
   13f54:	0017f793          	andi	a5,a5,1
   13f58:	20078463          	beqz	a5,14160 <__sfvwrite_r+0x288>
   13f5c:	00000b93          	li	s7,0
   13f60:	00000513          	li	a0,0
   13f64:	00000b13          	li	s6,0
   13f68:	00000993          	li	s3,0
   13f6c:	36098463          	beqz	s3,142d4 <__sfvwrite_r+0x3fc>
   13f70:	02051263          	bnez	a0,13f94 <__sfvwrite_r+0xbc>
   13f74:	00098613          	mv	a2,s3
   13f78:	00a00593          	li	a1,10
   13f7c:	000b0513          	mv	a0,s6
   13f80:	78c020ef          	jal	ra,1670c <memchr>
   13f84:	00198b93          	addi	s7,s3,1
   13f88:	00050663          	beqz	a0,13f94 <__sfvwrite_r+0xbc>
   13f8c:	00150513          	addi	a0,a0,1
   13f90:	41650bb3          	sub	s7,a0,s6
   13f94:	000b8c13          	mv	s8,s7
   13f98:	0179f463          	bleu	s7,s3,13fa0 <__sfvwrite_r+0xc8>
   13f9c:	00098c13          	mv	s8,s3
   13fa0:	00042503          	lw	a0,0(s0)
   13fa4:	01042783          	lw	a5,16(s0)
   13fa8:	01442683          	lw	a3,20(s0)
   13fac:	32a7fe63          	bleu	a0,a5,142e8 <__sfvwrite_r+0x410>
   13fb0:	00842483          	lw	s1,8(s0)
   13fb4:	009684b3          	add	s1,a3,s1
   13fb8:	3384d863          	ble	s8,s1,142e8 <__sfvwrite_r+0x410>
   13fbc:	000b0593          	mv	a1,s6
   13fc0:	00048613          	mv	a2,s1
   13fc4:	045020ef          	jal	ra,16808 <memmove>
   13fc8:	00042783          	lw	a5,0(s0)
   13fcc:	00040593          	mv	a1,s0
   13fd0:	00090513          	mv	a0,s2
   13fd4:	009787b3          	add	a5,a5,s1
   13fd8:	00f42023          	sw	a5,0(s0)
   13fdc:	869ff0ef          	jal	ra,13844 <_fflush_r>
   13fe0:	16051663          	bnez	a0,1414c <__sfvwrite_r+0x274>
   13fe4:	409b8bb3          	sub	s7,s7,s1
   13fe8:	00100513          	li	a0,1
   13fec:	000b9a63          	bnez	s7,14000 <__sfvwrite_r+0x128>
   13ff0:	00040593          	mv	a1,s0
   13ff4:	00090513          	mv	a0,s2
   13ff8:	84dff0ef          	jal	ra,13844 <_fflush_r>
   13ffc:	14051863          	bnez	a0,1414c <__sfvwrite_r+0x274>
   14000:	008aa783          	lw	a5,8(s5)
   14004:	009b0b33          	add	s6,s6,s1
   14008:	409989b3          	sub	s3,s3,s1
   1400c:	409784b3          	sub	s1,a5,s1
   14010:	009aa423          	sw	s1,8(s5)
   14014:	f4049ce3          	bnez	s1,13f6c <__sfvwrite_r+0x94>
   14018:	0680006f          	j	14080 <__sfvwrite_r+0x1a8>
   1401c:	00040593          	mv	a1,s0
   14020:	00090513          	mv	a0,s2
   14024:	b5cff0ef          	jal	ra,13380 <__swsetup_r>
   14028:	fff00793          	li	a5,-1
   1402c:	f0050ce3          	beqz	a0,13f44 <__sfvwrite_r+0x6c>
   14030:	0540006f          	j	14084 <__sfvwrite_r+0x1ac>
   14034:	000a2983          	lw	s3,0(s4)
   14038:	004a2483          	lw	s1,4(s4)
   1403c:	008a0a13          	addi	s4,s4,8
   14040:	fe048ae3          	beqz	s1,14034 <__sfvwrite_r+0x15c>
   14044:	00048693          	mv	a3,s1
   14048:	009b7463          	bleu	s1,s6,14050 <__sfvwrite_r+0x178>
   1404c:	000b0693          	mv	a3,s6
   14050:	02442783          	lw	a5,36(s0)
   14054:	01c42583          	lw	a1,28(s0)
   14058:	00098613          	mv	a2,s3
   1405c:	00090513          	mv	a0,s2
   14060:	000780e7          	jalr	a5
   14064:	0ea05463          	blez	a0,1414c <__sfvwrite_r+0x274>
   14068:	008aa783          	lw	a5,8(s5)
   1406c:	00a989b3          	add	s3,s3,a0
   14070:	40a484b3          	sub	s1,s1,a0
   14074:	40a78533          	sub	a0,a5,a0
   14078:	00aaa423          	sw	a0,8(s5)
   1407c:	fc0512e3          	bnez	a0,14040 <__sfvwrite_r+0x168>
   14080:	00000793          	li	a5,0
   14084:	04c12083          	lw	ra,76(sp)
   14088:	04812403          	lw	s0,72(sp)
   1408c:	04412483          	lw	s1,68(sp)
   14090:	04012903          	lw	s2,64(sp)
   14094:	03c12983          	lw	s3,60(sp)
   14098:	03812a03          	lw	s4,56(sp)
   1409c:	03412a83          	lw	s5,52(sp)
   140a0:	03012b03          	lw	s6,48(sp)
   140a4:	02c12b83          	lw	s7,44(sp)
   140a8:	02812c03          	lw	s8,40(sp)
   140ac:	02412c83          	lw	s9,36(sp)
   140b0:	02012d03          	lw	s10,32(sp)
   140b4:	01c12d83          	lw	s11,28(sp)
   140b8:	00078513          	mv	a0,a5
   140bc:	05010113          	addi	sp,sp,80
   140c0:	00008067          	ret
   140c4:	80000b37          	lui	s6,0x80000
   140c8:	00000993          	li	s3,0
   140cc:	00000493          	li	s1,0
   140d0:	c00b4b13          	xori	s6,s6,-1024
   140d4:	f6dff06f          	j	14040 <__sfvwrite_r+0x168>
   140d8:	000a2b03          	lw	s6,0(s4)
   140dc:	004a2483          	lw	s1,4(s4)
   140e0:	008a0a13          	addi	s4,s4,8
   140e4:	fe048ae3          	beqz	s1,140d8 <__sfvwrite_r+0x200>
   140e8:	00c45703          	lhu	a4,12(s0)
   140ec:	00842783          	lw	a5,8(s0)
   140f0:	00042503          	lw	a0,0(s0)
   140f4:	20077693          	andi	a3,a4,512
   140f8:	14068863          	beqz	a3,14248 <__sfvwrite_r+0x370>
   140fc:	0cf4e263          	bltu	s1,a5,141c0 <__sfvwrite_r+0x2e8>
   14100:	48077693          	andi	a3,a4,1152
   14104:	0a068e63          	beqz	a3,141c0 <__sfvwrite_r+0x2e8>
   14108:	01442d83          	lw	s11,20(s0)
   1410c:	01042583          	lw	a1,16(s0)
   14110:	03bc8db3          	mul	s11,s9,s11
   14114:	40b509b3          	sub	s3,a0,a1
   14118:	00198793          	addi	a5,s3,1
   1411c:	009787b3          	add	a5,a5,s1
   14120:	03adcdb3          	div	s11,s11,s10
   14124:	00fdf463          	bleu	a5,s11,1412c <__sfvwrite_r+0x254>
   14128:	00078d93          	mv	s11,a5
   1412c:	40077713          	andi	a4,a4,1024
   14130:	0e070463          	beqz	a4,14218 <__sfvwrite_r+0x340>
   14134:	000d8593          	mv	a1,s11
   14138:	00090513          	mv	a0,s2
   1413c:	d7cfc0ef          	jal	ra,106b8 <_malloc_r>
   14140:	04051063          	bnez	a0,14180 <__sfvwrite_r+0x2a8>
   14144:	00c00793          	li	a5,12
   14148:	00f92023          	sw	a5,0(s2)
   1414c:	00c45783          	lhu	a5,12(s0)
   14150:	0407e793          	ori	a5,a5,64
   14154:	00f41623          	sh	a5,12(s0)
   14158:	fff00793          	li	a5,-1
   1415c:	f29ff06f          	j	14084 <__sfvwrite_r+0x1ac>
   14160:	80000bb7          	lui	s7,0x80000
   14164:	ffebcc13          	xori	s8,s7,-2
   14168:	00000b13          	li	s6,0
   1416c:	00000493          	li	s1,0
   14170:	fffbcb93          	not	s7,s7
   14174:	00300c93          	li	s9,3
   14178:	00200d13          	li	s10,2
   1417c:	f69ff06f          	j	140e4 <__sfvwrite_r+0x20c>
   14180:	01042583          	lw	a1,16(s0)
   14184:	00098613          	mv	a2,s3
   14188:	00a12623          	sw	a0,12(sp)
   1418c:	5a4020ef          	jal	ra,16730 <memcpy>
   14190:	00c45703          	lhu	a4,12(s0)
   14194:	00c12783          	lw	a5,12(sp)
   14198:	b7f77713          	andi	a4,a4,-1153
   1419c:	08076713          	ori	a4,a4,128
   141a0:	00e41623          	sh	a4,12(s0)
   141a4:	00f42823          	sw	a5,16(s0)
   141a8:	01b42a23          	sw	s11,20(s0)
   141ac:	013787b3          	add	a5,a5,s3
   141b0:	413d8db3          	sub	s11,s11,s3
   141b4:	00f42023          	sw	a5,0(s0)
   141b8:	01b42423          	sw	s11,8(s0)
   141bc:	00048793          	mv	a5,s1
   141c0:	00048993          	mv	s3,s1
   141c4:	00f4f463          	bleu	a5,s1,141cc <__sfvwrite_r+0x2f4>
   141c8:	00048793          	mv	a5,s1
   141cc:	00042503          	lw	a0,0(s0)
   141d0:	00078613          	mv	a2,a5
   141d4:	000b0593          	mv	a1,s6
   141d8:	00f12623          	sw	a5,12(sp)
   141dc:	62c020ef          	jal	ra,16808 <memmove>
   141e0:	00842703          	lw	a4,8(s0)
   141e4:	00c12783          	lw	a5,12(sp)
   141e8:	40f70733          	sub	a4,a4,a5
   141ec:	00e42423          	sw	a4,8(s0)
   141f0:	00042703          	lw	a4,0(s0)
   141f4:	00f707b3          	add	a5,a4,a5
   141f8:	00f42023          	sw	a5,0(s0)
   141fc:	008aa783          	lw	a5,8(s5)
   14200:	013b0b33          	add	s6,s6,s3
   14204:	413484b3          	sub	s1,s1,s3
   14208:	413789b3          	sub	s3,a5,s3
   1420c:	013aa423          	sw	s3,8(s5)
   14210:	ec099ae3          	bnez	s3,140e4 <__sfvwrite_r+0x20c>
   14214:	e6dff06f          	j	14080 <__sfvwrite_r+0x1a8>
   14218:	000d8613          	mv	a2,s11
   1421c:	00090513          	mv	a0,s2
   14220:	4b8030ef          	jal	ra,176d8 <_realloc_r>
   14224:	00050793          	mv	a5,a0
   14228:	f6051ee3          	bnez	a0,141a4 <__sfvwrite_r+0x2cc>
   1422c:	01042583          	lw	a1,16(s0)
   14230:	00090513          	mv	a0,s2
   14234:	a49ff0ef          	jal	ra,13c7c <_free_r>
   14238:	00c45783          	lhu	a5,12(s0)
   1423c:	f7f7f793          	andi	a5,a5,-129
   14240:	00f41623          	sh	a5,12(s0)
   14244:	f01ff06f          	j	14144 <__sfvwrite_r+0x26c>
   14248:	01042703          	lw	a4,16(s0)
   1424c:	00a76663          	bltu	a4,a0,14258 <__sfvwrite_r+0x380>
   14250:	01442683          	lw	a3,20(s0)
   14254:	04d4f663          	bleu	a3,s1,142a0 <__sfvwrite_r+0x3c8>
   14258:	00078993          	mv	s3,a5
   1425c:	00f4f463          	bleu	a5,s1,14264 <__sfvwrite_r+0x38c>
   14260:	00048993          	mv	s3,s1
   14264:	00098613          	mv	a2,s3
   14268:	000b0593          	mv	a1,s6
   1426c:	59c020ef          	jal	ra,16808 <memmove>
   14270:	00842783          	lw	a5,8(s0)
   14274:	00042703          	lw	a4,0(s0)
   14278:	413787b3          	sub	a5,a5,s3
   1427c:	01370733          	add	a4,a4,s3
   14280:	00f42423          	sw	a5,8(s0)
   14284:	00e42023          	sw	a4,0(s0)
   14288:	f6079ae3          	bnez	a5,141fc <__sfvwrite_r+0x324>
   1428c:	00040593          	mv	a1,s0
   14290:	00090513          	mv	a0,s2
   14294:	db0ff0ef          	jal	ra,13844 <_fflush_r>
   14298:	f60502e3          	beqz	a0,141fc <__sfvwrite_r+0x324>
   1429c:	eb1ff06f          	j	1414c <__sfvwrite_r+0x274>
   142a0:	00048793          	mv	a5,s1
   142a4:	009c7463          	bleu	s1,s8,142ac <__sfvwrite_r+0x3d4>
   142a8:	000b8793          	mv	a5,s7
   142ac:	02d7c7b3          	div	a5,a5,a3
   142b0:	02442703          	lw	a4,36(s0)
   142b4:	01c42583          	lw	a1,28(s0)
   142b8:	000b0613          	mv	a2,s6
   142bc:	00090513          	mv	a0,s2
   142c0:	02d786b3          	mul	a3,a5,a3
   142c4:	000700e7          	jalr	a4
   142c8:	00050993          	mv	s3,a0
   142cc:	f2a048e3          	bgtz	a0,141fc <__sfvwrite_r+0x324>
   142d0:	e7dff06f          	j	1414c <__sfvwrite_r+0x274>
   142d4:	000a2b03          	lw	s6,0(s4)
   142d8:	004a2983          	lw	s3,4(s4)
   142dc:	00000513          	li	a0,0
   142e0:	008a0a13          	addi	s4,s4,8
   142e4:	c89ff06f          	j	13f6c <__sfvwrite_r+0x94>
   142e8:	02dc4263          	blt	s8,a3,1430c <__sfvwrite_r+0x434>
   142ec:	02442783          	lw	a5,36(s0)
   142f0:	01c42583          	lw	a1,28(s0)
   142f4:	000b0613          	mv	a2,s6
   142f8:	00090513          	mv	a0,s2
   142fc:	000780e7          	jalr	a5
   14300:	00050493          	mv	s1,a0
   14304:	cea040e3          	bgtz	a0,13fe4 <__sfvwrite_r+0x10c>
   14308:	e45ff06f          	j	1414c <__sfvwrite_r+0x274>
   1430c:	000c0613          	mv	a2,s8
   14310:	000b0593          	mv	a1,s6
   14314:	4f4020ef          	jal	ra,16808 <memmove>
   14318:	00842783          	lw	a5,8(s0)
   1431c:	000c0493          	mv	s1,s8
   14320:	418787b3          	sub	a5,a5,s8
   14324:	00f42423          	sw	a5,8(s0)
   14328:	00042783          	lw	a5,0(s0)
   1432c:	018787b3          	add	a5,a5,s8
   14330:	00f42023          	sw	a5,0(s0)
   14334:	cb1ff06f          	j	13fe4 <__sfvwrite_r+0x10c>

00014338 <_fwalk>:
   14338:	fd010113          	addi	sp,sp,-48
   1433c:	02812423          	sw	s0,40(sp)
   14340:	03212023          	sw	s2,32(sp)
   14344:	01412c23          	sw	s4,24(sp)
   14348:	01512a23          	sw	s5,20(sp)
   1434c:	02112623          	sw	ra,44(sp)
   14350:	02912223          	sw	s1,36(sp)
   14354:	01312e23          	sw	s3,28(sp)
   14358:	2e050413          	addi	s0,a0,736
   1435c:	00000913          	li	s2,0
   14360:	00100a13          	li	s4,1
   14364:	fff00a93          	li	s5,-1
   14368:	02041663          	bnez	s0,14394 <_fwalk+0x5c>
   1436c:	02c12083          	lw	ra,44(sp)
   14370:	02812403          	lw	s0,40(sp)
   14374:	00090513          	mv	a0,s2
   14378:	02412483          	lw	s1,36(sp)
   1437c:	02012903          	lw	s2,32(sp)
   14380:	01c12983          	lw	s3,28(sp)
   14384:	01812a03          	lw	s4,24(sp)
   14388:	01412a83          	lw	s5,20(sp)
   1438c:	03010113          	addi	sp,sp,48
   14390:	00008067          	ret
   14394:	00842483          	lw	s1,8(s0)
   14398:	00442983          	lw	s3,4(s0)
   1439c:	fff98993          	addi	s3,s3,-1
   143a0:	0009d663          	bgez	s3,143ac <_fwalk+0x74>
   143a4:	00042403          	lw	s0,0(s0)
   143a8:	fc1ff06f          	j	14368 <_fwalk+0x30>
   143ac:	00c4d783          	lhu	a5,12(s1)
   143b0:	02fa7063          	bleu	a5,s4,143d0 <_fwalk+0x98>
   143b4:	00e49783          	lh	a5,14(s1)
   143b8:	01578c63          	beq	a5,s5,143d0 <_fwalk+0x98>
   143bc:	00048513          	mv	a0,s1
   143c0:	00b12623          	sw	a1,12(sp)
   143c4:	000580e7          	jalr	a1
   143c8:	00c12583          	lw	a1,12(sp)
   143cc:	00a96933          	or	s2,s2,a0
   143d0:	06848493          	addi	s1,s1,104
   143d4:	fc9ff06f          	j	1439c <_fwalk+0x64>

000143d8 <_fwalk_reent>:
   143d8:	fd010113          	addi	sp,sp,-48
   143dc:	02812423          	sw	s0,40(sp)
   143e0:	03212023          	sw	s2,32(sp)
   143e4:	01412c23          	sw	s4,24(sp)
   143e8:	01512a23          	sw	s5,20(sp)
   143ec:	01612823          	sw	s6,16(sp)
   143f0:	01712623          	sw	s7,12(sp)
   143f4:	02112623          	sw	ra,44(sp)
   143f8:	02912223          	sw	s1,36(sp)
   143fc:	01312e23          	sw	s3,28(sp)
   14400:	00050a13          	mv	s4,a0
   14404:	00058a93          	mv	s5,a1
   14408:	2e050413          	addi	s0,a0,736
   1440c:	00000913          	li	s2,0
   14410:	00100b13          	li	s6,1
   14414:	fff00b93          	li	s7,-1
   14418:	02041a63          	bnez	s0,1444c <_fwalk_reent+0x74>
   1441c:	02c12083          	lw	ra,44(sp)
   14420:	02812403          	lw	s0,40(sp)
   14424:	00090513          	mv	a0,s2
   14428:	02412483          	lw	s1,36(sp)
   1442c:	02012903          	lw	s2,32(sp)
   14430:	01c12983          	lw	s3,28(sp)
   14434:	01812a03          	lw	s4,24(sp)
   14438:	01412a83          	lw	s5,20(sp)
   1443c:	01012b03          	lw	s6,16(sp)
   14440:	00c12b83          	lw	s7,12(sp)
   14444:	03010113          	addi	sp,sp,48
   14448:	00008067          	ret
   1444c:	00842483          	lw	s1,8(s0)
   14450:	00442983          	lw	s3,4(s0)
   14454:	fff98993          	addi	s3,s3,-1
   14458:	0009d663          	bgez	s3,14464 <_fwalk_reent+0x8c>
   1445c:	00042403          	lw	s0,0(s0)
   14460:	fb9ff06f          	j	14418 <_fwalk_reent+0x40>
   14464:	00c4d783          	lhu	a5,12(s1)
   14468:	00fb7e63          	bleu	a5,s6,14484 <_fwalk_reent+0xac>
   1446c:	00e49783          	lh	a5,14(s1)
   14470:	01778a63          	beq	a5,s7,14484 <_fwalk_reent+0xac>
   14474:	00048593          	mv	a1,s1
   14478:	000a0513          	mv	a0,s4
   1447c:	000a80e7          	jalr	s5
   14480:	00a96933          	or	s2,s2,a0
   14484:	06848493          	addi	s1,s1,104
   14488:	fcdff06f          	j	14454 <_fwalk_reent+0x7c>

0001448c <eclear>:
   1448c:	01450793          	addi	a5,a0,20
   14490:	00250513          	addi	a0,a0,2
   14494:	fe051f23          	sh	zero,-2(a0)
   14498:	fef51ce3          	bne	a0,a5,14490 <eclear+0x4>
   1449c:	00008067          	ret

000144a0 <emov>:
   144a0:	00000793          	li	a5,0
   144a4:	01400713          	li	a4,20
   144a8:	00f506b3          	add	a3,a0,a5
   144ac:	0006d603          	lhu	a2,0(a3)
   144b0:	00f586b3          	add	a3,a1,a5
   144b4:	00278793          	addi	a5,a5,2
   144b8:	00c69023          	sh	a2,0(a3)
   144bc:	fee796e3          	bne	a5,a4,144a8 <emov+0x8>
   144c0:	00008067          	ret

000144c4 <ecleaz>:
   144c4:	01a50793          	addi	a5,a0,26
   144c8:	00250513          	addi	a0,a0,2
   144cc:	fe051f23          	sh	zero,-2(a0)
   144d0:	fef51ce3          	bne	a0,a5,144c8 <ecleaz+0x4>
   144d4:	00008067          	ret

000144d8 <emovz>:
   144d8:	00000793          	li	a5,0
   144dc:	01800713          	li	a4,24
   144e0:	00f506b3          	add	a3,a0,a5
   144e4:	0006d603          	lhu	a2,0(a3)
   144e8:	00f586b3          	add	a3,a1,a5
   144ec:	00278793          	addi	a5,a5,2
   144f0:	00c69023          	sh	a2,0(a3)
   144f4:	fee796e3          	bne	a5,a4,144e0 <emovz+0x8>
   144f8:	00059c23          	sh	zero,24(a1)
   144fc:	00008067          	ret

00014500 <ecmpm>:
   14500:	00400793          	li	a5,4
   14504:	01a00613          	li	a2,26
   14508:	00f50733          	add	a4,a0,a5
   1450c:	00075683          	lhu	a3,0(a4)
   14510:	00f58733          	add	a4,a1,a5
   14514:	00075703          	lhu	a4,0(a4)
   14518:	00e68a63          	beq	a3,a4,1452c <ecmpm+0x2c>
   1451c:	00100513          	li	a0,1
   14520:	00d76c63          	bltu	a4,a3,14538 <ecmpm+0x38>
   14524:	fff00513          	li	a0,-1
   14528:	00008067          	ret
   1452c:	00278793          	addi	a5,a5,2
   14530:	fcc79ce3          	bne	a5,a2,14508 <ecmpm+0x8>
   14534:	00000513          	li	a0,0
   14538:	00008067          	ret

0001453c <eshdn1>:
   1453c:	00450693          	addi	a3,a0,4
   14540:	00000793          	li	a5,0
   14544:	01a50513          	addi	a0,a0,26
   14548:	ffff8637          	lui	a2,0xffff8
   1454c:	0006d703          	lhu	a4,0(a3)
   14550:	00177593          	andi	a1,a4,1
   14554:	00058463          	beqz	a1,1455c <eshdn1+0x20>
   14558:	0017e793          	ori	a5,a5,1
   1455c:	0027f593          	andi	a1,a5,2
   14560:	00175713          	srli	a4,a4,0x1
   14564:	02059063          	bnez	a1,14584 <eshdn1+0x48>
   14568:	00179793          	slli	a5,a5,0x1
   1456c:	00e69023          	sh	a4,0(a3)
   14570:	01079793          	slli	a5,a5,0x10
   14574:	00268693          	addi	a3,a3,2
   14578:	0107d793          	srli	a5,a5,0x10
   1457c:	fcd518e3          	bne	a0,a3,1454c <eshdn1+0x10>
   14580:	00008067          	ret
   14584:	00c76733          	or	a4,a4,a2
   14588:	fe1ff06f          	j	14568 <eshdn1+0x2c>

0001458c <eshup1>:
   1458c:	01650693          	addi	a3,a0,22
   14590:	00000713          	li	a4,0
   14594:	0026d783          	lhu	a5,2(a3)
   14598:	01079613          	slli	a2,a5,0x10
   1459c:	41065613          	srai	a2,a2,0x10
   145a0:	00065463          	bgez	a2,145a8 <eshup1+0x1c>
   145a4:	00176713          	ori	a4,a4,1
   145a8:	00179793          	slli	a5,a5,0x1
   145ac:	01079793          	slli	a5,a5,0x10
   145b0:	00277613          	andi	a2,a4,2
   145b4:	0107d793          	srli	a5,a5,0x10
   145b8:	02061063          	bnez	a2,145d8 <eshup1+0x4c>
   145bc:	00171713          	slli	a4,a4,0x1
   145c0:	00f69123          	sh	a5,2(a3)
   145c4:	01071713          	slli	a4,a4,0x10
   145c8:	ffe68693          	addi	a3,a3,-2
   145cc:	01075713          	srli	a4,a4,0x10
   145d0:	fcd512e3          	bne	a0,a3,14594 <eshup1+0x8>
   145d4:	00008067          	ret
   145d8:	0017e793          	ori	a5,a5,1
   145dc:	fe1ff06f          	j	145bc <eshup1+0x30>

000145e0 <eshdn8>:
   145e0:	00450793          	addi	a5,a0,4
   145e4:	00000713          	li	a4,0
   145e8:	01a50513          	addi	a0,a0,26
   145ec:	0007d683          	lhu	a3,0(a5)
   145f0:	00278793          	addi	a5,a5,2
   145f4:	0086d613          	srli	a2,a3,0x8
   145f8:	00c76733          	or	a4,a4,a2
   145fc:	fee79f23          	sh	a4,-2(a5)
   14600:	00869713          	slli	a4,a3,0x8
   14604:	01071713          	slli	a4,a4,0x10
   14608:	01075713          	srli	a4,a4,0x10
   1460c:	fef510e3          	bne	a0,a5,145ec <eshdn8+0xc>
   14610:	00008067          	ret

00014614 <eshup8>:
   14614:	01650793          	addi	a5,a0,22
   14618:	00000713          	li	a4,0
   1461c:	0027d683          	lhu	a3,2(a5)
   14620:	ffe78793          	addi	a5,a5,-2
   14624:	00869613          	slli	a2,a3,0x8
   14628:	00c76733          	or	a4,a4,a2
   1462c:	00e79223          	sh	a4,4(a5)
   14630:	0086d713          	srli	a4,a3,0x8
   14634:	fef514e3          	bne	a0,a5,1461c <eshup8+0x8>
   14638:	00008067          	ret

0001463c <eshup6>:
   1463c:	00450793          	addi	a5,a0,4
   14640:	01850713          	addi	a4,a0,24
   14644:	00278793          	addi	a5,a5,2
   14648:	0007d683          	lhu	a3,0(a5)
   1464c:	fed79f23          	sh	a3,-2(a5)
   14650:	fef71ae3          	bne	a4,a5,14644 <eshup6+0x8>
   14654:	00051c23          	sh	zero,24(a0)
   14658:	00008067          	ret

0001465c <eshdn6>:
   1465c:	01850793          	addi	a5,a0,24
   14660:	00450713          	addi	a4,a0,4
   14664:	ffe78793          	addi	a5,a5,-2
   14668:	0007d683          	lhu	a3,0(a5)
   1466c:	00d79123          	sh	a3,2(a5)
   14670:	fef71ae3          	bne	a4,a5,14664 <eshdn6+0x8>
   14674:	00051223          	sh	zero,4(a0)
   14678:	00008067          	ret

0001467c <eaddm>:
   1467c:	01858593          	addi	a1,a1,24
   14680:	01650713          	addi	a4,a0,22
   14684:	00000693          	li	a3,0
   14688:	00275783          	lhu	a5,2(a4)
   1468c:	0005d603          	lhu	a2,0(a1)
   14690:	ffe70713          	addi	a4,a4,-2
   14694:	ffe58593          	addi	a1,a1,-2
   14698:	00c787b3          	add	a5,a5,a2
   1469c:	00d787b3          	add	a5,a5,a3
   146a0:	00f59123          	sh	a5,2(a1)
   146a4:	0107d793          	srli	a5,a5,0x10
   146a8:	0017f693          	andi	a3,a5,1
   146ac:	fce51ee3          	bne	a0,a4,14688 <eaddm+0xc>
   146b0:	00008067          	ret

000146b4 <esubm>:
   146b4:	01858593          	addi	a1,a1,24
   146b8:	01650713          	addi	a4,a0,22
   146bc:	00000693          	li	a3,0
   146c0:	0005d783          	lhu	a5,0(a1)
   146c4:	ffe70713          	addi	a4,a4,-2
   146c8:	ffe58593          	addi	a1,a1,-2
   146cc:	40d787b3          	sub	a5,a5,a3
   146d0:	00475683          	lhu	a3,4(a4)
   146d4:	40d787b3          	sub	a5,a5,a3
   146d8:	00f59123          	sh	a5,2(a1)
   146dc:	0107d793          	srli	a5,a5,0x10
   146e0:	0017f693          	andi	a3,a5,1
   146e4:	fce51ee3          	bne	a0,a4,146c0 <esubm+0xc>
   146e8:	00008067          	ret

000146ec <m16m>:
   146ec:	fe010113          	addi	sp,sp,-32
   146f0:	00010337          	lui	t1,0x10
   146f4:	01858893          	addi	a7,a1,24
   146f8:	00011d23          	sh	zero,26(sp)
   146fc:	00011e23          	sh	zero,28(sp)
   14700:	00458593          	addi	a1,a1,4
   14704:	01c10693          	addi	a3,sp,28
   14708:	fff30313          	addi	t1,t1,-1 # ffff <_start-0x1>
   1470c:	0008d703          	lhu	a4,0(a7)
   14710:	ffe68693          	addi	a3,a3,-2
   14714:	ffe88893          	addi	a7,a7,-2
   14718:	02071c63          	bnez	a4,14750 <m16m+0x64>
   1471c:	fe069f23          	sh	zero,-2(a3)
   14720:	ff1596e3          	bne	a1,a7,1470c <m16m+0x20>
   14724:	00400793          	li	a5,4
   14728:	01a00713          	li	a4,26
   1472c:	00410593          	addi	a1,sp,4
   14730:	00f585b3          	add	a1,a1,a5
   14734:	0005d583          	lhu	a1,0(a1)
   14738:	00f606b3          	add	a3,a2,a5
   1473c:	00278793          	addi	a5,a5,2
   14740:	00b69023          	sh	a1,0(a3)
   14744:	fee794e3          	bne	a5,a4,1472c <m16m+0x40>
   14748:	02010113          	addi	sp,sp,32
   1474c:	00008067          	ret
   14750:	02a70733          	mul	a4,a4,a0
   14754:	0026d803          	lhu	a6,2(a3)
   14758:	006777b3          	and	a5,a4,t1
   1475c:	010787b3          	add	a5,a5,a6
   14760:	0107d813          	srli	a6,a5,0x10
   14764:	00f69123          	sh	a5,2(a3)
   14768:	01075793          	srli	a5,a4,0x10
   1476c:	0006d703          	lhu	a4,0(a3)
   14770:	00e787b3          	add	a5,a5,a4
   14774:	010787b3          	add	a5,a5,a6
   14778:	00f69023          	sh	a5,0(a3)
   1477c:	0107d793          	srli	a5,a5,0x10
   14780:	fef69f23          	sh	a5,-2(a3)
   14784:	f9dff06f          	j	14720 <m16m+0x34>

00014788 <eisnan>:
   14788:	01255783          	lhu	a5,18(a0)
   1478c:	fff7c793          	not	a5,a5
   14790:	01179713          	slli	a4,a5,0x11
   14794:	00071c63          	bnez	a4,147ac <eisnan+0x24>
   14798:	01250793          	addi	a5,a0,18
   1479c:	00250513          	addi	a0,a0,2
   147a0:	ffe55703          	lhu	a4,-2(a0)
   147a4:	00071863          	bnez	a4,147b4 <eisnan+0x2c>
   147a8:	fea79ae3          	bne	a5,a0,1479c <eisnan+0x14>
   147ac:	00000513          	li	a0,0
   147b0:	00008067          	ret
   147b4:	00100513          	li	a0,1
   147b8:	00008067          	ret

000147bc <eisneg>:
   147bc:	ff010113          	addi	sp,sp,-16
   147c0:	00812423          	sw	s0,8(sp)
   147c4:	00112623          	sw	ra,12(sp)
   147c8:	00050413          	mv	s0,a0
   147cc:	fbdff0ef          	jal	ra,14788 <eisnan>
   147d0:	00051e63          	bnez	a0,147ec <eisneg+0x30>
   147d4:	01241503          	lh	a0,18(s0)
   147d8:	01f55513          	srli	a0,a0,0x1f
   147dc:	00c12083          	lw	ra,12(sp)
   147e0:	00812403          	lw	s0,8(sp)
   147e4:	01010113          	addi	sp,sp,16
   147e8:	00008067          	ret
   147ec:	00000513          	li	a0,0
   147f0:	fedff06f          	j	147dc <eisneg+0x20>

000147f4 <emovi>:
   147f4:	01251783          	lh	a5,18(a0)
   147f8:	ff010113          	addi	sp,sp,-16
   147fc:	00112623          	sw	ra,12(sp)
   14800:	00812423          	sw	s0,8(sp)
   14804:	00912223          	sw	s1,4(sp)
   14808:	01212023          	sw	s2,0(sp)
   1480c:	0607d863          	bgez	a5,1487c <emovi+0x88>
   14810:	fff00793          	li	a5,-1
   14814:	00f59023          	sh	a5,0(a1)
   14818:	01255703          	lhu	a4,18(a0)
   1481c:	000087b7          	lui	a5,0x8
   14820:	fff78793          	addi	a5,a5,-1 # 7fff <_start-0x8001>
   14824:	00e7f733          	and	a4,a5,a4
   14828:	00e59123          	sh	a4,2(a1)
   1482c:	01050913          	addi	s2,a0,16
   14830:	06f71663          	bne	a4,a5,1489c <emovi+0xa8>
   14834:	00058413          	mv	s0,a1
   14838:	00050493          	mv	s1,a0
   1483c:	f4dff0ef          	jal	ra,14788 <eisnan>
   14840:	04050263          	beqz	a0,14884 <emovi+0x90>
   14844:	00640793          	addi	a5,s0,6
   14848:	00041223          	sh	zero,4(s0)
   1484c:	ffc48513          	addi	a0,s1,-4
   14850:	ffe90913          	addi	s2,s2,-2
   14854:	00295703          	lhu	a4,2(s2)
   14858:	00278793          	addi	a5,a5,2
   1485c:	fee79f23          	sh	a4,-2(a5)
   14860:	fea918e3          	bne	s2,a0,14850 <emovi+0x5c>
   14864:	00c12083          	lw	ra,12(sp)
   14868:	00812403          	lw	s0,8(sp)
   1486c:	00412483          	lw	s1,4(sp)
   14870:	00012903          	lw	s2,0(sp)
   14874:	01010113          	addi	sp,sp,16
   14878:	00008067          	ret
   1487c:	00059023          	sh	zero,0(a1)
   14880:	f99ff06f          	j	14818 <emovi+0x24>
   14884:	00440793          	addi	a5,s0,4
   14888:	01a40593          	addi	a1,s0,26
   1488c:	00278793          	addi	a5,a5,2
   14890:	fe079f23          	sh	zero,-2(a5)
   14894:	feb79ce3          	bne	a5,a1,1488c <emovi+0x98>
   14898:	fcdff06f          	j	14864 <emovi+0x70>
   1489c:	00658793          	addi	a5,a1,6
   148a0:	00059223          	sh	zero,4(a1)
   148a4:	ffe50513          	addi	a0,a0,-2
   148a8:	ffe90913          	addi	s2,s2,-2
   148ac:	00295703          	lhu	a4,2(s2)
   148b0:	00278793          	addi	a5,a5,2
   148b4:	fee79f23          	sh	a4,-2(a5)
   148b8:	fea918e3          	bne	s2,a0,148a8 <emovi+0xb4>
   148bc:	00059c23          	sh	zero,24(a1)
   148c0:	fa5ff06f          	j	14864 <emovi+0x70>

000148c4 <ecmp>:
   148c4:	fb010113          	addi	sp,sp,-80
   148c8:	04912223          	sw	s1,68(sp)
   148cc:	05212023          	sw	s2,64(sp)
   148d0:	04112623          	sw	ra,76(sp)
   148d4:	04812423          	sw	s0,72(sp)
   148d8:	00050913          	mv	s2,a0
   148dc:	00058493          	mv	s1,a1
   148e0:	ea9ff0ef          	jal	ra,14788 <eisnan>
   148e4:	0e051063          	bnez	a0,149c4 <ecmp+0x100>
   148e8:	00048513          	mv	a0,s1
   148ec:	e9dff0ef          	jal	ra,14788 <eisnan>
   148f0:	00050413          	mv	s0,a0
   148f4:	0c051863          	bnez	a0,149c4 <ecmp+0x100>
   148f8:	00810593          	addi	a1,sp,8
   148fc:	00090513          	mv	a0,s2
   14900:	ef5ff0ef          	jal	ra,147f4 <emovi>
   14904:	02410593          	addi	a1,sp,36
   14908:	00048513          	mv	a0,s1
   1490c:	ee9ff0ef          	jal	ra,147f4 <emovi>
   14910:	00815703          	lhu	a4,8(sp)
   14914:	02415783          	lhu	a5,36(sp)
   14918:	06e78063          	beq	a5,a4,14978 <ecmp+0xb4>
   1491c:	00200793          	li	a5,2
   14920:	01800693          	li	a3,24
   14924:	00810613          	addi	a2,sp,8
   14928:	00f60633          	add	a2,a2,a5
   1492c:	00065603          	lhu	a2,0(a2) # ffff8000 <_end+0xfffd1b20>
   14930:	02061c63          	bnez	a2,14968 <ecmp+0xa4>
   14934:	02410613          	addi	a2,sp,36
   14938:	00f60633          	add	a2,a2,a5
   1493c:	00065603          	lhu	a2,0(a2)
   14940:	02061463          	bnez	a2,14968 <ecmp+0xa4>
   14944:	00278793          	addi	a5,a5,2
   14948:	fcd79ee3          	bne	a5,a3,14924 <ecmp+0x60>
   1494c:	00040513          	mv	a0,s0
   14950:	04c12083          	lw	ra,76(sp)
   14954:	04812403          	lw	s0,72(sp)
   14958:	04412483          	lw	s1,68(sp)
   1495c:	04012903          	lw	s2,64(sp)
   14960:	05010113          	addi	sp,sp,80
   14964:	00008067          	ret
   14968:	00100413          	li	s0,1
   1496c:	fe0700e3          	beqz	a4,1494c <ecmp+0x88>
   14970:	fff00413          	li	s0,-1
   14974:	fd9ff06f          	j	1494c <ecmp+0x88>
   14978:	00100713          	li	a4,1
   1497c:	00078463          	beqz	a5,14984 <ecmp+0xc0>
   14980:	fff00713          	li	a4,-1
   14984:	00000793          	li	a5,0
   14988:	01800593          	li	a1,24
   1498c:	00810693          	addi	a3,sp,8
   14990:	00f686b3          	add	a3,a3,a5
   14994:	0006d603          	lhu	a2,0(a3)
   14998:	02410693          	addi	a3,sp,36
   1499c:	00f686b3          	add	a3,a3,a5
   149a0:	0006d683          	lhu	a3,0(a3)
   149a4:	00d60a63          	beq	a2,a3,149b8 <ecmp+0xf4>
   149a8:	00070413          	mv	s0,a4
   149ac:	fac6e0e3          	bltu	a3,a2,1494c <ecmp+0x88>
   149b0:	40e00433          	neg	s0,a4
   149b4:	f99ff06f          	j	1494c <ecmp+0x88>
   149b8:	00278793          	addi	a5,a5,2
   149bc:	fcb798e3          	bne	a5,a1,1498c <ecmp+0xc8>
   149c0:	f8dff06f          	j	1494c <ecmp+0x88>
   149c4:	ffe00413          	li	s0,-2
   149c8:	f85ff06f          	j	1494c <ecmp+0x88>

000149cc <eisinf>:
   149cc:	01255783          	lhu	a5,18(a0)
   149d0:	fff7c793          	not	a5,a5
   149d4:	01179713          	slli	a4,a5,0x11
   149d8:	02071063          	bnez	a4,149f8 <eisinf+0x2c>
   149dc:	ff010113          	addi	sp,sp,-16
   149e0:	00112623          	sw	ra,12(sp)
   149e4:	da5ff0ef          	jal	ra,14788 <eisnan>
   149e8:	00c12083          	lw	ra,12(sp)
   149ec:	00153513          	seqz	a0,a0
   149f0:	01010113          	addi	sp,sp,16
   149f4:	00008067          	ret
   149f8:	00000513          	li	a0,0
   149fc:	00008067          	ret

00014a00 <einfin.isra.2>:
   14a00:	01250713          	addi	a4,a0,18
   14a04:	00050793          	mv	a5,a0
   14a08:	00278793          	addi	a5,a5,2
   14a0c:	fe079f23          	sh	zero,-2(a5)
   14a10:	fee79ce3          	bne	a5,a4,14a08 <einfin.isra.2+0x8>
   14a14:	01255783          	lhu	a5,18(a0)
   14a18:	00008737          	lui	a4,0x8
   14a1c:	fff70713          	addi	a4,a4,-1 # 7fff <_start-0x8001>
   14a20:	00e7e7b3          	or	a5,a5,a4
   14a24:	00f51923          	sh	a5,18(a0)
   14a28:	00008067          	ret

00014a2c <eshift.part.3>:
   14a2c:	fe010113          	addi	sp,sp,-32
   14a30:	00812c23          	sw	s0,24(sp)
   14a34:	01312623          	sw	s3,12(sp)
   14a38:	00112e23          	sw	ra,28(sp)
   14a3c:	00912a23          	sw	s1,20(sp)
   14a40:	01212823          	sw	s2,16(sp)
   14a44:	01412423          	sw	s4,8(sp)
   14a48:	01512223          	sw	s5,4(sp)
   14a4c:	00050993          	mv	s3,a0
   14a50:	00058413          	mv	s0,a1
   14a54:	1005d263          	bgez	a1,14b58 <eshift.part.3+0x12c>
   14a58:	40b00933          	neg	s2,a1
   14a5c:	00090a13          	mv	s4,s2
   14a60:	00000493          	li	s1,0
   14a64:	00f00a93          	li	s5,15
   14a68:	034ace63          	blt	s5,s4,14aa4 <eshift.part.3+0x78>
   14a6c:	00495913          	srli	s2,s2,0x4
   14a70:	ff000593          	li	a1,-16
   14a74:	02b905b3          	mul	a1,s2,a1
   14a78:	00700a13          	li	s4,7
   14a7c:	40858433          	sub	s0,a1,s0
   14a80:	00040913          	mv	s2,s0
   14a84:	032a4c63          	blt	s4,s2,14abc <eshift.part.3+0x90>
   14a88:	00345593          	srli	a1,s0,0x3
   14a8c:	ff800793          	li	a5,-8
   14a90:	02f585b3          	mul	a1,a1,a5
   14a94:	00858433          	add	s0,a1,s0
   14a98:	02041e63          	bnez	s0,14ad4 <eshift.part.3+0xa8>
   14a9c:	00903533          	snez	a0,s1
   14aa0:	0940006f          	j	14b34 <eshift.part.3+0x108>
   14aa4:	0189d783          	lhu	a5,24(s3)
   14aa8:	00098513          	mv	a0,s3
   14aac:	ff0a0a13          	addi	s4,s4,-16
   14ab0:	00f4e4b3          	or	s1,s1,a5
   14ab4:	ba9ff0ef          	jal	ra,1465c <eshdn6>
   14ab8:	fb1ff06f          	j	14a68 <eshift.part.3+0x3c>
   14abc:	0189c783          	lbu	a5,24(s3)
   14ac0:	00098513          	mv	a0,s3
   14ac4:	ff890913          	addi	s2,s2,-8
   14ac8:	0097e4b3          	or	s1,a5,s1
   14acc:	b15ff0ef          	jal	ra,145e0 <eshdn8>
   14ad0:	fb5ff06f          	j	14a84 <eshift.part.3+0x58>
   14ad4:	0189d783          	lhu	a5,24(s3)
   14ad8:	00098513          	mv	a0,s3
   14adc:	fff40413          	addi	s0,s0,-1
   14ae0:	0017f793          	andi	a5,a5,1
   14ae4:	0097e4b3          	or	s1,a5,s1
   14ae8:	a55ff0ef          	jal	ra,1453c <eshdn1>
   14aec:	fadff06f          	j	14a98 <eshift.part.3+0x6c>
   14af0:	00098513          	mv	a0,s3
   14af4:	b49ff0ef          	jal	ra,1463c <eshup6>
   14af8:	ff048493          	addi	s1,s1,-16
   14afc:	fe994ae3          	blt	s2,s1,14af0 <eshift.part.3+0xc4>
   14b00:	00445593          	srli	a1,s0,0x4
   14b04:	ff000793          	li	a5,-16
   14b08:	02f585b3          	mul	a1,a1,a5
   14b0c:	00700913          	li	s2,7
   14b10:	00b40433          	add	s0,s0,a1
   14b14:	00040493          	mv	s1,s0
   14b18:	04994663          	blt	s2,s1,14b64 <eshift.part.3+0x138>
   14b1c:	00345593          	srli	a1,s0,0x3
   14b20:	ff800793          	li	a5,-8
   14b24:	02f585b3          	mul	a1,a1,a5
   14b28:	00b40433          	add	s0,s0,a1
   14b2c:	04041463          	bnez	s0,14b74 <eshift.part.3+0x148>
   14b30:	00000513          	li	a0,0
   14b34:	01c12083          	lw	ra,28(sp)
   14b38:	01812403          	lw	s0,24(sp)
   14b3c:	01412483          	lw	s1,20(sp)
   14b40:	01012903          	lw	s2,16(sp)
   14b44:	00c12983          	lw	s3,12(sp)
   14b48:	00812a03          	lw	s4,8(sp)
   14b4c:	00412a83          	lw	s5,4(sp)
   14b50:	02010113          	addi	sp,sp,32
   14b54:	00008067          	ret
   14b58:	00058493          	mv	s1,a1
   14b5c:	00f00913          	li	s2,15
   14b60:	f9dff06f          	j	14afc <eshift.part.3+0xd0>
   14b64:	00098513          	mv	a0,s3
   14b68:	aadff0ef          	jal	ra,14614 <eshup8>
   14b6c:	ff848493          	addi	s1,s1,-8
   14b70:	fa9ff06f          	j	14b18 <eshift.part.3+0xec>
   14b74:	00098513          	mv	a0,s3
   14b78:	a15ff0ef          	jal	ra,1458c <eshup1>
   14b7c:	fff40413          	addi	s0,s0,-1
   14b80:	fadff06f          	j	14b2c <eshift.part.3+0x100>

00014b84 <enormlz>:
   14b84:	00455783          	lhu	a5,4(a0)
   14b88:	ff010113          	addi	sp,sp,-16
   14b8c:	00912223          	sw	s1,4(sp)
   14b90:	00112623          	sw	ra,12(sp)
   14b94:	00812423          	sw	s0,8(sp)
   14b98:	01212023          	sw	s2,0(sp)
   14b9c:	00050493          	mv	s1,a0
   14ba0:	02078063          	beqz	a5,14bc0 <enormlz+0x3c>
   14ba4:	f007f793          	andi	a5,a5,-256
   14ba8:	00000413          	li	s0,0
   14bac:	00078663          	beqz	a5,14bb8 <enormlz+0x34>
   14bb0:	a31ff0ef          	jal	ra,145e0 <eshdn8>
   14bb4:	ff800413          	li	s0,-8
   14bb8:	f6f00913          	li	s2,-145
   14bbc:	0940006f          	j	14c50 <enormlz+0xcc>
   14bc0:	00651783          	lh	a5,6(a0)
   14bc4:	00000413          	li	s0,0
   14bc8:	0a000913          	li	s2,160
   14bcc:	0207d863          	bgez	a5,14bfc <enormlz+0x78>
   14bd0:	00040513          	mv	a0,s0
   14bd4:	00c12083          	lw	ra,12(sp)
   14bd8:	00812403          	lw	s0,8(sp)
   14bdc:	00412483          	lw	s1,4(sp)
   14be0:	00012903          	lw	s2,0(sp)
   14be4:	01010113          	addi	sp,sp,16
   14be8:	00008067          	ret
   14bec:	00048513          	mv	a0,s1
   14bf0:	01040413          	addi	s0,s0,16
   14bf4:	a49ff0ef          	jal	ra,1463c <eshup6>
   14bf8:	fd240ce3          	beq	s0,s2,14bd0 <enormlz+0x4c>
   14bfc:	0064d783          	lhu	a5,6(s1)
   14c00:	fe0786e3          	beqz	a5,14bec <enormlz+0x68>
   14c04:	0064d783          	lhu	a5,6(s1)
   14c08:	f007f793          	andi	a5,a5,-256
   14c0c:	02078263          	beqz	a5,14c30 <enormlz+0xac>
   14c10:	0a000913          	li	s2,160
   14c14:	00649783          	lh	a5,6(s1)
   14c18:	fa07cce3          	bltz	a5,14bd0 <enormlz+0x4c>
   14c1c:	00048513          	mv	a0,s1
   14c20:	00140413          	addi	s0,s0,1
   14c24:	969ff0ef          	jal	ra,1458c <eshup1>
   14c28:	fe8956e3          	ble	s0,s2,14c14 <enormlz+0x90>
   14c2c:	fa5ff06f          	j	14bd0 <enormlz+0x4c>
   14c30:	00048513          	mv	a0,s1
   14c34:	9e1ff0ef          	jal	ra,14614 <eshup8>
   14c38:	00840413          	addi	s0,s0,8
   14c3c:	fc9ff06f          	j	14c04 <enormlz+0x80>
   14c40:	00048513          	mv	a0,s1
   14c44:	fff40413          	addi	s0,s0,-1
   14c48:	8f5ff0ef          	jal	ra,1453c <eshdn1>
   14c4c:	f92402e3          	beq	s0,s2,14bd0 <enormlz+0x4c>
   14c50:	0044d783          	lhu	a5,4(s1)
   14c54:	fe0796e3          	bnez	a5,14c40 <enormlz+0xbc>
   14c58:	f79ff06f          	j	14bd0 <enormlz+0x4c>

00014c5c <enan.constprop.12>:
   14c5c:	01050713          	addi	a4,a0,16
   14c60:	00050793          	mv	a5,a0
   14c64:	00278793          	addi	a5,a5,2
   14c68:	fe079f23          	sh	zero,-2(a5)
   14c6c:	fee79ce3          	bne	a5,a4,14c64 <enan.constprop.12+0x8>
   14c70:	7fffc7b7          	lui	a5,0x7fffc
   14c74:	00f52823          	sw	a5,16(a0)
   14c78:	00008067          	ret

00014c7c <emovo.isra.6>:
   14c7c:	00050713          	mv	a4,a0
   14c80:	00075683          	lhu	a3,0(a4)
   14c84:	00058513          	mv	a0,a1
   14c88:	00275783          	lhu	a5,2(a4)
   14c8c:	00068663          	beqz	a3,14c98 <emovo.isra.6+0x1c>
   14c90:	ffff86b7          	lui	a3,0xffff8
   14c94:	00d7e7b3          	or	a5,a5,a3
   14c98:	00f51923          	sh	a5,18(a0)
   14c9c:	00275603          	lhu	a2,2(a4)
   14ca0:	000086b7          	lui	a3,0x8
   14ca4:	fff68693          	addi	a3,a3,-1 # 7fff <_start-0x8001>
   14ca8:	00670793          	addi	a5,a4,6
   14cac:	00d61e63          	bne	a2,a3,14cc8 <emovo.isra.6+0x4c>
   14cb0:	01a70713          	addi	a4,a4,26
   14cb4:	0007d683          	lhu	a3,0(a5) # 7fffc000 <_end+0x7ffd5b20>
   14cb8:	02069863          	bnez	a3,14ce8 <emovo.isra.6+0x6c>
   14cbc:	00278793          	addi	a5,a5,2
   14cc0:	fee79ae3          	bne	a5,a4,14cb4 <emovo.isra.6+0x38>
   14cc4:	d3dff06f          	j	14a00 <einfin.isra.2>
   14cc8:	01050513          	addi	a0,a0,16
   14ccc:	01870713          	addi	a4,a4,24
   14cd0:	00278793          	addi	a5,a5,2
   14cd4:	ffe7d683          	lhu	a3,-2(a5)
   14cd8:	ffe50513          	addi	a0,a0,-2
   14cdc:	00d51123          	sh	a3,2(a0)
   14ce0:	fee798e3          	bne	a5,a4,14cd0 <emovo.isra.6+0x54>
   14ce4:	00008067          	ret
   14ce8:	f75ff06f          	j	14c5c <enan.constprop.12>

00014cec <e113toe.isra.8>:
   14cec:	fd010113          	addi	sp,sp,-48
   14cf0:	02912223          	sw	s1,36(sp)
   14cf4:	00050493          	mv	s1,a0
   14cf8:	00410513          	addi	a0,sp,4
   14cfc:	02812423          	sw	s0,40(sp)
   14d00:	02112623          	sw	ra,44(sp)
   14d04:	00058413          	mv	s0,a1
   14d08:	fbcff0ef          	jal	ra,144c4 <ecleaz>
   14d0c:	00e4d703          	lhu	a4,14(s1)
   14d10:	01071793          	slli	a5,a4,0x10
   14d14:	4107d793          	srai	a5,a5,0x10
   14d18:	0407c263          	bltz	a5,14d5c <e113toe.isra.8+0x70>
   14d1c:	00011223          	sh	zero,4(sp)
   14d20:	000086b7          	lui	a3,0x8
   14d24:	fff68693          	addi	a3,a3,-1 # 7fff <_start-0x8001>
   14d28:	00d77733          	and	a4,a4,a3
   14d2c:	00e48793          	addi	a5,s1,14
   14d30:	06d71c63          	bne	a4,a3,14da8 <e113toe.isra.8+0xbc>
   14d34:	00048713          	mv	a4,s1
   14d38:	00075683          	lhu	a3,0(a4)
   14d3c:	02068663          	beqz	a3,14d68 <e113toe.isra.8+0x7c>
   14d40:	00040513          	mv	a0,s0
   14d44:	f19ff0ef          	jal	ra,14c5c <enan.constprop.12>
   14d48:	02c12083          	lw	ra,44(sp)
   14d4c:	02812403          	lw	s0,40(sp)
   14d50:	02412483          	lw	s1,36(sp)
   14d54:	03010113          	addi	sp,sp,48
   14d58:	00008067          	ret
   14d5c:	fff00793          	li	a5,-1
   14d60:	00f11223          	sh	a5,4(sp)
   14d64:	fbdff06f          	j	14d20 <e113toe.isra.8+0x34>
   14d68:	00270713          	addi	a4,a4,2
   14d6c:	fce796e3          	bne	a5,a4,14d38 <e113toe.isra.8+0x4c>
   14d70:	00040513          	mv	a0,s0
   14d74:	f18ff0ef          	jal	ra,1448c <eclear>
   14d78:	00040513          	mv	a0,s0
   14d7c:	c85ff0ef          	jal	ra,14a00 <einfin.isra.2>
   14d80:	00e49783          	lh	a5,14(s1)
   14d84:	fc07d2e3          	bgez	a5,14d48 <e113toe.isra.8+0x5c>
   14d88:	00040513          	mv	a0,s0
   14d8c:	9fdff0ef          	jal	ra,14788 <eisnan>
   14d90:	fa051ce3          	bnez	a0,14d48 <e113toe.isra.8+0x5c>
   14d94:	01245783          	lhu	a5,18(s0)
   14d98:	ffff8737          	lui	a4,0xffff8
   14d9c:	00e7c7b3          	xor	a5,a5,a4
   14da0:	00f41923          	sh	a5,18(s0)
   14da4:	fa5ff06f          	j	14d48 <e113toe.isra.8+0x5c>
   14da8:	00e11323          	sh	a4,6(sp)
   14dac:	00410693          	addi	a3,sp,4
   14db0:	ffe78793          	addi	a5,a5,-2
   14db4:	0007d603          	lhu	a2,0(a5)
   14db8:	00268693          	addi	a3,a3,2
   14dbc:	00c69223          	sh	a2,4(a3)
   14dc0:	fef498e3          	bne	s1,a5,14db0 <e113toe.isra.8+0xc4>
   14dc4:	00071c63          	bnez	a4,14ddc <e113toe.isra.8+0xf0>
   14dc8:	00011423          	sh	zero,8(sp)
   14dcc:	00040593          	mv	a1,s0
   14dd0:	00410513          	addi	a0,sp,4
   14dd4:	ea9ff0ef          	jal	ra,14c7c <emovo.isra.6>
   14dd8:	f71ff06f          	j	14d48 <e113toe.isra.8+0x5c>
   14ddc:	00100793          	li	a5,1
   14de0:	fff00593          	li	a1,-1
   14de4:	00410513          	addi	a0,sp,4
   14de8:	00f11423          	sh	a5,8(sp)
   14dec:	c41ff0ef          	jal	ra,14a2c <eshift.part.3>
   14df0:	fddff06f          	j	14dcc <e113toe.isra.8+0xe0>

00014df4 <emdnorm>:
   14df4:	fe010113          	addi	sp,sp,-32
   14df8:	00812c23          	sw	s0,24(sp)
   14dfc:	00912a23          	sw	s1,20(sp)
   14e00:	01212823          	sw	s2,16(sp)
   14e04:	01312623          	sw	s3,12(sp)
   14e08:	01412423          	sw	s4,8(sp)
   14e0c:	01512223          	sw	s5,4(sp)
   14e10:	00068913          	mv	s2,a3
   14e14:	00078413          	mv	s0,a5
   14e18:	00112e23          	sw	ra,28(sp)
   14e1c:	00050493          	mv	s1,a0
   14e20:	00058993          	mv	s3,a1
   14e24:	00060a13          	mv	s4,a2
   14e28:	00070a93          	mv	s5,a4
   14e2c:	d59ff0ef          	jal	ra,14b84 <enormlz>
   14e30:	09000793          	li	a5,144
   14e34:	40a90933          	sub	s2,s2,a0
   14e38:	04a7d463          	ble	a0,a5,14e80 <emdnorm+0x8c>
   14e3c:	000087b7          	lui	a5,0x8
   14e40:	ffe78793          	addi	a5,a5,-2 # 7ffe <_start-0x8002>
   14e44:	0527cc63          	blt	a5,s2,14e9c <emdnorm+0xa8>
   14e48:	00248793          	addi	a5,s1,2
   14e4c:	01a48493          	addi	s1,s1,26
   14e50:	00278793          	addi	a5,a5,2
   14e54:	fe079f23          	sh	zero,-2(a5)
   14e58:	fe979ce3          	bne	a5,s1,14e50 <emdnorm+0x5c>
   14e5c:	01c12083          	lw	ra,28(sp)
   14e60:	01812403          	lw	s0,24(sp)
   14e64:	01412483          	lw	s1,20(sp)
   14e68:	01012903          	lw	s2,16(sp)
   14e6c:	00c12983          	lw	s3,12(sp)
   14e70:	00812a03          	lw	s4,8(sp)
   14e74:	00412a83          	lw	s5,4(sp)
   14e78:	02010113          	addi	sp,sp,32
   14e7c:	00008067          	ret
   14e80:	00095e63          	bgez	s2,14e9c <emdnorm+0xa8>
   14e84:	f7000793          	li	a5,-144
   14e88:	18f94463          	blt	s2,a5,15010 <emdnorm+0x21c>
   14e8c:	00090593          	mv	a1,s2
   14e90:	00048513          	mv	a0,s1
   14e94:	b99ff0ef          	jal	ra,14a2c <eshift.part.3>
   14e98:	18051863          	bnez	a0,15028 <emdnorm+0x234>
   14e9c:	140a8063          	beqz	s5,14fdc <emdnorm+0x1e8>
   14ea0:	00442703          	lw	a4,4(s0)
   14ea4:	00042783          	lw	a5,0(s0)
   14ea8:	06f70663          	beq	a4,a5,14f14 <emdnorm+0x120>
   14eac:	01a40513          	addi	a0,s0,26
   14eb0:	e14ff0ef          	jal	ra,144c4 <ecleaz>
   14eb4:	00442783          	lw	a5,4(s0)
   14eb8:	03800713          	li	a4,56
   14ebc:	1ce78663          	beq	a5,a4,15088 <emdnorm+0x294>
   14ec0:	16f74863          	blt	a4,a5,15030 <emdnorm+0x23c>
   14ec4:	01800713          	li	a4,24
   14ec8:	1ee78e63          	beq	a5,a4,150c4 <emdnorm+0x2d0>
   14ecc:	03500713          	li	a4,53
   14ed0:	1ce78a63          	beq	a5,a4,150a4 <emdnorm+0x2b0>
   14ed4:	00c00713          	li	a4,12
   14ed8:	00e42423          	sw	a4,8(s0)
   14edc:	80010737          	lui	a4,0x80010
   14ee0:	fff70713          	addi	a4,a4,-1 # 8000ffff <_end+0x7ffe9b1f>
   14ee4:	00e42a23          	sw	a4,20(s0)
   14ee8:	00100713          	li	a4,1
   14eec:	00e41c23          	sh	a4,24(s0)
   14ef0:	00b00713          	li	a4,11
   14ef4:	00e42623          	sw	a4,12(s0)
   14ef8:	00c42703          	lw	a4,12(s0)
   14efc:	01845683          	lhu	a3,24(s0)
   14f00:	00870713          	addi	a4,a4,8
   14f04:	00171713          	slli	a4,a4,0x1
   14f08:	00e40733          	add	a4,s0,a4
   14f0c:	00d71523          	sh	a3,10(a4)
   14f10:	00f42023          	sw	a5,0(s0)
   14f14:	03204263          	bgtz	s2,14f38 <emdnorm+0x144>
   14f18:	00442703          	lw	a4,4(s0)
   14f1c:	09000793          	li	a5,144
   14f20:	00f70c63          	beq	a4,a5,14f38 <emdnorm+0x144>
   14f24:	0184d783          	lhu	a5,24(s1)
   14f28:	00048513          	mv	a0,s1
   14f2c:	0017f793          	andi	a5,a5,1
   14f30:	00f9e9b3          	or	s3,s3,a5
   14f34:	e08ff0ef          	jal	ra,1453c <eshdn1>
   14f38:	00842683          	lw	a3,8(s0)
   14f3c:	01445603          	lhu	a2,20(s0)
   14f40:	00442583          	lw	a1,4(s0)
   14f44:	00169713          	slli	a4,a3,0x1
   14f48:	00e48733          	add	a4,s1,a4
   14f4c:	00075783          	lhu	a5,0(a4)
   14f50:	00c7f7b3          	and	a5,a5,a2
   14f54:	08f00613          	li	a2,143
   14f58:	00b64a63          	blt	a2,a1,14f6c <emdnorm+0x178>
   14f5c:	00168693          	addi	a3,a3,1
   14f60:	00070613          	mv	a2,a4
   14f64:	00c00593          	li	a1,12
   14f68:	16d5d263          	ble	a3,a1,150cc <emdnorm+0x2d8>
   14f6c:	01445683          	lhu	a3,20(s0)
   14f70:	00075603          	lhu	a2,0(a4)
   14f74:	fff6c693          	not	a3,a3
   14f78:	00c6f6b3          	and	a3,a3,a2
   14f7c:	00d71023          	sh	a3,0(a4)
   14f80:	01645703          	lhu	a4,22(s0)
   14f84:	00f776b3          	and	a3,a4,a5
   14f88:	02068463          	beqz	a3,14fb0 <emdnorm+0x1bc>
   14f8c:	16f71063          	bne	a4,a5,150ec <emdnorm+0x2f8>
   14f90:	14099c63          	bnez	s3,150e8 <emdnorm+0x2f4>
   14f94:	00c42783          	lw	a5,12(s0)
   14f98:	01845703          	lhu	a4,24(s0)
   14f9c:	00179793          	slli	a5,a5,0x1
   14fa0:	00f487b3          	add	a5,s1,a5
   14fa4:	0007d783          	lhu	a5,0(a5)
   14fa8:	00e7f7b3          	and	a5,a5,a4
   14fac:	14079063          	bnez	a5,150ec <emdnorm+0x2f8>
   14fb0:	01204c63          	bgtz	s2,14fc8 <emdnorm+0x1d4>
   14fb4:	00442703          	lw	a4,4(s0)
   14fb8:	09000793          	li	a5,144
   14fbc:	00f70663          	beq	a4,a5,14fc8 <emdnorm+0x1d4>
   14fc0:	00048513          	mv	a0,s1
   14fc4:	dc8ff0ef          	jal	ra,1458c <eshup1>
   14fc8:	0044d783          	lhu	a5,4(s1)
   14fcc:	00078863          	beqz	a5,14fdc <emdnorm+0x1e8>
   14fd0:	00048513          	mv	a0,s1
   14fd4:	d68ff0ef          	jal	ra,1453c <eshdn1>
   14fd8:	00190913          	addi	s2,s2,1
   14fdc:	000087b7          	lui	a5,0x8
   14fe0:	00049c23          	sh	zero,24(s1)
   14fe4:	ffe78793          	addi	a5,a5,-2 # 7ffe <_start-0x8002>
   14fe8:	1127da63          	ble	s2,a5,150fc <emdnorm+0x308>
   14fec:	ffff87b7          	lui	a5,0xffff8
   14ff0:	fff7c793          	not	a5,a5
   14ff4:	00f49123          	sh	a5,2(s1)
   14ff8:	00448793          	addi	a5,s1,4
   14ffc:	01848493          	addi	s1,s1,24
   15000:	00079023          	sh	zero,0(a5) # ffff8000 <_end+0xfffd1b20>
   15004:	00278793          	addi	a5,a5,2
   15008:	fef49ce3          	bne	s1,a5,15000 <emdnorm+0x20c>
   1500c:	e51ff06f          	j	14e5c <emdnorm+0x68>
   15010:	00248793          	addi	a5,s1,2
   15014:	01a48493          	addi	s1,s1,26
   15018:	00278793          	addi	a5,a5,2
   1501c:	fe079f23          	sh	zero,-2(a5)
   15020:	fe979ce3          	bne	a5,s1,15018 <emdnorm+0x224>
   15024:	e39ff06f          	j	14e5c <emdnorm+0x68>
   15028:	00100993          	li	s3,1
   1502c:	e71ff06f          	j	14e9c <emdnorm+0xa8>
   15030:	04000713          	li	a4,64
   15034:	02e78863          	beq	a5,a4,15064 <emdnorm+0x270>
   15038:	07100713          	li	a4,113
   1503c:	e8e79ce3          	bne	a5,a4,14ed4 <emdnorm+0xe0>
   15040:	40008737          	lui	a4,0x40008
   15044:	fff70713          	addi	a4,a4,-1 # 40007fff <_end+0x3ffe1b1f>
   15048:	00a00693          	li	a3,10
   1504c:	00e42a23          	sw	a4,20(s0)
   15050:	00d42423          	sw	a3,8(s0)
   15054:	ffff8737          	lui	a4,0xffff8
   15058:	00e41c23          	sh	a4,24(s0)
   1505c:	00d42623          	sw	a3,12(s0)
   15060:	e99ff06f          	j	14ef8 <emdnorm+0x104>
   15064:	00700713          	li	a4,7
   15068:	00e42423          	sw	a4,8(s0)
   1506c:	80010737          	lui	a4,0x80010
   15070:	fff70713          	addi	a4,a4,-1 # 8000ffff <_end+0x7ffe9b1f>
   15074:	00e42a23          	sw	a4,20(s0)
   15078:	00100713          	li	a4,1
   1507c:	00e41c23          	sh	a4,24(s0)
   15080:	00600713          	li	a4,6
   15084:	e71ff06f          	j	14ef4 <emdnorm+0x100>
   15088:	00600693          	li	a3,6
   1508c:	00800737          	lui	a4,0x800
   15090:	0ff70713          	addi	a4,a4,255 # 8000ff <_end+0x7d9c1f>
   15094:	00e42a23          	sw	a4,20(s0)
   15098:	00d42423          	sw	a3,8(s0)
   1509c:	10000713          	li	a4,256
   150a0:	fb9ff06f          	j	15058 <emdnorm+0x264>
   150a4:	04000737          	lui	a4,0x4000
   150a8:	7ff70713          	addi	a4,a4,2047 # 40007ff <_end+0x3fda31f>
   150ac:	00600693          	li	a3,6
   150b0:	00e42a23          	sw	a4,20(s0)
   150b4:	00001737          	lui	a4,0x1
   150b8:	00d42423          	sw	a3,8(s0)
   150bc:	80070713          	addi	a4,a4,-2048 # 800 <_start-0xf800>
   150c0:	f99ff06f          	j	15058 <emdnorm+0x264>
   150c4:	00400693          	li	a3,4
   150c8:	fc5ff06f          	j	1508c <emdnorm+0x298>
   150cc:	00265503          	lhu	a0,2(a2)
   150d0:	00050463          	beqz	a0,150d8 <emdnorm+0x2e4>
   150d4:	0017e793          	ori	a5,a5,1
   150d8:	00061123          	sh	zero,2(a2)
   150dc:	00168693          	addi	a3,a3,1
   150e0:	00260613          	addi	a2,a2,2
   150e4:	e85ff06f          	j	14f68 <emdnorm+0x174>
   150e8:	ec0a14e3          	bnez	s4,14fb0 <emdnorm+0x1bc>
   150ec:	00048593          	mv	a1,s1
   150f0:	01a40513          	addi	a0,s0,26
   150f4:	d88ff0ef          	jal	ra,1467c <eaddm>
   150f8:	eb9ff06f          	j	14fb0 <emdnorm+0x1bc>
   150fc:	00095663          	bgez	s2,15108 <emdnorm+0x314>
   15100:	00049123          	sh	zero,2(s1)
   15104:	d59ff06f          	j	14e5c <emdnorm+0x68>
   15108:	01249123          	sh	s2,2(s1)
   1510c:	d51ff06f          	j	14e5c <emdnorm+0x68>

00015110 <eiremain>:
   15110:	fe010113          	addi	sp,sp,-32
   15114:	01412423          	sw	s4,8(sp)
   15118:	00255a03          	lhu	s4,2(a0)
   1511c:	00812c23          	sw	s0,24(sp)
   15120:	00058413          	mv	s0,a1
   15124:	00112e23          	sw	ra,28(sp)
   15128:	00912a23          	sw	s1,20(sp)
   1512c:	01212823          	sw	s2,16(sp)
   15130:	01512223          	sw	s5,4(sp)
   15134:	01612023          	sw	s6,0(sp)
   15138:	00060913          	mv	s2,a2
   1513c:	03460b13          	addi	s6,a2,52
   15140:	01312623          	sw	s3,12(sp)
   15144:	00050a93          	mv	s5,a0
   15148:	a3dff0ef          	jal	ra,14b84 <enormlz>
   1514c:	00245483          	lhu	s1,2(s0)
   15150:	40aa0a33          	sub	s4,s4,a0
   15154:	00040513          	mv	a0,s0
   15158:	a2dff0ef          	jal	ra,14b84 <enormlz>
   1515c:	40a484b3          	sub	s1,s1,a0
   15160:	000b0513          	mv	a0,s6
   15164:	b60ff0ef          	jal	ra,144c4 <ecleaz>
   15168:	0544d263          	ble	s4,s1,151ac <eiremain+0x9c>
   1516c:	00040513          	mv	a0,s0
   15170:	01812403          	lw	s0,24(sp)
   15174:	01c12083          	lw	ra,28(sp)
   15178:	00c12983          	lw	s3,12(sp)
   1517c:	00812a03          	lw	s4,8(sp)
   15180:	00412a83          	lw	s5,4(sp)
   15184:	00012b03          	lw	s6,0(sp)
   15188:	00090793          	mv	a5,s2
   1518c:	00048693          	mv	a3,s1
   15190:	01012903          	lw	s2,16(sp)
   15194:	01412483          	lw	s1,20(sp)
   15198:	00000713          	li	a4,0
   1519c:	00000613          	li	a2,0
   151a0:	00000593          	li	a1,0
   151a4:	02010113          	addi	sp,sp,32
   151a8:	c4dff06f          	j	14df4 <emdnorm>
   151ac:	00040593          	mv	a1,s0
   151b0:	000a8513          	mv	a0,s5
   151b4:	b4cff0ef          	jal	ra,14500 <ecmpm>
   151b8:	00000993          	li	s3,0
   151bc:	00a04a63          	bgtz	a0,151d0 <eiremain+0xc0>
   151c0:	00040593          	mv	a1,s0
   151c4:	000a8513          	mv	a0,s5
   151c8:	cecff0ef          	jal	ra,146b4 <esubm>
   151cc:	00100993          	li	s3,1
   151d0:	000b0513          	mv	a0,s6
   151d4:	bb8ff0ef          	jal	ra,1458c <eshup1>
   151d8:	04c95783          	lhu	a5,76(s2)
   151dc:	00040513          	mv	a0,s0
   151e0:	fff48493          	addi	s1,s1,-1
   151e4:	00f9e9b3          	or	s3,s3,a5
   151e8:	05391623          	sh	s3,76(s2)
   151ec:	ba0ff0ef          	jal	ra,1458c <eshup1>
   151f0:	f79ff06f          	j	15168 <eiremain+0x58>

000151f4 <emul>:
   151f4:	f7010113          	addi	sp,sp,-144
   151f8:	08812423          	sw	s0,136(sp)
   151fc:	08912223          	sw	s1,132(sp)
   15200:	07312e23          	sw	s3,124(sp)
   15204:	07412c23          	sw	s4,120(sp)
   15208:	08112623          	sw	ra,140(sp)
   1520c:	09212023          	sw	s2,128(sp)
   15210:	07512a23          	sw	s5,116(sp)
   15214:	07612823          	sw	s6,112(sp)
   15218:	07712623          	sw	s7,108(sp)
   1521c:	07812423          	sw	s8,104(sp)
   15220:	00050493          	mv	s1,a0
   15224:	00058413          	mv	s0,a1
   15228:	00060993          	mv	s3,a2
   1522c:	00068a13          	mv	s4,a3
   15230:	d58ff0ef          	jal	ra,14788 <eisnan>
   15234:	04050063          	beqz	a0,15274 <emul+0x80>
   15238:	00098593          	mv	a1,s3
   1523c:	00048513          	mv	a0,s1
   15240:	a60ff0ef          	jal	ra,144a0 <emov>
   15244:	08c12083          	lw	ra,140(sp)
   15248:	08812403          	lw	s0,136(sp)
   1524c:	08412483          	lw	s1,132(sp)
   15250:	08012903          	lw	s2,128(sp)
   15254:	07c12983          	lw	s3,124(sp)
   15258:	07812a03          	lw	s4,120(sp)
   1525c:	07412a83          	lw	s5,116(sp)
   15260:	07012b03          	lw	s6,112(sp)
   15264:	06c12b83          	lw	s7,108(sp)
   15268:	06812c03          	lw	s8,104(sp)
   1526c:	09010113          	addi	sp,sp,144
   15270:	00008067          	ret
   15274:	00040513          	mv	a0,s0
   15278:	d10ff0ef          	jal	ra,14788 <eisnan>
   1527c:	00050863          	beqz	a0,1528c <emul+0x98>
   15280:	00098593          	mv	a1,s3
   15284:	00040513          	mv	a0,s0
   15288:	fb9ff06f          	j	15240 <emul+0x4c>
   1528c:	00048513          	mv	a0,s1
   15290:	f3cff0ef          	jal	ra,149cc <eisinf>
   15294:	06051463          	bnez	a0,152fc <emul+0x108>
   15298:	00040513          	mv	a0,s0
   1529c:	f30ff0ef          	jal	ra,149cc <eisinf>
   152a0:	00050c63          	beqz	a0,152b8 <emul+0xc4>
   152a4:	000215b7          	lui	a1,0x21
   152a8:	74858593          	addi	a1,a1,1864 # 21748 <ezero>
   152ac:	00048513          	mv	a0,s1
   152b0:	e14ff0ef          	jal	ra,148c4 <ecmp>
   152b4:	04050e63          	beqz	a0,15310 <emul+0x11c>
   152b8:	00048513          	mv	a0,s1
   152bc:	f10ff0ef          	jal	ra,149cc <eisinf>
   152c0:	00051863          	bnez	a0,152d0 <emul+0xdc>
   152c4:	00040513          	mv	a0,s0
   152c8:	f04ff0ef          	jal	ra,149cc <eisinf>
   152cc:	04050c63          	beqz	a0,15324 <emul+0x130>
   152d0:	00048513          	mv	a0,s1
   152d4:	ce8ff0ef          	jal	ra,147bc <eisneg>
   152d8:	00050493          	mv	s1,a0
   152dc:	00040513          	mv	a0,s0
   152e0:	cdcff0ef          	jal	ra,147bc <eisneg>
   152e4:	02a48c63          	beq	s1,a0,1531c <emul+0x128>
   152e8:	ffff87b7          	lui	a5,0xffff8
   152ec:	00f99923          	sh	a5,18(s3)
   152f0:	00098513          	mv	a0,s3
   152f4:	f0cff0ef          	jal	ra,14a00 <einfin.isra.2>
   152f8:	f4dff06f          	j	15244 <emul+0x50>
   152fc:	000215b7          	lui	a1,0x21
   15300:	74858593          	addi	a1,a1,1864 # 21748 <ezero>
   15304:	00040513          	mv	a0,s0
   15308:	dbcff0ef          	jal	ra,148c4 <ecmp>
   1530c:	f80516e3          	bnez	a0,15298 <emul+0xa4>
   15310:	00098513          	mv	a0,s3
   15314:	949ff0ef          	jal	ra,14c5c <enan.constprop.12>
   15318:	f2dff06f          	j	15244 <emul+0x50>
   1531c:	00099923          	sh	zero,18(s3)
   15320:	fd1ff06f          	j	152f0 <emul+0xfc>
   15324:	00048513          	mv	a0,s1
   15328:	00c10593          	addi	a1,sp,12
   1532c:	cc8ff0ef          	jal	ra,147f4 <emovi>
   15330:	00040513          	mv	a0,s0
   15334:	02810593          	addi	a1,sp,40
   15338:	cbcff0ef          	jal	ra,147f4 <emovi>
   1533c:	00e15403          	lhu	s0,14(sp)
   15340:	02a15483          	lhu	s1,42(sp)
   15344:	0e040a63          	beqz	s0,15438 <emul+0x244>
   15348:	02a15783          	lhu	a5,42(sp)
   1534c:	00048b13          	mv	s6,s1
   15350:	10078063          	beqz	a5,15450 <emul+0x25c>
   15354:	02812783          	lw	a5,40(sp)
   15358:	034a0913          	addi	s2,s4,52
   1535c:	04ea0b93          	addi	s7,s4,78
   15360:	02fa2a23          	sw	a5,52(s4)
   15364:	038a0793          	addi	a5,s4,56
   15368:	00079023          	sh	zero,0(a5) # ffff8000 <_end+0xfffd1b20>
   1536c:	00278793          	addi	a5,a5,2
   15370:	ff779ce3          	bne	a5,s7,15368 <emul+0x174>
   15374:	00c10493          	addi	s1,sp,12
   15378:	ff810c13          	addi	s8,sp,-8
   1537c:	00000a93          	li	s5,0
   15380:	0184d503          	lhu	a0,24(s1)
   15384:	00050e63          	beqz	a0,153a0 <emul+0x1ac>
   15388:	02810593          	addi	a1,sp,40
   1538c:	04410613          	addi	a2,sp,68
   15390:	b5cff0ef          	jal	ra,146ec <m16m>
   15394:	00090593          	mv	a1,s2
   15398:	04410513          	addi	a0,sp,68
   1539c:	ae0ff0ef          	jal	ra,1467c <eaddm>
   153a0:	04ca5783          	lhu	a5,76(s4)
   153a4:	00090513          	mv	a0,s2
   153a8:	ffe48493          	addi	s1,s1,-2
   153ac:	00faeab3          	or	s5,s5,a5
   153b0:	aacff0ef          	jal	ra,1465c <eshdn6>
   153b4:	fc9c16e3          	bne	s8,s1,15380 <emul+0x18c>
   153b8:	00090593          	mv	a1,s2
   153bc:	02810793          	addi	a5,sp,40
   153c0:	0005d703          	lhu	a4,0(a1)
   153c4:	00258593          	addi	a1,a1,2
   153c8:	00278793          	addi	a5,a5,2
   153cc:	fee79f23          	sh	a4,-2(a5)
   153d0:	ff7598e3          	bne	a1,s7,153c0 <emul+0x1cc>
   153d4:	ffffc6b7          	lui	a3,0xffffc
   153d8:	01640433          	add	s0,s0,s6
   153dc:	00268693          	addi	a3,a3,2 # ffffc002 <_end+0xfffd5b22>
   153e0:	000a0793          	mv	a5,s4
   153e4:	04000713          	li	a4,64
   153e8:	00d406b3          	add	a3,s0,a3
   153ec:	00000613          	li	a2,0
   153f0:	000a8593          	mv	a1,s5
   153f4:	02810513          	addi	a0,sp,40
   153f8:	9fdff0ef          	jal	ra,14df4 <emdnorm>
   153fc:	00c15703          	lhu	a4,12(sp)
   15400:	02815783          	lhu	a5,40(sp)
   15404:	06f71a63          	bne	a4,a5,15478 <emul+0x284>
   15408:	02011423          	sh	zero,40(sp)
   1540c:	00098593          	mv	a1,s3
   15410:	02810513          	addi	a0,sp,40
   15414:	869ff0ef          	jal	ra,14c7c <emovo.isra.6>
   15418:	e2dff06f          	j	15244 <emul+0x50>
   1541c:	00278793          	addi	a5,a5,2
   15420:	0027d683          	lhu	a3,2(a5)
   15424:	00068e63          	beqz	a3,15440 <emul+0x24c>
   15428:	00c10513          	addi	a0,sp,12
   1542c:	f58ff0ef          	jal	ra,14b84 <enormlz>
   15430:	40a00433          	neg	s0,a0
   15434:	f15ff06f          	j	15348 <emul+0x154>
   15438:	00c10793          	addi	a5,sp,12
   1543c:	02010713          	addi	a4,sp,32
   15440:	fce79ee3          	bne	a5,a4,1541c <emul+0x228>
   15444:	00098513          	mv	a0,s3
   15448:	844ff0ef          	jal	ra,1448c <eclear>
   1544c:	df9ff06f          	j	15244 <emul+0x50>
   15450:	02810793          	addi	a5,sp,40
   15454:	03c10713          	addi	a4,sp,60
   15458:	fee786e3          	beq	a5,a4,15444 <emul+0x250>
   1545c:	00278793          	addi	a5,a5,2
   15460:	0027d683          	lhu	a3,2(a5)
   15464:	fe068ae3          	beqz	a3,15458 <emul+0x264>
   15468:	02810513          	addi	a0,sp,40
   1546c:	f18ff0ef          	jal	ra,14b84 <enormlz>
   15470:	40a48b33          	sub	s6,s1,a0
   15474:	ee1ff06f          	j	15354 <emul+0x160>
   15478:	fff00793          	li	a5,-1
   1547c:	02f11423          	sh	a5,40(sp)
   15480:	f8dff06f          	j	1540c <emul+0x218>

00015484 <ediv>:
   15484:	f7010113          	addi	sp,sp,-144
   15488:	08812423          	sw	s0,136(sp)
   1548c:	08912223          	sw	s1,132(sp)
   15490:	09212023          	sw	s2,128(sp)
   15494:	07512a23          	sw	s5,116(sp)
