
sieve.lm32:     file format elf32-lm32


Disassembly of section .text:

08000000 <sieve>:
 8000000:	37 9c ff fc 	addi sp,sp,-4
 8000004:	5b 8b 00 04 	sw (sp+4),r11
 8000008:	34 05 00 05 	mvi r5,5
 800000c:	34 07 00 00 	mvi r7,0
 8000010:	34 06 00 04 	mvi r6,4
 8000014:	34 02 00 02 	mvi r2,2
 8000018:	78 08 08 01 	mvhi r8,0x801
 800001c:	39 08 a0 90 	ori r8,r8,0xa090
 8000020:	34 0a 00 00 	mvi r10,0
 8000024:	78 0b 08 00 	mvhi r11,0x800
 8000028:	39 6b 10 90 	ori r11,r11,0x1090
 800002c:	78 04 08 02 	mvhi r4,0x802
 8000030:	38 84 04 90 	ori r4,r4,0x490
 8000034:	34 09 64 00 	mvi r9,25600
 8000038:	b8 40 18 00 	mv r3,r2
 800003c:	b4 48 08 00 	add r1,r2,r8
 8000040:	40 21 00 00 	lbu r1,(r1+0)
 8000044:	44 2a 00 0b 	be r1,r10,8000070 <sieve+0x70>
 8000048:	b4 e7 08 00 	add r1,r7,r7
 800004c:	b4 21 08 00 	add r1,r1,r1
 8000050:	b5 61 08 00 	add r1,r11,r1
 8000054:	58 22 00 00 	sw (r1+0),r2
 8000058:	34 e7 00 01 	addi r7,r7,1
 800005c:	b4 c8 08 00 	add r1,r6,r8
 8000060:	50 24 00 04 	bgeu r1,r4,8000070 <sieve+0x70>
 8000064:	30 20 00 00 	sb (r1+0),r0
 8000068:	b4 23 08 00 	add r1,r1,r3
 800006c:	54 81 ff fe 	bgu r4,r1,8000064 <sieve+0x64>
 8000070:	34 42 00 01 	addi r2,r2,1
 8000074:	44 49 00 04 	be r2,r9,8000084 <sieve+0x84>
 8000078:	b4 c5 30 00 	add r6,r6,r5
 800007c:	34 a5 00 02 	addi r5,r5,2
 8000080:	e3 ff ff ee 	bi 8000038 <sieve+0x38>
 8000084:	2b 8b 00 04 	lw r11,(sp+4)
 8000088:	37 9c 00 04 	addi sp,sp,4
 800008c:	c3 a0 00 00 	ret
