
workloads/vliw-sieve.riscv:     file format elf32-littleriscv


Disassembly of section .text:

00010000 <_start>:
   10000:	00012137          	lui	sp,0x12
   10004:	00000013          	nop
   10008:	00000013          	nop
   1000c:	00000013          	nop
   10010:	00000013          	nop
   10014:	00000013          	nop
   10018:	00000013          	nop
   1001c:	00000013          	nop
   10020:	8f410193          	addi	gp,sp,-1804 # 118f4 <prime>
   10024:	8f410113          	addi	sp,sp,-1804
   10028:	00000013          	nop
   1002c:	00000013          	nop
   10030:	00000013          	nop
   10034:	00000013          	nop
   10038:	00000013          	nop
   1003c:	00000013          	nop
   10040:	fe010113          	addi	sp,sp,-32
   10044:	00000013          	nop
   10048:	00000013          	nop
   1004c:	00000013          	nop
   10050:	00000013          	nop
   10054:	00000013          	nop
   10058:	00000013          	nop
   1005c:	00000013          	nop
   10060:	00000013          	nop
   10064:	00000013          	nop
   10068:	00000013          	nop
   1006c:	00000013          	nop
   10070:	00812e23          	sw	s0,28(sp)
   10074:	00000013          	nop
   10078:	02010413          	addi	s0,sp,32
   1007c:	000127b7          	lui	a5,0x12
   10080:	8f478793          	addi	a5,a5,-1804 # 118f4 <prime>
   10084:	00000013          	nop
   10088:	00000013          	nop
   1008c:	00000013          	nop
   10090:	00000013          	nop
   10094:	00000013          	nop
   10098:	00000013          	nop
   1009c:	00000013          	nop
   100a0:	00000013          	nop
   100a4:	00000013          	nop
   100a8:	00000013          	nop
   100ac:	00000013          	nop
   100b0:	fef42223          	sw	a5,-28(s0)
   100b4:	00000013          	nop
   100b8:	00200793          	li	a5,2
   100bc:	00000013          	nop
   100c0:	00000013          	nop
   100c4:	00000013          	nop
   100c8:	00000013          	nop
   100cc:	00000013          	nop
   100d0:	fef42623          	sw	a5,-20(s0)
   100d4:	00000013          	nop
   100d8:	00400793          	li	a5,4
   100dc:	00000013          	nop
   100e0:	0ff00693          	li	a3,255
   100e4:	00000013          	nop
   100e8:	fec42703          	lw	a4,-20(s0)
   100ec:	00000013          	nop
   100f0:	00000013          	nop
   100f4:	fef42423          	sw	a5,-24(s0)
   100f8:	00000013          	nop
   100fc:	00000013          	nop
   10100:	00000013          	nop
   10104:	00000013          	nop
   10108:	00000013          	nop
   1010c:	00000013          	nop
   10110:	00000013          	nop
   10114:	00000013          	nop
   10118:	00000013          	nop
   1011c:	04e6d263          	ble	a4,a3,10160 <_start+0x160>
   10120:	00000013          	nop
   10124:	00000013          	nop
   10128:	00000013          	nop
   1012c:	01c12403          	lw	s0,28(sp)
   10130:	00000013          	nop
   10134:	00000013          	nop
   10138:	00000013          	nop
   1013c:	02010113          	addi	sp,sp,32
   10140:	00008067          	ret
   10144:	00000013          	nop
   10148:	00000013          	nop
   1014c:	00000013          	nop
   10150:	00000013          	nop
   10154:	00000013          	nop
   10158:	00000013          	nop
   1015c:	00000013          	nop
   10160:	00018713          	mv	a4,gp
   10164:	00000013          	nop
   10168:	fec42783          	lw	a5,-20(s0)
   1016c:	00000013          	nop
   10170:	00000013          	nop
   10174:	00000013          	nop
   10178:	00000013          	nop
   1017c:	00000013          	nop
   10180:	00f707b3          	add	a5,a4,a5
   10184:	00000013          	nop
   10188:	00000013          	nop
   1018c:	00000013          	nop
   10190:	00000013          	nop
   10194:	00000013          	nop
   10198:	00000013          	nop
   1019c:	00000013          	nop
   101a0:	00000013          	nop
   101a4:	00000013          	nop
   101a8:	0007c783          	lbu	a5,0(a5)
   101ac:	00000013          	nop
   101b0:	00000013          	nop
   101b4:	00000013          	nop
   101b8:	00000013          	nop
   101bc:	00000013          	nop
   101c0:	00000013          	nop
   101c4:	00000013          	nop
   101c8:	00000013          	nop
   101cc:	00000013          	nop
   101d0:	00000013          	nop
   101d4:	00000013          	nop
   101d8:	00000013          	nop
   101dc:	1e079263          	bnez	a5,103c0 <_start+0x3c0>
   101e0:	00000013          	nop
   101e4:	00000013          	nop
   101e8:	fe442783          	lw	a5,-28(s0)
   101ec:	00000013          	nop
   101f0:	00000013          	nop
   101f4:	00000013          	nop
   101f8:	00000013          	nop
   101fc:	00000013          	nop
   10200:	00478713          	addi	a4,a5,4
   10204:	00000013          	nop
   10208:	00000013          	nop
   1020c:	00000013          	nop
   10210:	00000013          	nop
   10214:	00000013          	nop
   10218:	00000013          	nop
   1021c:	00000013          	nop
   10220:	00000013          	nop
   10224:	00000013          	nop
   10228:	00000013          	nop
   1022c:	fec42883          	lw	a7,-20(s0)
   10230:	fee42223          	sw	a4,-28(s0)
   10234:	00000013          	nop
   10238:	00000013          	nop
   1023c:	00000013          	nop
   10240:	00000013          	nop
   10244:	00000013          	nop
   10248:	fe842703          	lw	a4,-24(s0)
   1024c:	00000013          	nop
   10250:	0117a023          	sw	a7,0(a5)
   10254:	00000013          	nop
   10258:	00018793          	mv	a5,gp
   1025c:	00000013          	nop
   10260:	00f707b3          	add	a5,a4,a5
   10264:	00000013          	nop
   10268:	00000013          	nop
   1026c:	00000013          	nop
   10270:	00000013          	nop
   10274:	00000013          	nop
   10278:	00000013          	nop
   1027c:	00000013          	nop
   10280:	00000013          	nop
   10284:	00000013          	nop
   10288:	fe042703          	lw	a4,-32(s0)
   1028c:	00000013          	nop
   10290:	fef42023          	sw	a5,-32(s0)
   10294:	00000013          	nop
   10298:	00018793          	mv	a5,gp
   1029c:	00000013          	nop
   102a0:	00000013          	nop
   102a4:	00000013          	nop
   102a8:	00000013          	nop
   102ac:	00000013          	nop
   102b0:	00000013          	nop
   102b4:	00000013          	nop
   102b8:	00000013          	nop
   102bc:	02376263          	bltu	a4,gp,102e0 <_start+0x2e0>
   102c0:	00000013          	nop
   102c4:	00000013          	nop
   102c8:	00000013          	nop
   102cc:	00000013          	nop
   102d0:	00000013          	nop
   102d4:	00000013          	nop
   102d8:	00000013          	nop
   102dc:	0e40006f          	j	103c0 <_start+0x3c0>
   102e0:	00100713          	li	a4,1
   102e4:	00000013          	nop
   102e8:	fe042783          	lw	a5,-32(s0)
   102ec:	00000013          	nop
   102f0:	00000013          	nop
   102f4:	00000013          	nop
   102f8:	00000013          	nop
   102fc:	00000013          	nop
   10300:	00000013          	nop
   10304:	00000013          	nop
   10308:	00000013          	nop
   1030c:	00000013          	nop
   10310:	00e78023          	sb	a4,0(a5)
   10314:	00000013          	nop
   10318:	00000013          	nop
   1031c:	00000013          	nop
   10320:	00000013          	nop
   10324:	00000013          	nop
   10328:	fec42783          	lw	a5,-20(s0)
   1032c:	fe042703          	lw	a4,-32(s0)
   10330:	00000013          	nop
   10334:	00000013          	nop
   10338:	00000013          	nop
   1033c:	00000013          	nop
   10340:	00f707b3          	add	a5,a4,a5
   10344:	00000013          	nop
   10348:	00000013          	nop
   1034c:	00000013          	nop
   10350:	00000013          	nop
   10354:	00000013          	nop
   10358:	00000013          	nop
   1035c:	00000013          	nop
   10360:	00000013          	nop
   10364:	00000013          	nop
   10368:	00000013          	nop
   1036c:	00000013          	nop
   10370:	fef42023          	sw	a5,-32(s0)
   10374:	00000013          	nop
   10378:	00000013          	nop
   1037c:	00000013          	nop
   10380:	00018793          	mv	a5,gp
   10384:	00000013          	nop
   10388:	fe042703          	lw	a4,-32(s0)
   1038c:	00000013          	nop
   10390:	00000013          	nop
   10394:	00000013          	nop
   10398:	00000013          	nop
   1039c:	00000013          	nop
   103a0:	00000013          	nop
   103a4:	00000013          	nop
   103a8:	00000013          	nop
   103ac:	00000013          	nop
   103b0:	00000013          	nop
   103b4:	00000013          	nop
   103b8:	00000013          	nop
   103bc:	f2f762e3          	bltu	a4,a5,102e0 <_start+0x2e0>
   103c0:	0ff00513          	li	a0,255
   103c4:	00000013          	nop
   103c8:	fec42783          	lw	a5,-20(s0)
   103cc:	00000013          	nop
   103d0:	00000013          	nop
   103d4:	00000013          	nop
   103d8:	00000013          	nop
   103dc:	00000013          	nop
   103e0:	00178813          	addi	a6,a5,1
   103e4:	00179793          	slli	a5,a5,0x1
   103e8:	00000013          	nop
   103ec:	00000013          	nop
   103f0:	00000013          	nop
   103f4:	00000013          	nop
   103f8:	00000013          	nop
   103fc:	00000013          	nop
   10400:	00178793          	addi	a5,a5,1
   10404:	00000013          	nop
   10408:	fe842703          	lw	a4,-24(s0)
   1040c:	00000013          	nop
   10410:	ff042623          	sw	a6,-20(s0)
   10414:	00000013          	nop
   10418:	00000013          	nop
   1041c:	00000013          	nop
   10420:	00f707b3          	add	a5,a4,a5
   10424:	00000013          	nop
   10428:	00000013          	nop
   1042c:	00000013          	nop
   10430:	00000013          	nop
   10434:	00000013          	nop
   10438:	00000013          	nop
   1043c:	00000013          	nop
   10440:	00000013          	nop
   10444:	00000013          	nop
   10448:	00000013          	nop
   1044c:	00000013          	nop
   10450:	fef42423          	sw	a5,-24(s0)
   10454:	00000013          	nop
   10458:	00000013          	nop
   1045c:	d10552e3          	ble	a6,a0,10160 <_start+0x160>
   10460:	00000013          	nop
   10464:	00000013          	nop
   10468:	01c12403          	lw	s0,28(sp)
   1046c:	00000013          	nop
   10470:	00000013          	nop
   10474:	00000013          	nop
   10478:	02010113          	addi	sp,sp,32
   1047c:	00008067          	ret
   10480:	0ff00793          	li	a5,255
   10484:	00000013          	nop
   10488:	fec42703          	lw	a4,-20(s0)
   1048c:	00000013          	nop
   10490:	00000013          	nop
   10494:	00000013          	nop
   10498:	00000013          	nop
   1049c:	00000013          	nop
   104a0:	00000013          	nop
   104a4:	00000013          	nop
   104a8:	00000013          	nop
   104ac:	00000013          	nop
   104b0:	00000013          	nop
   104b4:	00000013          	nop
   104b8:	cae7d4e3          	ble	a4,a5,10160 <_start+0x160>
   104bc:	00000013          	nop
   104c0:	00000013          	nop
   104c4:	00000013          	nop
   104c8:	01c12403          	lw	s0,28(sp)
   104cc:	00000013          	nop
   104d0:	00000013          	nop
   104d4:	00000013          	nop
   104d8:	02010113          	addi	sp,sp,32
   104dc:	00008067          	ret
	...
